
./sequential.o:     file format elf64-littleaarch64


Disassembly of section .text:

0000000000000000 <_ZL37__nv_save_fatbinhandle_for_managed_rtPPv>:
   0:	d10043ff 	sub	sp, sp, #0x10
   4:	f90007e0 	str	x0, [sp, #8]
   8:	90000000 	adrp	x0, 0 <_ZL37__nv_save_fatbinhandle_for_managed_rtPPv>
   c:	91000000 	add	x0, x0, #0x0
  10:	f94007e1 	ldr	x1, [sp, #8]
  14:	f9000001 	str	x1, [x0]
  18:	d503201f 	nop
  1c:	910043ff 	add	sp, sp, #0x10
  20:	d65f03c0 	ret

0000000000000024 <_ZN15SequentialModelC1EP9OptimizerP12LossFunction>:
  24:	a9bd7bfd 	stp	x29, x30, [sp, #-48]!
  28:	910003fd 	mov	x29, sp
  2c:	f90017e0 	str	x0, [sp, #40]
  30:	f90013e1 	str	x1, [sp, #32]
  34:	f9000fe2 	str	x2, [sp, #24]
  38:	f94017e0 	ldr	x0, [sp, #40]
  3c:	91004000 	add	x0, x0, #0x10
  40:	94000000 	bl	0 <_ZL37__nv_save_fatbinhandle_for_managed_rtPPv>
  44:	f94017e0 	ldr	x0, [sp, #40]
  48:	f94013e1 	ldr	x1, [sp, #32]
  4c:	f9000001 	str	x1, [x0]
  50:	f94017e0 	ldr	x0, [sp, #40]
  54:	f9400fe1 	ldr	x1, [sp, #24]
  58:	f9000401 	str	x1, [x0, #8]
  5c:	f94017e0 	ldr	x0, [sp, #40]
  60:	f900141f 	str	xzr, [x0, #40]
  64:	d503201f 	nop
  68:	a8c37bfd 	ldp	x29, x30, [sp], #48
  6c:	d65f03c0 	ret

0000000000000070 <_ZN15SequentialModel8addLayerEP5Layer>:
  70:	a9be7bfd 	stp	x29, x30, [sp, #-32]!
  74:	910003fd 	mov	x29, sp
  78:	f9000fe0 	str	x0, [sp, #24]
  7c:	f9000be1 	str	x1, [sp, #16]
  80:	f9400fe0 	ldr	x0, [sp, #24]
  84:	91004000 	add	x0, x0, #0x10
  88:	910043e1 	add	x1, sp, #0x10
  8c:	94000000 	bl	0 <_ZL37__nv_save_fatbinhandle_for_managed_rtPPv>
  90:	d503201f 	nop
  94:	a8c27bfd 	ldp	x29, x30, [sp], #32
  98:	d65f03c0 	ret

000000000000009c <_ZN15SequentialModel7forwardEP8Tensor2D>:
  9c:	a9bc7bfd 	stp	x29, x30, [sp, #-64]!
  a0:	910003fd 	mov	x29, sp
  a4:	f9000fe0 	str	x0, [sp, #24]
  a8:	f9000be1 	str	x1, [sp, #16]
  ac:	f9400be0 	ldr	x0, [sp, #16]
  b0:	f9001fe0 	str	x0, [sp, #56]
  b4:	f9400fe0 	ldr	x0, [sp, #24]
  b8:	91004000 	add	x0, x0, #0x10
  bc:	94000000 	bl	0 <_ZL37__nv_save_fatbinhandle_for_managed_rtPPv>
  c0:	f90017e0 	str	x0, [sp, #40]
  c4:	f9400fe0 	ldr	x0, [sp, #24]
  c8:	91004000 	add	x0, x0, #0x10
  cc:	94000000 	bl	0 <_ZL37__nv_save_fatbinhandle_for_managed_rtPPv>
  d0:	f9001be0 	str	x0, [sp, #48]
  d4:	9100c3e1 	add	x1, sp, #0x30
  d8:	9100a3e0 	add	x0, sp, #0x28
  dc:	94000000 	bl	0 <_ZL37__nv_save_fatbinhandle_for_managed_rtPPv>
  e0:	12001c00 	and	w0, w0, #0xff
  e4:	7100001f 	cmp	w0, #0x0
  e8:	540001a0 	b.eq	11c <_ZN15SequentialModel7forwardEP8Tensor2D+0x80>  // b.none
  ec:	9100a3e0 	add	x0, sp, #0x28
  f0:	94000000 	bl	0 <_ZL37__nv_save_fatbinhandle_for_managed_rtPPv>
  f4:	f9400000 	ldr	x0, [x0]
  f8:	f9400001 	ldr	x1, [x0]
  fc:	f9400022 	ldr	x2, [x1]
 100:	f9401fe1 	ldr	x1, [sp, #56]
 104:	d63f0040 	blr	x2
 108:	f9001fe0 	str	x0, [sp, #56]
 10c:	9100a3e0 	add	x0, sp, #0x28
 110:	52800001 	mov	w1, #0x0                   	// #0
 114:	94000000 	bl	0 <_ZL37__nv_save_fatbinhandle_for_managed_rtPPv>
 118:	17ffffeb 	b	c4 <_ZN15SequentialModel7forwardEP8Tensor2D+0x28>
 11c:	f9401fe0 	ldr	x0, [sp, #56]
 120:	a8c47bfd 	ldp	x29, x30, [sp], #64
 124:	d65f03c0 	ret

0000000000000128 <_ZN15SequentialModel8backwardEP8Tensor2DS1_>:
 128:	a9b87bfd 	stp	x29, x30, [sp, #-128]!
 12c:	910003fd 	mov	x29, sp
 130:	a90153f3 	stp	x19, x20, [sp, #16]
 134:	f90013f5 	str	x21, [sp, #32]
 138:	f90027e0 	str	x0, [sp, #72]
 13c:	f90023e1 	str	x1, [sp, #64]
 140:	f9001fe2 	str	x2, [sp, #56]
 144:	f94027e0 	ldr	x0, [sp, #72]
 148:	f9401400 	ldr	x0, [x0, #40]
 14c:	f100001f 	cmp	x0, #0x0
 150:	54000241 	b.ne	198 <_ZN15SequentialModel8backwardEP8Tensor2DS1_+0x70>  // b.any
 154:	52800001 	mov	w1, #0x0                   	// #0
 158:	f94023e0 	ldr	x0, [sp, #64]
 15c:	94000000 	bl	0 <_ZN8Tensor2D7getSizeE12Tensor2DAxis>
 160:	2a0003f4 	mov	w20, w0
 164:	52800021 	mov	w1, #0x1                   	// #1
 168:	f94023e0 	ldr	x0, [sp, #64]
 16c:	94000000 	bl	0 <_ZN8Tensor2D7getSizeE12Tensor2DAxis>
 170:	2a0003f5 	mov	w21, w0
 174:	d2800200 	mov	x0, #0x10                  	// #16
 178:	94000000 	bl	0 <_Znwm>
 17c:	aa0003f3 	mov	x19, x0
 180:	2a1503e2 	mov	w2, w21
 184:	2a1403e1 	mov	w1, w20
 188:	aa1303e0 	mov	x0, x19
 18c:	94000000 	bl	0 <_ZN8Tensor2DC1Eii>
 190:	f94027e0 	ldr	x0, [sp, #72]
 194:	f9001413 	str	x19, [x0, #40]
 198:	f94027e0 	ldr	x0, [sp, #72]
 19c:	f9400405 	ldr	x5, [x0, #8]
 1a0:	f94027e0 	ldr	x0, [sp, #72]
 1a4:	f9400400 	ldr	x0, [x0, #8]
 1a8:	f9400000 	ldr	x0, [x0]
 1ac:	f9400004 	ldr	x4, [x0]
 1b0:	f94027e0 	ldr	x0, [sp, #72]
 1b4:	f9401400 	ldr	x0, [x0, #40]
 1b8:	aa0003e3 	mov	x3, x0
 1bc:	f9401fe2 	ldr	x2, [sp, #56]
 1c0:	f94023e1 	ldr	x1, [sp, #64]
 1c4:	aa0503e0 	mov	x0, x5
 1c8:	d63f0080 	blr	x4
 1cc:	f94027e0 	ldr	x0, [sp, #72]
 1d0:	f9401400 	ldr	x0, [x0, #40]
 1d4:	f9003fe0 	str	x0, [sp, #120]
 1d8:	f94027e0 	ldr	x0, [sp, #72]
 1dc:	91004000 	add	x0, x0, #0x10
 1e0:	910163e1 	add	x1, sp, #0x58
 1e4:	aa0103e8 	mov	x8, x1
 1e8:	94000000 	bl	0 <_ZL37__nv_save_fatbinhandle_for_managed_rtPPv>
 1ec:	f94027e0 	ldr	x0, [sp, #72]
 1f0:	91004000 	add	x0, x0, #0x10
 1f4:	910183e1 	add	x1, sp, #0x60
 1f8:	aa0103e8 	mov	x8, x1
 1fc:	94000000 	bl	0 <_ZL37__nv_save_fatbinhandle_for_managed_rtPPv>
 200:	910183e1 	add	x1, sp, #0x60
 204:	910163e0 	add	x0, sp, #0x58
 208:	94000000 	bl	0 <_ZL37__nv_save_fatbinhandle_for_managed_rtPPv>
 20c:	12001c00 	and	w0, w0, #0xff
 210:	7100001f 	cmp	w0, #0x0
 214:	54000200 	b.eq	254 <_ZN15SequentialModel8backwardEP8Tensor2DS1_+0x12c>  // b.none
 218:	910163e0 	add	x0, sp, #0x58
 21c:	94000000 	bl	0 <_ZL37__nv_save_fatbinhandle_for_managed_rtPPv>
 220:	f9400000 	ldr	x0, [x0]
 224:	f9400001 	ldr	x1, [x0]
 228:	91002021 	add	x1, x1, #0x8
 22c:	f9400022 	ldr	x2, [x1]
 230:	f9403fe1 	ldr	x1, [sp, #120]
 234:	d63f0040 	blr	x2
 238:	f9003fe0 	str	x0, [sp, #120]
 23c:	910163e0 	add	x0, sp, #0x58
 240:	9101a3e1 	add	x1, sp, #0x68
 244:	aa0103e8 	mov	x8, x1
 248:	52800001 	mov	w1, #0x0                   	// #0
 24c:	94000000 	bl	0 <_ZL37__nv_save_fatbinhandle_for_managed_rtPPv>
 250:	17ffffe7 	b	1ec <_ZN15SequentialModel8backwardEP8Tensor2DS1_+0xc4>
 254:	f94027e0 	ldr	x0, [sp, #72]
 258:	91004000 	add	x0, x0, #0x10
 25c:	94000000 	bl	0 <_ZL37__nv_save_fatbinhandle_for_managed_rtPPv>
 260:	f9002be0 	str	x0, [sp, #80]
 264:	f94027e0 	ldr	x0, [sp, #72]
 268:	91004000 	add	x0, x0, #0x10
 26c:	94000000 	bl	0 <_ZL37__nv_save_fatbinhandle_for_managed_rtPPv>
 270:	f9003be0 	str	x0, [sp, #112]
 274:	9101c3e1 	add	x1, sp, #0x70
 278:	910143e0 	add	x0, sp, #0x50
 27c:	94000000 	bl	0 <_ZL37__nv_save_fatbinhandle_for_managed_rtPPv>
 280:	12001c00 	and	w0, w0, #0xff
 284:	7100001f 	cmp	w0, #0x0
 288:	540002e0 	b.eq	2e4 <_ZN15SequentialModel8backwardEP8Tensor2DS1_+0x1bc>  // b.none
 28c:	f94027e0 	ldr	x0, [sp, #72]
 290:	f9400014 	ldr	x20, [x0]
 294:	f94027e0 	ldr	x0, [sp, #72]
 298:	f9400000 	ldr	x0, [x0]
 29c:	f9400000 	ldr	x0, [x0]
 2a0:	f9400013 	ldr	x19, [x0]
 2a4:	910143e0 	add	x0, sp, #0x50
 2a8:	94000000 	bl	0 <_ZL37__nv_save_fatbinhandle_for_managed_rtPPv>
 2ac:	f9400000 	ldr	x0, [x0]
 2b0:	aa0003e1 	mov	x1, x0
 2b4:	aa1403e0 	mov	x0, x20
 2b8:	d63f0260 	blr	x19
 2bc:	910143e0 	add	x0, sp, #0x50
 2c0:	52800001 	mov	w1, #0x0                   	// #0
 2c4:	94000000 	bl	0 <_ZL37__nv_save_fatbinhandle_for_managed_rtPPv>
 2c8:	17ffffe7 	b	264 <_ZN15SequentialModel8backwardEP8Tensor2DS1_+0x13c>
 2cc:	aa0003f4 	mov	x20, x0
 2d0:	d2800201 	mov	x1, #0x10                  	// #16
 2d4:	aa1303e0 	mov	x0, x19
 2d8:	94000000 	bl	0 <_ZdlPvm>
 2dc:	aa1403e0 	mov	x0, x20
 2e0:	94000000 	bl	0 <_Unwind_Resume>
 2e4:	d503201f 	nop
 2e8:	a94153f3 	ldp	x19, x20, [sp, #16]
 2ec:	f94013f5 	ldr	x21, [sp, #32]
 2f0:	a8c87bfd 	ldp	x29, x30, [sp], #128
 2f4:	d65f03c0 	ret

00000000000002f8 <_ZL22____nv_dummy_param_refPv>:
 2f8:	d10043ff 	sub	sp, sp, #0x10
 2fc:	f90007e0 	str	x0, [sp, #8]
 300:	90000000 	adrp	x0, 0 <_ZL37__nv_save_fatbinhandle_for_managed_rtPPv>
 304:	91000000 	add	x0, x0, #0x0
 308:	f94007e1 	ldr	x1, [sp, #8]
 30c:	f9000001 	str	x1, [x0]
 310:	d503201f 	nop
 314:	910043ff 	add	sp, sp, #0x10
 318:	d65f03c0 	ret

000000000000031c <_ZL26__cudaUnregisterBinaryUtilv>:
 31c:	a9bf7bfd 	stp	x29, x30, [sp, #-16]!
 320:	910003fd 	mov	x29, sp
 324:	90000000 	adrp	x0, 0 <_ZL37__nv_save_fatbinhandle_for_managed_rtPPv>
 328:	91000000 	add	x0, x0, #0x0
 32c:	97fffff3 	bl	2f8 <_ZL22____nv_dummy_param_refPv>
 330:	90000000 	adrp	x0, 0 <_ZL37__nv_save_fatbinhandle_for_managed_rtPPv>
 334:	91000000 	add	x0, x0, #0x0
 338:	f9400000 	ldr	x0, [x0]
 33c:	94000000 	bl	0 <__cudaUnregisterFatBinary>
 340:	d503201f 	nop
 344:	a8c17bfd 	ldp	x29, x30, [sp], #16
 348:	d65f03c0 	ret

000000000000034c <_ZL32__nv_init_managed_rt_with_modulePPv>:
 34c:	a9be7bfd 	stp	x29, x30, [sp, #-32]!
 350:	910003fd 	mov	x29, sp
 354:	f9000fe0 	str	x0, [sp, #24]
 358:	f9400fe0 	ldr	x0, [sp, #24]
 35c:	94000000 	bl	0 <__cudaInitModule>
 360:	12001c00 	and	w0, w0, #0xff
 364:	a8c27bfd 	ldp	x29, x30, [sp], #32
 368:	d65f03c0 	ret

000000000000036c <_ZL31__nv_cudaEntityRegisterCallbackPPv>:
 36c:	a9be7bfd 	stp	x29, x30, [sp, #-32]!
 370:	910003fd 	mov	x29, sp
 374:	f9000fe0 	str	x0, [sp, #24]
 378:	90000000 	adrp	x0, 0 <_ZL37__nv_save_fatbinhandle_for_managed_rtPPv>
 37c:	91000000 	add	x0, x0, #0x0
 380:	f9400fe1 	ldr	x1, [sp, #24]
 384:	f9000001 	str	x1, [x0]
 388:	f9400fe0 	ldr	x0, [sp, #24]
 38c:	97ffff1d 	bl	0 <_ZL37__nv_save_fatbinhandle_for_managed_rtPPv>
 390:	d503201f 	nop
 394:	a8c27bfd 	ldp	x29, x30, [sp], #32
 398:	d65f03c0 	ret

000000000000039c <_ZL24__sti____cudaRegisterAllv>:
 39c:	a9be7bfd 	stp	x29, x30, [sp, #-32]!
 3a0:	910003fd 	mov	x29, sp
 3a4:	90000000 	adrp	x0, 0 <_ZL37__nv_save_fatbinhandle_for_managed_rtPPv>
 3a8:	91000000 	add	x0, x0, #0x0
 3ac:	94000000 	bl	0 <__cudaRegisterFatBinary>
 3b0:	aa0003e1 	mov	x1, x0
 3b4:	90000000 	adrp	x0, 0 <_ZL37__nv_save_fatbinhandle_for_managed_rtPPv>
 3b8:	91000000 	add	x0, x0, #0x0
 3bc:	f9000001 	str	x1, [x0]
 3c0:	90000000 	adrp	x0, 0 <_ZL37__nv_save_fatbinhandle_for_managed_rtPPv>
 3c4:	91000000 	add	x0, x0, #0x0
 3c8:	f9000fe0 	str	x0, [sp, #24]
 3cc:	90000000 	adrp	x0, 0 <_ZL37__nv_save_fatbinhandle_for_managed_rtPPv>
 3d0:	91000000 	add	x0, x0, #0x0
 3d4:	f9400000 	ldr	x0, [x0]
 3d8:	f9400fe1 	ldr	x1, [sp, #24]
 3dc:	d63f0020 	blr	x1
 3e0:	90000000 	adrp	x0, 0 <_ZL37__nv_save_fatbinhandle_for_managed_rtPPv>
 3e4:	91000000 	add	x0, x0, #0x0
 3e8:	f9400000 	ldr	x0, [x0]
 3ec:	94000000 	bl	0 <__cudaRegisterFatBinaryEnd>
 3f0:	90000000 	adrp	x0, 0 <_ZL37__nv_save_fatbinhandle_for_managed_rtPPv>
 3f4:	91000000 	add	x0, x0, #0x0
 3f8:	94000000 	bl	0 <atexit>
 3fc:	d503201f 	nop
 400:	a8c27bfd 	ldp	x29, x30, [sp], #32
 404:	d65f03c0 	ret

Disassembly of section .text._ZnwmPv:

0000000000000000 <_ZnwmPv>:
   0:	d10043ff 	sub	sp, sp, #0x10
   4:	f90007e0 	str	x0, [sp, #8]
   8:	f90003e1 	str	x1, [sp]
   c:	f94003e0 	ldr	x0, [sp]
  10:	910043ff 	add	sp, sp, #0x10
  14:	d65f03c0 	ret

Disassembly of section .text._ZNSt12_Vector_baseIP5LayerSaIS1_EEC2Ev:

0000000000000000 <_ZNSt12_Vector_baseIP5LayerSaIS1_EEC1Ev>:
   0:	a9be7bfd 	stp	x29, x30, [sp, #-32]!
   4:	910003fd 	mov	x29, sp
   8:	f9000fe0 	str	x0, [sp, #24]
   c:	f9400fe0 	ldr	x0, [sp, #24]
  10:	94000000 	bl	0 <_ZNSt12_Vector_baseIP5LayerSaIS1_EEC1Ev>
  14:	d503201f 	nop
  18:	a8c27bfd 	ldp	x29, x30, [sp], #32
  1c:	d65f03c0 	ret

Disassembly of section .text._ZNSt6vectorIP5LayerSaIS1_EEC2Ev:

0000000000000000 <_ZNSt6vectorIP5LayerSaIS1_EEC1Ev>:
   0:	a9be7bfd 	stp	x29, x30, [sp, #-32]!
   4:	910003fd 	mov	x29, sp
   8:	f9000fe0 	str	x0, [sp, #24]
   c:	f9400fe0 	ldr	x0, [sp, #24]
  10:	94000000 	bl	0 <_ZNSt6vectorIP5LayerSaIS1_EEC1Ev>
  14:	d503201f 	nop
  18:	a8c27bfd 	ldp	x29, x30, [sp], #32
  1c:	d65f03c0 	ret

Disassembly of section .text._ZNSt12_Vector_baseIP5LayerSaIS1_EE12_Vector_implC2Ev:

0000000000000000 <_ZNSt12_Vector_baseIP5LayerSaIS1_EE12_Vector_implC1Ev>:
   0:	a9be7bfd 	stp	x29, x30, [sp, #-32]!
   4:	910003fd 	mov	x29, sp
   8:	f9000fe0 	str	x0, [sp, #24]
   c:	f9400fe0 	ldr	x0, [sp, #24]
  10:	94000000 	bl	0 <_ZNSt12_Vector_baseIP5LayerSaIS1_EE12_Vector_implC1Ev>
  14:	f9400fe0 	ldr	x0, [sp, #24]
  18:	94000000 	bl	0 <_ZNSt12_Vector_baseIP5LayerSaIS1_EE12_Vector_implC1Ev>
  1c:	d503201f 	nop
  20:	a8c27bfd 	ldp	x29, x30, [sp], #32
  24:	d65f03c0 	ret

Disassembly of section .text._ZNSt6vectorIP5LayerSaIS1_EE9push_backERKS1_:

0000000000000000 <_ZNSt6vectorIP5LayerSaIS1_EE9push_backERKS1_>:
   0:	a9be7bfd 	stp	x29, x30, [sp, #-32]!
   4:	910003fd 	mov	x29, sp
   8:	f9000fe0 	str	x0, [sp, #24]
   c:	f9000be1 	str	x1, [sp, #16]
  10:	f9400fe0 	ldr	x0, [sp, #24]
  14:	f9400401 	ldr	x1, [x0, #8]
  18:	f9400fe0 	ldr	x0, [sp, #24]
  1c:	f9400800 	ldr	x0, [x0, #16]
  20:	eb00003f 	cmp	x1, x0
  24:	540001c0 	b.eq	5c <_ZNSt6vectorIP5LayerSaIS1_EE9push_backERKS1_+0x5c>  // b.none
  28:	f9400fe3 	ldr	x3, [sp, #24]
  2c:	f9400fe0 	ldr	x0, [sp, #24]
  30:	f9400400 	ldr	x0, [x0, #8]
  34:	f9400be2 	ldr	x2, [sp, #16]
  38:	aa0003e1 	mov	x1, x0
  3c:	aa0303e0 	mov	x0, x3
  40:	94000000 	bl	0 <_ZNSt6vectorIP5LayerSaIS1_EE9push_backERKS1_>
  44:	f9400fe0 	ldr	x0, [sp, #24]
  48:	f9400400 	ldr	x0, [x0, #8]
  4c:	91002001 	add	x1, x0, #0x8
  50:	f9400fe0 	ldr	x0, [sp, #24]
  54:	f9000401 	str	x1, [x0, #8]
  58:	14000007 	b	74 <_ZNSt6vectorIP5LayerSaIS1_EE9push_backERKS1_+0x74>
  5c:	f9400fe0 	ldr	x0, [sp, #24]
  60:	94000000 	bl	0 <_ZNSt6vectorIP5LayerSaIS1_EE9push_backERKS1_>
  64:	f9400be2 	ldr	x2, [sp, #16]
  68:	aa0003e1 	mov	x1, x0
  6c:	f9400fe0 	ldr	x0, [sp, #24]
  70:	94000000 	bl	0 <_ZNSt6vectorIP5LayerSaIS1_EE9push_backERKS1_>
  74:	d503201f 	nop
  78:	a8c27bfd 	ldp	x29, x30, [sp], #32
  7c:	d65f03c0 	ret

Disassembly of section .text._ZNSt6vectorIP5LayerSaIS1_EE5beginEv:

0000000000000000 <_ZNSt6vectorIP5LayerSaIS1_EE5beginEv>:
   0:	a9bd7bfd 	stp	x29, x30, [sp, #-48]!
   4:	910003fd 	mov	x29, sp
   8:	f9000fe0 	str	x0, [sp, #24]
   c:	f9400fe1 	ldr	x1, [sp, #24]
  10:	9100a3e0 	add	x0, sp, #0x28
  14:	94000000 	bl	0 <_ZNSt6vectorIP5LayerSaIS1_EE5beginEv>
  18:	f94017e0 	ldr	x0, [sp, #40]
  1c:	a8c37bfd 	ldp	x29, x30, [sp], #48
  20:	d65f03c0 	ret

Disassembly of section .text._ZNSt6vectorIP5LayerSaIS1_EE3endEv:

0000000000000000 <_ZNSt6vectorIP5LayerSaIS1_EE3endEv>:
   0:	a9bd7bfd 	stp	x29, x30, [sp, #-48]!
   4:	910003fd 	mov	x29, sp
   8:	f9000fe0 	str	x0, [sp, #24]
   c:	f9400fe0 	ldr	x0, [sp, #24]
  10:	91002001 	add	x1, x0, #0x8
  14:	9100a3e0 	add	x0, sp, #0x28
  18:	94000000 	bl	0 <_ZNSt6vectorIP5LayerSaIS1_EE3endEv>
  1c:	f94017e0 	ldr	x0, [sp, #40]
  20:	a8c37bfd 	ldp	x29, x30, [sp], #48
  24:	d65f03c0 	ret

Disassembly of section .text._ZN9__gnu_cxxneIPP5LayerSt6vectorIS2_SaIS2_EEEEbRKNS_17__normal_iteratorIT_T0_EESC_:

0000000000000000 <_ZN9__gnu_cxxneIPP5LayerSt6vectorIS2_SaIS2_EEEEbRKNS_17__normal_iteratorIT_T0_EESC_>:
   0:	a9bd7bfd 	stp	x29, x30, [sp, #-48]!
   4:	910003fd 	mov	x29, sp
   8:	f9000bf3 	str	x19, [sp, #16]
   c:	f90017e0 	str	x0, [sp, #40]
  10:	f90013e1 	str	x1, [sp, #32]
  14:	f94017e0 	ldr	x0, [sp, #40]
  18:	94000000 	bl	0 <_ZN9__gnu_cxxneIPP5LayerSt6vectorIS2_SaIS2_EEEEbRKNS_17__normal_iteratorIT_T0_EESC_>
  1c:	f9400013 	ldr	x19, [x0]
  20:	f94013e0 	ldr	x0, [sp, #32]
  24:	94000000 	bl	0 <_ZN9__gnu_cxxneIPP5LayerSt6vectorIS2_SaIS2_EEEEbRKNS_17__normal_iteratorIT_T0_EESC_>
  28:	f9400000 	ldr	x0, [x0]
  2c:	eb00027f 	cmp	x19, x0
  30:	1a9f07e0 	cset	w0, ne  // ne = any
  34:	12001c00 	and	w0, w0, #0xff
  38:	f9400bf3 	ldr	x19, [sp, #16]
  3c:	a8c37bfd 	ldp	x29, x30, [sp], #48
  40:	d65f03c0 	ret

Disassembly of section .text._ZN9__gnu_cxx17__normal_iteratorIPP5LayerSt6vectorIS2_SaIS2_EEEppEi:

0000000000000000 <_ZN9__gnu_cxx17__normal_iteratorIPP5LayerSt6vectorIS2_SaIS2_EEEppEi>:
   0:	a9bd7bfd 	stp	x29, x30, [sp, #-48]!
   4:	910003fd 	mov	x29, sp
   8:	f9000fe0 	str	x0, [sp, #24]
   c:	b90017e1 	str	w1, [sp, #20]
  10:	f9400fe0 	ldr	x0, [sp, #24]
  14:	f9400000 	ldr	x0, [x0]
  18:	91002002 	add	x2, x0, #0x8
  1c:	f9400fe1 	ldr	x1, [sp, #24]
  20:	f9000022 	str	x2, [x1]
  24:	f90017e0 	str	x0, [sp, #40]
  28:	9100a3e1 	add	x1, sp, #0x28
  2c:	910083e0 	add	x0, sp, #0x20
  30:	94000000 	bl	0 <_ZN9__gnu_cxx17__normal_iteratorIPP5LayerSt6vectorIS2_SaIS2_EEEppEi>
  34:	f94013e0 	ldr	x0, [sp, #32]
  38:	a8c37bfd 	ldp	x29, x30, [sp], #48
  3c:	d65f03c0 	ret

Disassembly of section .text._ZNK9__gnu_cxx17__normal_iteratorIPP5LayerSt6vectorIS2_SaIS2_EEEdeEv:

0000000000000000 <_ZNK9__gnu_cxx17__normal_iteratorIPP5LayerSt6vectorIS2_SaIS2_EEEdeEv>:
   0:	d10043ff 	sub	sp, sp, #0x10
   4:	f90007e0 	str	x0, [sp, #8]
   8:	f94007e0 	ldr	x0, [sp, #8]
   c:	f9400000 	ldr	x0, [x0]
  10:	910043ff 	add	sp, sp, #0x10
  14:	d65f03c0 	ret

Disassembly of section .text._ZNSt6vectorIP5LayerSaIS1_EE6rbeginEv:

0000000000000000 <_ZNSt6vectorIP5LayerSaIS1_EE6rbeginEv>:
   0:	a9bd7bfd 	stp	x29, x30, [sp, #-48]!
   4:	910003fd 	mov	x29, sp
   8:	f9000bf3 	str	x19, [sp, #16]
   c:	aa0803f3 	mov	x19, x8
  10:	f90017e0 	str	x0, [sp, #40]
  14:	f94017e0 	ldr	x0, [sp, #40]
  18:	94000000 	bl	0 <_ZNSt6vectorIP5LayerSaIS1_EE6rbeginEv>
  1c:	aa0003e1 	mov	x1, x0
  20:	aa1303e0 	mov	x0, x19
  24:	94000000 	bl	0 <_ZNSt6vectorIP5LayerSaIS1_EE6rbeginEv>
  28:	aa1303e0 	mov	x0, x19
  2c:	f9400bf3 	ldr	x19, [sp, #16]
  30:	a8c37bfd 	ldp	x29, x30, [sp], #48
  34:	d65f03c0 	ret

Disassembly of section .text._ZNSt16reverse_iteratorIN9__gnu_cxx17__normal_iteratorIPP5LayerSt6vectorIS3_SaIS3_EEEEEC2ERKS9_:

0000000000000000 <_ZNSt16reverse_iteratorIN9__gnu_cxx17__normal_iteratorIPP5LayerSt6vectorIS3_SaIS3_EEEEEC1ERKS9_>:
   0:	d10043ff 	sub	sp, sp, #0x10
   4:	f90007e0 	str	x0, [sp, #8]
   8:	f90003e1 	str	x1, [sp]
   c:	f94007e0 	ldr	x0, [sp, #8]
  10:	f94003e1 	ldr	x1, [sp]
  14:	f9400021 	ldr	x1, [x1]
  18:	f9000001 	str	x1, [x0]
  1c:	d503201f 	nop
  20:	910043ff 	add	sp, sp, #0x10
  24:	d65f03c0 	ret

Disassembly of section .text._ZNSt6vectorIP5LayerSaIS1_EE4rendEv:

0000000000000000 <_ZNSt6vectorIP5LayerSaIS1_EE4rendEv>:
   0:	a9bd7bfd 	stp	x29, x30, [sp, #-48]!
   4:	910003fd 	mov	x29, sp
   8:	f9000bf3 	str	x19, [sp, #16]
   c:	aa0803f3 	mov	x19, x8
  10:	f90017e0 	str	x0, [sp, #40]
  14:	f94017e0 	ldr	x0, [sp, #40]
  18:	94000000 	bl	0 <_ZNSt6vectorIP5LayerSaIS1_EE4rendEv>
  1c:	aa0003e1 	mov	x1, x0
  20:	aa1303e0 	mov	x0, x19
  24:	94000000 	bl	0 <_ZNSt6vectorIP5LayerSaIS1_EE4rendEv>
  28:	aa1303e0 	mov	x0, x19
  2c:	f9400bf3 	ldr	x19, [sp, #16]
  30:	a8c37bfd 	ldp	x29, x30, [sp], #48
  34:	d65f03c0 	ret

Disassembly of section .text._ZStneIN9__gnu_cxx17__normal_iteratorIPP5LayerSt6vectorIS3_SaIS3_EEEEEbRKSt16reverse_iteratorIT_ESD_:

0000000000000000 <_ZStneIN9__gnu_cxx17__normal_iteratorIPP5LayerSt6vectorIS3_SaIS3_EEEEEbRKSt16reverse_iteratorIT_ESD_>:
   0:	a9be7bfd 	stp	x29, x30, [sp, #-32]!
   4:	910003fd 	mov	x29, sp
   8:	f9000fe0 	str	x0, [sp, #24]
   c:	f9000be1 	str	x1, [sp, #16]
  10:	f9400be1 	ldr	x1, [sp, #16]
  14:	f9400fe0 	ldr	x0, [sp, #24]
  18:	94000000 	bl	0 <_ZStneIN9__gnu_cxx17__normal_iteratorIPP5LayerSt6vectorIS3_SaIS3_EEEEEbRKSt16reverse_iteratorIT_ESD_>
  1c:	12001c00 	and	w0, w0, #0xff
  20:	52000000 	eor	w0, w0, #0x1
  24:	12001c00 	and	w0, w0, #0xff
  28:	a8c27bfd 	ldp	x29, x30, [sp], #32
  2c:	d65f03c0 	ret

Disassembly of section .text._ZNSt16reverse_iteratorIN9__gnu_cxx17__normal_iteratorIPP5LayerSt6vectorIS3_SaIS3_EEEEEppEi:

0000000000000000 <_ZNSt16reverse_iteratorIN9__gnu_cxx17__normal_iteratorIPP5LayerSt6vectorIS3_SaIS3_EEEEEppEi>:
   0:	a9bd7bfd 	stp	x29, x30, [sp, #-48]!
   4:	910003fd 	mov	x29, sp
   8:	f9000bf3 	str	x19, [sp, #16]
   c:	aa0803f3 	mov	x19, x8
  10:	f90017e0 	str	x0, [sp, #40]
  14:	b90027e1 	str	w1, [sp, #36]
  18:	f94017e1 	ldr	x1, [sp, #40]
  1c:	aa1303e0 	mov	x0, x19
  20:	94000000 	bl	0 <_ZNSt16reverse_iteratorIN9__gnu_cxx17__normal_iteratorIPP5LayerSt6vectorIS3_SaIS3_EEEEEppEi>
  24:	f94017e0 	ldr	x0, [sp, #40]
  28:	94000000 	bl	0 <_ZNSt16reverse_iteratorIN9__gnu_cxx17__normal_iteratorIPP5LayerSt6vectorIS3_SaIS3_EEEEEppEi>
  2c:	d503201f 	nop
  30:	aa1303e0 	mov	x0, x19
  34:	f9400bf3 	ldr	x19, [sp, #16]
  38:	a8c37bfd 	ldp	x29, x30, [sp], #48
  3c:	d65f03c0 	ret

Disassembly of section .text._ZNKSt16reverse_iteratorIN9__gnu_cxx17__normal_iteratorIPP5LayerSt6vectorIS3_SaIS3_EEEEEdeEv:

0000000000000000 <_ZNKSt16reverse_iteratorIN9__gnu_cxx17__normal_iteratorIPP5LayerSt6vectorIS3_SaIS3_EEEEEdeEv>:
   0:	a9bd7bfd 	stp	x29, x30, [sp, #-48]!
   4:	910003fd 	mov	x29, sp
   8:	f9000fe0 	str	x0, [sp, #24]
   c:	f9400fe0 	ldr	x0, [sp, #24]
  10:	f9400000 	ldr	x0, [x0]
  14:	f90017e0 	str	x0, [sp, #40]
  18:	9100a3e0 	add	x0, sp, #0x28
  1c:	94000000 	bl	0 <_ZNKSt16reverse_iteratorIN9__gnu_cxx17__normal_iteratorIPP5LayerSt6vectorIS3_SaIS3_EEEEEdeEv>
  20:	94000000 	bl	0 <_ZNKSt16reverse_iteratorIN9__gnu_cxx17__normal_iteratorIPP5LayerSt6vectorIS3_SaIS3_EEEEEdeEv>
  24:	a8c37bfd 	ldp	x29, x30, [sp], #48
  28:	d65f03c0 	ret

Disassembly of section .text._ZNSaIP5LayerEC2Ev:

0000000000000000 <_ZNSaIP5LayerEC1Ev>:
   0:	a9be7bfd 	stp	x29, x30, [sp, #-32]!
   4:	910003fd 	mov	x29, sp
   8:	f9000fe0 	str	x0, [sp, #24]
   c:	f9400fe0 	ldr	x0, [sp, #24]
  10:	94000000 	bl	0 <_ZNSaIP5LayerEC1Ev>
  14:	d503201f 	nop
  18:	a8c27bfd 	ldp	x29, x30, [sp], #32
  1c:	d65f03c0 	ret

Disassembly of section .text._ZNSt12_Vector_baseIP5LayerSaIS1_EE17_Vector_impl_dataC2Ev:

0000000000000000 <_ZNSt12_Vector_baseIP5LayerSaIS1_EE17_Vector_impl_dataC1Ev>:
   0:	d10043ff 	sub	sp, sp, #0x10
   4:	f90007e0 	str	x0, [sp, #8]
   8:	f94007e0 	ldr	x0, [sp, #8]
   c:	f900001f 	str	xzr, [x0]
  10:	f94007e0 	ldr	x0, [sp, #8]
  14:	f900041f 	str	xzr, [x0, #8]
  18:	f94007e0 	ldr	x0, [sp, #8]
  1c:	f900081f 	str	xzr, [x0, #16]
  20:	d503201f 	nop
  24:	910043ff 	add	sp, sp, #0x10
  28:	d65f03c0 	ret

Disassembly of section .text._ZNSt12_Vector_baseIP5LayerSaIS1_EE13_M_deallocateEPS1_m:

0000000000000000 <_ZNSt12_Vector_baseIP5LayerSaIS1_EE13_M_deallocateEPS1_m>:
   0:	a9bd7bfd 	stp	x29, x30, [sp, #-48]!
   4:	910003fd 	mov	x29, sp
   8:	f90017e0 	str	x0, [sp, #40]
   c:	f90013e1 	str	x1, [sp, #32]
  10:	f9000fe2 	str	x2, [sp, #24]
  14:	f94013e0 	ldr	x0, [sp, #32]
  18:	f100001f 	cmp	x0, #0x0
  1c:	540000a0 	b.eq	30 <_ZNSt12_Vector_baseIP5LayerSaIS1_EE13_M_deallocateEPS1_m+0x30>  // b.none
  20:	f94017e0 	ldr	x0, [sp, #40]
  24:	f9400fe2 	ldr	x2, [sp, #24]
  28:	f94013e1 	ldr	x1, [sp, #32]
  2c:	94000000 	bl	0 <_ZNSt12_Vector_baseIP5LayerSaIS1_EE13_M_deallocateEPS1_m>
  30:	d503201f 	nop
  34:	a8c37bfd 	ldp	x29, x30, [sp], #48
  38:	d65f03c0 	ret

Disassembly of section .text._ZNSt12_Vector_baseIP5LayerSaIS1_EE19_M_get_Tp_allocatorEv:

0000000000000000 <_ZNSt12_Vector_baseIP5LayerSaIS1_EE19_M_get_Tp_allocatorEv>:
   0:	d10043ff 	sub	sp, sp, #0x10
   4:	f90007e0 	str	x0, [sp, #8]
   8:	f94007e0 	ldr	x0, [sp, #8]
   c:	910043ff 	add	sp, sp, #0x10
  10:	d65f03c0 	ret

Disassembly of section .text._ZSt8_DestroyIPP5LayerS1_EvT_S3_RSaIT0_E:

0000000000000000 <_ZSt8_DestroyIPP5LayerS1_EvT_S3_RSaIT0_E>:
   0:	a9bd7bfd 	stp	x29, x30, [sp, #-48]!
   4:	910003fd 	mov	x29, sp
   8:	f90017e0 	str	x0, [sp, #40]
   c:	f90013e1 	str	x1, [sp, #32]
  10:	f9000fe2 	str	x2, [sp, #24]
  14:	f94013e1 	ldr	x1, [sp, #32]
  18:	f94017e0 	ldr	x0, [sp, #40]
  1c:	94000000 	bl	0 <_ZSt8_DestroyIPP5LayerS1_EvT_S3_RSaIT0_E>
  20:	d503201f 	nop
  24:	a8c37bfd 	ldp	x29, x30, [sp], #48
  28:	d65f03c0 	ret

Disassembly of section .text._ZNSt16allocator_traitsISaIP5LayerEE9constructIS1_JRKS1_EEEvRS2_PT_DpOT0_:

0000000000000000 <_ZNSt16allocator_traitsISaIP5LayerEE9constructIS1_JRKS1_EEEvRS2_PT_DpOT0_>:
   0:	a9bd7bfd 	stp	x29, x30, [sp, #-48]!
   4:	910003fd 	mov	x29, sp
   8:	f90017e0 	str	x0, [sp, #40]
   c:	f90013e1 	str	x1, [sp, #32]
  10:	f9000fe2 	str	x2, [sp, #24]
  14:	f9400fe0 	ldr	x0, [sp, #24]
  18:	94000000 	bl	0 <_ZNSt16allocator_traitsISaIP5LayerEE9constructIS1_JRKS1_EEEvRS2_PT_DpOT0_>
  1c:	aa0003e2 	mov	x2, x0
  20:	f94013e1 	ldr	x1, [sp, #32]
  24:	f94017e0 	ldr	x0, [sp, #40]
  28:	94000000 	bl	0 <_ZNSt16allocator_traitsISaIP5LayerEE9constructIS1_JRKS1_EEEvRS2_PT_DpOT0_>
  2c:	d503201f 	nop
  30:	a8c37bfd 	ldp	x29, x30, [sp], #48
  34:	d65f03c0 	ret

Disassembly of section .text._ZNSt6vectorIP5LayerSaIS1_EE15_S_use_relocateEv:

0000000000000000 <_ZNSt6vectorIP5LayerSaIS1_EE15_S_use_relocateEv>:
   0:	a9be7bfd 	stp	x29, x30, [sp, #-32]!
   4:	910003fd 	mov	x29, sp
   8:	94000000 	bl	0 <_ZNSt6vectorIP5LayerSaIS1_EE15_S_use_relocateEv>
   c:	12001c00 	and	w0, w0, #0xff
  10:	a8c27bfd 	ldp	x29, x30, [sp], #32
  14:	d65f03c0 	ret

Disassembly of section .text._ZNSt6vectorIP5LayerSaIS1_EE19_S_nothrow_relocateESt17integral_constantIbLb1EE:

0000000000000000 <_ZNSt6vectorIP5LayerSaIS1_EE19_S_nothrow_relocateESt17integral_constantIbLb1EE>:
   0:	d10043ff 	sub	sp, sp, #0x10
   4:	390023e0 	strb	w0, [sp, #8]
   8:	52800020 	mov	w0, #0x1                   	// #1
   c:	910043ff 	add	sp, sp, #0x10
  10:	d65f03c0 	ret

Disassembly of section .text._ZNSt6vectorIP5LayerSaIS1_EE17_M_realloc_insertIJRKS1_EEEvN9__gnu_cxx17__normal_iteratorIPS1_S3_EEDpOT_:

0000000000000000 <_ZNSt6vectorIP5LayerSaIS1_EE17_M_realloc_insertIJRKS1_EEEvN9__gnu_cxx17__normal_iteratorIPS1_S3_EEDpOT_>:
   0:	a9b87bfd 	stp	x29, x30, [sp, #-128]!
   4:	910003fd 	mov	x29, sp
   8:	a90153f3 	stp	x19, x20, [sp, #16]
   c:	f9001fe0 	str	x0, [sp, #56]
  10:	f9001be1 	str	x1, [sp, #48]
  14:	f90017e2 	str	x2, [sp, #40]
  18:	90000000 	adrp	x0, 0 <_ZNSt6vectorIP5LayerSaIS1_EE17_M_realloc_insertIJRKS1_EEEvN9__gnu_cxx17__normal_iteratorIPS1_S3_EEDpOT_>
  1c:	91000002 	add	x2, x0, #0x0
  20:	d2800021 	mov	x1, #0x1                   	// #1
  24:	f9401fe0 	ldr	x0, [sp, #56]
  28:	94000000 	bl	0 <_ZNSt6vectorIP5LayerSaIS1_EE17_M_realloc_insertIJRKS1_EEEvN9__gnu_cxx17__normal_iteratorIPS1_S3_EEDpOT_>
  2c:	f9003be0 	str	x0, [sp, #112]
  30:	f9401fe0 	ldr	x0, [sp, #56]
  34:	f9400000 	ldr	x0, [x0]
  38:	f90037e0 	str	x0, [sp, #104]
  3c:	f9401fe0 	ldr	x0, [sp, #56]
  40:	f9400400 	ldr	x0, [x0, #8]
  44:	f90033e0 	str	x0, [sp, #96]
  48:	f9401fe0 	ldr	x0, [sp, #56]
  4c:	94000000 	bl	0 <_ZNSt6vectorIP5LayerSaIS1_EE17_M_realloc_insertIJRKS1_EEEvN9__gnu_cxx17__normal_iteratorIPS1_S3_EEDpOT_>
  50:	f90027e0 	str	x0, [sp, #72]
  54:	910123e1 	add	x1, sp, #0x48
  58:	9100c3e0 	add	x0, sp, #0x30
  5c:	94000000 	bl	0 <_ZNSt6vectorIP5LayerSaIS1_EE17_M_realloc_insertIJRKS1_EEEvN9__gnu_cxx17__normal_iteratorIPS1_S3_EEDpOT_>
  60:	f9002fe0 	str	x0, [sp, #88]
  64:	f9401fe0 	ldr	x0, [sp, #56]
  68:	f9403be1 	ldr	x1, [sp, #112]
  6c:	94000000 	bl	0 <_ZNSt6vectorIP5LayerSaIS1_EE17_M_realloc_insertIJRKS1_EEEvN9__gnu_cxx17__normal_iteratorIPS1_S3_EEDpOT_>
  70:	f9002be0 	str	x0, [sp, #80]
  74:	f9402be0 	ldr	x0, [sp, #80]
  78:	f9003fe0 	str	x0, [sp, #120]
  7c:	f9401ff3 	ldr	x19, [sp, #56]
  80:	f9402fe0 	ldr	x0, [sp, #88]
  84:	d37df000 	lsl	x0, x0, #3
  88:	f9402be1 	ldr	x1, [sp, #80]
  8c:	8b000034 	add	x20, x1, x0
  90:	f94017e0 	ldr	x0, [sp, #40]
  94:	94000000 	bl	0 <_ZNSt6vectorIP5LayerSaIS1_EE17_M_realloc_insertIJRKS1_EEEvN9__gnu_cxx17__normal_iteratorIPS1_S3_EEDpOT_>
  98:	aa0003e2 	mov	x2, x0
  9c:	aa1403e1 	mov	x1, x20
  a0:	aa1303e0 	mov	x0, x19
  a4:	94000000 	bl	0 <_ZNSt6vectorIP5LayerSaIS1_EE17_M_realloc_insertIJRKS1_EEEvN9__gnu_cxx17__normal_iteratorIPS1_S3_EEDpOT_>
  a8:	f9003fff 	str	xzr, [sp, #120]
  ac:	94000000 	bl	0 <_ZNSt6vectorIP5LayerSaIS1_EE17_M_realloc_insertIJRKS1_EEEvN9__gnu_cxx17__normal_iteratorIPS1_S3_EEDpOT_>
  b0:	12001c00 	and	w0, w0, #0xff
  b4:	7100001f 	cmp	w0, #0x0
  b8:	54000360 	b.eq	124 <_ZNSt6vectorIP5LayerSaIS1_EE17_M_realloc_insertIJRKS1_EEEvN9__gnu_cxx17__normal_iteratorIPS1_S3_EEDpOT_+0x124>  // b.none
  bc:	9100c3e0 	add	x0, sp, #0x30
  c0:	94000000 	bl	0 <_ZNSt6vectorIP5LayerSaIS1_EE17_M_realloc_insertIJRKS1_EEEvN9__gnu_cxx17__normal_iteratorIPS1_S3_EEDpOT_>
  c4:	f9400013 	ldr	x19, [x0]
  c8:	f9401fe0 	ldr	x0, [sp, #56]
  cc:	94000000 	bl	0 <_ZNSt6vectorIP5LayerSaIS1_EE17_M_realloc_insertIJRKS1_EEEvN9__gnu_cxx17__normal_iteratorIPS1_S3_EEDpOT_>
  d0:	aa0003e3 	mov	x3, x0
  d4:	f9402be2 	ldr	x2, [sp, #80]
  d8:	aa1303e1 	mov	x1, x19
  dc:	f94037e0 	ldr	x0, [sp, #104]
  e0:	94000000 	bl	0 <_ZNSt6vectorIP5LayerSaIS1_EE17_M_realloc_insertIJRKS1_EEEvN9__gnu_cxx17__normal_iteratorIPS1_S3_EEDpOT_>
  e4:	f9003fe0 	str	x0, [sp, #120]
  e8:	f9403fe0 	ldr	x0, [sp, #120]
  ec:	91002000 	add	x0, x0, #0x8
  f0:	f9003fe0 	str	x0, [sp, #120]
  f4:	9100c3e0 	add	x0, sp, #0x30
  f8:	94000000 	bl	0 <_ZNSt6vectorIP5LayerSaIS1_EE17_M_realloc_insertIJRKS1_EEEvN9__gnu_cxx17__normal_iteratorIPS1_S3_EEDpOT_>
  fc:	f9400013 	ldr	x19, [x0]
 100:	f9401fe0 	ldr	x0, [sp, #56]
 104:	94000000 	bl	0 <_ZNSt6vectorIP5LayerSaIS1_EE17_M_realloc_insertIJRKS1_EEEvN9__gnu_cxx17__normal_iteratorIPS1_S3_EEDpOT_>
 108:	aa0003e3 	mov	x3, x0
 10c:	f9403fe2 	ldr	x2, [sp, #120]
 110:	f94033e1 	ldr	x1, [sp, #96]
 114:	aa1303e0 	mov	x0, x19
 118:	94000000 	bl	0 <_ZNSt6vectorIP5LayerSaIS1_EE17_M_realloc_insertIJRKS1_EEEvN9__gnu_cxx17__normal_iteratorIPS1_S3_EEDpOT_>
 11c:	f9003fe0 	str	x0, [sp, #120]
 120:	1400001a 	b	188 <_ZNSt6vectorIP5LayerSaIS1_EE17_M_realloc_insertIJRKS1_EEEvN9__gnu_cxx17__normal_iteratorIPS1_S3_EEDpOT_+0x188>
 124:	9100c3e0 	add	x0, sp, #0x30
 128:	94000000 	bl	0 <_ZNSt6vectorIP5LayerSaIS1_EE17_M_realloc_insertIJRKS1_EEEvN9__gnu_cxx17__normal_iteratorIPS1_S3_EEDpOT_>
 12c:	f9400013 	ldr	x19, [x0]
 130:	f9401fe0 	ldr	x0, [sp, #56]
 134:	94000000 	bl	0 <_ZNSt6vectorIP5LayerSaIS1_EE17_M_realloc_insertIJRKS1_EEEvN9__gnu_cxx17__normal_iteratorIPS1_S3_EEDpOT_>
 138:	aa0003e3 	mov	x3, x0
 13c:	f9402be2 	ldr	x2, [sp, #80]
 140:	aa1303e1 	mov	x1, x19
 144:	f94037e0 	ldr	x0, [sp, #104]
 148:	94000000 	bl	0 <_ZNSt6vectorIP5LayerSaIS1_EE17_M_realloc_insertIJRKS1_EEEvN9__gnu_cxx17__normal_iteratorIPS1_S3_EEDpOT_>
 14c:	f9003fe0 	str	x0, [sp, #120]
 150:	f9403fe0 	ldr	x0, [sp, #120]
 154:	91002000 	add	x0, x0, #0x8
 158:	f9003fe0 	str	x0, [sp, #120]
 15c:	9100c3e0 	add	x0, sp, #0x30
 160:	94000000 	bl	0 <_ZNSt6vectorIP5LayerSaIS1_EE17_M_realloc_insertIJRKS1_EEEvN9__gnu_cxx17__normal_iteratorIPS1_S3_EEDpOT_>
 164:	f9400013 	ldr	x19, [x0]
 168:	f9401fe0 	ldr	x0, [sp, #56]
 16c:	94000000 	bl	0 <_ZNSt6vectorIP5LayerSaIS1_EE17_M_realloc_insertIJRKS1_EEEvN9__gnu_cxx17__normal_iteratorIPS1_S3_EEDpOT_>
 170:	aa0003e3 	mov	x3, x0
 174:	f9403fe2 	ldr	x2, [sp, #120]
 178:	f94033e1 	ldr	x1, [sp, #96]
 17c:	aa1303e0 	mov	x0, x19
 180:	94000000 	bl	0 <_ZNSt6vectorIP5LayerSaIS1_EE17_M_realloc_insertIJRKS1_EEEvN9__gnu_cxx17__normal_iteratorIPS1_S3_EEDpOT_>
 184:	f9003fe0 	str	x0, [sp, #120]
 188:	94000000 	bl	0 <_ZNSt6vectorIP5LayerSaIS1_EE17_M_realloc_insertIJRKS1_EEEvN9__gnu_cxx17__normal_iteratorIPS1_S3_EEDpOT_>
 18c:	12001c00 	and	w0, w0, #0xff
 190:	52000000 	eor	w0, w0, #0x1
 194:	12001c00 	and	w0, w0, #0xff
 198:	7100001f 	cmp	w0, #0x0
 19c:	540000e0 	b.eq	1b8 <_ZNSt6vectorIP5LayerSaIS1_EE17_M_realloc_insertIJRKS1_EEEvN9__gnu_cxx17__normal_iteratorIPS1_S3_EEDpOT_+0x1b8>  // b.none
 1a0:	f9401fe0 	ldr	x0, [sp, #56]
 1a4:	94000000 	bl	0 <_ZNSt6vectorIP5LayerSaIS1_EE17_M_realloc_insertIJRKS1_EEEvN9__gnu_cxx17__normal_iteratorIPS1_S3_EEDpOT_>
 1a8:	aa0003e2 	mov	x2, x0
 1ac:	f94033e1 	ldr	x1, [sp, #96]
 1b0:	f94037e0 	ldr	x0, [sp, #104]
 1b4:	94000000 	bl	0 <_ZNSt6vectorIP5LayerSaIS1_EE17_M_realloc_insertIJRKS1_EEEvN9__gnu_cxx17__normal_iteratorIPS1_S3_EEDpOT_>
 1b8:	f9401fe3 	ldr	x3, [sp, #56]
 1bc:	f9401fe0 	ldr	x0, [sp, #56]
 1c0:	f9400801 	ldr	x1, [x0, #16]
 1c4:	f94037e0 	ldr	x0, [sp, #104]
 1c8:	cb000020 	sub	x0, x1, x0
 1cc:	9343fc00 	asr	x0, x0, #3
 1d0:	aa0003e2 	mov	x2, x0
 1d4:	f94037e1 	ldr	x1, [sp, #104]
 1d8:	aa0303e0 	mov	x0, x3
 1dc:	94000000 	bl	0 <_ZNSt6vectorIP5LayerSaIS1_EE17_M_realloc_insertIJRKS1_EEEvN9__gnu_cxx17__normal_iteratorIPS1_S3_EEDpOT_>
 1e0:	f9401fe0 	ldr	x0, [sp, #56]
 1e4:	f9402be1 	ldr	x1, [sp, #80]
 1e8:	f9000001 	str	x1, [x0]
 1ec:	f9401fe0 	ldr	x0, [sp, #56]
 1f0:	f9403fe1 	ldr	x1, [sp, #120]
 1f4:	f9000401 	str	x1, [x0, #8]
 1f8:	f9403be0 	ldr	x0, [sp, #112]
 1fc:	d37df000 	lsl	x0, x0, #3
 200:	f9402be1 	ldr	x1, [sp, #80]
 204:	8b000021 	add	x1, x1, x0
 208:	f9401fe0 	ldr	x0, [sp, #56]
 20c:	f9000801 	str	x1, [x0, #16]
 210:	1400001d 	b	284 <_ZNSt6vectorIP5LayerSaIS1_EE17_M_realloc_insertIJRKS1_EEEvN9__gnu_cxx17__normal_iteratorIPS1_S3_EEDpOT_+0x284>
 214:	94000000 	bl	0 <__cxa_begin_catch>
 218:	f9403fe0 	ldr	x0, [sp, #120]
 21c:	f100001f 	cmp	x0, #0x0
 220:	54000141 	b.ne	248 <_ZNSt6vectorIP5LayerSaIS1_EE17_M_realloc_insertIJRKS1_EEEvN9__gnu_cxx17__normal_iteratorIPS1_S3_EEDpOT_+0x248>  // b.any
 224:	f9401fe2 	ldr	x2, [sp, #56]
 228:	f9402fe0 	ldr	x0, [sp, #88]
 22c:	d37df000 	lsl	x0, x0, #3
 230:	f9402be1 	ldr	x1, [sp, #80]
 234:	8b000020 	add	x0, x1, x0
 238:	aa0003e1 	mov	x1, x0
 23c:	aa0203e0 	mov	x0, x2
 240:	94000000 	bl	0 <_ZNSt6vectorIP5LayerSaIS1_EE17_M_realloc_insertIJRKS1_EEEvN9__gnu_cxx17__normal_iteratorIPS1_S3_EEDpOT_>
 244:	14000007 	b	260 <_ZNSt6vectorIP5LayerSaIS1_EE17_M_realloc_insertIJRKS1_EEEvN9__gnu_cxx17__normal_iteratorIPS1_S3_EEDpOT_+0x260>
 248:	f9401fe0 	ldr	x0, [sp, #56]
 24c:	94000000 	bl	0 <_ZNSt6vectorIP5LayerSaIS1_EE17_M_realloc_insertIJRKS1_EEEvN9__gnu_cxx17__normal_iteratorIPS1_S3_EEDpOT_>
 250:	aa0003e2 	mov	x2, x0
 254:	f9403fe1 	ldr	x1, [sp, #120]
 258:	f9402be0 	ldr	x0, [sp, #80]
 25c:	94000000 	bl	0 <_ZNSt6vectorIP5LayerSaIS1_EE17_M_realloc_insertIJRKS1_EEEvN9__gnu_cxx17__normal_iteratorIPS1_S3_EEDpOT_>
 260:	f9401fe0 	ldr	x0, [sp, #56]
 264:	f9403be2 	ldr	x2, [sp, #112]
 268:	f9402be1 	ldr	x1, [sp, #80]
 26c:	94000000 	bl	0 <_ZNSt6vectorIP5LayerSaIS1_EE17_M_realloc_insertIJRKS1_EEEvN9__gnu_cxx17__normal_iteratorIPS1_S3_EEDpOT_>
 270:	94000000 	bl	0 <__cxa_rethrow>
 274:	aa0003f3 	mov	x19, x0
 278:	94000000 	bl	0 <__cxa_end_catch>
 27c:	aa1303e0 	mov	x0, x19
 280:	94000000 	bl	0 <_Unwind_Resume>
 284:	a94153f3 	ldp	x19, x20, [sp, #16]
 288:	a8c87bfd 	ldp	x29, x30, [sp], #128
 28c:	d65f03c0 	ret

Disassembly of section .text._ZN9__gnu_cxx17__normal_iteratorIPP5LayerSt6vectorIS2_SaIS2_EEEC2ERKS3_:

0000000000000000 <_ZN9__gnu_cxx17__normal_iteratorIPP5LayerSt6vectorIS2_SaIS2_EEEC1ERKS3_>:
   0:	d10043ff 	sub	sp, sp, #0x10
   4:	f90007e0 	str	x0, [sp, #8]
   8:	f90003e1 	str	x1, [sp]
   c:	f94003e0 	ldr	x0, [sp]
  10:	f9400001 	ldr	x1, [x0]
  14:	f94007e0 	ldr	x0, [sp, #8]
  18:	f9000001 	str	x1, [x0]
  1c:	d503201f 	nop
  20:	910043ff 	add	sp, sp, #0x10
  24:	d65f03c0 	ret

Disassembly of section .text._ZNK9__gnu_cxx17__normal_iteratorIPP5LayerSt6vectorIS2_SaIS2_EEE4baseEv:

0000000000000000 <_ZNK9__gnu_cxx17__normal_iteratorIPP5LayerSt6vectorIS2_SaIS2_EEE4baseEv>:
   0:	d10043ff 	sub	sp, sp, #0x10
   4:	f90007e0 	str	x0, [sp, #8]
   8:	f94007e0 	ldr	x0, [sp, #8]
   c:	910043ff 	add	sp, sp, #0x10
  10:	d65f03c0 	ret

Disassembly of section .text._ZNSt16reverse_iteratorIN9__gnu_cxx17__normal_iteratorIPP5LayerSt6vectorIS3_SaIS3_EEEEEC2ES8_:

0000000000000000 <_ZNSt16reverse_iteratorIN9__gnu_cxx17__normal_iteratorIPP5LayerSt6vectorIS3_SaIS3_EEEEEC1ES8_>:
   0:	d10043ff 	sub	sp, sp, #0x10
   4:	f90007e0 	str	x0, [sp, #8]
   8:	f90003e1 	str	x1, [sp]
   c:	f94007e0 	ldr	x0, [sp, #8]
  10:	f94003e1 	ldr	x1, [sp]
  14:	f9000001 	str	x1, [x0]
  18:	d503201f 	nop
  1c:	910043ff 	add	sp, sp, #0x10
  20:	d65f03c0 	ret

Disassembly of section .text._ZSteqIN9__gnu_cxx17__normal_iteratorIPP5LayerSt6vectorIS3_SaIS3_EEEEEbRKSt16reverse_iteratorIT_ESD_:

0000000000000000 <_ZSteqIN9__gnu_cxx17__normal_iteratorIPP5LayerSt6vectorIS3_SaIS3_EEEEEbRKSt16reverse_iteratorIT_ESD_>:
   0:	a9bd7bfd 	stp	x29, x30, [sp, #-48]!
   4:	910003fd 	mov	x29, sp
   8:	f9000fe0 	str	x0, [sp, #24]
   c:	f9000be1 	str	x1, [sp, #16]
  10:	f9400fe0 	ldr	x0, [sp, #24]
  14:	94000000 	bl	0 <_ZSteqIN9__gnu_cxx17__normal_iteratorIPP5LayerSt6vectorIS3_SaIS3_EEEEEbRKSt16reverse_iteratorIT_ESD_>
  18:	f90013e0 	str	x0, [sp, #32]
  1c:	f9400be0 	ldr	x0, [sp, #16]
  20:	94000000 	bl	0 <_ZSteqIN9__gnu_cxx17__normal_iteratorIPP5LayerSt6vectorIS3_SaIS3_EEEEEbRKSt16reverse_iteratorIT_ESD_>
  24:	f90017e0 	str	x0, [sp, #40]
  28:	9100a3e1 	add	x1, sp, #0x28
  2c:	910083e0 	add	x0, sp, #0x20
  30:	94000000 	bl	0 <_ZSteqIN9__gnu_cxx17__normal_iteratorIPP5LayerSt6vectorIS3_SaIS3_EEEEEbRKSt16reverse_iteratorIT_ESD_>
  34:	12001c00 	and	w0, w0, #0xff
  38:	a8c37bfd 	ldp	x29, x30, [sp], #48
  3c:	d65f03c0 	ret

Disassembly of section .text._ZN9__gnu_cxx17__normal_iteratorIPP5LayerSt6vectorIS2_SaIS2_EEEmmEv:

0000000000000000 <_ZN9__gnu_cxx17__normal_iteratorIPP5LayerSt6vectorIS2_SaIS2_EEEmmEv>:
   0:	d10043ff 	sub	sp, sp, #0x10
   4:	f90007e0 	str	x0, [sp, #8]
   8:	f94007e0 	ldr	x0, [sp, #8]
   c:	f9400000 	ldr	x0, [x0]
  10:	d1002001 	sub	x1, x0, #0x8
  14:	f94007e0 	ldr	x0, [sp, #8]
  18:	f9000001 	str	x1, [x0]
  1c:	f94007e0 	ldr	x0, [sp, #8]
  20:	910043ff 	add	sp, sp, #0x10
  24:	d65f03c0 	ret

Disassembly of section .text._ZN9__gnu_cxx13new_allocatorIP5LayerEC2Ev:

0000000000000000 <_ZN9__gnu_cxx13new_allocatorIP5LayerEC1Ev>:
   0:	d10043ff 	sub	sp, sp, #0x10
   4:	f90007e0 	str	x0, [sp, #8]
   8:	d503201f 	nop
   c:	910043ff 	add	sp, sp, #0x10
  10:	d65f03c0 	ret

Disassembly of section .text._ZNSt16allocator_traitsISaIP5LayerEE10deallocateERS2_PS1_m:

0000000000000000 <_ZNSt16allocator_traitsISaIP5LayerEE10deallocateERS2_PS1_m>:
   0:	a9bd7bfd 	stp	x29, x30, [sp, #-48]!
   4:	910003fd 	mov	x29, sp
   8:	f90017e0 	str	x0, [sp, #40]
   c:	f90013e1 	str	x1, [sp, #32]
  10:	f9000fe2 	str	x2, [sp, #24]
  14:	f9400fe2 	ldr	x2, [sp, #24]
  18:	f94013e1 	ldr	x1, [sp, #32]
  1c:	f94017e0 	ldr	x0, [sp, #40]
  20:	94000000 	bl	0 <_ZNSt16allocator_traitsISaIP5LayerEE10deallocateERS2_PS1_m>
  24:	d503201f 	nop
  28:	a8c37bfd 	ldp	x29, x30, [sp], #48
  2c:	d65f03c0 	ret

Disassembly of section .text._ZSt8_DestroyIPP5LayerEvT_S3_:

0000000000000000 <_ZSt8_DestroyIPP5LayerEvT_S3_>:
   0:	a9be7bfd 	stp	x29, x30, [sp, #-32]!
   4:	910003fd 	mov	x29, sp
   8:	f9000fe0 	str	x0, [sp, #24]
   c:	f9000be1 	str	x1, [sp, #16]
  10:	f9400be1 	ldr	x1, [sp, #16]
  14:	f9400fe0 	ldr	x0, [sp, #24]
  18:	94000000 	bl	0 <_ZSt8_DestroyIPP5LayerEvT_S3_>
  1c:	d503201f 	nop
  20:	a8c27bfd 	ldp	x29, x30, [sp], #32
  24:	d65f03c0 	ret

Disassembly of section .text._ZSt7forwardIRKP5LayerEOT_RNSt16remove_referenceIS4_E4typeE:

0000000000000000 <_ZSt7forwardIRKP5LayerEOT_RNSt16remove_referenceIS4_E4typeE>:
   0:	d10043ff 	sub	sp, sp, #0x10
   4:	f90007e0 	str	x0, [sp, #8]
   8:	f94007e0 	ldr	x0, [sp, #8]
   c:	910043ff 	add	sp, sp, #0x10
  10:	d65f03c0 	ret

Disassembly of section .text._ZN9__gnu_cxx13new_allocatorIP5LayerE9constructIS2_JRKS2_EEEvPT_DpOT0_:

0000000000000000 <_ZN9__gnu_cxx13new_allocatorIP5LayerE9constructIS2_JRKS2_EEEvPT_DpOT0_>:
   0:	a9bc7bfd 	stp	x29, x30, [sp, #-64]!
   4:	910003fd 	mov	x29, sp
   8:	f9000bf3 	str	x19, [sp, #16]
   c:	f9001fe0 	str	x0, [sp, #56]
  10:	f9001be1 	str	x1, [sp, #48]
  14:	f90017e2 	str	x2, [sp, #40]
  18:	f94017e0 	ldr	x0, [sp, #40]
  1c:	94000000 	bl	0 <_ZN9__gnu_cxx13new_allocatorIP5LayerE9constructIS2_JRKS2_EEEvPT_DpOT0_>
  20:	f9400013 	ldr	x19, [x0]
  24:	f9401be0 	ldr	x0, [sp, #48]
  28:	aa0003e1 	mov	x1, x0
  2c:	d2800100 	mov	x0, #0x8                   	// #8
  30:	94000000 	bl	0 <_ZN9__gnu_cxx13new_allocatorIP5LayerE9constructIS2_JRKS2_EEEvPT_DpOT0_>
  34:	f9000013 	str	x19, [x0]
  38:	d503201f 	nop
  3c:	f9400bf3 	ldr	x19, [sp, #16]
  40:	a8c47bfd 	ldp	x29, x30, [sp], #64
  44:	d65f03c0 	ret

Disassembly of section .text._ZNKSt6vectorIP5LayerSaIS1_EE12_M_check_lenEmPKc:

0000000000000000 <_ZNKSt6vectorIP5LayerSaIS1_EE12_M_check_lenEmPKc>:
   0:	a9bb7bfd 	stp	x29, x30, [sp, #-80]!
   4:	910003fd 	mov	x29, sp
   8:	f9000bf3 	str	x19, [sp, #16]
   c:	f9001fe0 	str	x0, [sp, #56]
  10:	f9001be1 	str	x1, [sp, #48]
  14:	f90017e2 	str	x2, [sp, #40]
  18:	f9401fe0 	ldr	x0, [sp, #56]
  1c:	94000000 	bl	0 <_ZNKSt6vectorIP5LayerSaIS1_EE12_M_check_lenEmPKc>
  20:	aa0003f3 	mov	x19, x0
  24:	f9401fe0 	ldr	x0, [sp, #56]
  28:	94000000 	bl	0 <_ZNKSt6vectorIP5LayerSaIS1_EE12_M_check_lenEmPKc>
  2c:	cb000261 	sub	x1, x19, x0
  30:	f9401be0 	ldr	x0, [sp, #48]
  34:	eb00003f 	cmp	x1, x0
  38:	1a9f27e0 	cset	w0, cc  // cc = lo, ul, last
  3c:	12001c00 	and	w0, w0, #0xff
  40:	7100001f 	cmp	w0, #0x0
  44:	54000060 	b.eq	50 <_ZNKSt6vectorIP5LayerSaIS1_EE12_M_check_lenEmPKc+0x50>  // b.none
  48:	f94017e0 	ldr	x0, [sp, #40]
  4c:	94000000 	bl	0 <_ZSt20__throw_length_errorPKc>
  50:	f9401fe0 	ldr	x0, [sp, #56]
  54:	94000000 	bl	0 <_ZNKSt6vectorIP5LayerSaIS1_EE12_M_check_lenEmPKc>
  58:	aa0003f3 	mov	x19, x0
  5c:	f9401fe0 	ldr	x0, [sp, #56]
  60:	94000000 	bl	0 <_ZNKSt6vectorIP5LayerSaIS1_EE12_M_check_lenEmPKc>
  64:	f90023e0 	str	x0, [sp, #64]
  68:	9100c3e1 	add	x1, sp, #0x30
  6c:	910103e0 	add	x0, sp, #0x40
  70:	94000000 	bl	0 <_ZNKSt6vectorIP5LayerSaIS1_EE12_M_check_lenEmPKc>
  74:	f9400000 	ldr	x0, [x0]
  78:	8b000260 	add	x0, x19, x0
  7c:	f90027e0 	str	x0, [sp, #72]
  80:	f9401fe0 	ldr	x0, [sp, #56]
  84:	94000000 	bl	0 <_ZNKSt6vectorIP5LayerSaIS1_EE12_M_check_lenEmPKc>
  88:	aa0003e1 	mov	x1, x0
  8c:	f94027e0 	ldr	x0, [sp, #72]
  90:	eb01001f 	cmp	x0, x1
  94:	540000e3 	b.cc	b0 <_ZNKSt6vectorIP5LayerSaIS1_EE12_M_check_lenEmPKc+0xb0>  // b.lo, b.ul, b.last
  98:	f9401fe0 	ldr	x0, [sp, #56]
  9c:	94000000 	bl	0 <_ZNKSt6vectorIP5LayerSaIS1_EE12_M_check_lenEmPKc>
  a0:	aa0003e1 	mov	x1, x0
  a4:	f94027e0 	ldr	x0, [sp, #72]
  a8:	eb01001f 	cmp	x0, x1
  ac:	54000089 	b.ls	bc <_ZNKSt6vectorIP5LayerSaIS1_EE12_M_check_lenEmPKc+0xbc>  // b.plast
  b0:	f9401fe0 	ldr	x0, [sp, #56]
  b4:	94000000 	bl	0 <_ZNKSt6vectorIP5LayerSaIS1_EE12_M_check_lenEmPKc>
  b8:	14000002 	b	c0 <_ZNKSt6vectorIP5LayerSaIS1_EE12_M_check_lenEmPKc+0xc0>
  bc:	f94027e0 	ldr	x0, [sp, #72]
  c0:	f9400bf3 	ldr	x19, [sp, #16]
  c4:	a8c57bfd 	ldp	x29, x30, [sp], #80
  c8:	d65f03c0 	ret

Disassembly of section .text._ZN9__gnu_cxxmiIPP5LayerSt6vectorIS2_SaIS2_EEEENS_17__normal_iteratorIT_T0_E15difference_typeERKSA_SD_:

0000000000000000 <_ZN9__gnu_cxxmiIPP5LayerSt6vectorIS2_SaIS2_EEEENS_17__normal_iteratorIT_T0_E15difference_typeERKSA_SD_>:
   0:	a9bd7bfd 	stp	x29, x30, [sp, #-48]!
   4:	910003fd 	mov	x29, sp
   8:	f9000bf3 	str	x19, [sp, #16]
   c:	f90017e0 	str	x0, [sp, #40]
  10:	f90013e1 	str	x1, [sp, #32]
  14:	f94017e0 	ldr	x0, [sp, #40]
  18:	94000000 	bl	0 <_ZN9__gnu_cxxmiIPP5LayerSt6vectorIS2_SaIS2_EEEENS_17__normal_iteratorIT_T0_E15difference_typeERKSA_SD_>
  1c:	f9400013 	ldr	x19, [x0]
  20:	f94013e0 	ldr	x0, [sp, #32]
  24:	94000000 	bl	0 <_ZN9__gnu_cxxmiIPP5LayerSt6vectorIS2_SaIS2_EEEENS_17__normal_iteratorIT_T0_E15difference_typeERKSA_SD_>
  28:	f9400000 	ldr	x0, [x0]
  2c:	cb000260 	sub	x0, x19, x0
  30:	9343fc00 	asr	x0, x0, #3
  34:	f9400bf3 	ldr	x19, [sp, #16]
  38:	a8c37bfd 	ldp	x29, x30, [sp], #48
  3c:	d65f03c0 	ret

Disassembly of section .text._ZNSt12_Vector_baseIP5LayerSaIS1_EE11_M_allocateEm:

0000000000000000 <_ZNSt12_Vector_baseIP5LayerSaIS1_EE11_M_allocateEm>:
   0:	a9be7bfd 	stp	x29, x30, [sp, #-32]!
   4:	910003fd 	mov	x29, sp
   8:	f9000fe0 	str	x0, [sp, #24]
   c:	f9000be1 	str	x1, [sp, #16]
  10:	f9400be0 	ldr	x0, [sp, #16]
  14:	f100001f 	cmp	x0, #0x0
  18:	540000a0 	b.eq	2c <_ZNSt12_Vector_baseIP5LayerSaIS1_EE11_M_allocateEm+0x2c>  // b.none
  1c:	f9400fe0 	ldr	x0, [sp, #24]
  20:	f9400be1 	ldr	x1, [sp, #16]
  24:	94000000 	bl	0 <_ZNSt12_Vector_baseIP5LayerSaIS1_EE11_M_allocateEm>
  28:	14000002 	b	30 <_ZNSt12_Vector_baseIP5LayerSaIS1_EE11_M_allocateEm+0x30>
  2c:	d2800000 	mov	x0, #0x0                   	// #0
  30:	a8c27bfd 	ldp	x29, x30, [sp], #32
  34:	d65f03c0 	ret

Disassembly of section .text._ZNSt6vectorIP5LayerSaIS1_EE11_S_relocateEPS1_S4_S4_RS2_:

0000000000000000 <_ZNSt6vectorIP5LayerSaIS1_EE11_S_relocateEPS1_S4_S4_RS2_>:
   0:	a9bc7bfd 	stp	x29, x30, [sp, #-64]!
   4:	910003fd 	mov	x29, sp
   8:	f90017e0 	str	x0, [sp, #40]
   c:	f90013e1 	str	x1, [sp, #32]
  10:	f9000fe2 	str	x2, [sp, #24]
  14:	f9000be3 	str	x3, [sp, #16]
  18:	f9400be3 	ldr	x3, [sp, #16]
  1c:	f9400fe2 	ldr	x2, [sp, #24]
  20:	f94013e1 	ldr	x1, [sp, #32]
  24:	f94017e0 	ldr	x0, [sp, #40]
  28:	94000000 	bl	0 <_ZNSt6vectorIP5LayerSaIS1_EE11_S_relocateEPS1_S4_S4_RS2_>
  2c:	a8c47bfd 	ldp	x29, x30, [sp], #64
  30:	d65f03c0 	ret

Disassembly of section .text._ZSt34__uninitialized_move_if_noexcept_aIPP5LayerS2_SaIS1_EET0_T_S5_S4_RT1_:

0000000000000000 <_ZSt34__uninitialized_move_if_noexcept_aIPP5LayerS2_SaIS1_EET0_T_S5_S4_RT1_>:
   0:	a9bc7bfd 	stp	x29, x30, [sp, #-64]!
   4:	910003fd 	mov	x29, sp
   8:	f9000bf3 	str	x19, [sp, #16]
   c:	f9001fe0 	str	x0, [sp, #56]
  10:	f9001be1 	str	x1, [sp, #48]
  14:	f90017e2 	str	x2, [sp, #40]
  18:	f90013e3 	str	x3, [sp, #32]
  1c:	f9401fe0 	ldr	x0, [sp, #56]
  20:	94000000 	bl	0 <_ZSt34__uninitialized_move_if_noexcept_aIPP5LayerS2_SaIS1_EET0_T_S5_S4_RT1_>
  24:	aa0003f3 	mov	x19, x0
  28:	f9401be0 	ldr	x0, [sp, #48]
  2c:	94000000 	bl	0 <_ZSt34__uninitialized_move_if_noexcept_aIPP5LayerS2_SaIS1_EET0_T_S5_S4_RT1_>
  30:	f94013e3 	ldr	x3, [sp, #32]
  34:	f94017e2 	ldr	x2, [sp, #40]
  38:	aa0003e1 	mov	x1, x0
  3c:	aa1303e0 	mov	x0, x19
  40:	94000000 	bl	0 <_ZSt34__uninitialized_move_if_noexcept_aIPP5LayerS2_SaIS1_EET0_T_S5_S4_RT1_>
  44:	f9400bf3 	ldr	x19, [sp, #16]
  48:	a8c47bfd 	ldp	x29, x30, [sp], #64
  4c:	d65f03c0 	ret

Disassembly of section .text._ZNSt16allocator_traitsISaIP5LayerEE7destroyIS1_EEvRS2_PT_:

0000000000000000 <_ZNSt16allocator_traitsISaIP5LayerEE7destroyIS1_EEvRS2_PT_>:
   0:	a9be7bfd 	stp	x29, x30, [sp, #-32]!
   4:	910003fd 	mov	x29, sp
   8:	f9000fe0 	str	x0, [sp, #24]
   c:	f9000be1 	str	x1, [sp, #16]
  10:	f9400be1 	ldr	x1, [sp, #16]
  14:	f9400fe0 	ldr	x0, [sp, #24]
  18:	94000000 	bl	0 <_ZNSt16allocator_traitsISaIP5LayerEE7destroyIS1_EEvRS2_PT_>
  1c:	d503201f 	nop
  20:	a8c27bfd 	ldp	x29, x30, [sp], #32
  24:	d65f03c0 	ret

Disassembly of section .text._ZNKSt16reverse_iteratorIN9__gnu_cxx17__normal_iteratorIPP5LayerSt6vectorIS3_SaIS3_EEEEE4baseEv:

0000000000000000 <_ZNKSt16reverse_iteratorIN9__gnu_cxx17__normal_iteratorIPP5LayerSt6vectorIS3_SaIS3_EEEEE4baseEv>:
   0:	d10043ff 	sub	sp, sp, #0x10
   4:	f90007e0 	str	x0, [sp, #8]
   8:	f94007e0 	ldr	x0, [sp, #8]
   c:	f9400000 	ldr	x0, [x0]
  10:	910043ff 	add	sp, sp, #0x10
  14:	d65f03c0 	ret

Disassembly of section .text._ZN9__gnu_cxxeqIPP5LayerSt6vectorIS2_SaIS2_EEEEbRKNS_17__normal_iteratorIT_T0_EESC_:

0000000000000000 <_ZN9__gnu_cxxeqIPP5LayerSt6vectorIS2_SaIS2_EEEEbRKNS_17__normal_iteratorIT_T0_EESC_>:
   0:	a9bd7bfd 	stp	x29, x30, [sp, #-48]!
   4:	910003fd 	mov	x29, sp
   8:	f9000bf3 	str	x19, [sp, #16]
   c:	f90017e0 	str	x0, [sp, #40]
  10:	f90013e1 	str	x1, [sp, #32]
  14:	f94017e0 	ldr	x0, [sp, #40]
  18:	94000000 	bl	0 <_ZN9__gnu_cxxeqIPP5LayerSt6vectorIS2_SaIS2_EEEEbRKNS_17__normal_iteratorIT_T0_EESC_>
  1c:	f9400013 	ldr	x19, [x0]
  20:	f94013e0 	ldr	x0, [sp, #32]
  24:	94000000 	bl	0 <_ZN9__gnu_cxxeqIPP5LayerSt6vectorIS2_SaIS2_EEEEbRKNS_17__normal_iteratorIT_T0_EESC_>
  28:	f9400000 	ldr	x0, [x0]
  2c:	eb00027f 	cmp	x19, x0
  30:	1a9f17e0 	cset	w0, eq  // eq = none
  34:	12001c00 	and	w0, w0, #0xff
  38:	f9400bf3 	ldr	x19, [sp, #16]
  3c:	a8c37bfd 	ldp	x29, x30, [sp], #48
  40:	d65f03c0 	ret

Disassembly of section .text._ZN9__gnu_cxx13new_allocatorIP5LayerE10deallocateEPS2_m:

0000000000000000 <_ZN9__gnu_cxx13new_allocatorIP5LayerE10deallocateEPS2_m>:
   0:	a9bd7bfd 	stp	x29, x30, [sp, #-48]!
   4:	910003fd 	mov	x29, sp
   8:	f90017e0 	str	x0, [sp, #40]
   c:	f90013e1 	str	x1, [sp, #32]
  10:	f9000fe2 	str	x2, [sp, #24]
  14:	f94013e0 	ldr	x0, [sp, #32]
  18:	94000000 	bl	0 <_ZdlPv>
  1c:	d503201f 	nop
  20:	a8c37bfd 	ldp	x29, x30, [sp], #48
  24:	d65f03c0 	ret

Disassembly of section .text._ZNSt12_Destroy_auxILb1EE9__destroyIPP5LayerEEvT_S5_:

0000000000000000 <_ZNSt12_Destroy_auxILb1EE9__destroyIPP5LayerEEvT_S5_>:
   0:	d10043ff 	sub	sp, sp, #0x10
   4:	f90007e0 	str	x0, [sp, #8]
   8:	f90003e1 	str	x1, [sp]
   c:	d503201f 	nop
  10:	910043ff 	add	sp, sp, #0x10
  14:	d65f03c0 	ret

Disassembly of section .text._ZNKSt6vectorIP5LayerSaIS1_EE8max_sizeEv:

0000000000000000 <_ZNKSt6vectorIP5LayerSaIS1_EE8max_sizeEv>:
   0:	a9be7bfd 	stp	x29, x30, [sp, #-32]!
   4:	910003fd 	mov	x29, sp
   8:	f9000fe0 	str	x0, [sp, #24]
   c:	f9400fe0 	ldr	x0, [sp, #24]
  10:	94000000 	bl	0 <_ZNKSt6vectorIP5LayerSaIS1_EE8max_sizeEv>
  14:	94000000 	bl	0 <_ZNKSt6vectorIP5LayerSaIS1_EE8max_sizeEv>
  18:	a8c27bfd 	ldp	x29, x30, [sp], #32
  1c:	d65f03c0 	ret

Disassembly of section .text._ZNKSt6vectorIP5LayerSaIS1_EE4sizeEv:

0000000000000000 <_ZNKSt6vectorIP5LayerSaIS1_EE4sizeEv>:
   0:	d10043ff 	sub	sp, sp, #0x10
   4:	f90007e0 	str	x0, [sp, #8]
   8:	f94007e0 	ldr	x0, [sp, #8]
   c:	f9400401 	ldr	x1, [x0, #8]
  10:	f94007e0 	ldr	x0, [sp, #8]
  14:	f9400000 	ldr	x0, [x0]
  18:	cb000020 	sub	x0, x1, x0
  1c:	9343fc00 	asr	x0, x0, #3
  20:	910043ff 	add	sp, sp, #0x10
  24:	d65f03c0 	ret

Disassembly of section .text._ZSt3maxImERKT_S2_S2_:

0000000000000000 <_ZSt3maxImERKT_S2_S2_>:
   0:	d10043ff 	sub	sp, sp, #0x10
   4:	f90007e0 	str	x0, [sp, #8]
   8:	f90003e1 	str	x1, [sp]
   c:	f94007e0 	ldr	x0, [sp, #8]
  10:	f9400001 	ldr	x1, [x0]
  14:	f94003e0 	ldr	x0, [sp]
  18:	f9400000 	ldr	x0, [x0]
  1c:	eb00003f 	cmp	x1, x0
  20:	54000062 	b.cs	2c <_ZSt3maxImERKT_S2_S2_+0x2c>  // b.hs, b.nlast
  24:	f94003e0 	ldr	x0, [sp]
  28:	14000002 	b	30 <_ZSt3maxImERKT_S2_S2_+0x30>
  2c:	f94007e0 	ldr	x0, [sp, #8]
  30:	910043ff 	add	sp, sp, #0x10
  34:	d65f03c0 	ret

Disassembly of section .text._ZNSt16allocator_traitsISaIP5LayerEE8allocateERS2_m:

0000000000000000 <_ZNSt16allocator_traitsISaIP5LayerEE8allocateERS2_m>:
   0:	a9be7bfd 	stp	x29, x30, [sp, #-32]!
   4:	910003fd 	mov	x29, sp
   8:	f9000fe0 	str	x0, [sp, #24]
   c:	f9000be1 	str	x1, [sp, #16]
  10:	d2800002 	mov	x2, #0x0                   	// #0
  14:	f9400be1 	ldr	x1, [sp, #16]
  18:	f9400fe0 	ldr	x0, [sp, #24]
  1c:	94000000 	bl	0 <_ZNSt16allocator_traitsISaIP5LayerEE8allocateERS2_m>
  20:	a8c27bfd 	ldp	x29, x30, [sp], #32
  24:	d65f03c0 	ret

Disassembly of section .text._ZNSt6vectorIP5LayerSaIS1_EE14_S_do_relocateEPS1_S4_S4_RS2_St17integral_constantIbLb1EE:

0000000000000000 <_ZNSt6vectorIP5LayerSaIS1_EE14_S_do_relocateEPS1_S4_S4_RS2_St17integral_constantIbLb1EE>:
   0:	a9bc7bfd 	stp	x29, x30, [sp, #-64]!
   4:	910003fd 	mov	x29, sp
   8:	f9001fe0 	str	x0, [sp, #56]
   c:	f9001be1 	str	x1, [sp, #48]
  10:	f90017e2 	str	x2, [sp, #40]
  14:	f90013e3 	str	x3, [sp, #32]
  18:	390063e4 	strb	w4, [sp, #24]
  1c:	f94013e3 	ldr	x3, [sp, #32]
  20:	f94017e2 	ldr	x2, [sp, #40]
  24:	f9401be1 	ldr	x1, [sp, #48]
  28:	f9401fe0 	ldr	x0, [sp, #56]
  2c:	94000000 	bl	0 <_ZNSt6vectorIP5LayerSaIS1_EE14_S_do_relocateEPS1_S4_S4_RS2_St17integral_constantIbLb1EE>
  30:	a8c47bfd 	ldp	x29, x30, [sp], #64
  34:	d65f03c0 	ret

Disassembly of section .text._ZSt32__make_move_if_noexcept_iteratorIP5LayerSt13move_iteratorIPS1_EET0_PT_:

0000000000000000 <_ZSt32__make_move_if_noexcept_iteratorIP5LayerSt13move_iteratorIPS1_EET0_PT_>:
   0:	a9bd7bfd 	stp	x29, x30, [sp, #-48]!
   4:	910003fd 	mov	x29, sp
   8:	f9000fe0 	str	x0, [sp, #24]
   c:	9100a3e0 	add	x0, sp, #0x28
  10:	f9400fe1 	ldr	x1, [sp, #24]
  14:	94000000 	bl	0 <_ZSt32__make_move_if_noexcept_iteratorIP5LayerSt13move_iteratorIPS1_EET0_PT_>
  18:	f94017e0 	ldr	x0, [sp, #40]
  1c:	a8c37bfd 	ldp	x29, x30, [sp], #48
  20:	d65f03c0 	ret

Disassembly of section .text._ZSt22__uninitialized_copy_aISt13move_iteratorIPP5LayerES3_S2_ET0_T_S6_S5_RSaIT1_E:

0000000000000000 <_ZSt22__uninitialized_copy_aISt13move_iteratorIPP5LayerES3_S2_ET0_T_S6_S5_RSaIT1_E>:
   0:	a9bd7bfd 	stp	x29, x30, [sp, #-48]!
   4:	910003fd 	mov	x29, sp
   8:	f90017e0 	str	x0, [sp, #40]
   c:	f90013e1 	str	x1, [sp, #32]
  10:	f9000fe2 	str	x2, [sp, #24]
  14:	f9000be3 	str	x3, [sp, #16]
  18:	f9400fe2 	ldr	x2, [sp, #24]
  1c:	f94013e1 	ldr	x1, [sp, #32]
  20:	f94017e0 	ldr	x0, [sp, #40]
  24:	94000000 	bl	0 <_ZSt22__uninitialized_copy_aISt13move_iteratorIPP5LayerES3_S2_ET0_T_S6_S5_RSaIT1_E>
  28:	a8c37bfd 	ldp	x29, x30, [sp], #48
  2c:	d65f03c0 	ret

Disassembly of section .text._ZN9__gnu_cxx13new_allocatorIP5LayerE7destroyIS2_EEvPT_:

0000000000000000 <_ZN9__gnu_cxx13new_allocatorIP5LayerE7destroyIS2_EEvPT_>:
   0:	d10043ff 	sub	sp, sp, #0x10
   4:	f90007e0 	str	x0, [sp, #8]
   8:	f90003e1 	str	x1, [sp]
   c:	d503201f 	nop
  10:	910043ff 	add	sp, sp, #0x10
  14:	d65f03c0 	ret

Disassembly of section .text._ZNSt6vectorIP5LayerSaIS1_EE11_S_max_sizeERKS2_:

0000000000000000 <_ZNSt6vectorIP5LayerSaIS1_EE11_S_max_sizeERKS2_>:
   0:	a9bd7bfd 	stp	x29, x30, [sp, #-48]!
   4:	910003fd 	mov	x29, sp
   8:	f9000fe0 	str	x0, [sp, #24]
   c:	92fe0000 	mov	x0, #0xfffffffffffffff     	// #1152921504606846975
  10:	f90017e0 	str	x0, [sp, #40]
  14:	f9400fe0 	ldr	x0, [sp, #24]
  18:	94000000 	bl	0 <_ZNSt6vectorIP5LayerSaIS1_EE11_S_max_sizeERKS2_>
  1c:	f90013e0 	str	x0, [sp, #32]
  20:	910083e1 	add	x1, sp, #0x20
  24:	9100a3e0 	add	x0, sp, #0x28
  28:	94000000 	bl	0 <_ZNSt6vectorIP5LayerSaIS1_EE11_S_max_sizeERKS2_>
  2c:	f9400000 	ldr	x0, [x0]
  30:	a8c37bfd 	ldp	x29, x30, [sp], #48
  34:	d65f03c0 	ret

Disassembly of section .text._ZNKSt12_Vector_baseIP5LayerSaIS1_EE19_M_get_Tp_allocatorEv:

0000000000000000 <_ZNKSt12_Vector_baseIP5LayerSaIS1_EE19_M_get_Tp_allocatorEv>:
   0:	d10043ff 	sub	sp, sp, #0x10
   4:	f90007e0 	str	x0, [sp, #8]
   8:	f94007e0 	ldr	x0, [sp, #8]
   c:	910043ff 	add	sp, sp, #0x10
  10:	d65f03c0 	ret

Disassembly of section .text._ZN9__gnu_cxx13new_allocatorIP5LayerE8allocateEmPKv:

0000000000000000 <_ZN9__gnu_cxx13new_allocatorIP5LayerE8allocateEmPKv>:
   0:	a9bd7bfd 	stp	x29, x30, [sp, #-48]!
   4:	910003fd 	mov	x29, sp
   8:	f90017e0 	str	x0, [sp, #40]
   c:	f90013e1 	str	x1, [sp, #32]
  10:	f9000fe2 	str	x2, [sp, #24]
  14:	f94017e0 	ldr	x0, [sp, #40]
  18:	94000000 	bl	0 <_ZN9__gnu_cxx13new_allocatorIP5LayerE8allocateEmPKv>
  1c:	aa0003e1 	mov	x1, x0
  20:	f94013e0 	ldr	x0, [sp, #32]
  24:	eb01001f 	cmp	x0, x1
  28:	1a9f97e0 	cset	w0, hi  // hi = pmore
  2c:	12001c00 	and	w0, w0, #0xff
  30:	7100001f 	cmp	w0, #0x0
  34:	54000040 	b.eq	3c <_ZN9__gnu_cxx13new_allocatorIP5LayerE8allocateEmPKv+0x3c>  // b.none
  38:	94000000 	bl	0 <_ZSt17__throw_bad_allocv>
  3c:	f94013e0 	ldr	x0, [sp, #32]
  40:	d37df000 	lsl	x0, x0, #3
  44:	94000000 	bl	0 <_Znwm>
  48:	a8c37bfd 	ldp	x29, x30, [sp], #48
  4c:	d65f03c0 	ret

Disassembly of section .text._ZSt12__relocate_aIPP5LayerS2_SaIS1_EET0_T_S5_S4_RT1_:

0000000000000000 <_ZSt12__relocate_aIPP5LayerS2_SaIS1_EET0_T_S5_S4_RT1_>:
   0:	a9bc7bfd 	stp	x29, x30, [sp, #-64]!
   4:	910003fd 	mov	x29, sp
   8:	a90153f3 	stp	x19, x20, [sp, #16]
   c:	f9001fe0 	str	x0, [sp, #56]
  10:	f9001be1 	str	x1, [sp, #48]
  14:	f90017e2 	str	x2, [sp, #40]
  18:	f90013e3 	str	x3, [sp, #32]
  1c:	f9401fe0 	ldr	x0, [sp, #56]
  20:	94000000 	bl	0 <_ZSt12__relocate_aIPP5LayerS2_SaIS1_EET0_T_S5_S4_RT1_>
  24:	aa0003f3 	mov	x19, x0
  28:	f9401be0 	ldr	x0, [sp, #48]
  2c:	94000000 	bl	0 <_ZSt12__relocate_aIPP5LayerS2_SaIS1_EET0_T_S5_S4_RT1_>
  30:	aa0003f4 	mov	x20, x0
  34:	f94017e0 	ldr	x0, [sp, #40]
  38:	94000000 	bl	0 <_ZSt12__relocate_aIPP5LayerS2_SaIS1_EET0_T_S5_S4_RT1_>
  3c:	f94013e3 	ldr	x3, [sp, #32]
  40:	aa0003e2 	mov	x2, x0
  44:	aa1403e1 	mov	x1, x20
  48:	aa1303e0 	mov	x0, x19
  4c:	94000000 	bl	0 <_ZSt12__relocate_aIPP5LayerS2_SaIS1_EET0_T_S5_S4_RT1_>
  50:	a94153f3 	ldp	x19, x20, [sp, #16]
  54:	a8c47bfd 	ldp	x29, x30, [sp], #64
  58:	d65f03c0 	ret

Disassembly of section .text._ZNSt13move_iteratorIPP5LayerEC2ES2_:

0000000000000000 <_ZNSt13move_iteratorIPP5LayerEC1ES2_>:
   0:	d10043ff 	sub	sp, sp, #0x10
   4:	f90007e0 	str	x0, [sp, #8]
   8:	f90003e1 	str	x1, [sp]
   c:	f94007e0 	ldr	x0, [sp, #8]
  10:	f94003e1 	ldr	x1, [sp]
  14:	f9000001 	str	x1, [x0]
  18:	d503201f 	nop
  1c:	910043ff 	add	sp, sp, #0x10
  20:	d65f03c0 	ret

Disassembly of section .text._ZSt18uninitialized_copyISt13move_iteratorIPP5LayerES3_ET0_T_S6_S5_:

0000000000000000 <_ZSt18uninitialized_copyISt13move_iteratorIPP5LayerES3_ET0_T_S6_S5_>:
   0:	a9bc7bfd 	stp	x29, x30, [sp, #-64]!
   4:	910003fd 	mov	x29, sp
   8:	f90017e0 	str	x0, [sp, #40]
   c:	f90013e1 	str	x1, [sp, #32]
  10:	f9000fe2 	str	x2, [sp, #24]
  14:	52800020 	mov	w0, #0x1                   	// #1
  18:	3900ffe0 	strb	w0, [sp, #63]
  1c:	f9400fe2 	ldr	x2, [sp, #24]
  20:	f94013e1 	ldr	x1, [sp, #32]
  24:	f94017e0 	ldr	x0, [sp, #40]
  28:	94000000 	bl	0 <_ZSt18uninitialized_copyISt13move_iteratorIPP5LayerES3_ET0_T_S6_S5_>
  2c:	a8c47bfd 	ldp	x29, x30, [sp], #64
  30:	d65f03c0 	ret

Disassembly of section .text._ZNSt16allocator_traitsISaIP5LayerEE8max_sizeERKS2_:

0000000000000000 <_ZNSt16allocator_traitsISaIP5LayerEE8max_sizeERKS2_>:
   0:	a9be7bfd 	stp	x29, x30, [sp, #-32]!
   4:	910003fd 	mov	x29, sp
   8:	f9000fe0 	str	x0, [sp, #24]
   c:	f9400fe0 	ldr	x0, [sp, #24]
  10:	94000000 	bl	0 <_ZNSt16allocator_traitsISaIP5LayerEE8max_sizeERKS2_>
  14:	a8c27bfd 	ldp	x29, x30, [sp], #32
  18:	d65f03c0 	ret

Disassembly of section .text._ZSt3minImERKT_S2_S2_:

0000000000000000 <_ZSt3minImERKT_S2_S2_>:
   0:	d10043ff 	sub	sp, sp, #0x10
   4:	f90007e0 	str	x0, [sp, #8]
   8:	f90003e1 	str	x1, [sp]
   c:	f94003e0 	ldr	x0, [sp]
  10:	f9400001 	ldr	x1, [x0]
  14:	f94007e0 	ldr	x0, [sp, #8]
  18:	f9400000 	ldr	x0, [x0]
  1c:	eb00003f 	cmp	x1, x0
  20:	54000062 	b.cs	2c <_ZSt3minImERKT_S2_S2_+0x2c>  // b.hs, b.nlast
  24:	f94003e0 	ldr	x0, [sp]
  28:	14000002 	b	30 <_ZSt3minImERKT_S2_S2_+0x30>
  2c:	f94007e0 	ldr	x0, [sp, #8]
  30:	910043ff 	add	sp, sp, #0x10
  34:	d65f03c0 	ret

Disassembly of section .text._ZNK9__gnu_cxx13new_allocatorIP5LayerE8max_sizeEv:

0000000000000000 <_ZNK9__gnu_cxx13new_allocatorIP5LayerE8max_sizeEv>:
   0:	d10043ff 	sub	sp, sp, #0x10
   4:	f90007e0 	str	x0, [sp, #8]
   8:	92fe0000 	mov	x0, #0xfffffffffffffff     	// #1152921504606846975
   c:	910043ff 	add	sp, sp, #0x10
  10:	d65f03c0 	ret

Disassembly of section .text._ZSt12__niter_baseIPP5LayerET_S3_:

0000000000000000 <_ZSt12__niter_baseIPP5LayerET_S3_>:
   0:	d10043ff 	sub	sp, sp, #0x10
   4:	f90007e0 	str	x0, [sp, #8]
   8:	f94007e0 	ldr	x0, [sp, #8]
   c:	910043ff 	add	sp, sp, #0x10
  10:	d65f03c0 	ret

Disassembly of section .text._ZSt14__relocate_a_1IP5LayerS1_ENSt9enable_ifIXsrSt24__is_bitwise_relocatableIT_vE5valueEPS4_E4typeES6_S6_S6_RSaIT0_E:

0000000000000000 <_ZSt14__relocate_a_1IP5LayerS1_ENSt9enable_ifIXsrSt24__is_bitwise_relocatableIT_vE5valueEPS4_E4typeES6_S6_S6_RSaIT0_E>:
   0:	a9bc7bfd 	stp	x29, x30, [sp, #-64]!
   4:	910003fd 	mov	x29, sp
   8:	f90017e0 	str	x0, [sp, #40]
   c:	f90013e1 	str	x1, [sp, #32]
  10:	f9000fe2 	str	x2, [sp, #24]
  14:	f9000be3 	str	x3, [sp, #16]
  18:	f94013e1 	ldr	x1, [sp, #32]
  1c:	f94017e0 	ldr	x0, [sp, #40]
  20:	cb000020 	sub	x0, x1, x0
  24:	9343fc00 	asr	x0, x0, #3
  28:	f9001fe0 	str	x0, [sp, #56]
  2c:	f9401fe0 	ldr	x0, [sp, #56]
  30:	f100001f 	cmp	x0, #0x0
  34:	540000ed 	b.le	50 <_ZSt14__relocate_a_1IP5LayerS1_ENSt9enable_ifIXsrSt24__is_bitwise_relocatableIT_vE5valueEPS4_E4typeES6_S6_S6_RSaIT0_E+0x50>
  38:	f9401fe0 	ldr	x0, [sp, #56]
  3c:	d37df000 	lsl	x0, x0, #3
  40:	aa0003e2 	mov	x2, x0
  44:	f94017e1 	ldr	x1, [sp, #40]
  48:	f9400fe0 	ldr	x0, [sp, #24]
  4c:	94000000 	bl	0 <memmove>
  50:	f9401fe0 	ldr	x0, [sp, #56]
  54:	d37df000 	lsl	x0, x0, #3
  58:	f9400fe1 	ldr	x1, [sp, #24]
  5c:	8b000020 	add	x0, x1, x0
  60:	a8c47bfd 	ldp	x29, x30, [sp], #64
  64:	d65f03c0 	ret

Disassembly of section .text._ZNSt20__uninitialized_copyILb1EE13__uninit_copyISt13move_iteratorIPP5LayerES5_EET0_T_S8_S7_:

0000000000000000 <_ZNSt20__uninitialized_copyILb1EE13__uninit_copyISt13move_iteratorIPP5LayerES5_EET0_T_S8_S7_>:
   0:	a9bd7bfd 	stp	x29, x30, [sp, #-48]!
   4:	910003fd 	mov	x29, sp
   8:	f90017e0 	str	x0, [sp, #40]
   c:	f90013e1 	str	x1, [sp, #32]
  10:	f9000fe2 	str	x2, [sp, #24]
  14:	f9400fe2 	ldr	x2, [sp, #24]
  18:	f94013e1 	ldr	x1, [sp, #32]
  1c:	f94017e0 	ldr	x0, [sp, #40]
  20:	94000000 	bl	0 <_ZNSt20__uninitialized_copyILb1EE13__uninit_copyISt13move_iteratorIPP5LayerES5_EET0_T_S8_S7_>
  24:	a8c37bfd 	ldp	x29, x30, [sp], #48
  28:	d65f03c0 	ret

Disassembly of section .text._ZSt4copyISt13move_iteratorIPP5LayerES3_ET0_T_S6_S5_:

0000000000000000 <_ZSt4copyISt13move_iteratorIPP5LayerES3_ET0_T_S6_S5_>:
   0:	a9bc7bfd 	stp	x29, x30, [sp, #-64]!
   4:	910003fd 	mov	x29, sp
   8:	f9000bf3 	str	x19, [sp, #16]
   c:	f9001fe0 	str	x0, [sp, #56]
  10:	f9001be1 	str	x1, [sp, #48]
  14:	f90017e2 	str	x2, [sp, #40]
  18:	f9401fe0 	ldr	x0, [sp, #56]
  1c:	94000000 	bl	0 <_ZSt4copyISt13move_iteratorIPP5LayerES3_ET0_T_S6_S5_>
  20:	aa0003f3 	mov	x19, x0
  24:	f9401be0 	ldr	x0, [sp, #48]
  28:	94000000 	bl	0 <_ZSt4copyISt13move_iteratorIPP5LayerES3_ET0_T_S6_S5_>
  2c:	f94017e2 	ldr	x2, [sp, #40]
  30:	aa0003e1 	mov	x1, x0
  34:	aa1303e0 	mov	x0, x19
  38:	94000000 	bl	0 <_ZSt4copyISt13move_iteratorIPP5LayerES3_ET0_T_S6_S5_>
  3c:	f9400bf3 	ldr	x19, [sp, #16]
  40:	a8c47bfd 	ldp	x29, x30, [sp], #64
  44:	d65f03c0 	ret

Disassembly of section .text._ZSt12__miter_baseIPP5LayerEDTcl12__miter_basecldtfp_4baseEEESt13move_iteratorIT_E:

0000000000000000 <_ZSt12__miter_baseIPP5LayerEDTcl12__miter_basecldtfp_4baseEEESt13move_iteratorIT_E>:
   0:	a9be7bfd 	stp	x29, x30, [sp, #-32]!
   4:	910003fd 	mov	x29, sp
   8:	f9000fe0 	str	x0, [sp, #24]
   c:	910063e0 	add	x0, sp, #0x18
  10:	94000000 	bl	0 <_ZSt12__miter_baseIPP5LayerEDTcl12__miter_basecldtfp_4baseEEESt13move_iteratorIT_E>
  14:	94000000 	bl	0 <_ZSt12__miter_baseIPP5LayerEDTcl12__miter_basecldtfp_4baseEEESt13move_iteratorIT_E>
  18:	a8c27bfd 	ldp	x29, x30, [sp], #32
  1c:	d65f03c0 	ret

Disassembly of section .text._ZSt14__copy_move_a2ILb1EPP5LayerS2_ET1_T0_S4_S3_:

0000000000000000 <_ZSt14__copy_move_a2ILb1EPP5LayerS2_ET1_T0_S4_S3_>:
   0:	a9bc7bfd 	stp	x29, x30, [sp, #-64]!
   4:	910003fd 	mov	x29, sp
   8:	a90153f3 	stp	x19, x20, [sp, #16]
   c:	f9001fe0 	str	x0, [sp, #56]
  10:	f9001be1 	str	x1, [sp, #48]
  14:	f90017e2 	str	x2, [sp, #40]
  18:	f9401fe0 	ldr	x0, [sp, #56]
  1c:	94000000 	bl	0 <_ZSt14__copy_move_a2ILb1EPP5LayerS2_ET1_T0_S4_S3_>
  20:	aa0003f3 	mov	x19, x0
  24:	f9401be0 	ldr	x0, [sp, #48]
  28:	94000000 	bl	0 <_ZSt14__copy_move_a2ILb1EPP5LayerS2_ET1_T0_S4_S3_>
  2c:	aa0003f4 	mov	x20, x0
  30:	f94017e0 	ldr	x0, [sp, #40]
  34:	94000000 	bl	0 <_ZSt14__copy_move_a2ILb1EPP5LayerS2_ET1_T0_S4_S3_>
  38:	aa0003e2 	mov	x2, x0
  3c:	aa1403e1 	mov	x1, x20
  40:	aa1303e0 	mov	x0, x19
  44:	94000000 	bl	0 <_ZSt14__copy_move_a2ILb1EPP5LayerS2_ET1_T0_S4_S3_>
  48:	aa0003e1 	mov	x1, x0
  4c:	9100a3e0 	add	x0, sp, #0x28
  50:	94000000 	bl	0 <_ZSt14__copy_move_a2ILb1EPP5LayerS2_ET1_T0_S4_S3_>
  54:	a94153f3 	ldp	x19, x20, [sp, #16]
  58:	a8c47bfd 	ldp	x29, x30, [sp], #64
  5c:	d65f03c0 	ret

Disassembly of section .text._ZNKSt13move_iteratorIPP5LayerE4baseEv:

0000000000000000 <_ZNKSt13move_iteratorIPP5LayerE4baseEv>:
   0:	d10043ff 	sub	sp, sp, #0x10
   4:	f90007e0 	str	x0, [sp, #8]
   8:	f94007e0 	ldr	x0, [sp, #8]
   c:	f9400000 	ldr	x0, [x0]
  10:	910043ff 	add	sp, sp, #0x10
  14:	d65f03c0 	ret

Disassembly of section .text._ZSt12__miter_baseIPP5LayerET_S3_:

0000000000000000 <_ZSt12__miter_baseIPP5LayerET_S3_>:
   0:	d10043ff 	sub	sp, sp, #0x10
   4:	f90007e0 	str	x0, [sp, #8]
   8:	f94007e0 	ldr	x0, [sp, #8]
   c:	910043ff 	add	sp, sp, #0x10
  10:	d65f03c0 	ret

Disassembly of section .text._ZSt13__copy_move_aILb1EPP5LayerS2_ET1_T0_S4_S3_:

0000000000000000 <_ZSt13__copy_move_aILb1EPP5LayerS2_ET1_T0_S4_S3_>:
   0:	a9bc7bfd 	stp	x29, x30, [sp, #-64]!
   4:	910003fd 	mov	x29, sp
   8:	f90017e0 	str	x0, [sp, #40]
   c:	f90013e1 	str	x1, [sp, #32]
  10:	f9000fe2 	str	x2, [sp, #24]
  14:	52800020 	mov	w0, #0x1                   	// #1
  18:	3900ffe0 	strb	w0, [sp, #63]
  1c:	f9400fe2 	ldr	x2, [sp, #24]
  20:	f94013e1 	ldr	x1, [sp, #32]
  24:	f94017e0 	ldr	x0, [sp, #40]
  28:	94000000 	bl	0 <_ZSt13__copy_move_aILb1EPP5LayerS2_ET1_T0_S4_S3_>
  2c:	a8c47bfd 	ldp	x29, x30, [sp], #64
  30:	d65f03c0 	ret

Disassembly of section .text._ZSt12__niter_wrapIPP5LayerET_RKS3_S3_:

0000000000000000 <_ZSt12__niter_wrapIPP5LayerET_RKS3_S3_>:
   0:	d10043ff 	sub	sp, sp, #0x10
   4:	f90007e0 	str	x0, [sp, #8]
   8:	f90003e1 	str	x1, [sp]
   c:	f94003e0 	ldr	x0, [sp]
  10:	910043ff 	add	sp, sp, #0x10
  14:	d65f03c0 	ret

Disassembly of section .text._ZNSt11__copy_moveILb1ELb1ESt26random_access_iterator_tagE8__copy_mIP5LayerEEPT_PKS5_S8_S6_:

0000000000000000 <_ZNSt11__copy_moveILb1ELb1ESt26random_access_iterator_tagE8__copy_mIP5LayerEEPT_PKS5_S8_S6_>:
   0:	a9bc7bfd 	stp	x29, x30, [sp, #-64]!
   4:	910003fd 	mov	x29, sp
   8:	f90017e0 	str	x0, [sp, #40]
   c:	f90013e1 	str	x1, [sp, #32]
  10:	f9000fe2 	str	x2, [sp, #24]
  14:	f94013e1 	ldr	x1, [sp, #32]
  18:	f94017e0 	ldr	x0, [sp, #40]
  1c:	cb000020 	sub	x0, x1, x0
  20:	9343fc00 	asr	x0, x0, #3
  24:	f9001fe0 	str	x0, [sp, #56]
  28:	f9401fe0 	ldr	x0, [sp, #56]
  2c:	f100001f 	cmp	x0, #0x0
  30:	540000e0 	b.eq	4c <_ZNSt11__copy_moveILb1ELb1ESt26random_access_iterator_tagE8__copy_mIP5LayerEEPT_PKS5_S8_S6_+0x4c>  // b.none
  34:	f9401fe0 	ldr	x0, [sp, #56]
  38:	d37df000 	lsl	x0, x0, #3
  3c:	aa0003e2 	mov	x2, x0
  40:	f94017e1 	ldr	x1, [sp, #40]
  44:	f9400fe0 	ldr	x0, [sp, #24]
  48:	94000000 	bl	0 <memmove>
  4c:	f9401fe0 	ldr	x0, [sp, #56]
  50:	d37df000 	lsl	x0, x0, #3
  54:	f9400fe1 	ldr	x1, [sp, #24]
  58:	8b000020 	add	x0, x1, x0
  5c:	a8c47bfd 	ldp	x29, x30, [sp], #64
  60:	d65f03c0 	ret
