
../out-br/build/optee_examples_ext-1.0/gpu_hello_world/ta/out/2c4493d0-ef85-11eb-9a03-0242ac130003.elf:     file format elf64-littleaarch64


Disassembly of section .text:

0000000000000020 <__addtf3>:
      20:	a9bd7bfd 	stp	x29, x30, [sp, #-48]!
      24:	910003fd 	mov	x29, sp
      28:	3d8007e0 	str	q0, [sp, #16]
      2c:	3d800be1 	str	q1, [sp, #32]
      30:	a94107e6 	ldp	x6, x1, [sp, #16]
      34:	a9420fe0 	ldp	x0, x3, [sp, #32]
      38:	d53b440f 	mrs	x15, fpcr
      3c:	d37ffc27 	lsr	x7, x1, #63
      40:	aa0003ea 	mov	x10, x0
      44:	d37dbc64 	ubfiz	x4, x3, #3, #48
      48:	d37ffc65 	lsr	x5, x3, #63
      4c:	aa0703ec 	mov	x12, x7
      50:	d37dbc22 	ubfiz	x2, x1, #3, #48
      54:	aa40f484 	orr	x4, x4, x0, lsr #61
      58:	d370f828 	ubfx	x8, x1, #48, #15
      5c:	d370f860 	ubfx	x0, x3, #48, #15
      60:	12001ce7 	and	w7, w7, #0xff
      64:	aa0c03f0 	mov	x16, x12
      68:	eb05019f 	cmp	x12, x5
      6c:	12001cab 	and	w11, w5, #0xff
      70:	aa46f442 	orr	x2, x2, x6, lsr #61
      74:	aa0803e1 	mov	x1, x8
      78:	d37df0c9 	lsl	x9, x6, #3
      7c:	aa0003e3 	mov	x3, x0
      80:	d37df14d 	lsl	x13, x10, #3
      84:	54000d60 	b.eq	230 <__addtf3+0x210>  // b.none
      88:	4b000100 	sub	w0, w8, w0
      8c:	7100001f 	cmp	w0, #0x0
      90:	54000a6d 	b.le	1dc <__addtf3+0x1bc>
      94:	b4000fe3 	cbz	x3, 290 <__addtf3+0x270>
      98:	b24d0084 	orr	x4, x4, #0x8000000000000
      9c:	d28fffe3 	mov	x3, #0x7fff                	// #32767
      a0:	eb03003f 	cmp	x1, x3
      a4:	54001f80 	b.eq	494 <__addtf3+0x474>  // b.none
      a8:	7101d01f 	cmp	w0, #0x74
      ac:	5400236c 	b.gt	518 <__addtf3+0x4f8>
      b0:	7100fc1f 	cmp	w0, #0x3f
      b4:	54002e2c 	b.gt	678 <__addtf3+0x658>
      b8:	52800803 	mov	w3, #0x40                  	// #64
      bc:	4b000063 	sub	w3, w3, w0
      c0:	9ac025a6 	lsr	x6, x13, x0
      c4:	9ac321ad 	lsl	x13, x13, x3
      c8:	f10001bf 	cmp	x13, #0x0
      cc:	9a9f07e5 	cset	x5, ne  // ne = any
      d0:	9ac32083 	lsl	x3, x4, x3
      d4:	aa060063 	orr	x3, x3, x6
      d8:	9ac02480 	lsr	x0, x4, x0
      dc:	aa050063 	orr	x3, x3, x5
      e0:	cb000042 	sub	x2, x2, x0
      e4:	eb030129 	subs	x9, x9, x3
      e8:	da1f0042 	sbc	x2, x2, xzr
      ec:	9240c843 	and	x3, x2, #0x7ffffffffffff
      f0:	b6980f02 	tbz	x2, #51, 2d0 <__addtf3+0x2b0>
      f4:	b4002043 	cbz	x3, 4fc <__addtf3+0x4dc>
      f8:	dac01060 	clz	x0, x3
      fc:	51003000 	sub	w0, w0, #0xc
     100:	4b0003e2 	neg	w2, w0
     104:	9ac02064 	lsl	x4, x3, x0
     108:	9ac02123 	lsl	x3, x9, x0
     10c:	9ac22529 	lsr	x9, x9, x2
     110:	aa040122 	orr	x2, x9, x4
     114:	eb20c03f 	cmp	x1, w0, sxtw
     118:	93407c04 	sxtw	x4, w0
     11c:	54001e0c 	b.gt	4dc <__addtf3+0x4bc>
     120:	4b010001 	sub	w1, w0, w1
     124:	11000420 	add	w0, w1, #0x1
     128:	7100fc1f 	cmp	w0, #0x3f
     12c:	540028ac 	b.gt	640 <__addtf3+0x620>
     130:	52800801 	mov	w1, #0x40                  	// #64
     134:	4b000021 	sub	w1, w1, w0
     138:	9ac02464 	lsr	x4, x3, x0
     13c:	9ac12063 	lsl	x3, x3, x1
     140:	f100007f 	cmp	x3, #0x0
     144:	9ac12049 	lsl	x9, x2, x1
     148:	9a9f07e1 	cset	x1, ne  // ne = any
     14c:	aa040129 	orr	x9, x9, x4
     150:	9ac02442 	lsr	x2, x2, x0
     154:	aa010129 	orr	x9, x9, x1
     158:	aa020128 	orr	x8, x9, x2
     15c:	b4000c48 	cbz	x8, 2e4 <__addtf3+0x2c4>
     160:	92400920 	and	x0, x9, #0x7
     164:	d2800001 	mov	x1, #0x0                   	// #0
     168:	52800025 	mov	w5, #0x1                   	// #1
     16c:	b4001de0 	cbz	x0, 528 <__addtf3+0x508>
     170:	926a05e3 	and	x3, x15, #0xc00000
     174:	f150007f 	cmp	x3, #0x400, lsl #12
     178:	540017a0 	b.eq	46c <__addtf3+0x44c>  // b.none
     17c:	f160007f 	cmp	x3, #0x800, lsl #12
     180:	54001660 	b.eq	44c <__addtf3+0x42c>  // b.none
     184:	b40017a3 	cbz	x3, 478 <__addtf3+0x458>
     188:	924d0043 	and	x3, x2, #0x8000000000000
     18c:	52800200 	mov	w0, #0x10                  	// #16
     190:	34000045 	cbz	w5, 198 <__addtf3+0x178>
     194:	321d0000 	orr	w0, w0, #0x8
     198:	b40018c3 	cbz	x3, 4b0 <__addtf3+0x490>
     19c:	91000421 	add	x1, x1, #0x1
     1a0:	d28fffe3 	mov	x3, #0x7fff                	// #32767
     1a4:	eb03003f 	cmp	x1, x3
     1a8:	54000f60 	b.eq	394 <__addtf3+0x374>  // b.none
     1ac:	12003821 	and	w1, w1, #0x7fff
     1b0:	93c90c48 	extr	x8, x2, x9, #3
     1b4:	d343c842 	ubfx	x2, x2, #3, #48
     1b8:	d2800005 	mov	x5, #0x0                   	// #0
     1bc:	2a073c21 	orr	w1, w1, w7, lsl #15
     1c0:	b340bc45 	bfxil	x5, x2, #0, #48
     1c4:	9e670100 	fmov	d0, x8
     1c8:	b3503c25 	bfi	x5, x1, #48, #16
     1cc:	9eaf00a0 	fmov	v0.d[1], x5
     1d0:	35001100 	cbnz	w0, 3f0 <__addtf3+0x3d0>
     1d4:	a8c37bfd 	ldp	x29, x30, [sp], #48
     1d8:	d65f03c0 	ret
     1dc:	aa0503ee 	mov	x14, x5
     1e0:	540008e0 	b.eq	2fc <__addtf3+0x2dc>  // b.none
     1e4:	b5001ce8 	cbnz	x8, 580 <__addtf3+0x560>
     1e8:	aa090041 	orr	x1, x2, x9
     1ec:	b4000601 	cbz	x1, 2ac <__addtf3+0x28c>
     1f0:	3100041f 	cmn	w0, #0x1
     1f4:	54003d40 	b.eq	99c <__addtf3+0x97c>  // b.none
     1f8:	d28fffe1 	mov	x1, #0x7fff                	// #32767
     1fc:	2a2003e0 	mvn	w0, w0
     200:	eb01007f 	cmp	x3, x1
     204:	54001c81 	b.ne	594 <__addtf3+0x574>  // b.any
     208:	aa0d0080 	orr	x0, x4, x13
     20c:	b5003740 	cbnz	x0, 8f4 <__addtf3+0x8d4>
     210:	aa0e03f0 	mov	x16, x14
     214:	d503201f 	nop
     218:	d2800004 	mov	x4, #0x0                   	// #0
     21c:	9e670080 	fmov	d0, x4
     220:	d3410210 	lsl	x16, x16, #63
     224:	b2503a05 	orr	x5, x16, #0x7fff000000000000
     228:	9eaf00a0 	fmov	v0.d[1], x5
     22c:	17ffffea 	b	1d4 <__addtf3+0x1b4>
     230:	4b000105 	sub	w5, w8, w0
     234:	710000bf 	cmp	w5, #0x0
     238:	54000e6d 	b.le	404 <__addtf3+0x3e4>
     23c:	b4000840 	cbz	x0, 344 <__addtf3+0x324>
     240:	b24d0084 	orr	x4, x4, #0x8000000000000
     244:	d28fffe0 	mov	x0, #0x7fff                	// #32767
     248:	eb00003f 	cmp	x1, x0
     24c:	54001240 	b.eq	494 <__addtf3+0x474>  // b.none
     250:	7101d0bf 	cmp	w5, #0x74
     254:	54001eac 	b.gt	628 <__addtf3+0x608>
     258:	7100fcbf 	cmp	w5, #0x3f
     25c:	5400266c 	b.gt	728 <__addtf3+0x708>
     260:	52800800 	mov	w0, #0x40                  	// #64
     264:	4b050000 	sub	w0, w0, w5
     268:	9ac525a6 	lsr	x6, x13, x5
     26c:	9ac021ad 	lsl	x13, x13, x0
     270:	f10001bf 	cmp	x13, #0x0
     274:	9ac02080 	lsl	x0, x4, x0
     278:	9a9f07e3 	cset	x3, ne  // ne = any
     27c:	aa060000 	orr	x0, x0, x6
     280:	9ac52484 	lsr	x4, x4, x5
     284:	aa030000 	orr	x0, x0, x3
     288:	8b040042 	add	x2, x2, x4
     28c:	140000ea 	b	634 <__addtf3+0x614>
     290:	aa0d0083 	orr	x3, x4, x13
     294:	b4001b83 	cbz	x3, 604 <__addtf3+0x5e4>
     298:	71000400 	subs	w0, w0, #0x1
     29c:	54fff001 	b.ne	9c <__addtf3+0x7c>  // b.any
     2a0:	eb0d0129 	subs	x9, x9, x13
     2a4:	da040042 	sbc	x2, x2, x4
     2a8:	17ffff91 	b	ec <__addtf3+0xcc>
     2ac:	d28fffe0 	mov	x0, #0x7fff                	// #32767
     2b0:	eb00007f 	cmp	x3, x0
     2b4:	540039a0 	b.eq	9e8 <__addtf3+0x9c8>  // b.none
     2b8:	2a0b03e7 	mov	w7, w11
     2bc:	aa0403e2 	mov	x2, x4
     2c0:	aa0d03e9 	mov	x9, x13
     2c4:	aa0303e1 	mov	x1, x3
     2c8:	aa0503ec 	mov	x12, x5
     2cc:	d503201f 	nop
     2d0:	aa020128 	orr	x8, x9, x2
     2d4:	92400920 	and	x0, x9, #0x7
     2d8:	52800005 	mov	w5, #0x0                   	// #0
     2dc:	b5fff481 	cbnz	x1, 16c <__addtf3+0x14c>
     2e0:	b5fff408 	cbnz	x8, 160 <__addtf3+0x140>
     2e4:	d2800002 	mov	x2, #0x0                   	// #0
     2e8:	d2800001 	mov	x1, #0x0                   	// #0
     2ec:	52800000 	mov	w0, #0x0                   	// #0
     2f0:	9240bc42 	and	x2, x2, #0xffffffffffff
     2f4:	12003821 	and	w1, w1, #0x7fff
     2f8:	17ffffb0 	b	1b8 <__addtf3+0x198>
     2fc:	91000505 	add	x5, x8, #0x1
     300:	f27f34bf 	tst	x5, #0x7ffe
     304:	54001681 	b.ne	5d4 <__addtf3+0x5b4>  // b.any
     308:	aa090045 	orr	x5, x2, x9
     30c:	aa0d0088 	orr	x8, x4, x13
     310:	b5002421 	cbnz	x1, 794 <__addtf3+0x774>
     314:	b4002945 	cbz	x5, 83c <__addtf3+0x81c>
     318:	b40029c8 	cbz	x8, 850 <__addtf3+0x830>
     31c:	eb0d0125 	subs	x5, x9, x13
     320:	eb0d013f 	cmp	x9, x13
     324:	da040043 	sbc	x3, x2, x4
     328:	b69837a3 	tbz	x3, #51, a1c <__addtf3+0x9fc>
     32c:	eb0901a9 	subs	x9, x13, x9
     330:	2a0b03e7 	mov	w7, w11
     334:	da020082 	sbc	x2, x4, x2
     338:	aa0e03ec 	mov	x12, x14
     33c:	aa020128 	orr	x8, x9, x2
     340:	17ffff87 	b	15c <__addtf3+0x13c>
     344:	aa0d0080 	orr	x0, x4, x13
     348:	b40026a0 	cbz	x0, 81c <__addtf3+0x7fc>
     34c:	710004a5 	subs	w5, w5, #0x1
     350:	54fff7a1 	b.ne	244 <__addtf3+0x224>  // b.any
     354:	ab0d0129 	adds	x9, x9, x13
     358:	9a020082 	adc	x2, x4, x2
     35c:	d503201f 	nop
     360:	b69ffb82 	tbz	x2, #51, 2d0 <__addtf3+0x2b0>
     364:	91000421 	add	x1, x1, #0x1
     368:	d28fffe0 	mov	x0, #0x7fff                	// #32767
     36c:	eb00003f 	cmp	x1, x0
     370:	54002760 	b.eq	85c <__addtf3+0x83c>  // b.none
     374:	92400120 	and	x0, x9, #0x1
     378:	924cf843 	and	x3, x2, #0xfff7ffffffffffff
     37c:	aa490409 	orr	x9, x0, x9, lsr #1
     380:	52800005 	mov	w5, #0x0                   	// #0
     384:	aa02fd29 	orr	x9, x9, x2, lsl #63
     388:	d341fc62 	lsr	x2, x3, #1
     38c:	92400920 	and	x0, x9, #0x7
     390:	17ffff77 	b	16c <__addtf3+0x14c>
     394:	926a05e3 	and	x3, x15, #0xc00000
     398:	b40001c3 	cbz	x3, 3d0 <__addtf3+0x3b0>
     39c:	f150007f 	cmp	x3, #0x400, lsl #12
     3a0:	54000140 	b.eq	3c8 <__addtf3+0x3a8>  // b.none
     3a4:	f160007f 	cmp	x3, #0x800, lsl #12
     3a8:	1a9f018c 	csel	w12, w12, wzr, eq  // eq = none
     3ac:	3500012c 	cbnz	w12, 3d0 <__addtf3+0x3b0>
     3b0:	52800281 	mov	w1, #0x14                  	// #20
     3b4:	92fc0002 	mov	x2, #0x1fffffffffffffff    	// #2305843009213693951
     3b8:	2a010000 	orr	w0, w0, w1
     3bc:	92800008 	mov	x8, #0xffffffffffffffff    	// #-1
     3c0:	d28fffc1 	mov	x1, #0x7ffe                	// #32766
     3c4:	17ffffcb 	b	2f0 <__addtf3+0x2d0>
     3c8:	b5ffff4c 	cbnz	x12, 3b0 <__addtf3+0x390>
     3cc:	d503201f 	nop
     3d0:	52800281 	mov	w1, #0x14                  	// #20
     3d4:	92401cf0 	and	x16, x7, #0xff
     3d8:	2a010000 	orr	w0, w0, w1
     3dc:	d2800004 	mov	x4, #0x0                   	// #0
     3e0:	9e670080 	fmov	d0, x4
     3e4:	d3410210 	lsl	x16, x16, #63
     3e8:	b2503a05 	orr	x5, x16, #0x7fff000000000000
     3ec:	9eaf00a0 	fmov	v0.d[1], x5
     3f0:	3d8007e0 	str	q0, [sp, #16]
     3f4:	940007cb 	bl	2320 <__sfp_handle_exceptions>
     3f8:	3dc007e0 	ldr	q0, [sp, #16]
     3fc:	a8c37bfd 	ldp	x29, x30, [sp], #48
     400:	d65f03c0 	ret
     404:	54000a00 	b.eq	544 <__addtf3+0x524>  // b.none
     408:	b5001608 	cbnz	x8, 6c8 <__addtf3+0x6a8>
     40c:	aa090040 	orr	x0, x2, x9
     410:	b4002920 	cbz	x0, 934 <__addtf3+0x914>
     414:	310004bf 	cmn	w5, #0x1
     418:	540033e0 	b.eq	a94 <__addtf3+0xa74>  // b.none
     41c:	d28fffe0 	mov	x0, #0x7fff                	// #32767
     420:	2a2503e5 	mvn	w5, w5
     424:	eb00007f 	cmp	x3, x0
     428:	540015a1 	b.ne	6dc <__addtf3+0x6bc>  // b.any
     42c:	aa0d0080 	orr	x0, x4, x13
     430:	b4ffef40 	cbz	x0, 218 <__addtf3+0x1f8>
     434:	d372fc85 	lsr	x5, x4, #50
     438:	aa0d03e9 	mov	x9, x13
     43c:	d24000a5 	eor	x5, x5, #0x1
     440:	aa0403e2 	mov	x2, x4
     444:	120000a5 	and	w5, w5, #0x1
     448:	14000018 	b	4a8 <__addtf3+0x488>
     44c:	52800200 	mov	w0, #0x10                  	// #16
     450:	b400006c 	cbz	x12, 45c <__addtf3+0x43c>
     454:	b1002129 	adds	x9, x9, #0x8
     458:	9a823442 	cinc	x2, x2, cs  // cs = hs, nlast
     45c:	924d0043 	and	x3, x2, #0x8000000000000
     460:	34ffe9c5 	cbz	w5, 198 <__addtf3+0x178>
     464:	321d0000 	orr	w0, w0, #0x8
     468:	17ffff4c 	b	198 <__addtf3+0x178>
     46c:	52800200 	mov	w0, #0x10                  	// #16
     470:	b5ffff6c 	cbnz	x12, 45c <__addtf3+0x43c>
     474:	17fffff8 	b	454 <__addtf3+0x434>
     478:	92400d23 	and	x3, x9, #0xf
     47c:	52800200 	mov	w0, #0x10                  	// #16
     480:	f100107f 	cmp	x3, #0x4
     484:	54fffec0 	b.eq	45c <__addtf3+0x43c>  // b.none
     488:	b1001129 	adds	x9, x9, #0x4
     48c:	9a823442 	cinc	x2, x2, cs  // cs = hs, nlast
     490:	17fffff3 	b	45c <__addtf3+0x43c>
     494:	aa090040 	orr	x0, x2, x9
     498:	b4ffec00 	cbz	x0, 218 <__addtf3+0x1f8>
     49c:	d372fc45 	lsr	x5, x2, #50
     4a0:	d24000a5 	eor	x5, x5, #0x1
     4a4:	120000a5 	and	w5, w5, #0x1
     4a8:	2a0503e0 	mov	w0, w5
     4ac:	d28fffe1 	mov	x1, #0x7fff                	// #32767
     4b0:	d28fffe3 	mov	x3, #0x7fff                	// #32767
     4b4:	93c90c48 	extr	x8, x2, x9, #3
     4b8:	eb03003f 	cmp	x1, x3
     4bc:	d343fc42 	lsr	x2, x2, #3
     4c0:	54fff181 	b.ne	2f0 <__addtf3+0x2d0>  // b.any
     4c4:	aa020101 	orr	x1, x8, x2
     4c8:	b4003361 	cbz	x1, b34 <__addtf3+0xb14>
     4cc:	b2510042 	orr	x2, x2, #0x800000000000
     4d0:	528fffe1 	mov	w1, #0x7fff                	// #32767
     4d4:	9240bc42 	and	x2, x2, #0xffffffffffff
     4d8:	17ffff38 	b	1b8 <__addtf3+0x198>
     4dc:	aa0303e9 	mov	x9, x3
     4e0:	924cf842 	and	x2, x2, #0xfff7ffffffffffff
     4e4:	cb040021 	sub	x1, x1, x4
     4e8:	aa020128 	orr	x8, x9, x2
     4ec:	92400920 	and	x0, x9, #0x7
     4f0:	52800005 	mov	w5, #0x0                   	// #0
     4f4:	b4ffef61 	cbz	x1, 2e0 <__addtf3+0x2c0>
     4f8:	17ffff1d 	b	16c <__addtf3+0x14c>
     4fc:	dac01122 	clz	x2, x9
     500:	1100d040 	add	w0, w2, #0x34
     504:	7100fc1f 	cmp	w0, #0x3f
     508:	54ffdfcd 	b.le	100 <__addtf3+0xe0>
     50c:	51003042 	sub	w2, w2, #0xc
     510:	9ac22122 	lsl	x2, x9, x2
     514:	17ffff00 	b	114 <__addtf3+0xf4>
     518:	aa0d0084 	orr	x4, x4, x13
     51c:	f100009f 	cmp	x4, #0x0
     520:	9a9f07e3 	cset	x3, ne  // ne = any
     524:	17fffef0 	b	e4 <__addtf3+0xc4>
     528:	924d0043 	and	x3, x2, #0x8000000000000
     52c:	52800000 	mov	w0, #0x0                   	// #0
     530:	34ffe345 	cbz	w5, 198 <__addtf3+0x178>
     534:	52800000 	mov	w0, #0x0                   	// #0
     538:	365fe30f 	tbz	w15, #11, 198 <__addtf3+0x178>
     53c:	321d0000 	orr	w0, w0, #0x8
     540:	17ffff16 	b	198 <__addtf3+0x178>
     544:	91000500 	add	x0, x8, #0x1
     548:	f27f341f 	tst	x0, #0x7ffe
     54c:	54001041 	b.ne	754 <__addtf3+0x734>  // b.any
     550:	aa090040 	orr	x0, x2, x9
     554:	b5001de8 	cbnz	x8, 910 <__addtf3+0x8f0>
     558:	aa0d0088 	orr	x8, x4, x13
     55c:	b4002040 	cbz	x0, 964 <__addtf3+0x944>
     560:	b4001788 	cbz	x8, 850 <__addtf3+0x830>
     564:	ab0d0129 	adds	x9, x9, x13
     568:	9a020082 	adc	x2, x4, x2
     56c:	b69fee82 	tbz	x2, #51, 33c <__addtf3+0x31c>
     570:	924cf842 	and	x2, x2, #0xfff7ffffffffffff
     574:	92400920 	and	x0, x9, #0x7
     578:	d2800021 	mov	x1, #0x1                   	// #1
     57c:	17fffefc 	b	16c <__addtf3+0x14c>
     580:	d28fffe1 	mov	x1, #0x7fff                	// #32767
     584:	4b0003e0 	neg	w0, w0
     588:	b24d0042 	orr	x2, x2, #0x8000000000000
     58c:	eb01007f 	cmp	x3, x1
     590:	54ffe3c0 	b.eq	208 <__addtf3+0x1e8>  // b.none
     594:	7101d01f 	cmp	w0, #0x74
     598:	5400086c 	b.gt	6a4 <__addtf3+0x684>
     59c:	7100fc1f 	cmp	w0, #0x3f
     5a0:	5400190c 	b.gt	8c0 <__addtf3+0x8a0>
     5a4:	52800801 	mov	w1, #0x40                  	// #64
     5a8:	4b000021 	sub	w1, w1, w0
     5ac:	9ac02525 	lsr	x5, x9, x0
     5b0:	9ac12129 	lsl	x9, x9, x1
     5b4:	f100013f 	cmp	x9, #0x0
     5b8:	9ac12049 	lsl	x9, x2, x1
     5bc:	9a9f07e1 	cset	x1, ne  // ne = any
     5c0:	aa050129 	orr	x9, x9, x5
     5c4:	9ac02440 	lsr	x0, x2, x0
     5c8:	aa010129 	orr	x9, x9, x1
     5cc:	cb000084 	sub	x4, x4, x0
     5d0:	14000038 	b	6b0 <__addtf3+0x690>
     5d4:	eb0d0125 	subs	x5, x9, x13
     5d8:	eb0d013f 	cmp	x9, x13
     5dc:	da040043 	sbc	x3, x2, x4
     5e0:	b7980ce3 	tbnz	x3, #51, 77c <__addtf3+0x75c>
     5e4:	aa0300a8 	orr	x8, x5, x3
     5e8:	b5001608 	cbnz	x8, 8a8 <__addtf3+0x888>
     5ec:	926a05ef 	and	x15, x15, #0xc00000
     5f0:	d2800002 	mov	x2, #0x0                   	// #0
     5f4:	f16001ff 	cmp	x15, #0x800, lsl #12
     5f8:	d2800001 	mov	x1, #0x0                   	// #0
     5fc:	1a9f17e7 	cset	w7, eq  // eq = none
     600:	17ffff3c 	b	2f0 <__addtf3+0x2d0>
     604:	d28fffe0 	mov	x0, #0x7fff                	// #32767
     608:	eb00011f 	cmp	x8, x0
     60c:	54ffe621 	b.ne	2d0 <__addtf3+0x2b0>  // b.any
     610:	aa090040 	orr	x0, x2, x9
     614:	b5fff440 	cbnz	x0, 49c <__addtf3+0x47c>
     618:	d2800002 	mov	x2, #0x0                   	// #0
     61c:	d2800008 	mov	x8, #0x0                   	// #0
     620:	52800000 	mov	w0, #0x0                   	// #0
     624:	17ffffa8 	b	4c4 <__addtf3+0x4a4>
     628:	aa0d0084 	orr	x4, x4, x13
     62c:	f100009f 	cmp	x4, #0x0
     630:	9a9f07e0 	cset	x0, ne  // ne = any
     634:	ab090009 	adds	x9, x0, x9
     638:	9a823442 	cinc	x2, x2, cs  // cs = hs, nlast
     63c:	17ffff49 	b	360 <__addtf3+0x340>
     640:	52801004 	mov	w4, #0x80                  	// #128
     644:	4b000084 	sub	w4, w4, w0
     648:	7101001f 	cmp	w0, #0x40
     64c:	5100fc29 	sub	w9, w1, #0x3f
     650:	9ac42040 	lsl	x0, x2, x4
     654:	aa000060 	orr	x0, x3, x0
     658:	9a831003 	csel	x3, x0, x3, ne  // ne = any
     65c:	9ac92449 	lsr	x9, x2, x9
     660:	f100007f 	cmp	x3, #0x0
     664:	d2800002 	mov	x2, #0x0                   	// #0
     668:	9a9f07e0 	cset	x0, ne  // ne = any
     66c:	aa090009 	orr	x9, x0, x9
     670:	aa0903e8 	mov	x8, x9
     674:	17fffeba 	b	15c <__addtf3+0x13c>
     678:	52801005 	mov	w5, #0x80                  	// #128
     67c:	4b0000a5 	sub	w5, w5, w0
     680:	71010000 	subs	w0, w0, #0x40
     684:	9ac52085 	lsl	x5, x4, x5
     688:	aa0501a5 	orr	x5, x13, x5
     68c:	9a8d10ad 	csel	x13, x5, x13, ne  // ne = any
     690:	9ac02484 	lsr	x4, x4, x0
     694:	f10001bf 	cmp	x13, #0x0
     698:	9a9f07e3 	cset	x3, ne  // ne = any
     69c:	aa040063 	orr	x3, x3, x4
     6a0:	17fffe91 	b	e4 <__addtf3+0xc4>
     6a4:	aa090042 	orr	x2, x2, x9
     6a8:	f100005f 	cmp	x2, #0x0
     6ac:	9a9f07e9 	cset	x9, ne  // ne = any
     6b0:	eb0901a9 	subs	x9, x13, x9
     6b4:	2a0b03e7 	mov	w7, w11
     6b8:	da1f0082 	sbc	x2, x4, xzr
     6bc:	aa0303e1 	mov	x1, x3
     6c0:	aa0e03ec 	mov	x12, x14
     6c4:	17fffe8a 	b	ec <__addtf3+0xcc>
     6c8:	d28fffe0 	mov	x0, #0x7fff                	// #32767
     6cc:	4b0503e5 	neg	w5, w5
     6d0:	b24d0042 	orr	x2, x2, #0x8000000000000
     6d4:	eb00007f 	cmp	x3, x0
     6d8:	54ffeaa0 	b.eq	42c <__addtf3+0x40c>  // b.none
     6dc:	7101d0bf 	cmp	w5, #0x74
     6e0:	54000e8c 	b.gt	8b0 <__addtf3+0x890>
     6e4:	7100fcbf 	cmp	w5, #0x3f
     6e8:	5400144c 	b.gt	970 <__addtf3+0x950>
     6ec:	52800801 	mov	w1, #0x40                  	// #64
     6f0:	4b050021 	sub	w1, w1, w5
     6f4:	9ac52526 	lsr	x6, x9, x5
     6f8:	9ac12129 	lsl	x9, x9, x1
     6fc:	f100013f 	cmp	x9, #0x0
     700:	9a9f07e0 	cset	x0, ne  // ne = any
     704:	9ac12049 	lsl	x9, x2, x1
     708:	aa060129 	orr	x9, x9, x6
     70c:	9ac52445 	lsr	x5, x2, x5
     710:	aa000129 	orr	x9, x9, x0
     714:	8b050084 	add	x4, x4, x5
     718:	ab0d0129 	adds	x9, x9, x13
     71c:	aa0303e1 	mov	x1, x3
     720:	9a843482 	cinc	x2, x4, cs  // cs = hs, nlast
     724:	17ffff0f 	b	360 <__addtf3+0x340>
     728:	52801000 	mov	w0, #0x80                  	// #128
     72c:	4b050000 	sub	w0, w0, w5
     730:	710100a5 	subs	w5, w5, #0x40
     734:	9ac02080 	lsl	x0, x4, x0
     738:	aa0001a0 	orr	x0, x13, x0
     73c:	9a8d100d 	csel	x13, x0, x13, ne  // ne = any
     740:	9ac52484 	lsr	x4, x4, x5
     744:	f10001bf 	cmp	x13, #0x0
     748:	9a9f07e0 	cset	x0, ne  // ne = any
     74c:	aa040000 	orr	x0, x0, x4
     750:	17ffffb9 	b	634 <__addtf3+0x614>
     754:	d28fffe1 	mov	x1, #0x7fff                	// #32767
     758:	eb01001f 	cmp	x0, x1
     75c:	540012e0 	b.eq	9b8 <__addtf3+0x998>  // b.none
     760:	ab0d0129 	adds	x9, x9, x13
     764:	aa0003e1 	mov	x1, x0
     768:	9a020082 	adc	x2, x4, x2
     76c:	d3410d20 	ubfx	x0, x9, #1, #3
     770:	93c90449 	extr	x9, x2, x9, #1
     774:	d341fc42 	lsr	x2, x2, #1
     778:	17fffe7d 	b	16c <__addtf3+0x14c>
     77c:	eb0901bf 	cmp	x13, x9
     780:	2a0b03e7 	mov	w7, w11
     784:	da020083 	sbc	x3, x4, x2
     788:	cb0901a9 	sub	x9, x13, x9
     78c:	aa0e03ec 	mov	x12, x14
     790:	17fffe59 	b	f4 <__addtf3+0xd4>
     794:	d28fffec 	mov	x12, #0x7fff                	// #32767
     798:	eb0c003f 	cmp	x1, x12
     79c:	54000160 	b.eq	7c8 <__addtf3+0x7a8>  // b.none
     7a0:	eb0c007f 	cmp	x3, x12
     7a4:	540012a0 	b.eq	9f8 <__addtf3+0x9d8>  // b.none
     7a8:	b50001c5 	cbnz	x5, 7e0 <__addtf3+0x7c0>
     7ac:	2a0003e5 	mov	w5, w0
     7b0:	b5001948 	cbnz	x8, ad8 <__addtf3+0xab8>
     7b4:	52800007 	mov	w7, #0x0                   	// #0
     7b8:	92ffffe2 	mov	x2, #0xffffffffffff        	// #281474976710655
     7bc:	52800020 	mov	w0, #0x1                   	// #1
     7c0:	92800008 	mov	x8, #0xffffffffffffffff    	// #-1
     7c4:	17ffff42 	b	4cc <__addtf3+0x4ac>
     7c8:	b4001965 	cbz	x5, af4 <__addtf3+0xad4>
     7cc:	d372fc40 	lsr	x0, x2, #50
     7d0:	eb01007f 	cmp	x3, x1
     7d4:	d2400000 	eor	x0, x0, #0x1
     7d8:	12000000 	and	w0, w0, #0x1
     7dc:	540010e0 	b.eq	9f8 <__addtf3+0x9d8>  // b.none
     7e0:	b40011a8 	cbz	x8, a14 <__addtf3+0x9f4>
     7e4:	b3430846 	bfi	x6, x2, #61, #3
     7e8:	d343fc43 	lsr	x3, x2, #3
     7ec:	b69000e2 	tbz	x2, #50, 808 <__addtf3+0x7e8>
     7f0:	d343fc81 	lsr	x1, x4, #3
     7f4:	b79000a4 	tbnz	x4, #50, 808 <__addtf3+0x7e8>
     7f8:	aa0a03e6 	mov	x6, x10
     7fc:	2a0b03e7 	mov	w7, w11
     800:	b3430886 	bfi	x6, x4, #61, #3
     804:	aa0103e3 	mov	x3, x1
     808:	93c6f462 	extr	x2, x3, x6, #61
     80c:	b3430846 	bfi	x6, x2, #61, #3
     810:	d343fc42 	lsr	x2, x2, #3
     814:	aa0603e8 	mov	x8, x6
     818:	17ffff2b 	b	4c4 <__addtf3+0x4a4>
     81c:	d28fffe0 	mov	x0, #0x7fff                	// #32767
     820:	eb00011f 	cmp	x8, x0
     824:	54ffd561 	b.ne	2d0 <__addtf3+0x2b0>  // b.any
     828:	aa090040 	orr	x0, x2, x9
     82c:	b4ffef60 	cbz	x0, 618 <__addtf3+0x5f8>
     830:	d372fc45 	lsr	x5, x2, #50
     834:	520000a5 	eor	w5, w5, #0x1
     838:	17ffff1c 	b	4a8 <__addtf3+0x488>
     83c:	b40008a8 	cbz	x8, 950 <__addtf3+0x930>
     840:	2a0b03e7 	mov	w7, w11
     844:	aa0403e2 	mov	x2, x4
     848:	aa0d03e9 	mov	x9, x13
     84c:	aa0e03ec 	mov	x12, x14
     850:	d2800001 	mov	x1, #0x0                   	// #0
     854:	d2800003 	mov	x3, #0x0                   	// #0
     858:	17ffff37 	b	534 <__addtf3+0x514>
     85c:	f26a05e3 	ands	x3, x15, #0xc00000
     860:	54000460 	b.eq	8ec <__addtf3+0x8cc>  // b.none
     864:	f150007f 	cmp	x3, #0x400, lsl #12
     868:	520000e0 	eor	w0, w7, #0x1
     86c:	1a9f17e1 	cset	w1, eq  // eq = none
     870:	6a00003f 	tst	w1, w0
     874:	540014e1 	b.ne	b10 <__addtf3+0xaf0>  // b.any
     878:	f160007f 	cmp	x3, #0x800, lsl #12
     87c:	54001200 	b.eq	abc <__addtf3+0xa9c>  // b.none
     880:	f150007f 	cmp	x3, #0x400, lsl #12
     884:	52800280 	mov	w0, #0x14                  	// #20
     888:	54ffd881 	b.ne	398 <__addtf3+0x378>  // b.any
     88c:	92800002 	mov	x2, #0xffffffffffffffff    	// #-1
     890:	d28fffc1 	mov	x1, #0x7ffe                	// #32766
     894:	aa0203e9 	mov	x9, x2
     898:	52800005 	mov	w5, #0x0                   	// #0
     89c:	52800280 	mov	w0, #0x14                  	// #20
     8a0:	b5ffddec 	cbnz	x12, 45c <__addtf3+0x43c>
     8a4:	17fffeec 	b	454 <__addtf3+0x434>
     8a8:	aa0503e9 	mov	x9, x5
     8ac:	17fffe12 	b	f4 <__addtf3+0xd4>
     8b0:	aa090042 	orr	x2, x2, x9
     8b4:	f100005f 	cmp	x2, #0x0
     8b8:	9a9f07e9 	cset	x9, ne  // ne = any
     8bc:	17ffff97 	b	718 <__addtf3+0x6f8>
     8c0:	52801001 	mov	w1, #0x80                  	// #128
     8c4:	4b000021 	sub	w1, w1, w0
     8c8:	71010000 	subs	w0, w0, #0x40
     8cc:	9ac12041 	lsl	x1, x2, x1
     8d0:	aa010121 	orr	x1, x9, x1
     8d4:	9a891029 	csel	x9, x1, x9, ne  // ne = any
     8d8:	9ac02442 	lsr	x2, x2, x0
     8dc:	f100013f 	cmp	x9, #0x0
     8e0:	9a9f07e9 	cset	x9, ne  // ne = any
     8e4:	aa020129 	orr	x9, x9, x2
     8e8:	17ffff72 	b	6b0 <__addtf3+0x690>
     8ec:	52800280 	mov	w0, #0x14                  	// #20
     8f0:	17fffebb 	b	3dc <__addtf3+0x3bc>
     8f4:	d372fc85 	lsr	x5, x4, #50
     8f8:	2a0b03e7 	mov	w7, w11
     8fc:	d24000a5 	eor	x5, x5, #0x1
     900:	aa0d03e9 	mov	x9, x13
     904:	120000a5 	and	w5, w5, #0x1
     908:	aa0403e2 	mov	x2, x4
     90c:	17fffee7 	b	4a8 <__addtf3+0x488>
     910:	d28fffe8 	mov	x8, #0x7fff                	// #32767
     914:	eb08003f 	cmp	x1, x8
     918:	54000900 	b.eq	a38 <__addtf3+0xa18>  // b.none
     91c:	eb08007f 	cmp	x3, x8
     920:	54000c60 	b.eq	aac <__addtf3+0xa8c>  // b.none
     924:	b5000960 	cbnz	x0, a50 <__addtf3+0xa30>
     928:	aa0403e2 	mov	x2, x4
     92c:	aa0d03e9 	mov	x9, x13
     930:	17fffede 	b	4a8 <__addtf3+0x488>
     934:	d28fffe0 	mov	x0, #0x7fff                	// #32767
     938:	eb00007f 	cmp	x3, x0
     93c:	54000d60 	b.eq	ae8 <__addtf3+0xac8>  // b.none
     940:	aa0403e2 	mov	x2, x4
     944:	aa0d03e9 	mov	x9, x13
     948:	aa0303e1 	mov	x1, x3
     94c:	17fffe61 	b	2d0 <__addtf3+0x2b0>
     950:	926a05ef 	and	x15, x15, #0xc00000
     954:	d2800002 	mov	x2, #0x0                   	// #0
     958:	f16001ff 	cmp	x15, #0x800, lsl #12
     95c:	1a9f17e7 	cset	w7, eq  // eq = none
     960:	17fffe64 	b	2f0 <__addtf3+0x2d0>
     964:	aa0403e2 	mov	x2, x4
     968:	aa0d03e9 	mov	x9, x13
     96c:	17fffdfc 	b	15c <__addtf3+0x13c>
     970:	52801000 	mov	w0, #0x80                  	// #128
     974:	4b050000 	sub	w0, w0, w5
     978:	710100a5 	subs	w5, w5, #0x40
     97c:	9ac02040 	lsl	x0, x2, x0
     980:	aa000120 	orr	x0, x9, x0
     984:	9a891009 	csel	x9, x0, x9, ne  // ne = any
     988:	9ac52442 	lsr	x2, x2, x5
     98c:	f100013f 	cmp	x9, #0x0
     990:	9a9f07e9 	cset	x9, ne  // ne = any
     994:	aa020129 	orr	x9, x9, x2
     998:	17ffff60 	b	718 <__addtf3+0x6f8>
     99c:	eb0901bf 	cmp	x13, x9
     9a0:	2a0b03e7 	mov	w7, w11
     9a4:	da020082 	sbc	x2, x4, x2
     9a8:	cb0901a9 	sub	x9, x13, x9
     9ac:	aa0303e1 	mov	x1, x3
     9b0:	aa0503ec 	mov	x12, x5
     9b4:	17fffdce 	b	ec <__addtf3+0xcc>
     9b8:	f26a05e3 	ands	x3, x15, #0xc00000
     9bc:	54fff980 	b.eq	8ec <__addtf3+0x8cc>  // b.none
     9c0:	f150007f 	cmp	x3, #0x400, lsl #12
     9c4:	520000e0 	eor	w0, w7, #0x1
     9c8:	1a9f0000 	csel	w0, w0, wzr, eq  // eq = none
     9cc:	35000a20 	cbnz	w0, b10 <__addtf3+0xaf0>
     9d0:	f160007f 	cmp	x3, #0x800, lsl #12
     9d4:	54fff561 	b.ne	880 <__addtf3+0x860>  // b.any
     9d8:	b400074c 	cbz	x12, ac0 <__addtf3+0xaa0>
     9dc:	52800280 	mov	w0, #0x14                  	// #20
     9e0:	d2800030 	mov	x16, #0x1                   	// #1
     9e4:	17fffe7e 	b	3dc <__addtf3+0x3bc>
     9e8:	aa0d0080 	orr	x0, x4, x13
     9ec:	b5fff840 	cbnz	x0, 8f4 <__addtf3+0x8d4>
     9f0:	2a0b03e7 	mov	w7, w11
     9f4:	17ffff09 	b	618 <__addtf3+0x5f8>
     9f8:	b4000868 	cbz	x8, b04 <__addtf3+0xae4>
     9fc:	f24e009f 	tst	x4, #0x4000000000000
     a00:	1a9f1400 	csinc	w0, w0, wzr, ne  // ne = any
     a04:	b5ffef05 	cbnz	x5, 7e4 <__addtf3+0x7c4>
     a08:	2a0b03e7 	mov	w7, w11
     a0c:	aa0403e2 	mov	x2, x4
     a10:	aa0d03e9 	mov	x9, x13
     a14:	2a0003e5 	mov	w5, w0
     a18:	17fffea4 	b	4a8 <__addtf3+0x488>
     a1c:	aa0300a8 	orr	x8, x5, x3
     a20:	b4fff988 	cbz	x8, 950 <__addtf3+0x930>
     a24:	924008a0 	and	x0, x5, #0x7
     a28:	aa0503e9 	mov	x9, x5
     a2c:	aa0303e2 	mov	x2, x3
     a30:	52800025 	mov	w5, #0x1                   	// #1
     a34:	17fffdce 	b	16c <__addtf3+0x14c>
     a38:	b4000360 	cbz	x0, aa4 <__addtf3+0xa84>
     a3c:	d372fc45 	lsr	x5, x2, #50
     a40:	eb01007f 	cmp	x3, x1
     a44:	d24000a5 	eor	x5, x5, #0x1
     a48:	120000a5 	and	w5, w5, #0x1
     a4c:	54000680 	b.eq	b1c <__addtf3+0xafc>  // b.none
     a50:	aa0d008d 	orr	x13, x4, x13
     a54:	b4ffd2ad 	cbz	x13, 4a8 <__addtf3+0x488>
     a58:	b3430846 	bfi	x6, x2, #61, #3
     a5c:	d343fc40 	lsr	x0, x2, #3
     a60:	b69000e2 	tbz	x2, #50, a7c <__addtf3+0xa5c>
     a64:	d343fc81 	lsr	x1, x4, #3
     a68:	b79000a4 	tbnz	x4, #50, a7c <__addtf3+0xa5c>
     a6c:	9240f146 	and	x6, x10, #0x1fffffffffffffff
     a70:	2a0b03e7 	mov	w7, w11
     a74:	aa04f4c6 	orr	x6, x6, x4, lsl #61
     a78:	aa0103e0 	mov	x0, x1
     a7c:	93c6f402 	extr	x2, x0, x6, #61
     a80:	2a0503e0 	mov	w0, w5
     a84:	b3430846 	bfi	x6, x2, #61, #3
     a88:	d343fc42 	lsr	x2, x2, #3
     a8c:	aa0603e8 	mov	x8, x6
     a90:	17fffe8d 	b	4c4 <__addtf3+0x4a4>
     a94:	ab0d0129 	adds	x9, x9, x13
     a98:	aa0303e1 	mov	x1, x3
     a9c:	9a020082 	adc	x2, x4, x2
     aa0:	17fffe30 	b	360 <__addtf3+0x340>
     aa4:	eb01007f 	cmp	x3, x1
     aa8:	54fff401 	b.ne	928 <__addtf3+0x908>  // b.any
     aac:	aa0d0081 	orr	x1, x4, x13
     ab0:	b50003a1 	cbnz	x1, b24 <__addtf3+0xb04>
     ab4:	b4ffdb20 	cbz	x0, 618 <__addtf3+0x5f8>
     ab8:	17fffe7c 	b	4a8 <__addtf3+0x488>
     abc:	b5fff910 	cbnz	x16, 9dc <__addtf3+0x9bc>
     ac0:	92800002 	mov	x2, #0xffffffffffffffff    	// #-1
     ac4:	52800007 	mov	w7, #0x0                   	// #0
     ac8:	aa0203e9 	mov	x9, x2
     acc:	d28fffc1 	mov	x1, #0x7ffe                	// #32766
     ad0:	52800280 	mov	w0, #0x14                  	// #20
     ad4:	17fffdb2 	b	19c <__addtf3+0x17c>
     ad8:	2a0b03e7 	mov	w7, w11
     adc:	aa0403e2 	mov	x2, x4
     ae0:	aa0d03e9 	mov	x9, x13
     ae4:	17fffe71 	b	4a8 <__addtf3+0x488>
     ae8:	aa0d0080 	orr	x0, x4, x13
     aec:	b4ffd960 	cbz	x0, 618 <__addtf3+0x5f8>
     af0:	17fffe51 	b	434 <__addtf3+0x414>
     af4:	eb01007f 	cmp	x3, x1
     af8:	54fff800 	b.eq	9f8 <__addtf3+0x9d8>  // b.none
     afc:	52800005 	mov	w5, #0x0                   	// #0
     b00:	17ffff2c 	b	7b0 <__addtf3+0x790>
     b04:	b5fff885 	cbnz	x5, a14 <__addtf3+0x9f4>
     b08:	2a0003e5 	mov	w5, w0
     b0c:	17ffff29 	b	7b0 <__addtf3+0x790>
     b10:	52800280 	mov	w0, #0x14                  	// #20
     b14:	d2800010 	mov	x16, #0x0                   	// #0
     b18:	17fffe31 	b	3dc <__addtf3+0x3bc>
     b1c:	aa0d0081 	orr	x1, x4, x13
     b20:	b4ffcc41 	cbz	x1, 4a8 <__addtf3+0x488>
     b24:	f24e009f 	tst	x4, #0x4000000000000
     b28:	1a9f14a5 	csinc	w5, w5, wzr, ne  // ne = any
     b2c:	b5fff960 	cbnz	x0, a58 <__addtf3+0xa38>
     b30:	17ffff7e 	b	928 <__addtf3+0x908>
     b34:	d2800008 	mov	x8, #0x0                   	// #0
     b38:	528fffe1 	mov	w1, #0x7fff                	// #32767
     b3c:	d2800002 	mov	x2, #0x0                   	// #0
     b40:	17fffd9e 	b	1b8 <__addtf3+0x198>
     b44:	00000000 	.inst	0x00000000 ; undefined

0000000000000b48 <__eqtf2>:
     b48:	a9bd7bfd 	stp	x29, x30, [sp, #-48]!
     b4c:	910003fd 	mov	x29, sp
     b50:	3d8007e0 	str	q0, [sp, #16]
     b54:	3d800be1 	str	q1, [sp, #32]
     b58:	a94107e6 	ldp	x6, x1, [sp, #16]
     b5c:	a94203e7 	ldp	x7, x0, [sp, #32]
     b60:	d53b4402 	mrs	x2, fpcr
     b64:	d370f824 	ubfx	x4, x1, #48, #15
     b68:	d37ffc22 	lsr	x2, x1, #63
     b6c:	d37ffc03 	lsr	x3, x0, #63
     b70:	d340bc09 	ubfx	x9, x0, #0, #48
     b74:	d28fffe5 	mov	x5, #0x7fff                	// #32767
     b78:	aa0603ea 	mov	x10, x6
     b7c:	eb05009f 	cmp	x4, x5
     b80:	12001c42 	and	w2, w2, #0xff
     b84:	d340bc21 	ubfx	x1, x1, #0, #48
     b88:	12001c63 	and	w3, w3, #0xff
     b8c:	d370f800 	ubfx	x0, x0, #48, #15
     b90:	540001a0 	b.eq	bc4 <__eqtf2+0x7c>  // b.none
     b94:	eb05001f 	cmp	x0, x5
     b98:	540000c0 	b.eq	bb0 <__eqtf2+0x68>  // b.none
     b9c:	eb00009f 	cmp	x4, x0
     ba0:	52800020 	mov	w0, #0x1                   	// #1
     ba4:	540001c0 	b.eq	bdc <__eqtf2+0x94>  // b.none
     ba8:	a8c37bfd 	ldp	x29, x30, [sp], #48
     bac:	d65f03c0 	ret
     bb0:	aa070128 	orr	x8, x9, x7
     bb4:	b5000468 	cbnz	x8, c40 <__eqtf2+0xf8>
     bb8:	52800020 	mov	w0, #0x1                   	// #1
     bbc:	a8c37bfd 	ldp	x29, x30, [sp], #48
     bc0:	d65f03c0 	ret
     bc4:	aa060025 	orr	x5, x1, x6
     bc8:	b5000245 	cbnz	x5, c10 <__eqtf2+0xc8>
     bcc:	eb04001f 	cmp	x0, x4
     bd0:	54ffff41 	b.ne	bb8 <__eqtf2+0x70>  // b.any
     bd4:	aa070128 	orr	x8, x9, x7
     bd8:	b5000348 	cbnz	x8, c40 <__eqtf2+0xf8>
     bdc:	eb09003f 	cmp	x1, x9
     be0:	52800020 	mov	w0, #0x1                   	// #1
     be4:	fa4700c0 	ccmp	x6, x7, #0x0, eq  // eq = none
     be8:	54fffe01 	b.ne	ba8 <__eqtf2+0x60>  // b.any
     bec:	6b03005f 	cmp	w2, w3
     bf0:	52800000 	mov	w0, #0x0                   	// #0
     bf4:	54fffda0 	b.eq	ba8 <__eqtf2+0x60>  // b.none
     bf8:	52800020 	mov	w0, #0x1                   	// #1
     bfc:	b5fffd64 	cbnz	x4, ba8 <__eqtf2+0x60>
     c00:	aa0a0021 	orr	x1, x1, x10
     c04:	f100003f 	cmp	x1, #0x0
     c08:	1a9f07e0 	cset	w0, ne  // ne = any
     c0c:	17ffffe7 	b	ba8 <__eqtf2+0x60>
     c10:	f251003f 	tst	x1, #0x800000000000
     c14:	540000c1 	b.ne	c2c <__eqtf2+0xe4>  // b.any
     c18:	52800020 	mov	w0, #0x1                   	// #1
     c1c:	940005c1 	bl	2320 <__sfp_handle_exceptions>
     c20:	52800020 	mov	w0, #0x1                   	// #1
     c24:	a8c37bfd 	ldp	x29, x30, [sp], #48
     c28:	d65f03c0 	ret
     c2c:	eb04001f 	cmp	x0, x4
     c30:	52800020 	mov	w0, #0x1                   	// #1
     c34:	54fffba1 	b.ne	ba8 <__eqtf2+0x60>  // b.any
     c38:	aa070128 	orr	x8, x9, x7
     c3c:	b4fffb68 	cbz	x8, ba8 <__eqtf2+0x60>
     c40:	f251013f 	tst	x9, #0x800000000000
     c44:	54fffea0 	b.eq	c18 <__eqtf2+0xd0>  // b.none
     c48:	17ffffdc 	b	bb8 <__eqtf2+0x70>
     c4c:	00000000 	.inst	0x00000000 ; undefined

0000000000000c50 <__multf3>:
     c50:	a9bb7bfd 	stp	x29, x30, [sp, #-80]!
     c54:	910003fd 	mov	x29, sp
     c58:	3d800fe0 	str	q0, [sp, #48]
     c5c:	3d8013e1 	str	q1, [sp, #64]
     c60:	a94303e1 	ldp	x1, x0, [sp, #48]
     c64:	a9440be6 	ldp	x6, x2, [sp, #64]
     c68:	d53b440b 	mrs	x11, fpcr
     c6c:	d37ffc03 	lsr	x3, x0, #63
     c70:	d340bc07 	ubfx	x7, x0, #0, #48
     c74:	12001c6c 	and	w12, w3, #0xff
     c78:	aa0303ee 	mov	x14, x3
     c7c:	d370f803 	ubfx	x3, x0, #48, #15
     c80:	34001d43 	cbz	w3, 1028 <__multf3+0x3d8>
     c84:	528fffe4 	mov	w4, #0x7fff                	// #32767
     c88:	6b04007f 	cmp	w3, w4
     c8c:	54002200 	b.eq	10cc <__multf3+0x47c>  // b.none
     c90:	92403c63 	and	x3, x3, #0xffff
     c94:	93c1f4e4 	extr	x4, x7, x1, #61
     c98:	9287ffd2 	mov	x18, #0xffffffffffffc001    	// #-16383
     c9c:	b24d0087 	orr	x7, x4, #0x8000000000000
     ca0:	8b120063 	add	x3, x3, x18
     ca4:	d37df025 	lsl	x5, x1, #3
     ca8:	d2800010 	mov	x16, #0x0                   	// #0
     cac:	d2800001 	mov	x1, #0x0                   	// #0
     cb0:	52800000 	mov	w0, #0x0                   	// #0
     cb4:	d37ffc48 	lsr	x8, x2, #63
     cb8:	d340bc44 	ubfx	x4, x2, #0, #48
     cbc:	12001d0f 	and	w15, w8, #0xff
     cc0:	aa0803ed 	mov	x13, x8
     cc4:	d370f849 	ubfx	x9, x2, #48, #15
     cc8:	34001e09 	cbz	w9, 1088 <__multf3+0x438>
     ccc:	528fffe8 	mov	w8, #0x7fff                	// #32767
     cd0:	6b08013f 	cmp	w9, w8
     cd4:	54000420 	b.eq	d58 <__multf3+0x108>  // b.none
     cd8:	92403d29 	and	x9, x9, #0xffff
     cdc:	9287ffd1 	mov	x17, #0xffffffffffffc001    	// #-16383
     ce0:	8b110129 	add	x9, x9, x17
     ce4:	93c6f482 	extr	x2, x4, x6, #61
     ce8:	8b030129 	add	x9, x9, x3
     cec:	d37df0c6 	lsl	x6, x6, #3
     cf0:	b24d0044 	orr	x4, x2, #0x8000000000000
     cf4:	d2800002 	mov	x2, #0x0                   	// #0
     cf8:	4a0f0188 	eor	w8, w12, w15
     cfc:	f100283f 	cmp	x1, #0xa
     d00:	12001d0a 	and	w10, w8, #0xff
     d04:	91000523 	add	x3, x9, #0x1
     d08:	92401d08 	and	x8, x8, #0xff
     d0c:	5400042d 	b.le	d90 <__multf3+0x140>
     d10:	f1002c3f 	cmp	x1, #0xb
     d14:	540038a0 	b.eq	1428 <__multf3+0x7d8>  // b.none
     d18:	2a0c03ef 	mov	w15, w12
     d1c:	aa0e03ed 	mov	x13, x14
     d20:	2a0f03ea 	mov	w10, w15
     d24:	f1000a1f 	cmp	x16, #0x2
     d28:	54001e20 	b.eq	10ec <__multf3+0x49c>  // b.none
     d2c:	aa0703e4 	mov	x4, x7
     d30:	aa0503e6 	mov	x6, x5
     d34:	aa1003e2 	mov	x2, x16
     d38:	aa0d03e8 	mov	x8, x13
     d3c:	f1000c5f 	cmp	x2, #0x3
     d40:	54000361 	b.ne	dac <__multf3+0x15c>  // b.any
     d44:	b2510084 	orr	x4, x4, #0x800000000000
     d48:	aa0603e5 	mov	x5, x6
     d4c:	9240bc84 	and	x4, x4, #0xffffffffffff
     d50:	528fffe1 	mov	w1, #0x7fff                	// #32767
     d54:	1400001b 	b	dc0 <__multf3+0x170>
     d58:	d28fffe8 	mov	x8, #0x7fff                	// #32767
     d5c:	aa060082 	orr	x2, x4, x6
     d60:	8b080069 	add	x9, x3, x8
     d64:	b5000402 	cbnz	x2, de4 <__multf3+0x194>
     d68:	4a0f0188 	eor	w8, w12, w15
     d6c:	b27f0021 	orr	x1, x1, #0x2
     d70:	12001d0a 	and	w10, w8, #0xff
     d74:	f100283f 	cmp	x1, #0xa
     d78:	91402063 	add	x3, x3, #0x8, lsl #12
     d7c:	92401d08 	and	x8, x8, #0xff
     d80:	d2800006 	mov	x6, #0x0                   	// #0
     d84:	540030cc 	b.gt	139c <__multf3+0x74c>
     d88:	d2800004 	mov	x4, #0x0                   	// #0
     d8c:	d2800042 	mov	x2, #0x2                   	// #2
     d90:	f100083f 	cmp	x1, #0x2
     d94:	540003cc 	b.gt	e0c <__multf3+0x1bc>
     d98:	d1000421 	sub	x1, x1, #0x1
     d9c:	f100043f 	cmp	x1, #0x1
     da0:	54000548 	b.hi	e48 <__multf3+0x1f8>  // b.pmore
     da4:	f100085f 	cmp	x2, #0x2
     da8:	54001a20 	b.eq	10ec <__multf3+0x49c>  // b.none
     dac:	f100045f 	cmp	x2, #0x1
     db0:	54000fc1 	b.ne	fa8 <__multf3+0x358>  // b.any
     db4:	52800001 	mov	w1, #0x0                   	// #0
     db8:	d2800004 	mov	x4, #0x0                   	// #0
     dbc:	d2800005 	mov	x5, #0x0                   	// #0
     dc0:	d2800003 	mov	x3, #0x0                   	// #0
     dc4:	2a0a3c21 	orr	w1, w1, w10, lsl #15
     dc8:	b340bc83 	bfxil	x3, x4, #0, #48
     dcc:	9e6700a0 	fmov	d0, x5
     dd0:	b3503c23 	bfi	x3, x1, #48, #16
     dd4:	9eaf0060 	fmov	v0.d[1], x3
     dd8:	35002200 	cbnz	w0, 1218 <__multf3+0x5c8>
     ddc:	a8c57bfd 	ldp	x29, x30, [sp], #80
     de0:	d65f03c0 	ret
     de4:	f251009f 	tst	x4, #0x800000000000
     de8:	4a0f0188 	eor	w8, w12, w15
     dec:	b2400421 	orr	x1, x1, #0x3
     df0:	1a9f1400 	csinc	w0, w0, wzr, ne  // ne = any
     df4:	12001d0a 	and	w10, w8, #0xff
     df8:	91402063 	add	x3, x3, #0x8, lsl #12
     dfc:	f100283f 	cmp	x1, #0xa
     e00:	92401d08 	and	x8, x8, #0xff
     e04:	d2800062 	mov	x2, #0x3                   	// #3
     e08:	540030ac 	b.gt	141c <__multf3+0x7cc>
     e0c:	d280002c 	mov	x12, #0x1                   	// #1
     e10:	d280a60e 	mov	x14, #0x530                 	// #1328
     e14:	9ac12181 	lsl	x1, x12, x1
     e18:	ea0e003f 	tst	x1, x14
     e1c:	54001001 	b.ne	101c <__multf3+0x3cc>  // b.any
     e20:	d280480e 	mov	x14, #0x240                 	// #576
     e24:	ea0e003f 	tst	x1, x14
     e28:	54000ee1 	b.ne	1004 <__multf3+0x3b4>  // b.any
     e2c:	d280110c 	mov	x12, #0x88                  	// #136
     e30:	ea0c003f 	tst	x1, x12
     e34:	540000a0 	b.eq	e48 <__multf3+0x1f8>  // b.none
     e38:	aa0403e7 	mov	x7, x4
     e3c:	aa0603e5 	mov	x5, x6
     e40:	aa0203f0 	mov	x16, x2
     e44:	17ffffb7 	b	d20 <__multf3+0xd0>
     e48:	d360fcad 	lsr	x13, x5, #32
     e4c:	92407ccc 	and	x12, x6, #0xffffffff
     e50:	92407caf 	and	x15, x5, #0xffffffff
     e54:	d360fcc6 	lsr	x6, x6, #32
     e58:	92407c92 	and	x18, x4, #0xffffffff
     e5c:	d360fc82 	lsr	x2, x4, #32
     e60:	9b0c7da4 	mul	x4, x13, x12
     e64:	a9025bf5 	stp	x21, x22, [sp, #32]
     e68:	d360fcf6 	lsr	x22, x7, #32
     e6c:	92407ce5 	and	x5, x7, #0xffffffff
     e70:	9b0f7d90 	mul	x16, x12, x15
     e74:	9b0f10c7 	madd	x7, x6, x15, x4
     e78:	a90153f3 	stp	x19, x20, [sp, #16]
     e7c:	9b127da1 	mul	x1, x13, x18
     e80:	9b127df1 	mul	x17, x15, x18
     e84:	92407e1e 	and	x30, x16, #0xffffffff
     e88:	9b0f044f 	madd	x15, x2, x15, x1
     e8c:	8b5080f0 	add	x16, x7, x16, lsr #32
     e90:	9b0c7ed5 	mul	x21, x22, x12
     e94:	eb10009f 	cmp	x4, x16
     e98:	9b127ed4 	mul	x20, x22, x18
     e9c:	d2c0002e 	mov	x14, #0x100000000           	// #4294967296
     ea0:	9b067db3 	mul	x19, x13, x6
     ea4:	8b5181ef 	add	x15, x15, x17, lsr #32
     ea8:	9b057d8c 	mul	x12, x12, x5
     eac:	92407e31 	and	x17, x17, #0xffffffff
     eb0:	9b127cb2 	mul	x18, x5, x18
     eb4:	8b0e0264 	add	x4, x19, x14
     eb8:	9b0554c7 	madd	x7, x6, x5, x21
     ebc:	9a938093 	csel	x19, x4, x19, hi  // hi = pmore
     ec0:	9b055045 	madd	x5, x2, x5, x20
     ec4:	eb0f003f 	cmp	x1, x15
     ec8:	9b027dad 	mul	x13, x13, x2
     ecc:	8b0f8231 	add	x17, x17, x15, lsl #32
     ed0:	9b167cc6 	mul	x6, x6, x22
     ed4:	8b4c80e7 	add	x7, x7, x12, lsr #32
     ed8:	8b5280a5 	add	x5, x5, x18, lsr #32
     edc:	8b0e01a4 	add	x4, x13, x14
     ee0:	9b167c42 	mul	x2, x2, x22
     ee4:	9a8d808d 	csel	x13, x4, x13, hi  // hi = pmore
     ee8:	92407e41 	and	x1, x18, #0xffffffff
     eec:	eb0702bf 	cmp	x21, x7
     ef0:	8b0e00c4 	add	x4, x6, x14
     ef4:	8b1083de 	add	x30, x30, x16, lsl #32
     ef8:	9a868086 	csel	x6, x4, x6, hi  // hi = pmore
     efc:	8b4f81ad 	add	x13, x13, x15, lsr #32
     f00:	eb05029f 	cmp	x20, x5
     f04:	8b058021 	add	x1, x1, x5, lsl #32
     f08:	8b508230 	add	x16, x17, x16, lsr #32
     f0c:	8b0e004e 	add	x14, x2, x14
     f10:	9a8281c2 	csel	x2, x14, x2, hi  // hi = pmore
     f14:	8b100270 	add	x16, x19, x16
     f18:	ab0d0021 	adds	x1, x1, x13
     f1c:	92407d8c 	and	x12, x12, #0xffffffff
     f20:	9a9f37ed 	cset	x13, cs  // cs = hs, nlast
     f24:	eb11021f 	cmp	x16, x17
     f28:	9a9f27e4 	cset	x4, cc  // cc = lo, ul, last
     f2c:	8b07818c 	add	x12, x12, x7, lsl #32
     f30:	ab040021 	adds	x1, x1, x4
     f34:	d360fca5 	lsr	x5, x5, #32
     f38:	9a9f37e4 	cset	x4, cs  // cs = hs, nlast
     f3c:	f10001bf 	cmp	x13, #0x0
     f40:	fa400880 	ccmp	x4, #0x0, #0x0, eq  // eq = none
     f44:	8b4780c7 	add	x7, x6, x7, lsr #32
     f48:	9a8504a5 	cinc	x5, x5, ne  // ne = any
     f4c:	ab0c0206 	adds	x6, x16, x12
     f50:	9a9f37e4 	cset	x4, cs  // cs = hs, nlast
     f54:	ab070021 	adds	x1, x1, x7
     f58:	9a9f37e7 	cset	x7, cs  // cs = hs, nlast
     f5c:	ab040024 	adds	x4, x1, x4
     f60:	9a9f37e1 	cset	x1, cs  // cs = hs, nlast
     f64:	f10000ff 	cmp	x7, #0x0
     f68:	aa0637de 	orr	x30, x30, x6, lsl #13
     f6c:	fa400820 	ccmp	x1, #0x0, #0x0, eq  // eq = none
     f70:	9a820441 	cinc	x1, x2, ne  // ne = any
     f74:	f10003df 	cmp	x30, #0x0
     f78:	8b050021 	add	x1, x1, x5
     f7c:	9a9f07e2 	cset	x2, ne  // ne = any
     f80:	aa46cc46 	orr	x6, x2, x6, lsr #51
     f84:	aa0434c6 	orr	x6, x6, x4, lsl #13
     f88:	93c4cc24 	extr	x4, x1, x4, #51
     f8c:	b63818a1 	tbz	x1, #39, 12a0 <__multf3+0x650>
     f90:	a94153f3 	ldp	x19, x20, [sp, #16]
     f94:	924000c1 	and	x1, x6, #0x1
     f98:	a9425bf5 	ldp	x21, x22, [sp, #32]
     f9c:	aa460426 	orr	x6, x1, x6, lsr #1
     fa0:	aa04fcc6 	orr	x6, x6, x4, lsl #63
     fa4:	d341fc84 	lsr	x4, x4, #1
     fa8:	d287ffe1 	mov	x1, #0x3fff                	// #16383
     fac:	8b010062 	add	x2, x3, x1
     fb0:	f100005f 	cmp	x2, #0x0
     fb4:	54000ccd 	b.le	114c <__multf3+0x4fc>
     fb8:	f24008df 	tst	x6, #0x7
     fbc:	54000100 	b.eq	fdc <__multf3+0x38c>  // b.none
     fc0:	926a0561 	and	x1, x11, #0xc00000
     fc4:	321c0000 	orr	w0, w0, #0x10
     fc8:	f150003f 	cmp	x1, #0x400, lsl #12
     fcc:	54001e40 	b.eq	1394 <__multf3+0x744>  // b.none
     fd0:	f160003f 	cmp	x1, #0x800, lsl #12
     fd4:	54001b40 	b.eq	133c <__multf3+0x6ec>  // b.none
     fd8:	b4001a61 	cbz	x1, 1324 <__multf3+0x6d4>
     fdc:	b6a00064 	tbz	x4, #52, fe8 <__multf3+0x398>
     fe0:	924bf884 	and	x4, x4, #0xffefffffffffffff
     fe4:	91401062 	add	x2, x3, #0x4, lsl #12
     fe8:	d28fffc1 	mov	x1, #0x7ffe                	// #32766
     fec:	eb01005f 	cmp	x2, x1
     ff0:	5400142c 	b.gt	1274 <__multf3+0x624>
     ff4:	12003841 	and	w1, w2, #0x7fff
     ff8:	93c60c85 	extr	x5, x4, x6, #3
     ffc:	d343c884 	ubfx	x4, x4, #3, #48
    1000:	17ffff70 	b	dc0 <__multf3+0x170>
    1004:	2a0c03e0 	mov	w0, w12
    1008:	5280000a 	mov	w10, #0x0                   	// #0
    100c:	92ffffe4 	mov	x4, #0xffffffffffff        	// #281474976710655
    1010:	92800005 	mov	x5, #0xffffffffffffffff    	// #-1
    1014:	528fffe1 	mov	w1, #0x7fff                	// #32767
    1018:	17ffff6a 	b	dc0 <__multf3+0x170>
    101c:	2a0a03ef 	mov	w15, w10
    1020:	aa0803ed 	mov	x13, x8
    1024:	17ffff3f 	b	d20 <__multf3+0xd0>
    1028:	aa0100e5 	orr	x5, x7, x1
    102c:	b4000845 	cbz	x5, 1134 <__multf3+0x4e4>
    1030:	b4001107 	cbz	x7, 1250 <__multf3+0x600>
    1034:	dac010e0 	clz	x0, x7
    1038:	d1003c04 	sub	x4, x0, #0xf
    103c:	11000c85 	add	w5, w4, #0x3
    1040:	528007a3 	mov	w3, #0x3d                  	// #61
    1044:	4b040063 	sub	w3, w3, w4
    1048:	9ac520e4 	lsl	x4, x7, x5
    104c:	9ac32423 	lsr	x3, x1, x3
    1050:	aa040067 	orr	x7, x3, x4
    1054:	9ac52025 	lsl	x5, x1, x5
    1058:	d37ffc48 	lsr	x8, x2, #63
    105c:	9287fdc3 	mov	x3, #0xffffffffffffc011    	// #-16367
    1060:	d340bc44 	ubfx	x4, x2, #0, #48
    1064:	cb000063 	sub	x3, x3, x0
    1068:	12001d0f 	and	w15, w8, #0xff
    106c:	aa0803ed 	mov	x13, x8
    1070:	d370f849 	ubfx	x9, x2, #48, #15
    1074:	d2800001 	mov	x1, #0x0                   	// #0
    1078:	d2800010 	mov	x16, #0x0                   	// #0
    107c:	52800000 	mov	w0, #0x0                   	// #0
    1080:	35ffe269 	cbnz	w9, ccc <__multf3+0x7c>
    1084:	d503201f 	nop
    1088:	aa060082 	orr	x2, x4, x6
    108c:	b4000382 	cbz	x2, 10fc <__multf3+0x4ac>
    1090:	b4000ce4 	cbz	x4, 122c <__multf3+0x5dc>
    1094:	dac01089 	clz	x9, x4
    1098:	d1003d22 	sub	x2, x9, #0xf
    109c:	11000c4a 	add	w10, w2, #0x3
    10a0:	528007a8 	mov	w8, #0x3d                  	// #61
    10a4:	4b020108 	sub	w8, w8, w2
    10a8:	9aca2082 	lsl	x2, x4, x10
    10ac:	9ac824c8 	lsr	x8, x6, x8
    10b0:	aa020104 	orr	x4, x8, x2
    10b4:	9aca20c6 	lsl	x6, x6, x10
    10b8:	cb090069 	sub	x9, x3, x9
    10bc:	9287fdca 	mov	x10, #0xffffffffffffc011    	// #-16367
    10c0:	d2800002 	mov	x2, #0x0                   	// #0
    10c4:	8b0a0129 	add	x9, x9, x10
    10c8:	17ffff0c 	b	cf8 <__multf3+0xa8>
    10cc:	aa0100e5 	orr	x5, x7, x1
    10d0:	b5000225 	cbnz	x5, 1114 <__multf3+0x4c4>
    10d4:	d2800007 	mov	x7, #0x0                   	// #0
    10d8:	d2800101 	mov	x1, #0x8                   	// #8
    10dc:	d28fffe3 	mov	x3, #0x7fff                	// #32767
    10e0:	d2800050 	mov	x16, #0x2                   	// #2
    10e4:	52800000 	mov	w0, #0x0                   	// #0
    10e8:	17fffef3 	b	cb4 <__multf3+0x64>
    10ec:	528fffe1 	mov	w1, #0x7fff                	// #32767
    10f0:	d2800004 	mov	x4, #0x0                   	// #0
    10f4:	d2800005 	mov	x5, #0x0                   	// #0
    10f8:	17ffff32 	b	dc0 <__multf3+0x170>
    10fc:	b2400021 	orr	x1, x1, #0x1
    1100:	aa0303e9 	mov	x9, x3
    1104:	d2800004 	mov	x4, #0x0                   	// #0
    1108:	d2800006 	mov	x6, #0x0                   	// #0
    110c:	d2800022 	mov	x2, #0x1                   	// #1
    1110:	17fffefa 	b	cf8 <__multf3+0xa8>
    1114:	d36ffce0 	lsr	x0, x7, #47
    1118:	aa0103e5 	mov	x5, x1
    111c:	d2400000 	eor	x0, x0, #0x1
    1120:	d2800181 	mov	x1, #0xc                   	// #12
    1124:	12000000 	and	w0, w0, #0x1
    1128:	d28fffe3 	mov	x3, #0x7fff                	// #32767
    112c:	d2800070 	mov	x16, #0x3                   	// #3
    1130:	17fffee1 	b	cb4 <__multf3+0x64>
    1134:	d2800007 	mov	x7, #0x0                   	// #0
    1138:	d2800081 	mov	x1, #0x4                   	// #4
    113c:	d2800003 	mov	x3, #0x0                   	// #0
    1140:	d2800030 	mov	x16, #0x1                   	// #1
    1144:	52800000 	mov	w0, #0x0                   	// #0
    1148:	17fffedb 	b	cb4 <__multf3+0x64>
    114c:	d2800021 	mov	x1, #0x1                   	// #1
    1150:	cb020022 	sub	x2, x1, x2
    1154:	f101d05f 	cmp	x2, #0x74
    1158:	540003cc 	b.gt	11d0 <__multf3+0x580>
    115c:	f100fc5f 	cmp	x2, #0x3f
    1160:	54000a8d 	b.le	12b0 <__multf3+0x660>
    1164:	52801001 	mov	w1, #0x80                  	// #128
    1168:	4b020021 	sub	w1, w1, w2
    116c:	f101005f 	cmp	x2, #0x40
    1170:	51010042 	sub	w2, w2, #0x40
    1174:	9ac12081 	lsl	x1, x4, x1
    1178:	aa0100c1 	orr	x1, x6, x1
    117c:	9a861026 	csel	x6, x1, x6, ne  // ne = any
    1180:	9ac22482 	lsr	x2, x4, x2
    1184:	f10000df 	cmp	x6, #0x0
    1188:	9a9f07e5 	cset	x5, ne  // ne = any
    118c:	aa0200a5 	orr	x5, x5, x2
    1190:	f24008a2 	ands	x2, x5, #0x7
    1194:	54000a80 	b.eq	12e4 <__multf3+0x694>  // b.none
    1198:	d2800002 	mov	x2, #0x0                   	// #0
    119c:	926a056b 	and	x11, x11, #0xc00000
    11a0:	321c0000 	orr	w0, w0, #0x10
    11a4:	f150017f 	cmp	x11, #0x400, lsl #12
    11a8:	54001260 	b.eq	13f4 <__multf3+0x7a4>  // b.none
    11ac:	f160017f 	cmp	x11, #0x800, lsl #12
    11b0:	540012c0 	b.eq	1408 <__multf3+0x7b8>  // b.none
    11b4:	b4000ccb 	cbz	x11, 134c <__multf3+0x6fc>
    11b8:	b7980d62 	tbnz	x2, #51, 1364 <__multf3+0x714>
    11bc:	d343c844 	ubfx	x4, x2, #3, #48
    11c0:	93c50c45 	extr	x5, x2, x5, #3
    11c4:	321d0000 	orr	w0, w0, #0x8
    11c8:	52800001 	mov	w1, #0x0                   	// #0
    11cc:	1400000d 	b	1200 <__multf3+0x5b0>
    11d0:	aa0400c5 	orr	x5, x6, x4
    11d4:	b4000105 	cbz	x5, 11f4 <__multf3+0x5a4>
    11d8:	926a056b 	and	x11, x11, #0xc00000
    11dc:	321c0000 	orr	w0, w0, #0x10
    11e0:	f150017f 	cmp	x11, #0x400, lsl #12
    11e4:	cb080025 	sub	x5, x1, x8
    11e8:	54000060 	b.eq	11f4 <__multf3+0x5a4>  // b.none
    11ec:	f160017f 	cmp	x11, #0x800, lsl #12
    11f0:	9a9f0105 	csel	x5, x8, xzr, eq  // eq = none
    11f4:	321d0000 	orr	w0, w0, #0x8
    11f8:	52800001 	mov	w1, #0x0                   	// #0
    11fc:	d2800004 	mov	x4, #0x0                   	// #0
    1200:	d2800003 	mov	x3, #0x0                   	// #0
    1204:	9e6700a0 	fmov	d0, x5
    1208:	b340bc83 	bfxil	x3, x4, #0, #48
    120c:	b3503823 	bfi	x3, x1, #48, #15
    1210:	b3410143 	bfi	x3, x10, #63, #1
    1214:	9eaf0060 	fmov	v0.d[1], x3
    1218:	3d800fe0 	str	q0, [sp, #48]
    121c:	94000441 	bl	2320 <__sfp_handle_exceptions>
    1220:	3dc00fe0 	ldr	q0, [sp, #48]
    1224:	a8c57bfd 	ldp	x29, x30, [sp], #80
    1228:	d65f03c0 	ret
    122c:	dac010c9 	clz	x9, x6
    1230:	9100c522 	add	x2, x9, #0x31
    1234:	91010129 	add	x9, x9, #0x40
    1238:	f100f05f 	cmp	x2, #0x3c
    123c:	54fff30d 	b.le	109c <__multf3+0x44c>
    1240:	5100f442 	sub	w2, w2, #0x3d
    1244:	9ac220c4 	lsl	x4, x6, x2
    1248:	d2800006 	mov	x6, #0x0                   	// #0
    124c:	17ffff9b 	b	10b8 <__multf3+0x468>
    1250:	dac01023 	clz	x3, x1
    1254:	9100c464 	add	x4, x3, #0x31
    1258:	91010060 	add	x0, x3, #0x40
    125c:	f100f09f 	cmp	x4, #0x3c
    1260:	54ffeeed 	b.le	103c <__multf3+0x3ec>
    1264:	5100f484 	sub	w4, w4, #0x3d
    1268:	d2800005 	mov	x5, #0x0                   	// #0
    126c:	9ac42027 	lsl	x7, x1, x4
    1270:	17ffff7a 	b	1058 <__multf3+0x408>
    1274:	926a0565 	and	x5, x11, #0xc00000
    1278:	f15000bf 	cmp	x5, #0x400, lsl #12
    127c:	540007e0 	b.eq	1378 <__multf3+0x728>  // b.none
    1280:	f16000bf 	cmp	x5, #0x800, lsl #12
    1284:	54000420 	b.eq	1308 <__multf3+0x6b8>  // b.none
    1288:	b40003a5 	cbz	x5, 12fc <__multf3+0x6ac>
    128c:	92ffffe4 	mov	x4, #0xffffffffffff        	// #281474976710655
    1290:	92800005 	mov	x5, #0xffffffffffffffff    	// #-1
    1294:	52800282 	mov	w2, #0x14                  	// #20
    1298:	2a020000 	orr	w0, w0, w2
    129c:	17ffffd9 	b	1200 <__multf3+0x5b0>
    12a0:	aa0903e3 	mov	x3, x9
    12a4:	a94153f3 	ldp	x19, x20, [sp, #16]
    12a8:	a9425bf5 	ldp	x21, x22, [sp, #32]
    12ac:	17ffff3f 	b	fa8 <__multf3+0x358>
    12b0:	52800801 	mov	w1, #0x40                  	// #64
    12b4:	4b020021 	sub	w1, w1, w2
    12b8:	9ac224c3 	lsr	x3, x6, x2
    12bc:	9ac120c6 	lsl	x6, x6, x1
    12c0:	f10000df 	cmp	x6, #0x0
    12c4:	9ac12085 	lsl	x5, x4, x1
    12c8:	9a9f07e1 	cset	x1, ne  // ne = any
    12cc:	aa0300a5 	orr	x5, x5, x3
    12d0:	9ac22482 	lsr	x2, x4, x2
    12d4:	aa0100a5 	orr	x5, x5, x1
    12d8:	f24008bf 	tst	x5, #0x7
    12dc:	54fff601 	b.ne	119c <__multf3+0x54c>  // b.any
    12e0:	b79809a2 	tbnz	x2, #51, 1414 <__multf3+0x7c4>
    12e4:	d343c844 	ubfx	x4, x2, #3, #48
    12e8:	93c50c45 	extr	x5, x2, x5, #3
    12ec:	52800001 	mov	w1, #0x0                   	// #0
    12f0:	365fd68b 	tbz	w11, #11, dc0 <__multf3+0x170>
    12f4:	321d0000 	orr	w0, w0, #0x8
    12f8:	17ffffc2 	b	1200 <__multf3+0x5b0>
    12fc:	528fffe1 	mov	w1, #0x7fff                	// #32767
    1300:	d2800004 	mov	x4, #0x0                   	// #0
    1304:	17ffffe4 	b	1294 <__multf3+0x644>
    1308:	f100011f 	cmp	x8, #0x0
    130c:	528fffe2 	mov	w2, #0x7fff                	// #32767
    1310:	92ffffe4 	mov	x4, #0xffffffffffff        	// #281474976710655
    1314:	1a820021 	csel	w1, w1, w2, eq  // eq = none
    1318:	9a9f0084 	csel	x4, x4, xzr, eq  // eq = none
    131c:	da9f13e5 	csetm	x5, eq  // eq = none
    1320:	17ffffdd 	b	1294 <__multf3+0x644>
    1324:	92400cc1 	and	x1, x6, #0xf
    1328:	f100103f 	cmp	x1, #0x4
    132c:	54ffe580 	b.eq	fdc <__multf3+0x38c>  // b.none
    1330:	b10010c6 	adds	x6, x6, #0x4
    1334:	9a843484 	cinc	x4, x4, cs  // cs = hs, nlast
    1338:	17ffff29 	b	fdc <__multf3+0x38c>
    133c:	b4ffe508 	cbz	x8, fdc <__multf3+0x38c>
    1340:	b10020c6 	adds	x6, x6, #0x8
    1344:	9a843484 	cinc	x4, x4, cs  // cs = hs, nlast
    1348:	17ffff25 	b	fdc <__multf3+0x38c>
    134c:	92400ca1 	and	x1, x5, #0xf
    1350:	f100103f 	cmp	x1, #0x4
    1354:	54000060 	b.eq	1360 <__multf3+0x710>  // b.none
    1358:	b10010a5 	adds	x5, x5, #0x4
    135c:	9a823442 	cinc	x2, x2, cs  // cs = hs, nlast
    1360:	b69ff2e2 	tbz	x2, #51, 11bc <__multf3+0x56c>
    1364:	321d0000 	orr	w0, w0, #0x8
    1368:	52800021 	mov	w1, #0x1                   	// #1
    136c:	d2800004 	mov	x4, #0x0                   	// #0
    1370:	d2800005 	mov	x5, #0x0                   	// #0
    1374:	17ffffa3 	b	1200 <__multf3+0x5b0>
    1378:	f100011f 	cmp	x8, #0x0
    137c:	528fffe2 	mov	w2, #0x7fff                	// #32767
    1380:	92ffffe4 	mov	x4, #0xffffffffffff        	// #281474976710655
    1384:	1a821021 	csel	w1, w1, w2, ne  // ne = any
    1388:	9a9f1084 	csel	x4, x4, xzr, ne  // ne = any
    138c:	da9f03e5 	csetm	x5, ne  // ne = any
    1390:	17ffffc1 	b	1294 <__multf3+0x644>
    1394:	b5ffe248 	cbnz	x8, fdc <__multf3+0x38c>
    1398:	17ffffea 	b	1340 <__multf3+0x6f0>
    139c:	d2800044 	mov	x4, #0x2                   	// #2
    13a0:	f1003c3f 	cmp	x1, #0xf
    13a4:	54000121 	b.ne	13c8 <__multf3+0x778>  // b.any
    13a8:	b67801c7 	tbz	x7, #47, 13e0 <__multf3+0x790>
    13ac:	b77801a2 	tbnz	x2, #47, 13e0 <__multf3+0x790>
    13b0:	b2510044 	orr	x4, x2, #0x800000000000
    13b4:	2a0f03ea 	mov	w10, w15
    13b8:	9240bc84 	and	x4, x4, #0xffffffffffff
    13bc:	aa0603e5 	mov	x5, x6
    13c0:	528fffe1 	mov	w1, #0x7fff                	// #32767
    13c4:	17fffe7f 	b	dc0 <__multf3+0x170>
    13c8:	f1002c3f 	cmp	x1, #0xb
    13cc:	54ffca61 	b.ne	d18 <__multf3+0xc8>  // b.any
    13d0:	aa0203e7 	mov	x7, x2
    13d4:	aa0603e5 	mov	x5, x6
    13d8:	aa0403f0 	mov	x16, x4
    13dc:	17fffe51 	b	d20 <__multf3+0xd0>
    13e0:	b25100e4 	orr	x4, x7, #0x800000000000
    13e4:	2a0c03ea 	mov	w10, w12
    13e8:	9240bc84 	and	x4, x4, #0xffffffffffff
    13ec:	528fffe1 	mov	w1, #0x7fff                	// #32767
    13f0:	17fffe74 	b	dc0 <__multf3+0x170>
    13f4:	b5fffb68 	cbnz	x8, 1360 <__multf3+0x710>
    13f8:	b10020a5 	adds	x5, x5, #0x8
    13fc:	9a823442 	cinc	x2, x2, cs  // cs = hs, nlast
    1400:	b79ffb22 	tbnz	x2, #51, 1364 <__multf3+0x714>
    1404:	17ffff6e 	b	11bc <__multf3+0x56c>
    1408:	b5ffff88 	cbnz	x8, 13f8 <__multf3+0x7a8>
    140c:	b79ffac2 	tbnz	x2, #51, 1364 <__multf3+0x714>
    1410:	17ffff6b 	b	11bc <__multf3+0x56c>
    1414:	321c0000 	orr	w0, w0, #0x10
    1418:	17ffffd3 	b	1364 <__multf3+0x714>
    141c:	aa0403e2 	mov	x2, x4
    1420:	d2800064 	mov	x4, #0x3                   	// #3
    1424:	17ffffdf 	b	13a0 <__multf3+0x750>
    1428:	2a0f03ea 	mov	w10, w15
    142c:	aa0d03e8 	mov	x8, x13
    1430:	17fffe43 	b	d3c <__multf3+0xec>
    1434:	00000000 	.inst	0x00000000 ; undefined

0000000000001438 <__subtf3>:
    1438:	a9bd7bfd 	stp	x29, x30, [sp, #-48]!
    143c:	910003fd 	mov	x29, sp
    1440:	3d8007e0 	str	q0, [sp, #16]
    1444:	3d800be1 	str	q1, [sp, #32]
    1448:	a94107e5 	ldp	x5, x1, [sp, #16]
    144c:	a9420be0 	ldp	x0, x2, [sp, #32]
    1450:	d53b440c 	mrs	x12, fpcr
    1454:	aa0003e9 	mov	x9, x0
    1458:	d370f840 	ubfx	x0, x2, #48, #15
    145c:	d37ffc26 	lsr	x6, x1, #63
    1460:	d370f827 	ubfx	x7, x1, #48, #15
    1464:	d37dbc23 	ubfiz	x3, x1, #3, #48
    1468:	aa0003ed 	mov	x13, x0
    146c:	d37ffc44 	lsr	x4, x2, #63
    1470:	d37dbc42 	ubfiz	x2, x2, #3, #48
    1474:	aa0603eb 	mov	x11, x6
    1478:	12001cc8 	and	w8, w6, #0xff
    147c:	aa0603ee 	mov	x14, x6
    1480:	4b0000e0 	sub	w0, w7, w0
    1484:	aa0703e1 	mov	x1, x7
    1488:	aa45f463 	orr	x3, x3, x5, lsr #61
    148c:	d28fffe7 	mov	x7, #0x7fff                	// #32767
    1490:	12001c84 	and	w4, w4, #0xff
    1494:	eb0701bf 	cmp	x13, x7
    1498:	aa49f442 	orr	x2, x2, x9, lsr #61
    149c:	d37df0a6 	lsl	x6, x5, #3
    14a0:	d37df12a 	lsl	x10, x9, #3
    14a4:	54000b80 	b.eq	1614 <__subtf3+0x1dc>  // b.none
    14a8:	52000084 	eor	w4, w4, #0x1
    14ac:	92401c84 	and	x4, x4, #0xff
    14b0:	eb04017f 	cmp	x11, x4
    14b4:	54000fc0 	b.eq	16ac <__subtf3+0x274>  // b.none
    14b8:	7100001f 	cmp	w0, #0x0
    14bc:	54000bad 	b.le	1630 <__subtf3+0x1f8>
    14c0:	b50016ed 	cbnz	x13, 179c <__subtf3+0x364>
    14c4:	aa0a0044 	orr	x4, x2, x10
    14c8:	b40025a4 	cbz	x4, 197c <__subtf3+0x544>
    14cc:	71000400 	subs	w0, w0, #0x1
    14d0:	54003c00 	b.eq	1c50 <__subtf3+0x818>  // b.none
    14d4:	d28fffe4 	mov	x4, #0x7fff                	// #32767
    14d8:	eb04003f 	cmp	x1, x4
    14dc:	540023a0 	b.eq	1950 <__subtf3+0x518>  // b.none
    14e0:	7101d01f 	cmp	w0, #0x74
    14e4:	5400244c 	b.gt	196c <__subtf3+0x534>
    14e8:	7100fc1f 	cmp	w0, #0x3f
    14ec:	5400314c 	b.gt	1b14 <__subtf3+0x6dc>
    14f0:	52800804 	mov	w4, #0x40                  	// #64
    14f4:	4b000084 	sub	w4, w4, w0
    14f8:	9ac02547 	lsr	x7, x10, x0
    14fc:	9ac4214a 	lsl	x10, x10, x4
    1500:	f100015f 	cmp	x10, #0x0
    1504:	9ac42044 	lsl	x4, x2, x4
    1508:	9a9f07e5 	cset	x5, ne  // ne = any
    150c:	aa070084 	orr	x4, x4, x7
    1510:	9ac02442 	lsr	x2, x2, x0
    1514:	aa050084 	orr	x4, x4, x5
    1518:	cb020063 	sub	x3, x3, x2
    151c:	eb0400c6 	subs	x6, x6, x4
    1520:	da1f0063 	sbc	x3, x3, xzr
    1524:	9240c865 	and	x5, x3, #0x7ffffffffffff
    1528:	b6981003 	tbz	x3, #51, 1728 <__subtf3+0x2f0>
    152c:	b4002045 	cbz	x5, 1934 <__subtf3+0x4fc>
    1530:	dac010a0 	clz	x0, x5
    1534:	51003000 	sub	w0, w0, #0xc
    1538:	4b0003e3 	neg	w3, w0
    153c:	9ac020a2 	lsl	x2, x5, x0
    1540:	9ac020c5 	lsl	x5, x6, x0
    1544:	9ac324c6 	lsr	x6, x6, x3
    1548:	aa0200c3 	orr	x3, x6, x2
    154c:	eb20c03f 	cmp	x1, w0, sxtw
    1550:	93407c02 	sxtw	x2, w0
    1554:	54001e0c 	b.gt	1914 <__subtf3+0x4dc>
    1558:	4b010001 	sub	w1, w0, w1
    155c:	11000420 	add	w0, w1, #0x1
    1560:	7100fc1f 	cmp	w0, #0x3f
    1564:	54002bcc 	b.gt	1adc <__subtf3+0x6a4>
    1568:	52800801 	mov	w1, #0x40                  	// #64
    156c:	4b000021 	sub	w1, w1, w0
    1570:	9ac024a2 	lsr	x2, x5, x0
    1574:	9ac120a5 	lsl	x5, x5, x1
    1578:	f10000bf 	cmp	x5, #0x0
    157c:	9ac12066 	lsl	x6, x3, x1
    1580:	9a9f07e1 	cset	x1, ne  // ne = any
    1584:	aa0200c6 	orr	x6, x6, x2
    1588:	9ac02463 	lsr	x3, x3, x0
    158c:	aa0100c6 	orr	x6, x6, x1
    1590:	aa0300c7 	orr	x7, x6, x3
    1594:	b4000d47 	cbz	x7, 173c <__subtf3+0x304>
    1598:	924008c0 	and	x0, x6, #0x7
    159c:	d2800001 	mov	x1, #0x0                   	// #0
    15a0:	52800024 	mov	w4, #0x1                   	// #1
    15a4:	b4001fe0 	cbz	x0, 19a0 <__subtf3+0x568>
    15a8:	926a0582 	and	x2, x12, #0xc00000
    15ac:	f150005f 	cmp	x2, #0x400, lsl #12
    15b0:	540019e0 	b.eq	18ec <__subtf3+0x4b4>  // b.none
    15b4:	f160005f 	cmp	x2, #0x800, lsl #12
    15b8:	540018a0 	b.eq	18cc <__subtf3+0x494>  // b.none
    15bc:	b40019e2 	cbz	x2, 18f8 <__subtf3+0x4c0>
    15c0:	924d0062 	and	x2, x3, #0x8000000000000
    15c4:	52800200 	mov	w0, #0x10                  	// #16
    15c8:	34000044 	cbz	w4, 15d0 <__subtf3+0x198>
    15cc:	321d0000 	orr	w0, w0, #0x8
    15d0:	b4000582 	cbz	x2, 1680 <__subtf3+0x248>
    15d4:	91000421 	add	x1, x1, #0x1
    15d8:	d28fffe2 	mov	x2, #0x7fff                	// #32767
    15dc:	eb02003f 	cmp	x1, x2
    15e0:	540010a0 	b.eq	17f4 <__subtf3+0x3bc>  // b.none
    15e4:	d343c867 	ubfx	x7, x3, #3, #48
    15e8:	93c60c65 	extr	x5, x3, x6, #3
    15ec:	12003821 	and	w1, w1, #0x7fff
    15f0:	d2800003 	mov	x3, #0x0                   	// #0
    15f4:	2a083c21 	orr	w1, w1, w8, lsl #15
    15f8:	b340bce3 	bfxil	x3, x7, #0, #48
    15fc:	9e6700a0 	fmov	d0, x5
    1600:	b3503c23 	bfi	x3, x1, #48, #16
    1604:	9eaf0060 	fmov	v0.d[1], x3
    1608:	35001240 	cbnz	w0, 1850 <__subtf3+0x418>
    160c:	a8c37bfd 	ldp	x29, x30, [sp], #48
    1610:	d65f03c0 	ret
    1614:	aa0a0047 	orr	x7, x2, x10
    1618:	b4fff487 	cbz	x7, 14a8 <__subtf3+0x70>
    161c:	92401c84 	and	x4, x4, #0xff
    1620:	eb04017f 	cmp	x11, x4
    1624:	54001200 	b.eq	1864 <__subtf3+0x42c>  // b.none
    1628:	7100001f 	cmp	w0, #0x0
    162c:	54000b8c 	b.gt	179c <__subtf3+0x364>
    1630:	34000920 	cbz	w0, 1754 <__subtf3+0x31c>
    1634:	2a0403e8 	mov	w8, w4
    1638:	b50021c1 	cbnz	x1, 1a70 <__subtf3+0x638>
    163c:	aa060061 	orr	x1, x3, x6
    1640:	b4000641 	cbz	x1, 1708 <__subtf3+0x2d0>
    1644:	3100041f 	cmn	w0, #0x1
    1648:	54003b40 	b.eq	1db0 <__subtf3+0x978>  // b.none
    164c:	d28fffe1 	mov	x1, #0x7fff                	// #32767
    1650:	2a2003e0 	mvn	w0, w0
    1654:	eb0101bf 	cmp	x13, x1
    1658:	54002161 	b.ne	1a84 <__subtf3+0x64c>  // b.any
    165c:	aa0a0040 	orr	x0, x2, x10
    1660:	92401d0b 	and	x11, x8, #0xff
    1664:	b4001c20 	cbz	x0, 19e8 <__subtf3+0x5b0>
    1668:	d372fc40 	lsr	x0, x2, #50
    166c:	aa0a03e6 	mov	x6, x10
    1670:	d2400000 	eor	x0, x0, #0x1
    1674:	aa0203e3 	mov	x3, x2
    1678:	12000000 	and	w0, w0, #0x1
    167c:	d28fffe1 	mov	x1, #0x7fff                	// #32767
    1680:	d28fffe2 	mov	x2, #0x7fff                	// #32767
    1684:	93c60c65 	extr	x5, x3, x6, #3
    1688:	d343fc67 	lsr	x7, x3, #3
    168c:	eb02003f 	cmp	x1, x2
    1690:	540005c1 	b.ne	1748 <__subtf3+0x310>  // b.any
    1694:	aa0500e1 	orr	x1, x7, x5
    1698:	b4004361 	cbz	x1, 1f04 <__subtf3+0xacc>
    169c:	b25100e7 	orr	x7, x7, #0x800000000000
    16a0:	528fffe1 	mov	w1, #0x7fff                	// #32767
    16a4:	9240bce7 	and	x7, x7, #0xffffffffffff
    16a8:	17ffffd2 	b	15f0 <__subtf3+0x1b8>
    16ac:	7100001f 	cmp	w0, #0x0
    16b0:	54000dad 	b.le	1864 <__subtf3+0x42c>
    16b4:	b400078d 	cbz	x13, 17a4 <__subtf3+0x36c>
    16b8:	b24d0042 	orr	x2, x2, #0x8000000000000
    16bc:	d28fffe4 	mov	x4, #0x7fff                	// #32767
    16c0:	eb04003f 	cmp	x1, x4
    16c4:	54001460 	b.eq	1950 <__subtf3+0x518>  // b.none
    16c8:	7101d01f 	cmp	w0, #0x74
    16cc:	54001fcc 	b.gt	1ac4 <__subtf3+0x68c>
    16d0:	7100fc1f 	cmp	w0, #0x3f
    16d4:	5400246c 	b.gt	1b60 <__subtf3+0x728>
    16d8:	52800804 	mov	w4, #0x40                  	// #64
    16dc:	4b000084 	sub	w4, w4, w0
    16e0:	9ac02547 	lsr	x7, x10, x0
    16e4:	9ac4214a 	lsl	x10, x10, x4
    16e8:	f100015f 	cmp	x10, #0x0
    16ec:	9ac42044 	lsl	x4, x2, x4
    16f0:	9a9f07e5 	cset	x5, ne  // ne = any
    16f4:	aa070084 	orr	x4, x4, x7
    16f8:	9ac02442 	lsr	x2, x2, x0
    16fc:	aa050080 	orr	x0, x4, x5
    1700:	8b020063 	add	x3, x3, x2
    1704:	140000f3 	b	1ad0 <__subtf3+0x698>
    1708:	d28fffe0 	mov	x0, #0x7fff                	// #32767
    170c:	eb0001bf 	cmp	x13, x0
    1710:	54003160 	b.eq	1d3c <__subtf3+0x904>  // b.none
    1714:	aa0203e3 	mov	x3, x2
    1718:	aa0a03e6 	mov	x6, x10
    171c:	aa0d03e1 	mov	x1, x13
    1720:	aa0403ee 	mov	x14, x4
    1724:	d503201f 	nop
    1728:	aa0300c7 	orr	x7, x6, x3
    172c:	924008c0 	and	x0, x6, #0x7
    1730:	52800004 	mov	w4, #0x0                   	// #0
    1734:	b5fff381 	cbnz	x1, 15a4 <__subtf3+0x16c>
    1738:	b5fff307 	cbnz	x7, 1598 <__subtf3+0x160>
    173c:	d2800005 	mov	x5, #0x0                   	// #0
    1740:	d2800001 	mov	x1, #0x0                   	// #0
    1744:	52800000 	mov	w0, #0x0                   	// #0
    1748:	9240bce7 	and	x7, x7, #0xffffffffffff
    174c:	12003821 	and	w1, w1, #0x7fff
    1750:	17ffffa8 	b	15f0 <__subtf3+0x1b8>
    1754:	91000427 	add	x7, x1, #0x1
    1758:	f27f34ff 	tst	x7, #0x7ffe
    175c:	54001721 	b.ne	1a40 <__subtf3+0x608>  // b.any
    1760:	aa06006b 	orr	x11, x3, x6
    1764:	aa0a0047 	orr	x7, x2, x10
    1768:	b5002341 	cbnz	x1, 1bd0 <__subtf3+0x798>
    176c:	b400278b 	cbz	x11, 1c5c <__subtf3+0x824>
    1770:	b4002807 	cbz	x7, 1c70 <__subtf3+0x838>
    1774:	eb0a00c9 	subs	x9, x6, x10
    1778:	eb0a00df 	cmp	x6, x10
    177c:	da020065 	sbc	x5, x3, x2
    1780:	b69834c5 	tbz	x5, #51, 1e18 <__subtf3+0x9e0>
    1784:	eb060146 	subs	x6, x10, x6
    1788:	2a0403e8 	mov	w8, w4
    178c:	da030043 	sbc	x3, x2, x3
    1790:	aa0403ee 	mov	x14, x4
    1794:	aa0300c7 	orr	x7, x6, x3
    1798:	17ffff7f 	b	1594 <__subtf3+0x15c>
    179c:	b24d0042 	orr	x2, x2, #0x8000000000000
    17a0:	17ffff4d 	b	14d4 <__subtf3+0x9c>
    17a4:	aa0a0044 	orr	x4, x2, x10
    17a8:	b4000ea4 	cbz	x4, 197c <__subtf3+0x544>
    17ac:	71000400 	subs	w0, w0, #0x1
    17b0:	54fff861 	b.ne	16bc <__subtf3+0x284>  // b.any
    17b4:	ab0a00c6 	adds	x6, x6, x10
    17b8:	9a030043 	adc	x3, x2, x3
    17bc:	d503201f 	nop
    17c0:	b69ffb43 	tbz	x3, #51, 1728 <__subtf3+0x2f0>
    17c4:	91000421 	add	x1, x1, #0x1
    17c8:	d28fffe0 	mov	x0, #0x7fff                	// #32767
    17cc:	eb00003f 	cmp	x1, x0
    17d0:	54002560 	b.eq	1c7c <__subtf3+0x844>  // b.none
    17d4:	924000c0 	and	x0, x6, #0x1
    17d8:	924cf862 	and	x2, x3, #0xfff7ffffffffffff
    17dc:	aa460406 	orr	x6, x0, x6, lsr #1
    17e0:	52800004 	mov	w4, #0x0                   	// #0
    17e4:	aa03fcc6 	orr	x6, x6, x3, lsl #63
    17e8:	d341fc43 	lsr	x3, x2, #1
    17ec:	924008c0 	and	x0, x6, #0x7
    17f0:	17ffff6d 	b	15a4 <__subtf3+0x16c>
    17f4:	926a0582 	and	x2, x12, #0xc00000
    17f8:	b40001c2 	cbz	x2, 1830 <__subtf3+0x3f8>
    17fc:	f150005f 	cmp	x2, #0x400, lsl #12
    1800:	54000160 	b.eq	182c <__subtf3+0x3f4>  // b.none
    1804:	f160005f 	cmp	x2, #0x800, lsl #12
    1808:	120001ce 	and	w14, w14, #0x1
    180c:	1a9f01ce 	csel	w14, w14, wzr, eq  // eq = none
    1810:	3500010e 	cbnz	w14, 1830 <__subtf3+0x3f8>
    1814:	52800281 	mov	w1, #0x14                  	// #20
    1818:	92800005 	mov	x5, #0xffffffffffffffff    	// #-1
    181c:	2a010000 	orr	w0, w0, w1
    1820:	92fc0007 	mov	x7, #0x1fffffffffffffff    	// #2305843009213693951
    1824:	d28fffc1 	mov	x1, #0x7ffe                	// #32766
    1828:	17ffffc8 	b	1748 <__subtf3+0x310>
    182c:	b5ffff4e 	cbnz	x14, 1814 <__subtf3+0x3dc>
    1830:	52800281 	mov	w1, #0x14                  	// #20
    1834:	92401d0b 	and	x11, x8, #0xff
    1838:	2a010000 	orr	w0, w0, w1
    183c:	d2800002 	mov	x2, #0x0                   	// #0
    1840:	9e670040 	fmov	d0, x2
    1844:	d341016b 	lsl	x11, x11, #63
    1848:	b2503963 	orr	x3, x11, #0x7fff000000000000
    184c:	9eaf0060 	fmov	v0.d[1], x3
    1850:	3d8007e0 	str	q0, [sp, #16]
    1854:	940002b3 	bl	2320 <__sfp_handle_exceptions>
    1858:	3dc007e0 	ldr	q0, [sp, #16]
    185c:	a8c37bfd 	ldp	x29, x30, [sp], #48
    1860:	d65f03c0 	ret
    1864:	34000ce0 	cbz	w0, 1a00 <__subtf3+0x5c8>
    1868:	b4000aa1 	cbz	x1, 19bc <__subtf3+0x584>
    186c:	d28fffe1 	mov	x1, #0x7fff                	// #32767
    1870:	4b0003e0 	neg	w0, w0
    1874:	b24d0063 	orr	x3, x3, #0x8000000000000
    1878:	eb0101bf 	cmp	x13, x1
    187c:	54000b00 	b.eq	19dc <__subtf3+0x5a4>  // b.none
    1880:	7101d01f 	cmp	w0, #0x74
    1884:	5400226c 	b.gt	1cd0 <__subtf3+0x898>
    1888:	7100fc1f 	cmp	w0, #0x3f
    188c:	540027cc 	b.gt	1d84 <__subtf3+0x94c>
    1890:	52800801 	mov	w1, #0x40                  	// #64
    1894:	4b000021 	sub	w1, w1, w0
    1898:	9ac024c4 	lsr	x4, x6, x0
    189c:	9ac120c6 	lsl	x6, x6, x1
    18a0:	f10000df 	cmp	x6, #0x0
    18a4:	9ac12066 	lsl	x6, x3, x1
    18a8:	9a9f07e1 	cset	x1, ne  // ne = any
    18ac:	aa0400c6 	orr	x6, x6, x4
    18b0:	9ac02460 	lsr	x0, x3, x0
    18b4:	aa0100c6 	orr	x6, x6, x1
    18b8:	8b000042 	add	x2, x2, x0
    18bc:	ab0a00c6 	adds	x6, x6, x10
    18c0:	aa0d03e1 	mov	x1, x13
    18c4:	9a823443 	cinc	x3, x2, cs  // cs = hs, nlast
    18c8:	17ffffbe 	b	17c0 <__subtf3+0x388>
    18cc:	52800200 	mov	w0, #0x10                  	// #16
    18d0:	b400006e 	cbz	x14, 18dc <__subtf3+0x4a4>
    18d4:	b10020c6 	adds	x6, x6, #0x8
    18d8:	9a833463 	cinc	x3, x3, cs  // cs = hs, nlast
    18dc:	924d0062 	and	x2, x3, #0x8000000000000
    18e0:	34ffe784 	cbz	w4, 15d0 <__subtf3+0x198>
    18e4:	321d0000 	orr	w0, w0, #0x8
    18e8:	17ffff3a 	b	15d0 <__subtf3+0x198>
    18ec:	52800200 	mov	w0, #0x10                  	// #16
    18f0:	b5ffff6e 	cbnz	x14, 18dc <__subtf3+0x4a4>
    18f4:	17fffff8 	b	18d4 <__subtf3+0x49c>
    18f8:	92400cc2 	and	x2, x6, #0xf
    18fc:	52800200 	mov	w0, #0x10                  	// #16
    1900:	f100105f 	cmp	x2, #0x4
    1904:	54fffec0 	b.eq	18dc <__subtf3+0x4a4>  // b.none
    1908:	b10010c6 	adds	x6, x6, #0x4
    190c:	9a833463 	cinc	x3, x3, cs  // cs = hs, nlast
    1910:	17fffff3 	b	18dc <__subtf3+0x4a4>
    1914:	aa0503e6 	mov	x6, x5
    1918:	924cf863 	and	x3, x3, #0xfff7ffffffffffff
    191c:	cb020021 	sub	x1, x1, x2
    1920:	aa0300c7 	orr	x7, x6, x3
    1924:	924008c0 	and	x0, x6, #0x7
    1928:	52800004 	mov	w4, #0x0                   	// #0
    192c:	b4fff061 	cbz	x1, 1738 <__subtf3+0x300>
    1930:	17ffff1d 	b	15a4 <__subtf3+0x16c>
    1934:	dac010c3 	clz	x3, x6
    1938:	1100d060 	add	w0, w3, #0x34
    193c:	7100fc1f 	cmp	w0, #0x3f
    1940:	54ffdfcd 	b.le	1538 <__subtf3+0x100>
    1944:	51003063 	sub	w3, w3, #0xc
    1948:	9ac320c3 	lsl	x3, x6, x3
    194c:	17ffff00 	b	154c <__subtf3+0x114>
    1950:	aa060060 	orr	x0, x3, x6
    1954:	b40004a0 	cbz	x0, 19e8 <__subtf3+0x5b0>
    1958:	d372fc60 	lsr	x0, x3, #50
    195c:	d28fffe1 	mov	x1, #0x7fff                	// #32767
    1960:	d2400000 	eor	x0, x0, #0x1
    1964:	12000000 	and	w0, w0, #0x1
    1968:	17ffff46 	b	1680 <__subtf3+0x248>
    196c:	aa0a0042 	orr	x2, x2, x10
    1970:	f100005f 	cmp	x2, #0x0
    1974:	9a9f07e4 	cset	x4, ne  // ne = any
    1978:	17fffee9 	b	151c <__subtf3+0xe4>
    197c:	d28fffe0 	mov	x0, #0x7fff                	// #32767
    1980:	eb00003f 	cmp	x1, x0
    1984:	54ffed21 	b.ne	1728 <__subtf3+0x2f0>  // b.any
    1988:	aa060060 	orr	x0, x3, x6
    198c:	b5fffe60 	cbnz	x0, 1958 <__subtf3+0x520>
    1990:	d2800005 	mov	x5, #0x0                   	// #0
    1994:	d2800007 	mov	x7, #0x0                   	// #0
    1998:	52800000 	mov	w0, #0x0                   	// #0
    199c:	17ffff3e 	b	1694 <__subtf3+0x25c>
    19a0:	924d0062 	and	x2, x3, #0x8000000000000
    19a4:	52800000 	mov	w0, #0x0                   	// #0
    19a8:	34ffe144 	cbz	w4, 15d0 <__subtf3+0x198>
    19ac:	52800000 	mov	w0, #0x0                   	// #0
    19b0:	365fe10c 	tbz	w12, #11, 15d0 <__subtf3+0x198>
    19b4:	321d0000 	orr	w0, w0, #0x8
    19b8:	17ffff06 	b	15d0 <__subtf3+0x198>
    19bc:	aa060061 	orr	x1, x3, x6
    19c0:	b4001c41 	cbz	x1, 1d48 <__subtf3+0x910>
    19c4:	3100041f 	cmn	w0, #0x1
    19c8:	54002680 	b.eq	1e98 <__subtf3+0xa60>  // b.none
    19cc:	d28fffe1 	mov	x1, #0x7fff                	// #32767
    19d0:	2a2003e0 	mvn	w0, w0
    19d4:	eb0101bf 	cmp	x13, x1
    19d8:	54fff541 	b.ne	1880 <__subtf3+0x448>  // b.any
    19dc:	aa0a0040 	orr	x0, x2, x10
    19e0:	b5ffe440 	cbnz	x0, 1668 <__subtf3+0x230>
    19e4:	d503201f 	nop
    19e8:	d2800002 	mov	x2, #0x0                   	// #0
    19ec:	9e670040 	fmov	d0, x2
    19f0:	d3410160 	lsl	x0, x11, #63
    19f4:	b2503803 	orr	x3, x0, #0x7fff000000000000
    19f8:	9eaf0060 	fmov	v0.d[1], x3
    19fc:	17ffff04 	b	160c <__subtf3+0x1d4>
    1a00:	91000427 	add	x7, x1, #0x1
    1a04:	f27f34ff 	tst	x7, #0x7ffe
    1a08:	54000c21 	b.ne	1b8c <__subtf3+0x754>  // b.any
    1a0c:	aa06006b 	orr	x11, x3, x6
    1a10:	b5001821 	cbnz	x1, 1d14 <__subtf3+0x8dc>
    1a14:	aa0a0047 	orr	x7, x2, x10
    1a18:	b4001b0b 	cbz	x11, 1d78 <__subtf3+0x940>
    1a1c:	b40012a7 	cbz	x7, 1c70 <__subtf3+0x838>
    1a20:	ab0a00c6 	adds	x6, x6, x10
    1a24:	9a030043 	adc	x3, x2, x3
    1a28:	b69fdb43 	tbz	x3, #51, 1590 <__subtf3+0x158>
    1a2c:	924cf863 	and	x3, x3, #0xfff7ffffffffffff
    1a30:	924008c0 	and	x0, x6, #0x7
    1a34:	52800004 	mov	w4, #0x0                   	// #0
    1a38:	d2800021 	mov	x1, #0x1                   	// #1
    1a3c:	17fffeda 	b	15a4 <__subtf3+0x16c>
    1a40:	eb0a00c9 	subs	x9, x6, x10
    1a44:	eb0a00df 	cmp	x6, x10
    1a48:	da020065 	sbc	x5, x3, x2
    1a4c:	b7980b65 	tbnz	x5, #51, 1bb8 <__subtf3+0x780>
    1a50:	aa050127 	orr	x7, x9, x5
    1a54:	b50013a7 	cbnz	x7, 1cc8 <__subtf3+0x890>
    1a58:	926a058c 	and	x12, x12, #0xc00000
    1a5c:	d2800005 	mov	x5, #0x0                   	// #0
    1a60:	f160019f 	cmp	x12, #0x800, lsl #12
    1a64:	d2800001 	mov	x1, #0x0                   	// #0
    1a68:	1a9f17e8 	cset	w8, eq  // eq = none
    1a6c:	17ffff37 	b	1748 <__subtf3+0x310>
    1a70:	d28fffe1 	mov	x1, #0x7fff                	// #32767
    1a74:	4b0003e0 	neg	w0, w0
    1a78:	b24d0063 	orr	x3, x3, #0x8000000000000
    1a7c:	eb0101bf 	cmp	x13, x1
    1a80:	54ffdee0 	b.eq	165c <__subtf3+0x224>  // b.none
    1a84:	7101d01f 	cmp	w0, #0x74
    1a88:	540005cc 	b.gt	1b40 <__subtf3+0x708>
    1a8c:	7100fc1f 	cmp	w0, #0x3f
    1a90:	5400128c 	b.gt	1ce0 <__subtf3+0x8a8>
    1a94:	52800801 	mov	w1, #0x40                  	// #64
    1a98:	4b000021 	sub	w1, w1, w0
    1a9c:	9ac024c5 	lsr	x5, x6, x0
    1aa0:	9ac120c6 	lsl	x6, x6, x1
    1aa4:	f10000df 	cmp	x6, #0x0
    1aa8:	9ac12066 	lsl	x6, x3, x1
    1aac:	9a9f07e1 	cset	x1, ne  // ne = any
    1ab0:	aa0500c6 	orr	x6, x6, x5
    1ab4:	9ac02460 	lsr	x0, x3, x0
    1ab8:	aa0100c6 	orr	x6, x6, x1
    1abc:	cb000042 	sub	x2, x2, x0
    1ac0:	14000023 	b	1b4c <__subtf3+0x714>
    1ac4:	aa0a0042 	orr	x2, x2, x10
    1ac8:	f100005f 	cmp	x2, #0x0
    1acc:	9a9f07e0 	cset	x0, ne  // ne = any
    1ad0:	ab060006 	adds	x6, x0, x6
    1ad4:	9a833463 	cinc	x3, x3, cs  // cs = hs, nlast
    1ad8:	17ffff3a 	b	17c0 <__subtf3+0x388>
    1adc:	52801002 	mov	w2, #0x80                  	// #128
    1ae0:	4b000042 	sub	w2, w2, w0
    1ae4:	7101001f 	cmp	w0, #0x40
    1ae8:	5100fc26 	sub	w6, w1, #0x3f
    1aec:	9ac22060 	lsl	x0, x3, x2
    1af0:	aa0000a0 	orr	x0, x5, x0
    1af4:	9a851005 	csel	x5, x0, x5, ne  // ne = any
    1af8:	9ac62466 	lsr	x6, x3, x6
    1afc:	f10000bf 	cmp	x5, #0x0
    1b00:	d2800003 	mov	x3, #0x0                   	// #0
    1b04:	9a9f07e0 	cset	x0, ne  // ne = any
    1b08:	aa060006 	orr	x6, x0, x6
    1b0c:	aa0603e7 	mov	x7, x6
    1b10:	17fffea1 	b	1594 <__subtf3+0x15c>
    1b14:	52801005 	mov	w5, #0x80                  	// #128
    1b18:	4b0000a5 	sub	w5, w5, w0
    1b1c:	71010000 	subs	w0, w0, #0x40
    1b20:	9ac52045 	lsl	x5, x2, x5
    1b24:	aa050145 	orr	x5, x10, x5
    1b28:	9a8a10aa 	csel	x10, x5, x10, ne  // ne = any
    1b2c:	9ac02442 	lsr	x2, x2, x0
    1b30:	f100015f 	cmp	x10, #0x0
    1b34:	9a9f07e4 	cset	x4, ne  // ne = any
    1b38:	aa020084 	orr	x4, x4, x2
    1b3c:	17fffe78 	b	151c <__subtf3+0xe4>
    1b40:	aa060063 	orr	x3, x3, x6
    1b44:	f100007f 	cmp	x3, #0x0
    1b48:	9a9f07e6 	cset	x6, ne  // ne = any
    1b4c:	eb060146 	subs	x6, x10, x6
    1b50:	aa0d03e1 	mov	x1, x13
    1b54:	da1f0043 	sbc	x3, x2, xzr
    1b58:	aa0403ee 	mov	x14, x4
    1b5c:	17fffe72 	b	1524 <__subtf3+0xec>
    1b60:	52801004 	mov	w4, #0x80                  	// #128
    1b64:	4b000084 	sub	w4, w4, w0
    1b68:	71010000 	subs	w0, w0, #0x40
    1b6c:	9ac42044 	lsl	x4, x2, x4
    1b70:	aa040144 	orr	x4, x10, x4
    1b74:	9a8a108a 	csel	x10, x4, x10, ne  // ne = any
    1b78:	9ac02442 	lsr	x2, x2, x0
    1b7c:	f100015f 	cmp	x10, #0x0
    1b80:	9a9f07e0 	cset	x0, ne  // ne = any
    1b84:	aa020000 	orr	x0, x0, x2
    1b88:	17ffffd2 	b	1ad0 <__subtf3+0x698>
    1b8c:	d28fffe0 	mov	x0, #0x7fff                	// #32767
    1b90:	eb0000ff 	cmp	x7, x0
    1b94:	540011a0 	b.eq	1dc8 <__subtf3+0x990>  // b.none
    1b98:	ab0a00c6 	adds	x6, x6, x10
    1b9c:	aa0703e1 	mov	x1, x7
    1ba0:	9a030043 	adc	x3, x2, x3
    1ba4:	52800004 	mov	w4, #0x0                   	// #0
    1ba8:	d3410cc0 	ubfx	x0, x6, #1, #3
    1bac:	93c60466 	extr	x6, x3, x6, #1
    1bb0:	d341fc63 	lsr	x3, x3, #1
    1bb4:	17fffe7c 	b	15a4 <__subtf3+0x16c>
    1bb8:	eb06015f 	cmp	x10, x6
    1bbc:	2a0403e8 	mov	w8, w4
    1bc0:	da030045 	sbc	x5, x2, x3
    1bc4:	cb060146 	sub	x6, x10, x6
    1bc8:	aa0403ee 	mov	x14, x4
    1bcc:	17fffe58 	b	152c <__subtf3+0xf4>
    1bd0:	d28fffec 	mov	x12, #0x7fff                	// #32767
    1bd4:	eb0c003f 	cmp	x1, x12
    1bd8:	54000140 	b.eq	1c00 <__subtf3+0x7c8>  // b.none
    1bdc:	eb0c01bf 	cmp	x13, x12
    1be0:	540010a0 	b.eq	1df4 <__subtf3+0x9bc>  // b.none
    1be4:	b50001ab 	cbnz	x11, 1c18 <__subtf3+0x7e0>
    1be8:	b50010e7 	cbnz	x7, 1e04 <__subtf3+0x9cc>
    1bec:	92800005 	mov	x5, #0xffffffffffffffff    	// #-1
    1bf0:	92ffffe7 	mov	x7, #0xffffffffffff        	// #281474976710655
    1bf4:	52800020 	mov	w0, #0x1                   	// #1
    1bf8:	52800008 	mov	w8, #0x0                   	// #0
    1bfc:	17fffea8 	b	169c <__subtf3+0x264>
    1c00:	b4000f6b 	cbz	x11, 1dec <__subtf3+0x9b4>
    1c04:	d372fc60 	lsr	x0, x3, #50
    1c08:	eb0101bf 	cmp	x13, x1
    1c0c:	d2400000 	eor	x0, x0, #0x1
    1c10:	12000000 	and	w0, w0, #0x1
    1c14:	54000f00 	b.eq	1df4 <__subtf3+0x9bc>  // b.none
    1c18:	b4ffd327 	cbz	x7, 167c <__subtf3+0x244>
    1c1c:	b3430865 	bfi	x5, x3, #61, #3
    1c20:	d343fc67 	lsr	x7, x3, #3
    1c24:	b69000e3 	tbz	x3, #50, 1c40 <__subtf3+0x808>
    1c28:	d343fc41 	lsr	x1, x2, #3
    1c2c:	b79000a2 	tbnz	x2, #50, 1c40 <__subtf3+0x808>
    1c30:	aa0903e5 	mov	x5, x9
    1c34:	2a0403e8 	mov	w8, w4
    1c38:	b3430845 	bfi	x5, x2, #61, #3
    1c3c:	aa0103e7 	mov	x7, x1
    1c40:	93c5f4e7 	extr	x7, x7, x5, #61
    1c44:	b34308e5 	bfi	x5, x7, #61, #3
    1c48:	d343fce7 	lsr	x7, x7, #3
    1c4c:	17fffe92 	b	1694 <__subtf3+0x25c>
    1c50:	eb0a00c6 	subs	x6, x6, x10
    1c54:	da020063 	sbc	x3, x3, x2
    1c58:	17fffe33 	b	1524 <__subtf3+0xec>
    1c5c:	b4000847 	cbz	x7, 1d64 <__subtf3+0x92c>
    1c60:	aa0203e3 	mov	x3, x2
    1c64:	aa0a03e6 	mov	x6, x10
    1c68:	2a0403e8 	mov	w8, w4
    1c6c:	aa0403ee 	mov	x14, x4
    1c70:	d2800001 	mov	x1, #0x0                   	// #0
    1c74:	d2800002 	mov	x2, #0x0                   	// #0
    1c78:	17ffff4d 	b	19ac <__subtf3+0x574>
    1c7c:	f26a0582 	ands	x2, x12, #0xc00000
    1c80:	54000460 	b.eq	1d0c <__subtf3+0x8d4>  // b.none
    1c84:	f150005f 	cmp	x2, #0x400, lsl #12
    1c88:	52000100 	eor	w0, w8, #0x1
    1c8c:	1a9f17e1 	cset	w1, eq  // eq = none
    1c90:	6a00003f 	tst	w1, w0
    1c94:	54000a61 	b.ne	1de0 <__subtf3+0x9a8>  // b.any
    1c98:	f160005f 	cmp	x2, #0x800, lsl #12
    1c9c:	54000cc0 	b.eq	1e34 <__subtf3+0x9fc>  // b.none
    1ca0:	f150005f 	cmp	x2, #0x400, lsl #12
    1ca4:	52800280 	mov	w0, #0x14                  	// #20
    1ca8:	54ffda81 	b.ne	17f8 <__subtf3+0x3c0>  // b.any
    1cac:	92800003 	mov	x3, #0xffffffffffffffff    	// #-1
    1cb0:	d28fffc1 	mov	x1, #0x7ffe                	// #32766
    1cb4:	aa0303e6 	mov	x6, x3
    1cb8:	52800004 	mov	w4, #0x0                   	// #0
    1cbc:	52800280 	mov	w0, #0x14                  	// #20
    1cc0:	b5ffe0ee 	cbnz	x14, 18dc <__subtf3+0x4a4>
    1cc4:	17ffff04 	b	18d4 <__subtf3+0x49c>
    1cc8:	aa0903e6 	mov	x6, x9
    1ccc:	17fffe18 	b	152c <__subtf3+0xf4>
    1cd0:	aa060063 	orr	x3, x3, x6
    1cd4:	f100007f 	cmp	x3, #0x0
    1cd8:	9a9f07e6 	cset	x6, ne  // ne = any
    1cdc:	17fffef8 	b	18bc <__subtf3+0x484>
    1ce0:	52801001 	mov	w1, #0x80                  	// #128
    1ce4:	4b000021 	sub	w1, w1, w0
    1ce8:	71010000 	subs	w0, w0, #0x40
    1cec:	9ac12061 	lsl	x1, x3, x1
    1cf0:	aa0100c1 	orr	x1, x6, x1
    1cf4:	9a861026 	csel	x6, x1, x6, ne  // ne = any
    1cf8:	9ac02463 	lsr	x3, x3, x0
    1cfc:	f10000df 	cmp	x6, #0x0
    1d00:	9a9f07e6 	cset	x6, ne  // ne = any
    1d04:	aa0300c6 	orr	x6, x6, x3
    1d08:	17ffff91 	b	1b4c <__subtf3+0x714>
    1d0c:	52800280 	mov	w0, #0x14                  	// #20
    1d10:	17fffecb 	b	183c <__subtf3+0x404>
    1d14:	d28fffe7 	mov	x7, #0x7fff                	// #32767
    1d18:	eb07003f 	cmp	x1, x7
    1d1c:	540009a0 	b.eq	1e50 <__subtf3+0xa18>  // b.none
    1d20:	eb0701bf 	cmp	x13, x7
    1d24:	54000c80 	b.eq	1eb4 <__subtf3+0xa7c>  // b.none
    1d28:	b5000a0b 	cbnz	x11, 1e68 <__subtf3+0xa30>
    1d2c:	aa0203e3 	mov	x3, x2
    1d30:	aa0a03e6 	mov	x6, x10
    1d34:	d28fffe1 	mov	x1, #0x7fff                	// #32767
    1d38:	17fffe52 	b	1680 <__subtf3+0x248>
    1d3c:	aa0a0040 	orr	x0, x2, x10
    1d40:	b4ffe280 	cbz	x0, 1990 <__subtf3+0x558>
    1d44:	17fffe49 	b	1668 <__subtf3+0x230>
    1d48:	d28fffe0 	mov	x0, #0x7fff                	// #32767
    1d4c:	eb0001bf 	cmp	x13, x0
    1d50:	54ffff60 	b.eq	1d3c <__subtf3+0x904>  // b.none
    1d54:	aa0203e3 	mov	x3, x2
    1d58:	aa0a03e6 	mov	x6, x10
    1d5c:	aa0d03e1 	mov	x1, x13
    1d60:	17fffe72 	b	1728 <__subtf3+0x2f0>
    1d64:	926a058c 	and	x12, x12, #0xc00000
    1d68:	d2800005 	mov	x5, #0x0                   	// #0
    1d6c:	f160019f 	cmp	x12, #0x800, lsl #12
    1d70:	1a9f17e8 	cset	w8, eq  // eq = none
    1d74:	17fffe75 	b	1748 <__subtf3+0x310>
    1d78:	aa0203e3 	mov	x3, x2
    1d7c:	aa0a03e6 	mov	x6, x10
    1d80:	17fffe05 	b	1594 <__subtf3+0x15c>
    1d84:	52801001 	mov	w1, #0x80                  	// #128
    1d88:	4b000021 	sub	w1, w1, w0
    1d8c:	71010000 	subs	w0, w0, #0x40
    1d90:	9ac12061 	lsl	x1, x3, x1
    1d94:	aa0100c1 	orr	x1, x6, x1
    1d98:	9a861026 	csel	x6, x1, x6, ne  // ne = any
    1d9c:	9ac02463 	lsr	x3, x3, x0
    1da0:	f10000df 	cmp	x6, #0x0
    1da4:	9a9f07e6 	cset	x6, ne  // ne = any
    1da8:	aa0300c6 	orr	x6, x6, x3
    1dac:	17fffec4 	b	18bc <__subtf3+0x484>
    1db0:	eb06015f 	cmp	x10, x6
    1db4:	aa0d03e1 	mov	x1, x13
    1db8:	da030043 	sbc	x3, x2, x3
    1dbc:	cb060146 	sub	x6, x10, x6
    1dc0:	aa0403ee 	mov	x14, x4
    1dc4:	17fffdd8 	b	1524 <__subtf3+0xec>
    1dc8:	f26a0582 	ands	x2, x12, #0xc00000
    1dcc:	54fffa00 	b.eq	1d0c <__subtf3+0x8d4>  // b.none
    1dd0:	f150005f 	cmp	x2, #0x400, lsl #12
    1dd4:	52000100 	eor	w0, w8, #0x1
    1dd8:	1a9f0000 	csel	w0, w0, wzr, eq  // eq = none
    1ddc:	34fff5e0 	cbz	w0, 1c98 <__subtf3+0x860>
    1de0:	52800280 	mov	w0, #0x14                  	// #20
    1de4:	d280000b 	mov	x11, #0x0                   	// #0
    1de8:	17fffe95 	b	183c <__subtf3+0x404>
    1dec:	eb0101bf 	cmp	x13, x1
    1df0:	54ffefc1 	b.ne	1be8 <__subtf3+0x7b0>  // b.any
    1df4:	b40005a7 	cbz	x7, 1ea8 <__subtf3+0xa70>
    1df8:	f24e005f 	tst	x2, #0x4000000000000
    1dfc:	1a9f1400 	csinc	w0, w0, wzr, ne  // ne = any
    1e00:	b5fff0eb 	cbnz	x11, 1c1c <__subtf3+0x7e4>
    1e04:	2a0403e8 	mov	w8, w4
    1e08:	aa0203e3 	mov	x3, x2
    1e0c:	aa0a03e6 	mov	x6, x10
    1e10:	d28fffe1 	mov	x1, #0x7fff                	// #32767
    1e14:	17fffe1b 	b	1680 <__subtf3+0x248>
    1e18:	aa050127 	orr	x7, x9, x5
    1e1c:	b4fffa47 	cbz	x7, 1d64 <__subtf3+0x92c>
    1e20:	aa0503e3 	mov	x3, x5
    1e24:	92400920 	and	x0, x9, #0x7
    1e28:	aa0903e6 	mov	x6, x9
    1e2c:	52800024 	mov	w4, #0x1                   	// #1
    1e30:	17fffddd 	b	15a4 <__subtf3+0x16c>
    1e34:	b50004ab 	cbnz	x11, 1ec8 <__subtf3+0xa90>
    1e38:	92800003 	mov	x3, #0xffffffffffffffff    	// #-1
    1e3c:	52800008 	mov	w8, #0x0                   	// #0
    1e40:	aa0303e6 	mov	x6, x3
    1e44:	d28fffc1 	mov	x1, #0x7ffe                	// #32766
    1e48:	52800280 	mov	w0, #0x14                  	// #20
    1e4c:	17fffde2 	b	15d4 <__subtf3+0x19c>
    1e50:	b400042b 	cbz	x11, 1ed4 <__subtf3+0xa9c>
    1e54:	d372fc60 	lsr	x0, x3, #50
    1e58:	eb0101bf 	cmp	x13, x1
    1e5c:	d2400000 	eor	x0, x0, #0x1
    1e60:	12000000 	and	w0, w0, #0x1
    1e64:	54000480 	b.eq	1ef4 <__subtf3+0xabc>  // b.none
    1e68:	aa0a004a 	orr	x10, x2, x10
    1e6c:	b4ffc08a 	cbz	x10, 167c <__subtf3+0x244>
    1e70:	b3430865 	bfi	x5, x3, #61, #3
    1e74:	d343fc67 	lsr	x7, x3, #3
    1e78:	b697ee43 	tbz	x3, #50, 1c40 <__subtf3+0x808>
    1e7c:	d343fc41 	lsr	x1, x2, #3
    1e80:	b797ee02 	tbnz	x2, #50, 1c40 <__subtf3+0x808>
    1e84:	9240f125 	and	x5, x9, #0x1fffffffffffffff
    1e88:	2a0403e8 	mov	w8, w4
    1e8c:	aa02f4a5 	orr	x5, x5, x2, lsl #61
    1e90:	aa0103e7 	mov	x7, x1
    1e94:	17ffff6b 	b	1c40 <__subtf3+0x808>
    1e98:	ab0a00c6 	adds	x6, x6, x10
    1e9c:	aa0d03e1 	mov	x1, x13
    1ea0:	9a030043 	adc	x3, x2, x3
    1ea4:	17fffe47 	b	17c0 <__subtf3+0x388>
    1ea8:	b4ffea2b 	cbz	x11, 1bec <__subtf3+0x7b4>
    1eac:	d28fffe1 	mov	x1, #0x7fff                	// #32767
    1eb0:	17fffdf4 	b	1680 <__subtf3+0x248>
    1eb4:	aa0a0041 	orr	x1, x2, x10
    1eb8:	b5000161 	cbnz	x1, 1ee4 <__subtf3+0xaac>
    1ebc:	b4ffd6ab 	cbz	x11, 1990 <__subtf3+0x558>
    1ec0:	d28fffe1 	mov	x1, #0x7fff                	// #32767
    1ec4:	17fffdef 	b	1680 <__subtf3+0x248>
    1ec8:	52800280 	mov	w0, #0x14                  	// #20
    1ecc:	d280002b 	mov	x11, #0x1                   	// #1
    1ed0:	17fffe5b 	b	183c <__subtf3+0x404>
    1ed4:	eb0101bf 	cmp	x13, x1
    1ed8:	54fff2a1 	b.ne	1d2c <__subtf3+0x8f4>  // b.any
    1edc:	aa0a0041 	orr	x1, x2, x10
    1ee0:	b4ffd581 	cbz	x1, 1990 <__subtf3+0x558>
    1ee4:	f24e005f 	tst	x2, #0x4000000000000
    1ee8:	1a9f1400 	csinc	w0, w0, wzr, ne  // ne = any
    1eec:	b5fffc2b 	cbnz	x11, 1e70 <__subtf3+0xa38>
    1ef0:	17ffff8f 	b	1d2c <__subtf3+0x8f4>
    1ef4:	aa0a0041 	orr	x1, x2, x10
    1ef8:	b5ffff61 	cbnz	x1, 1ee4 <__subtf3+0xaac>
    1efc:	d28fffe1 	mov	x1, #0x7fff                	// #32767
    1f00:	17fffde0 	b	1680 <__subtf3+0x248>
    1f04:	d2800005 	mov	x5, #0x0                   	// #0
    1f08:	528fffe1 	mov	w1, #0x7fff                	// #32767
    1f0c:	d2800007 	mov	x7, #0x0                   	// #0
    1f10:	17fffdb8 	b	15f0 <__subtf3+0x1b8>
    1f14:	00000000 	.inst	0x00000000 ; undefined

0000000000001f18 <__fixtfsi>:
    1f18:	a9bd7bfd 	stp	x29, x30, [sp, #-48]!
    1f1c:	910003fd 	mov	x29, sp
    1f20:	f9000bf3 	str	x19, [sp, #16]
    1f24:	3d800be0 	str	q0, [sp, #32]
    1f28:	a94207e0 	ldp	x0, x1, [sp, #32]
    1f2c:	d53b4402 	mrs	x2, fpcr
    1f30:	aa0003e3 	mov	x3, x0
    1f34:	d370f824 	ubfx	x4, x1, #48, #15
    1f38:	d287ffc0 	mov	x0, #0x3ffe                	// #16382
    1f3c:	eb00009f 	cmp	x4, x0
    1f40:	d340bc20 	ubfx	x0, x1, #0, #48
    1f44:	5400016c 	b.gt	1f70 <__fixtfsi+0x58>
    1f48:	b5000524 	cbnz	x4, 1fec <__fixtfsi+0xd4>
    1f4c:	aa030000 	orr	x0, x0, x3
    1f50:	52800013 	mov	w19, #0x0                   	// #0
    1f54:	b4000060 	cbz	x0, 1f60 <__fixtfsi+0x48>
    1f58:	52800200 	mov	w0, #0x10                  	// #16
    1f5c:	940000f1 	bl	2320 <__sfp_handle_exceptions>
    1f60:	2a1303e0 	mov	w0, w19
    1f64:	f9400bf3 	ldr	x19, [sp, #16]
    1f68:	a8c37bfd 	ldp	x29, x30, [sp], #48
    1f6c:	d65f03c0 	ret
    1f70:	d37ffc33 	lsr	x19, x1, #63
    1f74:	d28803a5 	mov	x5, #0x401d                	// #16413
    1f78:	12001e62 	and	w2, w19, #0xff
    1f7c:	eb05009f 	cmp	x4, x5
    1f80:	540001ad 	b.le	1fb4 <__fixtfsi+0x9c>
    1f84:	d28803c1 	mov	x1, #0x401e                	// #16414
    1f88:	eb01009f 	cmp	x4, x1
    1f8c:	12b00013 	mov	w19, #0x7fffffff            	// #2147483647
    1f90:	1a9f0041 	csel	w1, w2, wzr, eq  // eq = none
    1f94:	0b130053 	add	w19, w2, w19
    1f98:	34000321 	cbz	w1, 1ffc <__fixtfsi+0xe4>
    1f9c:	eb4047ff 	cmp	xzr, x0, lsr #17
    1fa0:	540002e1 	b.ne	1ffc <__fixtfsi+0xe4>  // b.any
    1fa4:	aa00bc60 	orr	x0, x3, x0, lsl #47
    1fa8:	b4fffdc0 	cbz	x0, 1f60 <__fixtfsi+0x48>
    1fac:	52800200 	mov	w0, #0x10                  	// #16
    1fb0:	17ffffeb 	b	1f5c <__fixtfsi+0x44>
    1fb4:	aa0403e1 	mov	x1, x4
    1fb8:	b2500000 	orr	x0, x0, #0x1000000000000
    1fbc:	528805f3 	mov	w19, #0x402f                	// #16431
    1fc0:	1287fdc4 	mov	w4, #0xffffc011            	// #-16367
    1fc4:	0b040024 	add	w4, w1, w4
    1fc8:	4b010261 	sub	w1, w19, w1
    1fcc:	7100005f 	cmp	w2, #0x0
    1fd0:	9ac12413 	lsr	x19, x0, x1
    1fd4:	5a930673 	cneg	w19, w19, ne  // ne = any
    1fd8:	9ac42000 	lsl	x0, x0, x4
    1fdc:	aa030000 	orr	x0, x0, x3
    1fe0:	b4fffc00 	cbz	x0, 1f60 <__fixtfsi+0x48>
    1fe4:	52800200 	mov	w0, #0x10                  	// #16
    1fe8:	17ffffdd 	b	1f5c <__fixtfsi+0x44>
    1fec:	52800013 	mov	w19, #0x0                   	// #0
    1ff0:	52800200 	mov	w0, #0x10                  	// #16
    1ff4:	940000cb 	bl	2320 <__sfp_handle_exceptions>
    1ff8:	17ffffda 	b	1f60 <__fixtfsi+0x48>
    1ffc:	52800020 	mov	w0, #0x1                   	// #1
    2000:	940000c8 	bl	2320 <__sfp_handle_exceptions>
    2004:	17ffffd7 	b	1f60 <__fixtfsi+0x48>

0000000000002008 <__fixunstfsi>:
    2008:	a9bd7bfd 	stp	x29, x30, [sp, #-48]!
    200c:	910003fd 	mov	x29, sp
    2010:	f9000bf3 	str	x19, [sp, #16]
    2014:	3d800be0 	str	q0, [sp, #32]
    2018:	a94207e0 	ldp	x0, x1, [sp, #32]
    201c:	d53b4402 	mrs	x2, fpcr
    2020:	d370f823 	ubfx	x3, x1, #48, #15
    2024:	d287ffc4 	mov	x4, #0x3ffe                	// #16382
    2028:	aa0003e2 	mov	x2, x0
    202c:	eb04007f 	cmp	x3, x4
    2030:	d340bc33 	ubfx	x19, x1, #0, #48
    2034:	5400020c 	b.gt	2074 <__fixunstfsi+0x6c>
    2038:	b5000103 	cbnz	x3, 2058 <__fixunstfsi+0x50>
    203c:	aa130000 	orr	x0, x0, x19
    2040:	52800013 	mov	w19, #0x0                   	// #0
    2044:	b50000a0 	cbnz	x0, 2058 <__fixunstfsi+0x50>
    2048:	2a1303e0 	mov	w0, w19
    204c:	f9400bf3 	ldr	x19, [sp, #16]
    2050:	a8c37bfd 	ldp	x29, x30, [sp], #48
    2054:	d65f03c0 	ret
    2058:	52800200 	mov	w0, #0x10                  	// #16
    205c:	52800013 	mov	w19, #0x0                   	// #0
    2060:	940000b0 	bl	2320 <__sfp_handle_exceptions>
    2064:	2a1303e0 	mov	w0, w19
    2068:	f9400bf3 	ldr	x19, [sp, #16]
    206c:	a8c37bfd 	ldp	x29, x30, [sp], #48
    2070:	d65f03c0 	ret
    2074:	d37ffc20 	lsr	x0, x1, #63
    2078:	d28803e4 	mov	x4, #0x401f                	// #16415
    207c:	12001c00 	and	w0, w0, #0xff
    2080:	d28803c5 	mov	x5, #0x401e                	// #16414
    2084:	f2401c06 	ands	x6, x0, #0xff
    2088:	9a850084 	csel	x4, x4, x5, eq  // eq = none
    208c:	eb03009f 	cmp	x4, x3
    2090:	540000cd 	b.le	20a8 <__fixunstfsi+0xa0>
    2094:	b4000126 	cbz	x6, 20b8 <__fixunstfsi+0xb0>
    2098:	52800020 	mov	w0, #0x1                   	// #1
    209c:	52800013 	mov	w19, #0x0                   	// #0
    20a0:	940000a0 	bl	2320 <__sfp_handle_exceptions>
    20a4:	17fffff0 	b	2064 <__fixunstfsi+0x5c>
    20a8:	51000413 	sub	w19, w0, #0x1
    20ac:	52800020 	mov	w0, #0x1                   	// #1
    20b0:	9400009c 	bl	2320 <__sfp_handle_exceptions>
    20b4:	17ffffec 	b	2064 <__fixunstfsi+0x5c>
    20b8:	aa0303e1 	mov	x1, x3
    20bc:	b2500260 	orr	x0, x19, #0x1000000000000
    20c0:	1287fdc3 	mov	w3, #0xffffc011            	// #-16367
    20c4:	528805f3 	mov	w19, #0x402f                	// #16431
    20c8:	0b030023 	add	w3, w1, w3
    20cc:	4b010261 	sub	w1, w19, w1
    20d0:	9ac32003 	lsl	x3, x0, x3
    20d4:	aa020062 	orr	x2, x3, x2
    20d8:	9ac12413 	lsr	x19, x0, x1
    20dc:	52800200 	mov	w0, #0x10                  	// #16
    20e0:	b5fffc02 	cbnz	x2, 2060 <__fixunstfsi+0x58>
    20e4:	17ffffd9 	b	2048 <__fixunstfsi+0x40>

00000000000020e8 <__floatsitf>:
    20e8:	7100001f 	cmp	w0, #0x0
    20ec:	34000260 	cbz	w0, 2138 <__floatsitf+0x50>
    20f0:	5a80a401 	cneg	w1, w0, lt  // lt = tstop
    20f4:	528807c4 	mov	w4, #0x403e                	// #16446
    20f8:	dac01023 	clz	x3, x1
    20fc:	528805e2 	mov	w2, #0x402f                	// #16431
    2100:	4b030084 	sub	w4, w4, w3
    2104:	531f7c00 	lsr	w0, w0, #31
    2108:	4b040042 	sub	w2, w2, w4
    210c:	d2800003 	mov	x3, #0x0                   	// #0
    2110:	12003884 	and	w4, w4, #0x7fff
    2114:	9ac22021 	lsl	x1, x1, x2
    2118:	9240bc21 	and	x1, x1, #0xffffffffffff
    211c:	2a003c80 	orr	w0, w4, w0, lsl #15
    2120:	d2800002 	mov	x2, #0x0                   	// #0
    2124:	b340bc23 	bfxil	x3, x1, #0, #48
    2128:	9e670040 	fmov	d0, x2
    212c:	b3503c03 	bfi	x3, x0, #48, #16
    2130:	9eaf0060 	fmov	v0.d[1], x3
    2134:	d65f03c0 	ret
    2138:	52800004 	mov	w4, #0x0                   	// #0
    213c:	d2800001 	mov	x1, #0x0                   	// #0
    2140:	52800000 	mov	w0, #0x0                   	// #0
    2144:	d2800003 	mov	x3, #0x0                   	// #0
    2148:	2a003c80 	orr	w0, w4, w0, lsl #15
    214c:	b340bc23 	bfxil	x3, x1, #0, #48
    2150:	d2800002 	mov	x2, #0x0                   	// #0
    2154:	9e670040 	fmov	d0, x2
    2158:	b3503c03 	bfi	x3, x0, #48, #16
    215c:	9eaf0060 	fmov	v0.d[1], x3
    2160:	d65f03c0 	ret
    2164:	00000000 	.inst	0x00000000 ; undefined

0000000000002168 <__floatunsitf>:
    2168:	34000220 	cbz	w0, 21ac <__floatunsitf+0x44>
    216c:	2a0003e0 	mov	w0, w0
    2170:	528807c1 	mov	w1, #0x403e                	// #16446
    2174:	dac01003 	clz	x3, x0
    2178:	528805e2 	mov	w2, #0x402f                	// #16431
    217c:	4b030021 	sub	w1, w1, w3
    2180:	d2800003 	mov	x3, #0x0                   	// #0
    2184:	4b010042 	sub	w2, w2, w1
    2188:	12003821 	and	w1, w1, #0x7fff
    218c:	9ac22000 	lsl	x0, x0, x2
    2190:	9240bc00 	and	x0, x0, #0xffffffffffff
    2194:	d2800002 	mov	x2, #0x0                   	// #0
    2198:	9e670040 	fmov	d0, x2
    219c:	b340bc03 	bfxil	x3, x0, #0, #48
    21a0:	b3503c23 	bfi	x3, x1, #48, #16
    21a4:	9eaf0060 	fmov	v0.d[1], x3
    21a8:	d65f03c0 	ret
    21ac:	d2800000 	mov	x0, #0x0                   	// #0
    21b0:	d2800003 	mov	x3, #0x0                   	// #0
    21b4:	b340bc03 	bfxil	x3, x0, #0, #48
    21b8:	d2800002 	mov	x2, #0x0                   	// #0
    21bc:	9e670040 	fmov	d0, x2
    21c0:	52800001 	mov	w1, #0x0                   	// #0
    21c4:	b3503c23 	bfi	x3, x1, #48, #16
    21c8:	9eaf0060 	fmov	v0.d[1], x3
    21cc:	d65f03c0 	ret

00000000000021d0 <__extenddftf2>:
    21d0:	d53b4400 	mrs	x0, fpcr
    21d4:	9e660000 	fmov	x0, d0
    21d8:	d374f801 	ubfx	x1, x0, #52, #11
    21dc:	d37ffc04 	lsr	x4, x0, #63
    21e0:	91000422 	add	x2, x1, #0x1
    21e4:	12001c84 	and	w4, w4, #0xff
    21e8:	f27f245f 	tst	x2, #0x7fe
    21ec:	d340cc00 	ubfx	x0, x0, #0, #52
    21f0:	540001a0 	b.eq	2224 <__extenddftf2+0x54>  // b.none
    21f4:	d344fc05 	lsr	x5, x0, #4
    21f8:	d2800003 	mov	x3, #0x0                   	// #0
    21fc:	9240bca5 	and	x5, x5, #0xffffffffffff
    2200:	52878002 	mov	w2, #0x3c00                	// #15360
    2204:	0b020021 	add	w1, w1, w2
    2208:	d3440c00 	lsl	x0, x0, #60
    220c:	b340bca3 	bfxil	x3, x5, #0, #48
    2210:	9e670000 	fmov	d0, x0
    2214:	b3503823 	bfi	x3, x1, #48, #15
    2218:	b3410083 	bfi	x3, x4, #63, #1
    221c:	9eaf0060 	fmov	v0.d[1], x3
    2220:	d65f03c0 	ret
    2224:	b50002a1 	cbnz	x1, 2278 <__extenddftf2+0xa8>
    2228:	b40004e0 	cbz	x0, 22c4 <__extenddftf2+0xf4>
    222c:	dac01002 	clz	x2, x0
    2230:	7100385f 	cmp	w2, #0xe
    2234:	540006ec 	b.gt	2310 <__extenddftf2+0x140>
    2238:	1100c441 	add	w1, w2, #0x31
    223c:	528001e5 	mov	w5, #0xf                   	// #15
    2240:	4b0200a5 	sub	w5, w5, w2
    2244:	9ac52405 	lsr	x5, x0, x5
    2248:	9ac12000 	lsl	x0, x0, x1
    224c:	9240bca5 	and	x5, x5, #0xffffffffffff
    2250:	52878181 	mov	w1, #0x3c0c                	// #15372
    2254:	d2800003 	mov	x3, #0x0                   	// #0
    2258:	4b020021 	sub	w1, w1, w2
    225c:	12003821 	and	w1, w1, #0x7fff
    2260:	b340bca3 	bfxil	x3, x5, #0, #48
    2264:	9e670000 	fmov	d0, x0
    2268:	b3503823 	bfi	x3, x1, #48, #15
    226c:	b3410083 	bfi	x3, x4, #63, #1
    2270:	9eaf0060 	fmov	v0.d[1], x3
    2274:	d65f03c0 	ret
    2278:	b4000380 	cbz	x0, 22e8 <__extenddftf2+0x118>
    227c:	d344fc01 	lsr	x1, x0, #4
    2280:	d2800003 	mov	x3, #0x0                   	// #0
    2284:	b2510021 	orr	x1, x1, #0x800000000000
    2288:	d3440c02 	lsl	x2, x0, #60
    228c:	9e670040 	fmov	d0, x2
    2290:	b340bc23 	bfxil	x3, x1, #0, #48
    2294:	b2503863 	orr	x3, x3, #0x7fff000000000000
    2298:	b3410083 	bfi	x3, x4, #63, #1
    229c:	9eaf0060 	fmov	v0.d[1], x3
    22a0:	b7980360 	tbnz	x0, #51, 230c <__extenddftf2+0x13c>
    22a4:	a9be7bfd 	stp	x29, x30, [sp, #-32]!
    22a8:	52800020 	mov	w0, #0x1                   	// #1
    22ac:	910003fd 	mov	x29, sp
    22b0:	3d8007e0 	str	q0, [sp, #16]
    22b4:	9400001b 	bl	2320 <__sfp_handle_exceptions>
    22b8:	3dc007e0 	ldr	q0, [sp, #16]
    22bc:	a8c27bfd 	ldp	x29, x30, [sp], #32
    22c0:	d65f03c0 	ret
    22c4:	d2800005 	mov	x5, #0x0                   	// #0
    22c8:	d2800003 	mov	x3, #0x0                   	// #0
    22cc:	b340bca3 	bfxil	x3, x5, #0, #48
    22d0:	52800001 	mov	w1, #0x0                   	// #0
    22d4:	9e670000 	fmov	d0, x0
    22d8:	b3503823 	bfi	x3, x1, #48, #15
    22dc:	b3410083 	bfi	x3, x4, #63, #1
    22e0:	9eaf0060 	fmov	v0.d[1], x3
    22e4:	d65f03c0 	ret
    22e8:	d2800005 	mov	x5, #0x0                   	// #0
    22ec:	d2800003 	mov	x3, #0x0                   	// #0
    22f0:	b340bca3 	bfxil	x3, x5, #0, #48
    22f4:	528fffe1 	mov	w1, #0x7fff                	// #32767
    22f8:	9e670000 	fmov	d0, x0
    22fc:	b3503823 	bfi	x3, x1, #48, #15
    2300:	b3410083 	bfi	x3, x4, #63, #1
    2304:	9eaf0060 	fmov	v0.d[1], x3
    2308:	d65f03c0 	ret
    230c:	d65f03c0 	ret
    2310:	51003c45 	sub	w5, w2, #0xf
    2314:	9ac52005 	lsl	x5, x0, x5
    2318:	d2800000 	mov	x0, #0x0                   	// #0
    231c:	17ffffcc 	b	224c <__extenddftf2+0x7c>

0000000000002320 <__sfp_handle_exceptions>:
    2320:	36000080 	tbz	w0, #0, 2330 <__sfp_handle_exceptions+0x10>
    2324:	0f000401 	movi	v1.2s, #0x0
    2328:	1e211820 	fdiv	s0, s1, s1
    232c:	d53b4421 	mrs	x1, fpsr
    2330:	360800a0 	tbz	w0, #1, 2344 <__sfp_handle_exceptions+0x24>
    2334:	1e2e1001 	fmov	s1, #1.000000000000000000e+00
    2338:	0f000402 	movi	v2.2s, #0x0
    233c:	1e221820 	fdiv	s0, s1, s2
    2340:	d53b4421 	mrs	x1, fpsr
    2344:	36100100 	tbz	w0, #2, 2364 <__sfp_handle_exceptions+0x44>
    2348:	5298b5c2 	mov	w2, #0xc5ae                	// #50606
    234c:	12b01001 	mov	w1, #0x7f7fffff            	// #2139095039
    2350:	72ae93a2 	movk	w2, #0x749d, lsl #16
    2354:	1e270021 	fmov	s1, w1
    2358:	1e270042 	fmov	s2, w2
    235c:	1e222820 	fadd	s0, s1, s2
    2360:	d53b4421 	mrs	x1, fpsr
    2364:	36180080 	tbz	w0, #3, 2374 <__sfp_handle_exceptions+0x54>
    2368:	0f044401 	movi	v1.2s, #0x80, lsl #16
    236c:	1e210820 	fmul	s0, s1, s1
    2370:	d53b4421 	mrs	x1, fpsr
    2374:	362000c0 	tbz	w0, #4, 238c <__sfp_handle_exceptions+0x6c>
    2378:	12b01000 	mov	w0, #0x7f7fffff            	// #2139095039
    237c:	1e2e1002 	fmov	s2, #1.000000000000000000e+00
    2380:	1e270001 	fmov	s1, w0
    2384:	1e223820 	fsub	s0, s1, s2
    2388:	d53b4420 	mrs	x0, fpsr
    238c:	d65f03c0 	ret

0000000000002390 <TA_CreateEntryPoint>:
    2390:	52800000 	mov	w0, #0x0                   	// #0
    2394:	d65f03c0 	ret

0000000000002398 <TA_DestroyEntryPoint>:
    2398:	d65f03c0 	ret

000000000000239c <TA_OpenSessionEntryPoint>:
    239c:	a9be7bfd 	stp	x29, x30, [sp, #-32]!
    23a0:	910003fd 	mov	x29, sp
    23a4:	f9000bf3 	str	x19, [sp, #16]
    23a8:	350001c0 	cbnz	w0, 23e0 <TA_OpenSessionEntryPoint+0x44>
    23ac:	2a0003f3 	mov	w19, w0
    23b0:	d0000064 	adrp	x4, 10000 <__text_end+0x1600>
    23b4:	d0000060 	adrp	x0, 10000 <__text_end+0x1600>
    23b8:	91286084 	add	x4, x4, #0xa18
    23bc:	912bcc00 	add	x0, x0, #0xaf3
    23c0:	52800023 	mov	w3, #0x1                   	// #1
    23c4:	52800042 	mov	w2, #0x2                   	// #2
    23c8:	52800aa1 	mov	w1, #0x55                  	// #85
    23cc:	94000ac9 	bl	4ef0 <trace_printf>
    23d0:	2a1303e0 	mov	w0, w19
    23d4:	f9400bf3 	ldr	x19, [sp, #16]
    23d8:	a8c27bfd 	ldp	x29, x30, [sp], #32
    23dc:	d65f03c0 	ret
    23e0:	129fff33 	mov	w19, #0xffff0006            	// #-65530
    23e4:	17fffffb 	b	23d0 <TA_OpenSessionEntryPoint+0x34>

00000000000023e8 <TA_CloseSessionEntryPoint>:
    23e8:	d0000060 	adrp	x0, 10000 <__text_end+0x1600>
    23ec:	912bcc00 	add	x0, x0, #0xaf3
    23f0:	91006400 	add	x0, x0, #0x19
    23f4:	d0000064 	adrp	x4, 10000 <__text_end+0x1600>
    23f8:	52800023 	mov	w3, #0x1                   	// #1
    23fc:	91289884 	add	x4, x4, #0xa26
    2400:	52800042 	mov	w2, #0x2                   	// #2
    2404:	52800c41 	mov	w1, #0x62                  	// #98
    2408:	14000aba 	b	4ef0 <trace_printf>

000000000000240c <TA_InvokeCommandEntryPoint>:
    240c:	a9b57bfd 	stp	x29, x30, [sp, #-176]!
    2410:	910003fd 	mov	x29, sp
    2414:	a90153f3 	stp	x19, x20, [sp, #16]
    2418:	2a0103f3 	mov	w19, w1
    241c:	aa0303f4 	mov	x20, x3
    2420:	a9025bf5 	stp	x21, x22, [sp, #32]
    2424:	2a0203f6 	mov	w22, w2
    2428:	a90363f7 	stp	x23, x24, [sp, #48]
    242c:	340000a1 	cbz	w1, 2440 <TA_InvokeCommandEntryPoint+0x34>
    2430:	7100043f 	cmp	w1, #0x1
    2434:	54000a60 	b.eq	2580 <TA_InvokeCommandEntryPoint+0x174>  // b.none
    2438:	129fff20 	mov	w0, #0xffff0006            	// #-65530
    243c:	14000046 	b	2554 <TA_InvokeCommandEntryPoint+0x148>
    2440:	d0000060 	adrp	x0, 10000 <__text_end+0x1600>
    2444:	9128c000 	add	x0, x0, #0xa30
    2448:	9400018b 	bl	2a74 <puts>
    244c:	71000edf 	cmp	w22, #0x3
    2450:	54000941 	b.ne	2578 <TA_InvokeCommandEntryPoint+0x16c>  // b.any
    2454:	d2800c82 	mov	x2, #0x64                  	// #100
    2458:	910123f8 	add	x24, sp, #0x48
    245c:	52800001 	mov	w1, #0x0                   	// #0
    2460:	aa1803e0 	mov	x0, x24
    2464:	9400096a 	bl	4a0c <memset>
    2468:	d0000075 	adrp	x21, 10000 <__text_end+0x1600>
    246c:	d0000061 	adrp	x1, 10000 <__text_end+0x1600>
    2470:	d0000060 	adrp	x0, 10000 <__text_end+0x1600>
    2474:	9128d421 	add	x1, x1, #0xa35
    2478:	9128dc00 	add	x0, x0, #0xa37
    247c:	940000e1 	bl	2800 <fopen>
    2480:	aa0003f7 	mov	x23, x0
    2484:	b4000720 	cbz	x0, 2568 <TA_InvokeCommandEntryPoint+0x15c>
    2488:	aa0003e3 	mov	x3, x0
    248c:	d2800142 	mov	x2, #0xa                   	// #10
    2490:	d2800021 	mov	x1, #0x1                   	// #1
    2494:	aa1803e0 	mov	x0, x24
    2498:	94000109 	bl	28bc <fread>
    249c:	aa1803e1 	mov	x1, x24
    24a0:	d0000060 	adrp	x0, 10000 <__text_end+0x1600>
    24a4:	91292800 	add	x0, x0, #0xa4a
    24a8:	94000151 	bl	29ec <printf>
    24ac:	aa1803e5 	mov	x5, x24
    24b0:	2a1603e2 	mov	w2, w22
    24b4:	d0000064 	adrp	x4, 10000 <__text_end+0x1600>
    24b8:	91298884 	add	x4, x4, #0xa62
    24bc:	912bcea0 	add	x0, x21, #0xaf3
    24c0:	52800023 	mov	w3, #0x1                   	// #1
    24c4:	52800f21 	mov	w1, #0x79                  	// #121
    24c8:	9100cc00 	add	x0, x0, #0x33
    24cc:	94000a89 	bl	4ef0 <trace_printf>
    24d0:	aa1703e0 	mov	x0, x23
    24d4:	9400004c 	bl	2604 <fclose>
    24d8:	912bceb5 	add	x21, x21, #0xaf3
    24dc:	d0000060 	adrp	x0, 10000 <__text_end+0x1600>
    24e0:	9100ceb5 	add	x21, x21, #0x33
    24e4:	912a3000 	add	x0, x0, #0xa8c
    24e8:	94000163 	bl	2a74 <puts>
    24ec:	aa1503e0 	mov	x0, x21
    24f0:	52800023 	mov	w3, #0x1                   	// #1
    24f4:	52800062 	mov	w2, #0x3                   	// #3
    24f8:	52801021 	mov	w1, #0x81                  	// #129
    24fc:	d0000064 	adrp	x4, 10000 <__text_end+0x1600>
    2500:	912a8484 	add	x4, x4, #0xaa1
    2504:	94000a7b 	bl	4ef0 <trace_printf>
    2508:	b9400285 	ldr	w5, [x20]
    250c:	aa1503e0 	mov	x0, x21
    2510:	52800023 	mov	w3, #0x1                   	// #1
    2514:	52800042 	mov	w2, #0x2                   	// #2
    2518:	52801061 	mov	w1, #0x83                  	// #131
    251c:	d0000064 	adrp	x4, 10000 <__text_end+0x1600>
    2520:	912ac484 	add	x4, x4, #0xab1
    2524:	94000a73 	bl	4ef0 <trace_printf>
    2528:	b9400285 	ldr	w5, [x20]
    252c:	d0000064 	adrp	x4, 10000 <__text_end+0x1600>
    2530:	aa1503e0 	mov	x0, x21
    2534:	912b1c84 	add	x4, x4, #0xac7
    2538:	110004a5 	add	w5, w5, #0x1
    253c:	b9000285 	str	w5, [x20]
    2540:	52800023 	mov	w3, #0x1                   	// #1
    2544:	52800042 	mov	w2, #0x2                   	// #2
    2548:	528010a1 	mov	w1, #0x85                  	// #133
    254c:	94000a69 	bl	4ef0 <trace_printf>
    2550:	2a1303e0 	mov	w0, w19
    2554:	a94153f3 	ldp	x19, x20, [sp, #16]
    2558:	a9425bf5 	ldp	x21, x22, [sp, #32]
    255c:	a94363f7 	ldp	x23, x24, [sp, #48]
    2560:	a8cb7bfd 	ldp	x29, x30, [sp], #176
    2564:	d65f03c0 	ret
    2568:	d0000060 	adrp	x0, 10000 <__text_end+0x1600>
    256c:	9129d800 	add	x0, x0, #0xa76
    2570:	94000141 	bl	2a74 <puts>
    2574:	17ffffd9 	b	24d8 <TA_InvokeCommandEntryPoint+0xcc>
    2578:	129fff33 	mov	w19, #0xffff0006            	// #-65530
    257c:	17fffff5 	b	2550 <TA_InvokeCommandEntryPoint+0x144>
    2580:	71000c5f 	cmp	w2, #0x3
    2584:	54fff5a1 	b.ne	2438 <TA_InvokeCommandEntryPoint+0x2c>  // b.any
    2588:	b9400285 	ldr	w5, [x20]
    258c:	d0000075 	adrp	x21, 10000 <__text_end+0x1600>
    2590:	912bceb5 	add	x21, x21, #0xaf3
    2594:	2a0103e3 	mov	w3, w1
    2598:	9100f6b5 	add	x21, x21, #0x3d
    259c:	52800042 	mov	w2, #0x2                   	// #2
    25a0:	aa1503e0 	mov	x0, x21
    25a4:	528012e1 	mov	w1, #0x97                  	// #151
    25a8:	d0000064 	adrp	x4, 10000 <__text_end+0x1600>
    25ac:	912ac484 	add	x4, x4, #0xab1
    25b0:	94000a50 	bl	4ef0 <trace_printf>
    25b4:	b9400285 	ldr	w5, [x20]
    25b8:	aa1503e0 	mov	x0, x21
    25bc:	2a1303e3 	mov	w3, w19
    25c0:	d0000064 	adrp	x4, 10000 <__text_end+0x1600>
    25c4:	510004a5 	sub	w5, w5, #0x1
    25c8:	b9000285 	str	w5, [x20]
    25cc:	912b7484 	add	x4, x4, #0xadd
    25d0:	52800042 	mov	w2, #0x2                   	// #2
    25d4:	52801321 	mov	w1, #0x99                  	// #153
    25d8:	94000a46 	bl	4ef0 <trace_printf>
    25dc:	52800000 	mov	w0, #0x0                   	// #0
    25e0:	17ffffdd 	b	2554 <TA_InvokeCommandEntryPoint+0x148>

00000000000025e4 <__ta_entry>:
    25e4:	a9bf7bfd 	stp	x29, x30, [sp, #-16]!
    25e8:	910003fd 	mov	x29, sp
    25ec:	9400156a 	bl	7b94 <__utee_entry>
    25f0:	2a0003e0 	mov	w0, w0
    25f4:	94001397 	bl	7450 <_utee_return>

00000000000025f8 <tahead_get_trace_level>:
    25f8:	52800080 	mov	w0, #0x4                   	// #4
    25fc:	d65f03c0 	ret

0000000000002600 <__unlist_locked_file>:
    2600:	d65f03c0 	ret

0000000000002604 <fclose>:
    2604:	a9be53f3 	stp	x19, x20, [sp, #-32]!
    2608:	aa0003f3 	mov	x19, x0
    260c:	b9408c01 	ldr	w1, [x0, #140]
    2610:	a9017bf5 	stp	x21, x30, [sp, #16]
    2614:	37f804c1 	tbnz	w1, #31, 26ac <fclose+0xa8>
    2618:	94000b4c 	bl	5348 <__lockfile>
    261c:	2a0003f5 	mov	w21, w0
    2620:	aa1303e0 	mov	x0, x19
    2624:	94000024 	bl	26b4 <fflush>
    2628:	f9400e61 	ldr	x1, [x19, #24]
    262c:	2a0003f4 	mov	w20, w0
    2630:	aa1303e0 	mov	x0, x19
    2634:	d63f0020 	blr	x1
    2638:	2a000294 	orr	w20, w20, w0
    263c:	34000075 	cbz	w21, 2648 <fclose+0x44>
    2640:	aa1303e0 	mov	x0, x19
    2644:	94000b76 	bl	541c <__unlockfile>
    2648:	b9400260 	ldr	w0, [x19]
    264c:	37000280 	tbnz	w0, #0, 269c <fclose+0x98>
    2650:	aa1303e0 	mov	x0, x19
    2654:	97ffffeb 	bl	2600 <__unlist_locked_file>
    2658:	940000da 	bl	29c0 <__ofl_lock>
    265c:	f9403662 	ldr	x2, [x19, #104]
    2660:	b4000062 	cbz	x2, 266c <fclose+0x68>
    2664:	f9403a61 	ldr	x1, [x19, #112]
    2668:	f9003841 	str	x1, [x2, #112]
    266c:	f9403a61 	ldr	x1, [x19, #112]
    2670:	b4000041 	cbz	x1, 2678 <fclose+0x74>
    2674:	f9003422 	str	x2, [x1, #104]
    2678:	f9400002 	ldr	x2, [x0]
    267c:	eb13005f 	cmp	x2, x19
    2680:	54000041 	b.ne	2688 <fclose+0x84>  // b.any
    2684:	f9000001 	str	x1, [x0]
    2688:	940000d6 	bl	29e0 <__ofl_unlock>
    268c:	f9405660 	ldr	x0, [x19, #168]
    2690:	94000a5a 	bl	4ff8 <free>
    2694:	aa1303e0 	mov	x0, x19
    2698:	94000a58 	bl	4ff8 <free>
    269c:	2a1403e0 	mov	w0, w20
    26a0:	a9417bf5 	ldp	x21, x30, [sp, #16]
    26a4:	a8c253f3 	ldp	x19, x20, [sp], #32
    26a8:	d65f03c0 	ret
    26ac:	52800015 	mov	w21, #0x0                   	// #0
    26b0:	17ffffdc 	b	2620 <fclose+0x1c>

00000000000026b4 <fflush>:
    26b4:	a9be53f3 	stp	x19, x20, [sp, #-32]!
    26b8:	a9017bf5 	stp	x21, x30, [sp, #16]
    26bc:	b5000540 	cbnz	x0, 2764 <fflush+0xb0>
    26c0:	b0000080 	adrp	x0, 13000 <_DYNAMIC>
    26c4:	f9428c01 	ldr	x1, [x0, #1304]
    26c8:	b4000241 	cbz	x1, 2710 <fflush+0x5c>
    26cc:	f9428c00 	ldr	x0, [x0, #1304]
    26d0:	97fffff9 	bl	26b4 <fflush>
    26d4:	2a0003f4 	mov	w20, w0
    26d8:	b0000080 	adrp	x0, 13000 <_DYNAMIC>
    26dc:	f9434c01 	ldr	x1, [x0, #1688]
    26e0:	b4000081 	cbz	x1, 26f0 <fflush+0x3c>
    26e4:	f9434c00 	ldr	x0, [x0, #1688]
    26e8:	97fffff3 	bl	26b4 <fflush>
    26ec:	2a000294 	orr	w20, w20, w0
    26f0:	940000b4 	bl	29c0 <__ofl_lock>
    26f4:	f9400013 	ldr	x19, [x0]
    26f8:	b5000113 	cbnz	x19, 2718 <fflush+0x64>
    26fc:	940000b9 	bl	29e0 <__ofl_unlock>
    2700:	2a1403e0 	mov	w0, w20
    2704:	a9417bf5 	ldp	x21, x30, [sp, #16]
    2708:	a8c253f3 	ldp	x19, x20, [sp], #32
    270c:	d65f03c0 	ret
    2710:	52800014 	mov	w20, #0x0                   	// #0
    2714:	17fffff1 	b	26d8 <fflush+0x24>
    2718:	b9408e60 	ldr	w0, [x19, #140]
    271c:	37f80200 	tbnz	w0, #31, 275c <fflush+0xa8>
    2720:	aa1303e0 	mov	x0, x19
    2724:	94000b09 	bl	5348 <__lockfile>
    2728:	2a0003f5 	mov	w21, w0
    272c:	f9401661 	ldr	x1, [x19, #40]
    2730:	f9401e60 	ldr	x0, [x19, #56]
    2734:	eb00003f 	cmp	x1, x0
    2738:	54000080 	b.eq	2748 <fflush+0x94>  // b.none
    273c:	aa1303e0 	mov	x0, x19
    2740:	97ffffdd 	bl	26b4 <fflush>
    2744:	2a000294 	orr	w20, w20, w0
    2748:	34000075 	cbz	w21, 2754 <fflush+0xa0>
    274c:	aa1303e0 	mov	x0, x19
    2750:	94000b33 	bl	541c <__unlockfile>
    2754:	f9403a73 	ldr	x19, [x19, #112]
    2758:	17ffffe8 	b	26f8 <fflush+0x44>
    275c:	52800015 	mov	w21, #0x0                   	// #0
    2760:	17fffff3 	b	272c <fflush+0x78>
    2764:	b9408c01 	ldr	w1, [x0, #140]
    2768:	aa0003f3 	mov	x19, x0
    276c:	37f80261 	tbnz	w1, #31, 27b8 <fflush+0x104>
    2770:	94000af6 	bl	5348 <__lockfile>
    2774:	2a0003f4 	mov	w20, w0
    2778:	f9401661 	ldr	x1, [x19, #40]
    277c:	f9401e60 	ldr	x0, [x19, #56]
    2780:	eb00003f 	cmp	x1, x0
    2784:	540001e0 	b.eq	27c0 <fflush+0x10c>  // b.none
    2788:	f9402663 	ldr	x3, [x19, #72]
    278c:	aa1303e0 	mov	x0, x19
    2790:	d2800002 	mov	x2, #0x0                   	// #0
    2794:	d2800001 	mov	x1, #0x0                   	// #0
    2798:	d63f0060 	blr	x3
    279c:	f9401660 	ldr	x0, [x19, #40]
    27a0:	b5000100 	cbnz	x0, 27c0 <fflush+0x10c>
    27a4:	34000074 	cbz	w20, 27b0 <fflush+0xfc>
    27a8:	aa1303e0 	mov	x0, x19
    27ac:	94000b1c 	bl	541c <__unlockfile>
    27b0:	12800014 	mov	w20, #0xffffffff            	// #-1
    27b4:	17ffffd3 	b	2700 <fflush+0x4c>
    27b8:	52800014 	mov	w20, #0x0                   	// #0
    27bc:	17ffffef 	b	2778 <fflush+0xc4>
    27c0:	a9408261 	ldp	x1, x0, [x19, #8]
    27c4:	eb00003f 	cmp	x1, x0
    27c8:	540000c0 	b.eq	27e0 <fflush+0x12c>  // b.none
    27cc:	f9402a63 	ldr	x3, [x19, #80]
    27d0:	cb000021 	sub	x1, x1, x0
    27d4:	52800022 	mov	w2, #0x1                   	// #1
    27d8:	aa1303e0 	mov	x0, x19
    27dc:	d63f0060 	blr	x3
    27e0:	a900fe7f 	stp	xzr, xzr, [x19, #8]
    27e4:	a9027e7f 	stp	xzr, xzr, [x19, #32]
    27e8:	f9001e7f 	str	xzr, [x19, #56]
    27ec:	34fff8b4 	cbz	w20, 2700 <fflush+0x4c>
    27f0:	aa1303e0 	mov	x0, x19
    27f4:	52800014 	mov	w20, #0x0                   	// #0
    27f8:	94000b09 	bl	541c <__unlockfile>
    27fc:	17ffffc1 	b	2700 <fflush+0x4c>

0000000000002800 <fopen>:
    2800:	a9be53f3 	stp	x19, x20, [sp, #-32]!
    2804:	aa0003f4 	mov	x20, x0
    2808:	d0000060 	adrp	x0, 10000 <__text_end+0x1600>
    280c:	a9017bf5 	stp	x21, x30, [sp, #16]
    2810:	aa0103f5 	mov	x21, x1
    2814:	91318800 	add	x0, x0, #0xc62
    2818:	39400021 	ldrb	w1, [x1]
    281c:	940008b1 	bl	4ae0 <strchr>
    2820:	b5000120 	cbnz	x0, 2844 <fopen+0x44>
    2824:	aa0003f3 	mov	x19, x0
    2828:	940009d1 	bl	4f6c <__errno_location>
    282c:	528002c1 	mov	w1, #0x16                  	// #22
    2830:	b9000001 	str	w1, [x0]
    2834:	aa1303e0 	mov	x0, x19
    2838:	a9417bf5 	ldp	x21, x30, [sp, #16]
    283c:	a8c253f3 	ldp	x19, x20, [sp], #32
    2840:	d65f03c0 	ret
    2844:	aa1503e0 	mov	x0, x21
    2848:	94000a9a 	bl	52b0 <__fmodeflags>
    284c:	320f0003 	orr	w3, w0, #0x20000
    2850:	aa1403e2 	mov	x2, x20
    2854:	d28036c4 	mov	x4, #0x1b6                 	// #438
    2858:	92800c61 	mov	x1, #0xffffffffffffff9c    	// #-100
    285c:	93407c63 	sxtw	x3, w3
    2860:	2a0003f3 	mov	w19, w0
    2864:	d2800700 	mov	x0, #0x38                  	// #56
    2868:	94001266 	bl	7200 <__syscall4>
    286c:	940009d2 	bl	4fb4 <__syscall_ret>
    2870:	aa0003f4 	mov	x20, x0
    2874:	37f80200 	tbnz	w0, #31, 28b4 <fopen+0xb4>
    2878:	369800d3 	tbz	w19, #19, 2890 <fopen+0x90>
    287c:	93407c01 	sxtw	x1, w0
    2880:	d2800023 	mov	x3, #0x1                   	// #1
    2884:	d2800042 	mov	x2, #0x2                   	// #2
    2888:	d2800320 	mov	x0, #0x19                  	// #25
    288c:	94001259 	bl	71f0 <__syscall3>
    2890:	aa1503e1 	mov	x1, x21
    2894:	2a1403e0 	mov	w0, w20
    2898:	94000a23 	bl	5124 <fdopen>
    289c:	aa0003f3 	mov	x19, x0
    28a0:	b5fffca0 	cbnz	x0, 2834 <fopen+0x34>
    28a4:	93407e81 	sxtw	x1, w20
    28a8:	d2800720 	mov	x0, #0x39                  	// #57
    28ac:	94001246 	bl	71c4 <__syscall1>
    28b0:	17ffffe1 	b	2834 <fopen+0x34>
    28b4:	d2800013 	mov	x19, #0x0                   	// #0
    28b8:	17ffffdf 	b	2834 <fopen+0x34>

00000000000028bc <fread>:
    28bc:	a9bc53f3 	stp	x19, x20, [sp, #-64]!
    28c0:	f100003f 	cmp	x1, #0x0
    28c4:	aa0303f4 	mov	x20, x3
    28c8:	a9015bf5 	stp	x21, x22, [sp, #16]
    28cc:	aa0003f5 	mov	x21, x0
    28d0:	b9408c60 	ldr	w0, [x3, #140]
    28d4:	a90263f7 	stp	x23, x24, [sp, #32]
    28d8:	9a9f1056 	csel	x22, x2, xzr, ne  // ne = any
    28dc:	aa0103f7 	mov	x23, x1
    28e0:	a9037bf9 	stp	x25, x30, [sp, #48]
    28e4:	9b027c39 	mul	x25, x1, x2
    28e8:	37f80360 	tbnz	w0, #31, 2954 <fread+0x98>
    28ec:	aa0303e0 	mov	x0, x3
    28f0:	94000a96 	bl	5348 <__lockfile>
    28f4:	2a0003f8 	mov	w24, w0
    28f8:	b9408a81 	ldr	w1, [x20, #136]
    28fc:	51000420 	sub	w0, w1, #0x1
    2900:	2a010000 	orr	w0, w0, w1
    2904:	b9008a80 	str	w0, [x20, #136]
    2908:	a940ce81 	ldp	x1, x19, [x20, #8]
    290c:	eb13003f 	cmp	x1, x19
    2910:	54000260 	b.eq	295c <fread+0xa0>  // b.none
    2914:	cb010273 	sub	x19, x19, x1
    2918:	aa1503e0 	mov	x0, x21
    291c:	eb19027f 	cmp	x19, x25
    2920:	9a999273 	csel	x19, x19, x25, ls  // ls = plast
    2924:	aa1303e2 	mov	x2, x19
    2928:	8b1302b5 	add	x21, x21, x19
    292c:	9400074f 	bl	4668 <memcpy>
    2930:	f9400680 	ldr	x0, [x20, #8]
    2934:	8b130000 	add	x0, x0, x19
    2938:	cb130333 	sub	x19, x25, x19
    293c:	f9000680 	str	x0, [x20, #8]
    2940:	b5000133 	cbnz	x19, 2964 <fread+0xa8>
    2944:	34000218 	cbz	w24, 2984 <fread+0xc8>
    2948:	aa1403e0 	mov	x0, x20
    294c:	94000ab4 	bl	541c <__unlockfile>
    2950:	1400000d 	b	2984 <fread+0xc8>
    2954:	52800018 	mov	w24, #0x0                   	// #0
    2958:	17ffffe8 	b	28f8 <fread+0x3c>
    295c:	aa1903f3 	mov	x19, x25
    2960:	17fffff8 	b	2940 <fread+0x84>
    2964:	aa1403e0 	mov	x0, x20
    2968:	94000b71 	bl	572c <__toread>
    296c:	34000180 	cbz	w0, 299c <fread+0xe0>
    2970:	34000078 	cbz	w24, 297c <fread+0xc0>
    2974:	aa1403e0 	mov	x0, x20
    2978:	94000aa9 	bl	541c <__unlockfile>
    297c:	cb130322 	sub	x2, x25, x19
    2980:	9ad70856 	udiv	x22, x2, x23
    2984:	aa1603e0 	mov	x0, x22
    2988:	a9415bf5 	ldp	x21, x22, [sp, #16]
    298c:	a94263f7 	ldp	x23, x24, [sp, #32]
    2990:	a9437bf9 	ldp	x25, x30, [sp, #48]
    2994:	a8c453f3 	ldp	x19, x20, [sp], #64
    2998:	d65f03c0 	ret
    299c:	f9402283 	ldr	x3, [x20, #64]
    29a0:	aa1303e2 	mov	x2, x19
    29a4:	aa1503e1 	mov	x1, x21
    29a8:	aa1403e0 	mov	x0, x20
    29ac:	d63f0060 	blr	x3
    29b0:	b4fffe00 	cbz	x0, 2970 <fread+0xb4>
    29b4:	cb000273 	sub	x19, x19, x0
    29b8:	8b0002b5 	add	x21, x21, x0
    29bc:	17ffffe1 	b	2940 <fread+0x84>

00000000000029c0 <__ofl_lock>:
    29c0:	f81f0ffe 	str	x30, [sp, #-16]!
    29c4:	900000a0 	adrp	x0, 16000 <data.4829+0x2800>
    29c8:	9126a000 	add	x0, x0, #0x9a8
    29cc:	94000896 	bl	4c24 <__lock>
    29d0:	b0000080 	adrp	x0, 13000 <_DYNAMIC>
    29d4:	911ba000 	add	x0, x0, #0x6e8
    29d8:	f84107fe 	ldr	x30, [sp], #16
    29dc:	d65f03c0 	ret

00000000000029e0 <__ofl_unlock>:
    29e0:	900000a0 	adrp	x0, 16000 <data.4829+0x2800>
    29e4:	9126a000 	add	x0, x0, #0x9a8
    29e8:	140008d9 	b	4d4c <__unlock>

00000000000029ec <printf>:
    29ec:	d10443ff 	sub	sp, sp, #0x110
    29f0:	a90d8be1 	stp	x1, x2, [sp, #216]
    29f4:	910443e1 	add	x1, sp, #0x110
    29f8:	a90307e1 	stp	x1, x1, [sp, #48]
    29fc:	910343e1 	add	x1, sp, #0xd0
    2a00:	f90023e1 	str	x1, [sp, #64]
    2a04:	128006e1 	mov	w1, #0xffffffc8            	// #-56
    2a08:	b9004be1 	str	w1, [sp, #72]
    2a0c:	12800fe1 	mov	w1, #0xffffff80            	// #-128
    2a10:	b9004fe1 	str	w1, [sp, #76]
    2a14:	aa0003e1 	mov	x1, x0
    2a18:	a90e93e3 	stp	x3, x4, [sp, #232]
    2a1c:	b0000080 	adrp	x0, 13000 <_DYNAMIC>
    2a20:	9110c000 	add	x0, x0, #0x430
    2a24:	a9430fe2 	ldp	x2, x3, [sp, #48]
    2a28:	a9010fe2 	stp	x2, x3, [sp, #16]
    2a2c:	a9440fe2 	ldp	x2, x3, [sp, #64]
    2a30:	f90003fe 	str	x30, [sp]
    2a34:	a9020fe2 	stp	x2, x3, [sp, #32]
    2a38:	910043e2 	add	x2, sp, #0x10
    2a3c:	3d8017e0 	str	q0, [sp, #80]
    2a40:	3d801be1 	str	q1, [sp, #96]
    2a44:	3d801fe2 	str	q2, [sp, #112]
    2a48:	3d8023e3 	str	q3, [sp, #128]
    2a4c:	3d8027e4 	str	q4, [sp, #144]
    2a50:	3d802be5 	str	q5, [sp, #160]
    2a54:	3d802fe6 	str	q6, [sp, #176]
    2a58:	3d8033e7 	str	q7, [sp, #192]
    2a5c:	a90f9be5 	stp	x5, x6, [sp, #248]
    2a60:	f90087e7 	str	x7, [sp, #264]
    2a64:	940006a5 	bl	44f8 <vfprintf>
    2a68:	f94003fe 	ldr	x30, [sp]
    2a6c:	910443ff 	add	sp, sp, #0x110
    2a70:	d65f03c0 	ret

0000000000002a74 <puts>:
    2a74:	a9bd53f3 	stp	x19, x20, [sp, #-48]!
    2a78:	b0000094 	adrp	x20, 13000 <_DYNAMIC>
    2a7c:	a9015bf5 	stp	x21, x22, [sp, #16]
    2a80:	aa0003f6 	mov	x22, x0
    2a84:	9110c280 	add	x0, x20, #0x430
    2a88:	b9408c01 	ldr	w1, [x0, #140]
    2a8c:	f90013fe 	str	x30, [sp, #32]
    2a90:	37f80381 	tbnz	w1, #31, 2b00 <puts+0x8c>
    2a94:	94000a2d 	bl	5348 <__lockfile>
    2a98:	2a0003f5 	mov	w21, w0
    2a9c:	9110c293 	add	x19, x20, #0x430
    2aa0:	aa1603e0 	mov	x0, x22
    2aa4:	aa1303e1 	mov	x1, x19
    2aa8:	94000b51 	bl	57ec <fputs>
    2aac:	37f80380 	tbnz	w0, #31, 2b1c <puts+0xa8>
    2ab0:	b9409260 	ldr	w0, [x19, #144]
    2ab4:	7100281f 	cmp	w0, #0xa
    2ab8:	54000280 	b.eq	2b08 <puts+0x94>  // b.none
    2abc:	a9420261 	ldp	x1, x0, [x19, #32]
    2ac0:	eb01001f 	cmp	x0, x1
    2ac4:	54000220 	b.eq	2b08 <puts+0x94>  // b.none
    2ac8:	91000401 	add	x1, x0, #0x1
    2acc:	f9001661 	str	x1, [x19, #40]
    2ad0:	52800141 	mov	w1, #0xa                   	// #10
    2ad4:	39000001 	strb	w1, [x0]
    2ad8:	52800001 	mov	w1, #0x0                   	// #0
    2adc:	4b0103f3 	neg	w19, w1
    2ae0:	34000075 	cbz	w21, 2aec <puts+0x78>
    2ae4:	9110c280 	add	x0, x20, #0x430
    2ae8:	94000a4d 	bl	541c <__unlockfile>
    2aec:	2a1303e0 	mov	w0, w19
    2af0:	a9415bf5 	ldp	x21, x22, [sp, #16]
    2af4:	f94013fe 	ldr	x30, [sp, #32]
    2af8:	a8c353f3 	ldp	x19, x20, [sp], #48
    2afc:	d65f03c0 	ret
    2b00:	52800015 	mov	w21, #0x0                   	// #0
    2b04:	17ffffe6 	b	2a9c <puts+0x28>
    2b08:	52800141 	mov	w1, #0xa                   	// #10
    2b0c:	9110c280 	add	x0, x20, #0x430
    2b10:	94000a59 	bl	5474 <__overflow>
    2b14:	531f7c01 	lsr	w1, w0, #31
    2b18:	17fffff1 	b	2adc <puts+0x68>
    2b1c:	52800021 	mov	w1, #0x1                   	// #1
    2b20:	17ffffef 	b	2adc <puts+0x68>

0000000000002b24 <pop_arg>:
    2b24:	51002421 	sub	w1, w1, #0x9
    2b28:	7100443f 	cmp	w1, #0x11
    2b2c:	540011a8 	b.hi	2d60 <pop_arg+0x23c>  // b.pmore
    2b30:	a9bf7bf3 	stp	x19, x30, [sp, #-16]!
    2b34:	aa0003f3 	mov	x19, x0
    2b38:	d0000060 	adrp	x0, 10000 <__text_end+0x1600>
    2b3c:	9115e000 	add	x0, x0, #0x578
    2b40:	f9400043 	ldr	x3, [x2]
    2b44:	38614800 	ldrb	w0, [x0, w1, uxtw]
    2b48:	10000061 	adr	x1, 2b54 <pop_arg+0x30>
    2b4c:	8b208820 	add	x0, x1, w0, sxtb #2
    2b50:	d61f0000 	br	x0
    2b54:	b9401840 	ldr	w0, [x2, #24]
    2b58:	37f80100 	tbnz	w0, #31, 2b78 <pop_arg+0x54>
    2b5c:	91002c60 	add	x0, x3, #0xb
    2b60:	927df000 	and	x0, x0, #0xfffffffffffffff8
    2b64:	f9000040 	str	x0, [x2]
    2b68:	b9800060 	ldrsw	x0, [x3]
    2b6c:	f9000260 	str	x0, [x19]
    2b70:	a8c17bf3 	ldp	x19, x30, [sp], #16
    2b74:	d65f03c0 	ret
    2b78:	11002001 	add	w1, w0, #0x8
    2b7c:	b9001841 	str	w1, [x2, #24]
    2b80:	7100003f 	cmp	w1, #0x0
    2b84:	54fffecc 	b.gt	2b5c <pop_arg+0x38>
    2b88:	f9400443 	ldr	x3, [x2, #8]
    2b8c:	8b20c063 	add	x3, x3, w0, sxtw
    2b90:	17fffff6 	b	2b68 <pop_arg+0x44>
    2b94:	b9401840 	ldr	w0, [x2, #24]
    2b98:	37f800c0 	tbnz	w0, #31, 2bb0 <pop_arg+0x8c>
    2b9c:	91002c60 	add	x0, x3, #0xb
    2ba0:	927df000 	and	x0, x0, #0xfffffffffffffff8
    2ba4:	f9000040 	str	x0, [x2]
    2ba8:	b9400060 	ldr	w0, [x3]
    2bac:	17fffff0 	b	2b6c <pop_arg+0x48>
    2bb0:	11002001 	add	w1, w0, #0x8
    2bb4:	b9001841 	str	w1, [x2, #24]
    2bb8:	7100003f 	cmp	w1, #0x0
    2bbc:	54ffff0c 	b.gt	2b9c <pop_arg+0x78>
    2bc0:	f9400443 	ldr	x3, [x2, #8]
    2bc4:	8b20c063 	add	x3, x3, w0, sxtw
    2bc8:	17fffff8 	b	2ba8 <pop_arg+0x84>
    2bcc:	b9401840 	ldr	w0, [x2, #24]
    2bd0:	37f800c0 	tbnz	w0, #31, 2be8 <pop_arg+0xc4>
    2bd4:	91002c60 	add	x0, x3, #0xb
    2bd8:	927df000 	and	x0, x0, #0xfffffffffffffff8
    2bdc:	f9000040 	str	x0, [x2]
    2be0:	79800060 	ldrsh	x0, [x3]
    2be4:	17ffffe2 	b	2b6c <pop_arg+0x48>
    2be8:	11002001 	add	w1, w0, #0x8
    2bec:	b9001841 	str	w1, [x2, #24]
    2bf0:	7100003f 	cmp	w1, #0x0
    2bf4:	54ffff0c 	b.gt	2bd4 <pop_arg+0xb0>
    2bf8:	f9400443 	ldr	x3, [x2, #8]
    2bfc:	8b20c063 	add	x3, x3, w0, sxtw
    2c00:	17fffff8 	b	2be0 <pop_arg+0xbc>
    2c04:	b9401840 	ldr	w0, [x2, #24]
    2c08:	37f800c0 	tbnz	w0, #31, 2c20 <pop_arg+0xfc>
    2c0c:	91002c60 	add	x0, x3, #0xb
    2c10:	927df000 	and	x0, x0, #0xfffffffffffffff8
    2c14:	f9000040 	str	x0, [x2]
    2c18:	79400060 	ldrh	w0, [x3]
    2c1c:	17ffffd4 	b	2b6c <pop_arg+0x48>
    2c20:	11002001 	add	w1, w0, #0x8
    2c24:	b9001841 	str	w1, [x2, #24]
    2c28:	7100003f 	cmp	w1, #0x0
    2c2c:	54ffff0c 	b.gt	2c0c <pop_arg+0xe8>
    2c30:	f9400443 	ldr	x3, [x2, #8]
    2c34:	8b20c063 	add	x3, x3, w0, sxtw
    2c38:	17fffff8 	b	2c18 <pop_arg+0xf4>
    2c3c:	b9401840 	ldr	w0, [x2, #24]
    2c40:	37f800c0 	tbnz	w0, #31, 2c58 <pop_arg+0x134>
    2c44:	91002c60 	add	x0, x3, #0xb
    2c48:	927df000 	and	x0, x0, #0xfffffffffffffff8
    2c4c:	f9000040 	str	x0, [x2]
    2c50:	39800060 	ldrsb	x0, [x3]
    2c54:	17ffffc6 	b	2b6c <pop_arg+0x48>
    2c58:	11002001 	add	w1, w0, #0x8
    2c5c:	b9001841 	str	w1, [x2, #24]
    2c60:	7100003f 	cmp	w1, #0x0
    2c64:	54ffff0c 	b.gt	2c44 <pop_arg+0x120>
    2c68:	f9400443 	ldr	x3, [x2, #8]
    2c6c:	8b20c063 	add	x3, x3, w0, sxtw
    2c70:	17fffff8 	b	2c50 <pop_arg+0x12c>
    2c74:	b9401840 	ldr	w0, [x2, #24]
    2c78:	37f800c0 	tbnz	w0, #31, 2c90 <pop_arg+0x16c>
    2c7c:	91002c60 	add	x0, x3, #0xb
    2c80:	927df000 	and	x0, x0, #0xfffffffffffffff8
    2c84:	f9000040 	str	x0, [x2]
    2c88:	39400060 	ldrb	w0, [x3]
    2c8c:	17ffffb8 	b	2b6c <pop_arg+0x48>
    2c90:	11002001 	add	w1, w0, #0x8
    2c94:	b9001841 	str	w1, [x2, #24]
    2c98:	7100003f 	cmp	w1, #0x0
    2c9c:	54ffff0c 	b.gt	2c7c <pop_arg+0x158>
    2ca0:	f9400443 	ldr	x3, [x2, #8]
    2ca4:	8b20c063 	add	x3, x3, w0, sxtw
    2ca8:	17fffff8 	b	2c88 <pop_arg+0x164>
    2cac:	b9401840 	ldr	w0, [x2, #24]
    2cb0:	37f800c0 	tbnz	w0, #31, 2cc8 <pop_arg+0x1a4>
    2cb4:	91003c60 	add	x0, x3, #0xf
    2cb8:	927df000 	and	x0, x0, #0xfffffffffffffff8
    2cbc:	f9000040 	str	x0, [x2]
    2cc0:	f9400060 	ldr	x0, [x3]
    2cc4:	17ffffaa 	b	2b6c <pop_arg+0x48>
    2cc8:	11002001 	add	w1, w0, #0x8
    2ccc:	b9001841 	str	w1, [x2, #24]
    2cd0:	7100003f 	cmp	w1, #0x0
    2cd4:	54ffff0c 	b.gt	2cb4 <pop_arg+0x190>
    2cd8:	f9400443 	ldr	x3, [x2, #8]
    2cdc:	8b20c063 	add	x3, x3, w0, sxtw
    2ce0:	17fffff8 	b	2cc0 <pop_arg+0x19c>
    2ce4:	b9401c40 	ldr	w0, [x2, #28]
    2ce8:	37f80100 	tbnz	w0, #31, 2d08 <pop_arg+0x1e4>
    2cec:	91003c60 	add	x0, x3, #0xf
    2cf0:	927df000 	and	x0, x0, #0xfffffffffffffff8
    2cf4:	f9000040 	str	x0, [x2]
    2cf8:	fd400060 	ldr	d0, [x3]
    2cfc:	97fffd35 	bl	21d0 <__extenddftf2>
    2d00:	3d800260 	str	q0, [x19]
    2d04:	17ffff9b 	b	2b70 <pop_arg+0x4c>
    2d08:	11004001 	add	w1, w0, #0x10
    2d0c:	b9001c41 	str	w1, [x2, #28]
    2d10:	7100003f 	cmp	w1, #0x0
    2d14:	54fffecc 	b.gt	2cec <pop_arg+0x1c8>
    2d18:	f9400843 	ldr	x3, [x2, #16]
    2d1c:	8b20c063 	add	x3, x3, w0, sxtw
    2d20:	17fffff6 	b	2cf8 <pop_arg+0x1d4>
    2d24:	b9401c40 	ldr	w0, [x2, #28]
    2d28:	37f800e0 	tbnz	w0, #31, 2d44 <pop_arg+0x220>
    2d2c:	91003c63 	add	x3, x3, #0xf
    2d30:	927cec63 	and	x3, x3, #0xfffffffffffffff0
    2d34:	91004060 	add	x0, x3, #0x10
    2d38:	f9000040 	str	x0, [x2]
    2d3c:	3dc00060 	ldr	q0, [x3]
    2d40:	17fffff0 	b	2d00 <pop_arg+0x1dc>
    2d44:	11004001 	add	w1, w0, #0x10
    2d48:	b9001c41 	str	w1, [x2, #28]
    2d4c:	7100003f 	cmp	w1, #0x0
    2d50:	54fffeec 	b.gt	2d2c <pop_arg+0x208>
    2d54:	f9400843 	ldr	x3, [x2, #16]
    2d58:	8b20c063 	add	x3, x3, w0, sxtw
    2d5c:	17fffff8 	b	2d3c <pop_arg+0x218>
    2d60:	d65f03c0 	ret

0000000000002d64 <fmt_u>:
    2d64:	aa0003e2 	mov	x2, x0
    2d68:	aa0103e0 	mov	x0, x1
    2d6c:	d2800141 	mov	x1, #0xa                   	// #10
    2d70:	b5000042 	cbnz	x2, 2d78 <fmt_u+0x14>
    2d74:	d65f03c0 	ret
    2d78:	9ac10843 	udiv	x3, x2, x1
    2d7c:	9b018862 	msub	x2, x3, x1, x2
    2d80:	1100c042 	add	w2, w2, #0x30
    2d84:	381ffc02 	strb	w2, [x0, #-1]!
    2d88:	aa0303e2 	mov	x2, x3
    2d8c:	17fffff9 	b	2d70 <fmt_u+0xc>

0000000000002d90 <getint>:
    2d90:	52999984 	mov	w4, #0xcccc                	// #52428
    2d94:	aa0003e3 	mov	x3, x0
    2d98:	72a19984 	movk	w4, #0xccc, lsl #16
    2d9c:	52800000 	mov	w0, #0x0                   	// #0
    2da0:	12800005 	mov	w5, #0xffffffff            	// #-1
    2da4:	12800126 	mov	w6, #0xfffffff6            	// #-10
    2da8:	12b00007 	mov	w7, #0x7fffffff            	// #2147483647
    2dac:	52800148 	mov	w8, #0xa                   	// #10
    2db0:	f9400062 	ldr	x2, [x3]
    2db4:	39400041 	ldrb	w1, [x2]
    2db8:	5100c021 	sub	w1, w1, #0x30
    2dbc:	7100243f 	cmp	w1, #0x9
    2dc0:	54000049 	b.ls	2dc8 <getint+0x38>  // b.plast
    2dc4:	d65f03c0 	ret
    2dc8:	6b04001f 	cmp	w0, w4
    2dcc:	54000108 	b.hi	2dec <getint+0x5c>  // b.pmore
    2dd0:	1b061c09 	madd	w9, w0, w6, w7
    2dd4:	1b080400 	madd	w0, w0, w8, w1
    2dd8:	6b09003f 	cmp	w1, w9
    2ddc:	1a85d000 	csel	w0, w0, w5, le
    2de0:	91000442 	add	x2, x2, #0x1
    2de4:	f9000062 	str	x2, [x3]
    2de8:	17fffff2 	b	2db0 <getint+0x20>
    2dec:	12800000 	mov	w0, #0xffffffff            	// #-1
    2df0:	17fffffc 	b	2de0 <getint+0x50>

0000000000002df4 <out>:
    2df4:	aa0003e3 	mov	x3, x0
    2df8:	aa0103e0 	mov	x0, x1
    2dfc:	aa0203e1 	mov	x1, x2
    2e00:	b9400062 	ldr	w2, [x3]
    2e04:	37280062 	tbnz	w2, #5, 2e10 <out+0x1c>
    2e08:	aa0303e2 	mov	x2, x3
    2e0c:	14000a88 	b	582c <__fwritex>
    2e10:	d65f03c0 	ret

0000000000002e14 <pad>:
    2e14:	12130c84 	and	w4, w4, #0x1e000
    2e18:	12107484 	and	w4, w4, #0xffff3fff
    2e1c:	35000484 	cbnz	w4, 2eac <pad+0x98>
    2e20:	6b02007f 	cmp	w3, w2
    2e24:	5400044a 	b.ge	2eac <pad+0x98>  // b.tcont
    2e28:	a9ad53f3 	stp	x19, x20, [sp, #-304]!
    2e2c:	4b030053 	sub	w19, w2, w3
    2e30:	7104027f 	cmp	w19, #0x100
    2e34:	52802002 	mov	w2, #0x100                 	// #256
    2e38:	1a82d262 	csel	w2, w19, w2, le
    2e3c:	a9015bf5 	stp	x21, x22, [sp, #16]
    2e40:	9100c3f5 	add	x21, sp, #0x30
    2e44:	aa0003f4 	mov	x20, x0
    2e48:	12001c21 	and	w1, w1, #0xff
    2e4c:	93407c42 	sxtw	x2, w2
    2e50:	aa1503e0 	mov	x0, x21
    2e54:	2a1303f6 	mov	w22, w19
    2e58:	f90013fe 	str	x30, [sp, #32]
    2e5c:	940006ec 	bl	4a0c <memset>
    2e60:	7103fedf 	cmp	w22, #0xff
    2e64:	5400018c 	b.gt	2e94 <pad+0x80>
    2e68:	53087e62 	lsr	w2, w19, #8
    2e6c:	12801fe3 	mov	w3, #0xffffff00            	// #-256
    2e70:	aa1503e1 	mov	x1, x21
    2e74:	aa1403e0 	mov	x0, x20
    2e78:	1b034c42 	madd	w2, w2, w3, w19
    2e7c:	93407c42 	sxtw	x2, w2
    2e80:	97ffffdd 	bl	2df4 <out>
    2e84:	a9415bf5 	ldp	x21, x22, [sp, #16]
    2e88:	f94013fe 	ldr	x30, [sp, #32]
    2e8c:	a8d353f3 	ldp	x19, x20, [sp], #304
    2e90:	d65f03c0 	ret
    2e94:	aa1503e1 	mov	x1, x21
    2e98:	aa1403e0 	mov	x0, x20
    2e9c:	d2802002 	mov	x2, #0x100                 	// #256
    2ea0:	510402d6 	sub	w22, w22, #0x100
    2ea4:	97ffffd4 	bl	2df4 <out>
    2ea8:	17ffffee 	b	2e60 <pad+0x4c>
    2eac:	d65f03c0 	ret

0000000000002eb0 <fmt_fp>:
    2eb0:	d283ba0c 	mov	x12, #0x1dd0                	// #7632
    2eb4:	cb2c63ff 	sub	sp, sp, x12
    2eb8:	a90053f3 	stp	x19, x20, [sp]
    2ebc:	aa0003f4 	mov	x20, x0
    2ec0:	2a0203f3 	mov	w19, w2
    2ec4:	a9015bf5 	stp	x21, x22, [sp, #16]
    2ec8:	2a0103f6 	mov	w22, w1
    2ecc:	a90263f7 	stp	x23, x24, [sp, #32]
    2ed0:	2a0403f7 	mov	w23, w4
    2ed4:	a9036bf9 	stp	x25, x26, [sp, #48]
    2ed8:	2a0303f9 	mov	w25, w3
    2edc:	a90473fb 	stp	x27, x28, [sp, #64]
    2ee0:	f9002bfe 	str	x30, [sp, #80]
    2ee4:	3d801be0 	str	q0, [sp, #96]
    2ee8:	b900cfff 	str	wzr, [sp, #204]
    2eec:	a9466ffc 	ldp	x28, x27, [sp, #96]
    2ef0:	94000858 	bl	5050 <__signbitl>
    2ef4:	34000560 	cbz	w0, 2fa0 <fmt_fp+0xf0>
    2ef8:	d0000078 	adrp	x24, 10000 <__text_end+0x1600>
    2efc:	d241037b 	eor	x27, x27, #0x8000000000000000
    2f00:	91319b18 	add	x24, x24, #0xc66
    2f04:	52800035 	mov	w21, #0x1                   	// #1
    2f08:	a9066ffc 	stp	x28, x27, [sp, #96]
    2f0c:	3dc01be0 	ldr	q0, [sp, #96]
    2f10:	9400083b 	bl	4ffc <__fpclassifyl>
    2f14:	7100041f 	cmp	w0, #0x1
    2f18:	5400060c 	b.gt	2fd8 <fmt_fp+0x128>
    2f1c:	a9066ffc 	stp	x28, x27, [sp, #96]
    2f20:	721b02f7 	ands	w23, w23, #0x20
    2f24:	d0000060 	adrp	x0, 10000 <__text_end+0x1600>
    2f28:	9131f400 	add	x0, x0, #0xc7d
    2f2c:	3dc01be1 	ldr	q1, [sp, #96]
    2f30:	d0000073 	adrp	x19, 10000 <__text_end+0x1600>
    2f34:	9131e673 	add	x19, x19, #0xc79
    2f38:	9a801273 	csel	x19, x19, x0, ne  // ne = any
    2f3c:	4ea11c20 	mov	v0.16b, v1.16b
    2f40:	97fff702 	bl	b48 <__eqtf2>
    2f44:	340000e0 	cbz	w0, 2f60 <fmt_fp+0xb0>
    2f48:	710002ff 	cmp	w23, #0x0
    2f4c:	d0000060 	adrp	x0, 10000 <__text_end+0x1600>
    2f50:	d0000073 	adrp	x19, 10000 <__text_end+0x1600>
    2f54:	91321400 	add	x0, x0, #0xc85
    2f58:	91320673 	add	x19, x19, #0xc81
    2f5c:	9a801273 	csel	x19, x19, x0, ne  // ne = any
    2f60:	11000eb7 	add	w23, w21, #0x3
    2f64:	120f7b24 	and	w4, w25, #0xfffeffff
    2f68:	2a1703e3 	mov	w3, w23
    2f6c:	2a1603e2 	mov	w2, w22
    2f70:	aa1403e0 	mov	x0, x20
    2f74:	52800401 	mov	w1, #0x20                  	// #32
    2f78:	97ffffa7 	bl	2e14 <pad>
    2f7c:	93407ea2 	sxtw	x2, w21
    2f80:	aa1803e1 	mov	x1, x24
    2f84:	aa1403e0 	mov	x0, x20
    2f88:	97ffff9b 	bl	2df4 <out>
    2f8c:	aa1303e1 	mov	x1, x19
    2f90:	d2800062 	mov	x2, #0x3                   	// #3
    2f94:	aa1403e0 	mov	x0, x20
    2f98:	97ffff97 	bl	2df4 <out>
    2f9c:	1400027e 	b	3994 <fmt_fp+0xae4>
    2fa0:	375800d9 	tbnz	w25, #11, 2fb8 <fmt_fp+0x108>
    2fa4:	37000139 	tbnz	w25, #0, 2fc8 <fmt_fp+0x118>
    2fa8:	d0000078 	adrp	x24, 10000 <__text_end+0x1600>
    2fac:	2a0003f5 	mov	w21, w0
    2fb0:	91319f18 	add	x24, x24, #0xc67
    2fb4:	17ffffd5 	b	2f08 <fmt_fp+0x58>
    2fb8:	d0000078 	adrp	x24, 10000 <__text_end+0x1600>
    2fbc:	52800035 	mov	w21, #0x1                   	// #1
    2fc0:	9131a718 	add	x24, x24, #0xc69
    2fc4:	17ffffd1 	b	2f08 <fmt_fp+0x58>
    2fc8:	d0000078 	adrp	x24, 10000 <__text_end+0x1600>
    2fcc:	52800035 	mov	w21, #0x1                   	// #1
    2fd0:	9131b318 	add	x24, x24, #0xc6c
    2fd4:	17ffffcd 	b	2f08 <fmt_fp+0x58>
    2fd8:	a9066ffc 	stp	x28, x27, [sp, #96]
    2fdc:	910333e0 	add	x0, sp, #0xcc
    2fe0:	3dc01be0 	ldr	q0, [sp, #96]
    2fe4:	94000822 	bl	506c <frexpl>
    2fe8:	4ea01c01 	mov	v1.16b, v0.16b
    2fec:	97fff40d 	bl	20 <__addtf3>
    2ff0:	3d801be0 	str	q0, [sp, #96]
    2ff4:	a9460fe5 	ldp	x5, x3, [sp, #96]
    2ff8:	6f00e401 	movi	v1.2d, #0x0
    2ffc:	aa0503fc 	mov	x28, x5
    3000:	aa0303fb 	mov	x27, x3
    3004:	97fff6d1 	bl	b48 <__eqtf2>
    3008:	34000080 	cbz	w0, 3018 <fmt_fp+0x168>
    300c:	b940cfe0 	ldr	w0, [sp, #204]
    3010:	51000400 	sub	w0, w0, #0x1
    3014:	b900cfe0 	str	w0, [sp, #204]
    3018:	321b02e0 	orr	w0, w23, #0x20
    301c:	b90063e0 	str	w0, [sp, #96]
    3020:	7101841f 	cmp	w0, #0x61
    3024:	54001981 	b.ne	3354 <fmt_fp+0x4a4>  // b.any
    3028:	121b02e0 	and	w0, w23, #0x20
    302c:	b900a3e0 	str	w0, [sp, #160]
    3030:	36280057 	tbz	w23, #5, 3038 <fmt_fp+0x188>
    3034:	91002718 	add	x24, x24, #0x9
    3038:	11000ab5 	add	w21, w21, #0x2
    303c:	71006a7f 	cmp	w19, #0x1a
    3040:	54000348 	b.hi	30a8 <fmt_fp+0x1f8>  // b.pmore
    3044:	b0000060 	adrp	x0, 10000 <__text_end+0x1600>
    3048:	91140000 	add	x0, x0, #0x500
    304c:	5280037a 	mov	w26, #0x1b                  	// #27
    3050:	4b13035a 	sub	w26, w26, w19
    3054:	3dc00002 	ldr	q2, [x0]
    3058:	5100075a 	sub	w26, w26, #0x1
    305c:	3100075f 	cmn	w26, #0x1
    3060:	54000e81 	b.ne	3230 <fmt_fp+0x380>  // b.any
    3064:	39400300 	ldrb	w0, [x24]
    3068:	7100b41f 	cmp	w0, #0x2d
    306c:	54000f01 	b.ne	324c <fmt_fp+0x39c>  // b.any
    3070:	d2410363 	eor	x3, x27, #0x8000000000000000
    3074:	a9060ffc 	stp	x28, x3, [sp, #96]
    3078:	4ea21c41 	mov	v1.16b, v2.16b
    307c:	3dc01be0 	ldr	q0, [sp, #96]
    3080:	3d801fe2 	str	q2, [sp, #112]
    3084:	97fff8ed 	bl	1438 <__subtf3>
    3088:	4ea01c01 	mov	v1.16b, v0.16b
    308c:	3dc01fe2 	ldr	q2, [sp, #112]
    3090:	4ea21c40 	mov	v0.16b, v2.16b
    3094:	97fff3e3 	bl	20 <__addtf3>
    3098:	3d801be0 	str	q0, [sp, #96]
    309c:	a9460fe5 	ldp	x5, x3, [sp, #96]
    30a0:	aa0503fc 	mov	x28, x5
    30a4:	d241007b 	eor	x27, x3, #0x8000000000000000
    30a8:	910343e0 	add	x0, sp, #0xd0
    30ac:	f90033e0 	str	x0, [sp, #96]
    30b0:	91003004 	add	x4, x0, #0xc
    30b4:	b940cfe0 	ldr	w0, [sp, #204]
    30b8:	aa0403e1 	mov	x1, x4
    30bc:	7100001f 	cmp	w0, #0x0
    30c0:	5a80a400 	cneg	w0, w0, lt  // lt = tstop
    30c4:	93407c00 	sxtw	x0, w0
    30c8:	97ffff27 	bl	2d64 <fmt_u>
    30cc:	eb04001f 	cmp	x0, x4
    30d0:	540000a1 	b.ne	30e4 <fmt_fp+0x234>  // b.any
    30d4:	52800600 	mov	w0, #0x30                  	// #48
    30d8:	39036fe0 	strb	w0, [sp, #219]
    30dc:	f94033e0 	ldr	x0, [sp, #96]
    30e0:	91002c00 	add	x0, x0, #0xb
    30e4:	b940cfe1 	ldr	w1, [sp, #204]
    30e8:	52800562 	mov	w2, #0x2b                  	// #43
    30ec:	11003ef7 	add	w23, w23, #0xf
    30f0:	381fe017 	sturb	w23, [x0, #-2]
    30f4:	7100003f 	cmp	w1, #0x0
    30f8:	528005a1 	mov	w1, #0x2d                  	// #45
    30fc:	1a82b021 	csel	w1, w1, w2, lt  // lt = tstop
    3100:	381ff001 	sturb	w1, [x0, #-1]
    3104:	d1000801 	sub	x1, x0, #0x2
    3108:	b0000060 	adrp	x0, 10000 <__text_end+0x1600>
    310c:	9139b000 	add	x0, x0, #0xe6c
    3110:	910383fa 	add	x26, sp, #0xe0
    3114:	f90043fa 	str	x26, [sp, #128]
    3118:	f9004fe1 	str	x1, [sp, #152]
    311c:	f90057e0 	str	x0, [sp, #168]
    3120:	121d0320 	and	w0, w25, #0x8
    3124:	b900b3e0 	str	w0, [sp, #176]
    3128:	a9076ffc 	stp	x28, x27, [sp, #112]
    312c:	aa1a03f7 	mov	x23, x26
    3130:	3dc01fe0 	ldr	q0, [sp, #112]
    3134:	97fffb79 	bl	1f18 <__fixtfsi>
    3138:	f94057e1 	ldr	x1, [sp, #168]
    313c:	3860c824 	ldrb	w4, [x1, w0, sxtw]
    3140:	b940a3e1 	ldr	w1, [sp, #160]
    3144:	2a040024 	orr	w4, w1, w4
    3148:	380016e4 	strb	w4, [x23], #1
    314c:	97fffbe7 	bl	20e8 <__floatsitf>
    3150:	a9076ffc 	stp	x28, x27, [sp, #112]
    3154:	4ea01c01 	mov	v1.16b, v0.16b
    3158:	3dc01fe0 	ldr	q0, [sp, #112]
    315c:	97fff8b7 	bl	1438 <__subtf3>
    3160:	b0000060 	adrp	x0, 10000 <__text_end+0x1600>
    3164:	91140000 	add	x0, x0, #0x500
    3168:	3dc00001 	ldr	q1, [x0]
    316c:	97fff6b9 	bl	c50 <__multf3>
    3170:	3d801fe0 	str	q0, [sp, #112]
    3174:	a9470fe5 	ldp	x5, x3, [sp, #112]
    3178:	f94043e0 	ldr	x0, [sp, #128]
    317c:	cb0002e0 	sub	x0, x23, x0
    3180:	aa0503fc 	mov	x28, x5
    3184:	aa0303fb 	mov	x27, x3
    3188:	f100041f 	cmp	x0, #0x1
    318c:	540001c1 	b.ne	31c4 <fmt_fp+0x314>  // b.any
    3190:	6f00e401 	movi	v1.2d, #0x0
    3194:	97fff66d 	bl	b48 <__eqtf2>
    3198:	7100001f 	cmp	w0, #0x0
    319c:	1a9f07e4 	cset	w4, ne  // ne = any
    31a0:	7100027f 	cmp	w19, #0x0
    31a4:	1a9fd7e0 	cset	w0, gt
    31a8:	2a040000 	orr	w0, w0, w4
    31ac:	37000060 	tbnz	w0, #0, 31b8 <fmt_fp+0x308>
    31b0:	b940b3e0 	ldr	w0, [sp, #176]
    31b4:	34000120 	cbz	w0, 31d8 <fmt_fp+0x328>
    31b8:	91000b57 	add	x23, x26, #0x2
    31bc:	528005c0 	mov	w0, #0x2e                  	// #46
    31c0:	39000740 	strb	w0, [x26, #1]
    31c4:	6f00e401 	movi	v1.2d, #0x0
    31c8:	a9076ffc 	stp	x28, x27, [sp, #112]
    31cc:	3dc01fe0 	ldr	q0, [sp, #112]
    31d0:	97fff65e 	bl	b48 <__eqtf2>
    31d4:	35000560 	cbnz	w0, 3280 <fmt_fp+0x3d0>
    31d8:	f94033e0 	ldr	x0, [sp, #96]
    31dc:	93407e61 	sxtw	x1, w19
    31e0:	93407ebc 	sxtw	x28, w21
    31e4:	9100301a 	add	x26, x0, #0xc
    31e8:	f9404fe0 	ldr	x0, [sp, #152]
    31ec:	cb00035a 	sub	x26, x26, x0
    31f0:	d29fffa0 	mov	x0, #0xfffd                	// #65533
    31f4:	f2afffe0 	movk	x0, #0x7fff, lsl #16
    31f8:	cb1a0000 	sub	x0, x0, x26
    31fc:	cb35c000 	sub	x0, x0, w21, sxtw
    3200:	eb33c01f 	cmp	x0, w19, sxtw
    3204:	5400042a 	b.ge	3288 <fmt_fp+0x3d8>  // b.tcont
    3208:	12800000 	mov	w0, #0xffffffff            	// #-1
    320c:	d283ba0c 	mov	x12, #0x1dd0                	// #7632
    3210:	a94053f3 	ldp	x19, x20, [sp]
    3214:	a9415bf5 	ldp	x21, x22, [sp, #16]
    3218:	a94263f7 	ldp	x23, x24, [sp, #32]
    321c:	a9436bf9 	ldp	x25, x26, [sp, #48]
    3220:	a94473fb 	ldp	x27, x28, [sp, #64]
    3224:	f9402bfe 	ldr	x30, [sp, #80]
    3228:	8b2c63ff 	add	sp, sp, x12
    322c:	d65f03c0 	ret
    3230:	b0000060 	adrp	x0, 10000 <__text_end+0x1600>
    3234:	91140000 	add	x0, x0, #0x500
    3238:	4ea21c40 	mov	v0.16b, v2.16b
    323c:	3dc00001 	ldr	q1, [x0]
    3240:	97fff684 	bl	c50 <__multf3>
    3244:	4ea01c02 	mov	v2.16b, v0.16b
    3248:	17ffff84 	b	3058 <fmt_fp+0x1a8>
    324c:	a9066ffc 	stp	x28, x27, [sp, #96]
    3250:	4ea21c40 	mov	v0.16b, v2.16b
    3254:	3dc01be1 	ldr	q1, [sp, #96]
    3258:	3d801be2 	str	q2, [sp, #96]
    325c:	97fff371 	bl	20 <__addtf3>
    3260:	3dc01be2 	ldr	q2, [sp, #96]
    3264:	4ea21c41 	mov	v1.16b, v2.16b
    3268:	97fff874 	bl	1438 <__subtf3>
    326c:	3d801be0 	str	q0, [sp, #96]
    3270:	a9460fe5 	ldp	x5, x3, [sp, #96]
    3274:	aa0503fc 	mov	x28, x5
    3278:	aa0303fb 	mov	x27, x3
    327c:	17ffff8b 	b	30a8 <fmt_fp+0x1f8>
    3280:	aa1703fa 	mov	x26, x23
    3284:	17ffffa9 	b	3128 <fmt_fp+0x278>
    3288:	f94043e0 	ldr	x0, [sp, #128]
    328c:	cb0002f7 	sub	x23, x23, x0
    3290:	0b17035b 	add	w27, w26, w23
    3294:	340005d3 	cbz	w19, 334c <fmt_fp+0x49c>
    3298:	d10006e0 	sub	x0, x23, #0x1
    329c:	eb00003f 	cmp	x1, x0
    32a0:	5400056b 	b.lt	334c <fmt_fp+0x49c>  // b.tstop
    32a4:	11000a73 	add	w19, w19, #0x2
    32a8:	0b1a0273 	add	w19, w19, w26
    32ac:	0b150275 	add	w21, w19, w21
    32b0:	2a1903e4 	mov	w4, w25
    32b4:	2a1503e3 	mov	w3, w21
    32b8:	2a1603e2 	mov	w2, w22
    32bc:	aa1403e0 	mov	x0, x20
    32c0:	52800401 	mov	w1, #0x20                  	// #32
    32c4:	97fffed4 	bl	2e14 <pad>
    32c8:	aa1c03e2 	mov	x2, x28
    32cc:	aa1803e1 	mov	x1, x24
    32d0:	aa1403e0 	mov	x0, x20
    32d4:	97fffec8 	bl	2df4 <out>
    32d8:	52100324 	eor	w4, w25, #0x10000
    32dc:	2a1503e3 	mov	w3, w21
    32e0:	2a1603e2 	mov	w2, w22
    32e4:	aa1403e0 	mov	x0, x20
    32e8:	52800601 	mov	w1, #0x30                  	// #48
    32ec:	97fffeca 	bl	2e14 <pad>
    32f0:	f94043e1 	ldr	x1, [sp, #128]
    32f4:	aa1703e2 	mov	x2, x23
    32f8:	aa1403e0 	mov	x0, x20
    32fc:	97fffebe 	bl	2df4 <out>
    3300:	52800004 	mov	w4, #0x0                   	// #0
    3304:	52800003 	mov	w3, #0x0                   	// #0
    3308:	4b1b0262 	sub	w2, w19, w27
    330c:	aa1403e0 	mov	x0, x20
    3310:	52800601 	mov	w1, #0x30                  	// #48
    3314:	97fffec0 	bl	2e14 <pad>
    3318:	f9404fe1 	ldr	x1, [sp, #152]
    331c:	aa1a03e2 	mov	x2, x26
    3320:	aa1403e0 	mov	x0, x20
    3324:	97fffeb4 	bl	2df4 <out>
    3328:	aa1403e0 	mov	x0, x20
    332c:	52130324 	eor	w4, w25, #0x2000
    3330:	2a1503e3 	mov	w3, w21
    3334:	2a1603e2 	mov	w2, w22
    3338:	52800401 	mov	w1, #0x20                  	// #32
    333c:	97fffeb6 	bl	2e14 <pad>
    3340:	6b1602bf 	cmp	w21, w22
    3344:	1a96a2a0 	csel	w0, w21, w22, ge  // ge = tcont
    3348:	17ffffb1 	b	320c <fmt_fp+0x35c>
    334c:	2a1b03f3 	mov	w19, w27
    3350:	17ffffd7 	b	32ac <fmt_fp+0x3fc>
    3354:	a9086ffc 	stp	x28, x27, [sp, #128]
    3358:	7100027f 	cmp	w19, #0x0
    335c:	528000c0 	mov	w0, #0x6                   	// #6
    3360:	6f00e401 	movi	v1.2d, #0x0
    3364:	3dc023e0 	ldr	q0, [sp, #128]
    3368:	1a80a273 	csel	w19, w19, w0, ge  // ge = tcont
    336c:	97fff5f7 	bl	b48 <__eqtf2>
    3370:	340001c0 	cbz	w0, 33a8 <fmt_fp+0x4f8>
    3374:	b0000060 	adrp	x0, 10000 <__text_end+0x1600>
    3378:	91144000 	add	x0, x0, #0x510
    337c:	a9086ffc 	stp	x28, x27, [sp, #128]
    3380:	3dc00001 	ldr	q1, [x0]
    3384:	3dc023e0 	ldr	q0, [sp, #128]
    3388:	97fff632 	bl	c50 <__multf3>
    338c:	3d8023e0 	str	q0, [sp, #128]
    3390:	a9480fe5 	ldp	x5, x3, [sp, #128]
    3394:	b940cfe0 	ldr	w0, [sp, #204]
    3398:	51007000 	sub	w0, w0, #0x1c
    339c:	b900cfe0 	str	w0, [sp, #204]
    33a0:	aa0503fc 	mov	x28, x5
    33a4:	aa0303fb 	mov	x27, x3
    33a8:	b940cfe6 	ldr	w6, [sp, #204]
    33ac:	910423e7 	add	x7, sp, #0x108
    33b0:	d2838103 	mov	x3, #0x1c08                	// #7176
    33b4:	8b2363e0 	add	x0, sp, x3
    33b8:	710000df 	cmp	w6, #0x0
    33bc:	9a87a007 	csel	x7, x0, x7, ge  // ge = tcont
    33c0:	aa0703fa 	mov	x26, x7
    33c4:	a9086ffc 	stp	x28, x27, [sp, #128]
    33c8:	3dc023e0 	ldr	q0, [sp, #128]
    33cc:	b9009be6 	str	w6, [sp, #152]
    33d0:	f90053e7 	str	x7, [sp, #160]
    33d4:	97fffb0d 	bl	2008 <__fixunstfsi>
    33d8:	b8004740 	str	w0, [x26], #4
    33dc:	97fffb63 	bl	2168 <__floatunsitf>
    33e0:	a9086ffc 	stp	x28, x27, [sp, #128]
    33e4:	4ea01c01 	mov	v1.16b, v0.16b
    33e8:	3dc023e0 	ldr	q0, [sp, #128]
    33ec:	97fff813 	bl	1438 <__subtf3>
    33f0:	b0000060 	adrp	x0, 10000 <__text_end+0x1600>
    33f4:	91148000 	add	x0, x0, #0x520
    33f8:	3dc00001 	ldr	q1, [x0]
    33fc:	97fff615 	bl	c50 <__multf3>
    3400:	3d8023e0 	str	q0, [sp, #128]
    3404:	a9480fe5 	ldp	x5, x3, [sp, #128]
    3408:	6f00e401 	movi	v1.2d, #0x0
    340c:	aa0503fc 	mov	x28, x5
    3410:	aa0303fb 	mov	x27, x3
    3414:	97fff5cd 	bl	b48 <__eqtf2>
    3418:	b9409be6 	ldr	w6, [sp, #152]
    341c:	f94053e7 	ldr	x7, [sp, #160]
    3420:	35fffd20 	cbnz	w0, 33c4 <fmt_fp+0x514>
    3424:	d2994004 	mov	x4, #0xca00                	// #51712
    3428:	aa0703fb 	mov	x27, x7
    342c:	528003a9 	mov	w9, #0x1d                  	// #29
    3430:	f2a77344 	movk	x4, #0x3b9a, lsl #16
    3434:	710000df 	cmp	w6, #0x0
    3438:	5400106c 	b.gt	3644 <fmt_fp+0x794>
    343c:	34000040 	cbz	w0, 3444 <fmt_fp+0x594>
    3440:	b900cfe6 	str	w6, [sp, #204]
    3444:	1100b660 	add	w0, w19, #0x2d
    3448:	52800121 	mov	w1, #0x9                   	// #9
    344c:	b940cfe8 	ldr	w8, [sp, #204]
    3450:	5299400d 	mov	w13, #0xca00                	// #51712
    3454:	5280002c 	mov	w12, #0x1                   	// #1
    3458:	72a7734d 	movk	w13, #0x3b9a, lsl #16
    345c:	1ac10800 	udiv	w0, w0, w1
    3460:	11000409 	add	w9, w0, #0x1
    3464:	52800000 	mov	w0, #0x0                   	// #0
    3468:	d37ef52b 	lsl	x11, x9, #2
    346c:	37f81208 	tbnz	w8, #31, 36ac <fmt_fp+0x7fc>
    3470:	34000040 	cbz	w0, 3478 <fmt_fp+0x5c8>
    3474:	b900cfe8 	str	w8, [sp, #204]
    3478:	eb1a037f 	cmp	x27, x26
    347c:	54001662 	b.cs	3748 <fmt_fp+0x898>  // b.hs, b.nlast
    3480:	cb1b00e4 	sub	x4, x7, x27
    3484:	b9400361 	ldr	w1, [x27]
    3488:	52800140 	mov	w0, #0xa                   	// #10
    348c:	2a0003e2 	mov	w2, w0
    3490:	9342fc84 	asr	x4, x4, #2
    3494:	0b040c84 	add	w4, w4, w4, lsl #3
    3498:	6b00003f 	cmp	w1, w0
    349c:	54001502 	b.cs	373c <fmt_fp+0x88c>  // b.hs, b.nlast
    34a0:	b94063e0 	ldr	w0, [sp, #96]
    34a4:	b94063e1 	ldr	w1, [sp, #96]
    34a8:	7101981f 	cmp	w0, #0x66
    34ac:	1a9f1080 	csel	w0, w4, wzr, ne  // ne = any
    34b0:	71019c3f 	cmp	w1, #0x67
    34b4:	4b000260 	sub	w0, w19, w0
    34b8:	540014c1 	b.ne	3750 <fmt_fp+0x8a0>  // b.any
    34bc:	7100027f 	cmp	w19, #0x0
    34c0:	1a9f07e1 	cset	w1, ne  // ne = any
    34c4:	4b010000 	sub	w0, w0, w1
    34c8:	cb070341 	sub	x1, x26, x7
    34cc:	9342fc21 	asr	x1, x1, #2
    34d0:	d1000421 	sub	x1, x1, #0x1
    34d4:	8b010c21 	add	x1, x1, x1, lsl #3
    34d8:	eb20c03f 	cmp	x1, w0, sxtw
    34dc:	5400088d 	b.le	35ec <fmt_fp+0x73c>
    34e0:	11409000 	add	w0, w0, #0x24, lsl #12
    34e4:	52800121 	mov	w1, #0x9                   	// #9
    34e8:	929fff62 	mov	x2, #0xffffffffffff0004    	// #-65532
    34ec:	1ac10c01 	sdiv	w1, w0, w1
    34f0:	8b21c8fc 	add	x28, x7, w1, sxtw #2
    34f4:	0b010c21 	add	w1, w1, w1, lsl #3
    34f8:	4b010000 	sub	w0, w0, w1
    34fc:	8b02039c 	add	x28, x28, x2
    3500:	52800141 	mov	w1, #0xa                   	// #10
    3504:	11000400 	add	w0, w0, #0x1
    3508:	2a0103e2 	mov	w2, w1
    350c:	7100241f 	cmp	w0, #0x9
    3510:	54001241 	b.ne	3758 <fmt_fp+0x8a8>  // b.any
    3514:	b9400382 	ldr	w2, [x28]
    3518:	1ac10840 	udiv	w0, w2, w1
    351c:	1b018809 	msub	w9, w0, w1, w2
    3520:	35000089 	cbnz	w9, 3530 <fmt_fp+0x680>
    3524:	91001383 	add	x3, x28, #0x4
    3528:	eb03035f 	cmp	x26, x3
    352c:	540005a0 	b.eq	35e0 <fmt_fp+0x730>  // b.none
    3530:	370011a0 	tbnz	w0, #0, 3764 <fmt_fp+0x8b4>
    3534:	52994000 	mov	w0, #0xca00                	// #51712
    3538:	72a77340 	movk	w0, #0x3b9a, lsl #16
    353c:	6b00003f 	cmp	w1, w0
    3540:	fa5c0362 	ccmp	x27, x28, #0x2, eq  // eq = none
    3544:	54001142 	b.cs	376c <fmt_fp+0x8bc>  // b.hs, b.nlast
    3548:	b85fc383 	ldur	w3, [x28, #-4]
    354c:	92400063 	and	x3, x3, #0x1
    3550:	13017c20 	asr	w0, w1, #1
    3554:	d2e80e08 	mov	x8, #0x4070000000000000    	// #4643211215818981376
    3558:	6b09001f 	cmp	w0, w9
    355c:	540010c8 	b.hi	3774 <fmt_fp+0x8c4>  // b.pmore
    3560:	540010e1 	b.ne	377c <fmt_fp+0x8cc>  // b.any
    3564:	91001380 	add	x0, x28, #0x4
    3568:	b2513bea 	mov	x10, #0x3fff800000000000    	// #4611545280939032576
    356c:	eb00035f 	cmp	x26, x0
    3570:	d2e7ffe0 	mov	x0, #0x3fff000000000000    	// #4611404543450677248
    3574:	9a8a0000 	csel	x0, x0, x10, eq  // eq = none
    3578:	340000d5 	cbz	w21, 3590 <fmt_fp+0x6e0>
    357c:	3940030a 	ldrb	w10, [x24]
    3580:	7100b55f 	cmp	w10, #0x2d
    3584:	54000061 	b.ne	3590 <fmt_fp+0x6e0>  // b.any
    3588:	d2410000 	eor	x0, x0, #0x8000000000000000
    358c:	d2f80e08 	mov	x8, #0xc070000000000000    	// #-4580160821035794432
    3590:	a90803ff 	stp	xzr, x0, [sp, #128]
    3594:	4b090042 	sub	w2, w2, w9
    3598:	3dc023e1 	ldr	q1, [sp, #128]
    359c:	a90823e3 	stp	x3, x8, [sp, #128]
    35a0:	3dc023e0 	ldr	q0, [sp, #128]
    35a4:	a9098fe8 	stp	x8, x3, [sp, #152]
    35a8:	b900abe2 	str	w2, [sp, #168]
    35ac:	291607e4 	stp	w4, w1, [sp, #176]
    35b0:	f9005fe7 	str	x7, [sp, #184]
    35b4:	97fff29b 	bl	20 <__addtf3>
    35b8:	a9498fe8 	ldp	x8, x3, [sp, #152]
    35bc:	a90823e3 	stp	x3, x8, [sp, #128]
    35c0:	3dc023e1 	ldr	q1, [sp, #128]
    35c4:	97fff561 	bl	b48 <__eqtf2>
    35c8:	b940abe2 	ldr	w2, [sp, #168]
    35cc:	b940b7e1 	ldr	w1, [sp, #180]
    35d0:	f9405fe7 	ldr	x7, [sp, #184]
    35d4:	35000d80 	cbnz	w0, 3784 <fmt_fp+0x8d4>
    35d8:	b940b3e4 	ldr	w4, [sp, #176]
    35dc:	b9000382 	str	w2, [x28]
    35e0:	9100139c 	add	x28, x28, #0x4
    35e4:	eb1c035f 	cmp	x26, x28
    35e8:	9a9c935a 	csel	x26, x26, x28, ls  // ls = plast
    35ec:	eb1b035f 	cmp	x26, x27
    35f0:	54000069 	b.ls	35fc <fmt_fp+0x74c>  // b.plast
    35f4:	b85fc340 	ldur	w0, [x26, #-4]
    35f8:	34000fc0 	cbz	w0, 37f0 <fmt_fp+0x940>
    35fc:	b94063e0 	ldr	w0, [sp, #96]
    3600:	71019c1f 	cmp	w0, #0x67
    3604:	54001241 	b.ne	384c <fmt_fp+0x99c>  // b.any
    3608:	7100027f 	cmp	w19, #0x0
    360c:	1a9f1673 	csinc	w19, w19, wzr, ne  // ne = any
    3610:	6b04027f 	cmp	w19, w4
    3614:	3a44c881 	ccmn	w4, #0x4, #0x1, gt
    3618:	54000f0b 	b.lt	37f8 <fmt_fp+0x948>  // b.tstop
    361c:	11000480 	add	w0, w4, #0x1
    3620:	510006f7 	sub	w23, w23, #0x1
    3624:	4b000273 	sub	w19, w19, w0
    3628:	37181139 	tbnz	w25, #3, 384c <fmt_fp+0x99c>
    362c:	eb1b035f 	cmp	x26, x27
    3630:	54000069 	b.ls	363c <fmt_fp+0x78c>  // b.plast
    3634:	b85fc343 	ldur	w3, [x26, #-4]
    3638:	35001c03 	cbnz	w3, 39b8 <fmt_fp+0xb08>
    363c:	52800122 	mov	w2, #0x9                   	// #9
    3640:	14000076 	b	3818 <fmt_fp+0x968>
    3644:	710074df 	cmp	w6, #0x1d
    3648:	d1001343 	sub	x3, x26, #0x4
    364c:	1a89d0c8 	csel	w8, w6, w9, le
    3650:	52800001 	mov	w1, #0x0                   	// #0
    3654:	eb03037f 	cmp	x27, x3
    3658:	54000169 	b.ls	3684 <fmt_fp+0x7d4>  // b.plast
    365c:	34000061 	cbz	w1, 3668 <fmt_fp+0x7b8>
    3660:	d100137b 	sub	x27, x27, #0x4
    3664:	b9000361 	str	w1, [x27]
    3668:	eb1b035f 	cmp	x26, x27
    366c:	54000069 	b.ls	3678 <fmt_fp+0x7c8>  // b.plast
    3670:	b85fc340 	ldur	w0, [x26, #-4]
    3674:	34000180 	cbz	w0, 36a4 <fmt_fp+0x7f4>
    3678:	4b0800c6 	sub	w6, w6, w8
    367c:	52800020 	mov	w0, #0x1                   	// #1
    3680:	17ffff6d 	b	3434 <fmt_fp+0x584>
    3684:	b9400060 	ldr	w0, [x3]
    3688:	9ac82000 	lsl	x0, x0, x8
    368c:	8b214000 	add	x0, x0, w1, uxtw
    3690:	9ac40802 	udiv	x2, x0, x4
    3694:	9b048041 	msub	x1, x2, x4, x0
    3698:	b81fc461 	str	w1, [x3], #-4
    369c:	2a0203e1 	mov	w1, w2
    36a0:	17ffffed 	b	3654 <fmt_fp+0x7a4>
    36a4:	d100135a 	sub	x26, x26, #0x4
    36a8:	17fffff0 	b	3668 <fmt_fp+0x7b8>
    36ac:	3100251f 	cmn	w8, #0x9
    36b0:	5400034b 	b.lt	3718 <fmt_fp+0x868>  // b.tstop
    36b4:	4b0803ea 	neg	w10, w8
    36b8:	1aca2183 	lsl	w3, w12, w10
    36bc:	aa1b03e1 	mov	x1, x27
    36c0:	51000463 	sub	w3, w3, #0x1
    36c4:	1aca29ae 	asr	w14, w13, w10
    36c8:	52800000 	mov	w0, #0x0                   	// #0
    36cc:	eb1a003f 	cmp	x1, x26
    36d0:	54000283 	b.cc	3720 <fmt_fp+0x870>  // b.lo, b.ul, b.last
    36d4:	b9400361 	ldr	w1, [x27]
    36d8:	35000041 	cbnz	w1, 36e0 <fmt_fp+0x830>
    36dc:	9100137b 	add	x27, x27, #0x4
    36e0:	34000080 	cbz	w0, 36f0 <fmt_fp+0x840>
    36e4:	aa1a03e6 	mov	x6, x26
    36e8:	b80044c0 	str	w0, [x6], #4
    36ec:	aa0603fa 	mov	x26, x6
    36f0:	b94063e0 	ldr	w0, [sp, #96]
    36f4:	7101981f 	cmp	w0, #0x66
    36f8:	9a9b00e0 	csel	x0, x7, x27, eq  // eq = none
    36fc:	cb000341 	sub	x1, x26, x0
    3700:	eb81093f 	cmp	x9, x1, asr #2
    3704:	5400004a 	b.ge	370c <fmt_fp+0x85c>  // b.tcont
    3708:	8b0b001a 	add	x26, x0, x11
    370c:	0b0a0108 	add	w8, w8, w10
    3710:	52800020 	mov	w0, #0x1                   	// #1
    3714:	17ffff56 	b	346c <fmt_fp+0x5bc>
    3718:	5280012a 	mov	w10, #0x9                   	// #9
    371c:	17ffffe7 	b	36b8 <fmt_fp+0x808>
    3720:	b9400022 	ldr	w2, [x1]
    3724:	1aca2444 	lsr	w4, w2, w10
    3728:	0b000080 	add	w0, w4, w0
    372c:	b8004420 	str	w0, [x1], #4
    3730:	0a030040 	and	w0, w2, w3
    3734:	1b0e7c00 	mul	w0, w0, w14
    3738:	17ffffe5 	b	36cc <fmt_fp+0x81c>
    373c:	1b027c00 	mul	w0, w0, w2
    3740:	11000484 	add	w4, w4, #0x1
    3744:	17ffff55 	b	3498 <fmt_fp+0x5e8>
    3748:	52800004 	mov	w4, #0x0                   	// #0
    374c:	17ffff55 	b	34a0 <fmt_fp+0x5f0>
    3750:	52800001 	mov	w1, #0x0                   	// #0
    3754:	17ffff5c 	b	34c4 <fmt_fp+0x614>
    3758:	1b027c21 	mul	w1, w1, w2
    375c:	11000400 	add	w0, w0, #0x1
    3760:	17ffff6b 	b	350c <fmt_fp+0x65c>
    3764:	d2800023 	mov	x3, #0x1                   	// #1
    3768:	17ffff7a 	b	3550 <fmt_fp+0x6a0>
    376c:	d2800003 	mov	x3, #0x0                   	// #0
    3770:	17ffff78 	b	3550 <fmt_fp+0x6a0>
    3774:	d2e7ffc0 	mov	x0, #0x3ffe000000000000    	// #4611123068473966592
    3778:	17ffff80 	b	3578 <fmt_fp+0x6c8>
    377c:	b2513be0 	mov	x0, #0x3fff800000000000    	// #4611545280939032576
    3780:	17ffff7e 	b	3578 <fmt_fp+0x6c8>
    3784:	0b020021 	add	w1, w1, w2
    3788:	b9000381 	str	w1, [x28]
    378c:	52993fe1 	mov	w1, #0xc9ff                	// #51711
    3790:	72a77341 	movk	w1, #0x3b9a, lsl #16
    3794:	b9400380 	ldr	w0, [x28]
    3798:	6b01001f 	cmp	w0, w1
    379c:	54000188 	b.hi	37cc <fmt_fp+0x91c>  // b.pmore
    37a0:	cb1b00e4 	sub	x4, x7, x27
    37a4:	b9400361 	ldr	w1, [x27]
    37a8:	52800140 	mov	w0, #0xa                   	// #10
    37ac:	2a0003e2 	mov	w2, w0
    37b0:	9342fc84 	asr	x4, x4, #2
    37b4:	0b040c84 	add	w4, w4, w4, lsl #3
    37b8:	6b00003f 	cmp	w1, w0
    37bc:	54fff123 	b.cc	35e0 <fmt_fp+0x730>  // b.lo, b.ul, b.last
    37c0:	1b027c00 	mul	w0, w0, w2
    37c4:	11000484 	add	w4, w4, #0x1
    37c8:	17fffffc 	b	37b8 <fmt_fp+0x908>
    37cc:	b81fc79f 	str	wzr, [x28], #-4
    37d0:	eb1c037f 	cmp	x27, x28
    37d4:	54000069 	b.ls	37e0 <fmt_fp+0x930>  // b.plast
    37d8:	d100137b 	sub	x27, x27, #0x4
    37dc:	b900037f 	str	wzr, [x27]
    37e0:	b9400380 	ldr	w0, [x28]
    37e4:	11000400 	add	w0, w0, #0x1
    37e8:	b9000380 	str	w0, [x28]
    37ec:	17ffffea 	b	3794 <fmt_fp+0x8e4>
    37f0:	d100135a 	sub	x26, x26, #0x4
    37f4:	17ffff7e 	b	35ec <fmt_fp+0x73c>
    37f8:	51000af7 	sub	w23, w23, #0x2
    37fc:	51000673 	sub	w19, w19, #0x1
    3800:	17ffff8a 	b	3628 <fmt_fp+0x778>
    3804:	1b087c00 	mul	w0, w0, w8
    3808:	11000442 	add	w2, w2, #0x1
    380c:	1ac00861 	udiv	w1, w3, w0
    3810:	1b008c21 	msub	w1, w1, w0, w3
    3814:	34ffff81 	cbz	w1, 3804 <fmt_fp+0x954>
    3818:	cb070340 	sub	x0, x26, x7
    381c:	321b02e1 	orr	w1, w23, #0x20
    3820:	93407c42 	sxtw	x2, w2
    3824:	93407e73 	sxtw	x19, w19
    3828:	9342fc00 	asr	x0, x0, #2
    382c:	7101983f 	cmp	w1, #0x66
    3830:	d1000400 	sub	x0, x0, #0x1
    3834:	8b000c00 	add	x0, x0, x0, lsl #3
    3838:	54000c81 	b.ne	39c8 <fmt_fp+0xb18>  // b.any
    383c:	eb020000 	subs	x0, x0, x2
    3840:	9a9f5000 	csel	x0, x0, xzr, pl  // pl = nfrst
    3844:	eb13001f 	cmp	x0, x19
    3848:	9a93d013 	csel	x19, x0, x19, le
    384c:	321f77e0 	mov	w0, #0x7ffffffe            	// #2147483646
    3850:	6b00027f 	cmp	w19, w0
    3854:	54ffcdaa 	b.ge	3208 <fmt_fp+0x358>  // b.tcont
    3858:	121d0320 	and	w0, w25, #0x8
    385c:	b90083e0 	str	w0, [sp, #128]
    3860:	2a000260 	orr	w0, w19, w0
    3864:	11000668 	add	w8, w19, #0x1
    3868:	7100001f 	cmp	w0, #0x0
    386c:	b90063e0 	str	w0, [sp, #96]
    3870:	1a880508 	cinc	w8, w8, ne  // ne = any
    3874:	321b02fc 	orr	w28, w23, #0x20
    3878:	12b0000b 	mov	w11, #0x7fffffff            	// #2147483647
    387c:	71019b9f 	cmp	w28, #0x66
    3880:	4b08016b 	sub	w11, w11, w8
    3884:	54000a61 	b.ne	39d0 <fmt_fp+0xb20>  // b.any
    3888:	6b0b009f 	cmp	w4, w11
    388c:	54ffcbec 	b.gt	3208 <fmt_fp+0x358>
    3890:	7100009f 	cmp	w4, #0x0
    3894:	5400004d 	b.le	389c <fmt_fp+0x9ec>
    3898:	0b040108 	add	w8, w8, w4
    389c:	710002bf 	cmp	w21, #0x0
    38a0:	f9004fe7 	str	x7, [sp, #152]
    38a4:	12b00000 	mov	w0, #0x7fffffff            	// #2147483647
    38a8:	321f77e1 	mov	w1, #0x7ffffffe            	// #2147483646
    38ac:	1a810000 	csel	w0, w0, w1, eq  // eq = none
    38b0:	6b08001f 	cmp	w0, w8
    38b4:	54ffcaab 	b.lt	3208 <fmt_fp+0x358>  // b.tstop
    38b8:	0b150117 	add	w23, w8, w21
    38bc:	2a1903e4 	mov	w4, w25
    38c0:	2a1703e3 	mov	w3, w23
    38c4:	2a1603e2 	mov	w2, w22
    38c8:	aa1403e0 	mov	x0, x20
    38cc:	52800401 	mov	w1, #0x20                  	// #32
    38d0:	97fffd51 	bl	2e14 <pad>
    38d4:	93407ea2 	sxtw	x2, w21
    38d8:	aa1803e1 	mov	x1, x24
    38dc:	aa1403e0 	mov	x0, x20
    38e0:	97fffd45 	bl	2df4 <out>
    38e4:	52100324 	eor	w4, w25, #0x10000
    38e8:	2a1703e3 	mov	w3, w23
    38ec:	2a1603e2 	mov	w2, w22
    38f0:	aa1403e0 	mov	x0, x20
    38f4:	52800601 	mov	w1, #0x30                  	// #48
    38f8:	97fffd47 	bl	2e14 <pad>
    38fc:	71019b9f 	cmp	w28, #0x66
    3900:	f9404fe7 	ldr	x7, [sp, #152]
    3904:	540010e1 	b.ne	3b20 <fmt_fp+0xc70>  // b.any
    3908:	eb1b00ff 	cmp	x7, x27
    390c:	910383f8 	add	x24, sp, #0xe0
    3910:	9a9b90fb 	csel	x27, x7, x27, ls  // ls = plast
    3914:	91002715 	add	x21, x24, #0x9
    3918:	aa1b03fc 	mov	x28, x27
    391c:	f9003bf5 	str	x21, [sp, #112]
    3920:	eb07039f 	cmp	x28, x7
    3924:	54000949 	b.ls	3a4c <fmt_fp+0xb9c>  // b.plast
    3928:	910010e0 	add	x0, x7, #0x4
    392c:	d1000f61 	sub	x1, x27, #0x3
    3930:	cb1b0000 	sub	x0, x0, x27
    3934:	910004e7 	add	x7, x7, #0x1
    3938:	927ef400 	and	x0, x0, #0xfffffffffffffffc
    393c:	eb0100ff 	cmp	x7, x1
    3940:	9a9f2000 	csel	x0, x0, xzr, cs  // cs = hs, nlast
    3944:	8b000375 	add	x21, x27, x0
    3948:	b94063e0 	ldr	w0, [sp, #96]
    394c:	34000e60 	cbz	w0, 3b18 <fmt_fp+0xc68>
    3950:	910383fb 	add	x27, sp, #0xe0
    3954:	5280061c 	mov	w28, #0x30                  	// #48
    3958:	91002778 	add	x24, x27, #0x9
    395c:	aa1403e0 	mov	x0, x20
    3960:	d2800022 	mov	x2, #0x1                   	// #1
    3964:	b0000061 	adrp	x1, 10000 <__text_end+0x1600>
    3968:	91322421 	add	x1, x1, #0xc89
    396c:	97fffd22 	bl	2df4 <out>
    3970:	7100027f 	cmp	w19, #0x0
    3974:	fa5ac2a2 	ccmp	x21, x26, #0x2, gt
    3978:	54000a63 	b.cc	3ac4 <fmt_fp+0xc14>  // b.lo, b.ul, b.last
    397c:	52800123 	mov	w3, #0x9                   	// #9
    3980:	aa1403e0 	mov	x0, x20
    3984:	0b030262 	add	w2, w19, w3
    3988:	52800004 	mov	w4, #0x0                   	// #0
    398c:	52800601 	mov	w1, #0x30                  	// #48
    3990:	97fffd21 	bl	2e14 <pad>
    3994:	aa1403e0 	mov	x0, x20
    3998:	52130324 	eor	w4, w25, #0x2000
    399c:	2a1703e3 	mov	w3, w23
    39a0:	2a1603e2 	mov	w2, w22
    39a4:	52800401 	mov	w1, #0x20                  	// #32
    39a8:	97fffd1b 	bl	2e14 <pad>
    39ac:	6b1602ff 	cmp	w23, w22
    39b0:	1a96a2e0 	csel	w0, w23, w22, ge  // ge = tcont
    39b4:	17fffe16 	b	320c <fmt_fp+0x35c>
    39b8:	52800140 	mov	w0, #0xa                   	// #10
    39bc:	52800002 	mov	w2, #0x0                   	// #0
    39c0:	2a0003e8 	mov	w8, w0
    39c4:	17ffff92 	b	380c <fmt_fp+0x95c>
    39c8:	8b24c000 	add	x0, x0, w4, sxtw
    39cc:	17ffff9c 	b	383c <fmt_fp+0x98c>
    39d0:	910343ea 	add	x10, sp, #0xd0
    39d4:	7100009f 	cmp	w4, #0x0
    39d8:	91003149 	add	x9, x10, #0xc
    39dc:	5a84a480 	cneg	w0, w4, lt  // lt = tstop
    39e0:	aa0903e1 	mov	x1, x9
    39e4:	b90073e4 	str	w4, [sp, #112]
    39e8:	93407c00 	sxtw	x0, w0
    39ec:	f9004fe7 	str	x7, [sp, #152]
    39f0:	97fffcdd 	bl	2d64 <fmt_u>
    39f4:	b94073e4 	ldr	w4, [sp, #112]
    39f8:	52800602 	mov	w2, #0x30                  	// #48
    39fc:	f9404fe7 	ldr	x7, [sp, #152]
    3a00:	cb000121 	sub	x1, x9, x0
    3a04:	f100043f 	cmp	x1, #0x1
    3a08:	540001ed 	b.le	3a44 <fmt_fp+0xb94>
    3a0c:	7100009f 	cmp	w4, #0x0
    3a10:	528005a1 	mov	w1, #0x2d                  	// #45
    3a14:	52800562 	mov	w2, #0x2b                  	// #43
    3a18:	1a82b021 	csel	w1, w1, w2, lt  // lt = tstop
    3a1c:	381fe017 	sturb	w23, [x0, #-2]
    3a20:	381ff001 	sturb	w1, [x0, #-1]
    3a24:	d1000801 	sub	x1, x0, #0x2
    3a28:	91003140 	add	x0, x10, #0xc
    3a2c:	f9003be1 	str	x1, [sp, #112]
    3a30:	cb010000 	sub	x0, x0, x1
    3a34:	eb2bc01f 	cmp	x0, w11, sxtw
    3a38:	54ffbe8c 	b.gt	3208 <fmt_fp+0x358>
    3a3c:	0b000108 	add	w8, w8, w0
    3a40:	17ffff97 	b	389c <fmt_fp+0x9ec>
    3a44:	381ffc02 	strb	w2, [x0, #-1]!
    3a48:	17ffffee 	b	3a00 <fmt_fp+0xb50>
    3a4c:	b9400380 	ldr	w0, [x28]
    3a50:	aa1503e1 	mov	x1, x21
    3a54:	f90043e7 	str	x7, [sp, #128]
    3a58:	97fffcc3 	bl	2d64 <fmt_u>
    3a5c:	aa0003e1 	mov	x1, x0
    3a60:	eb1b039f 	cmp	x28, x27
    3a64:	f94043e7 	ldr	x7, [sp, #128]
    3a68:	54000121 	b.ne	3a8c <fmt_fp+0xbdc>  // b.any
    3a6c:	eb15001f 	cmp	x0, x21
    3a70:	540001a1 	b.ne	3aa4 <fmt_fp+0xbf4>  // b.any
    3a74:	52800600 	mov	w0, #0x30                  	// #48
    3a78:	91002301 	add	x1, x24, #0x8
    3a7c:	3903a3e0 	strb	w0, [sp, #232]
    3a80:	14000009 	b	3aa4 <fmt_fp+0xbf4>
    3a84:	52800602 	mov	w2, #0x30                  	// #48
    3a88:	381ffc02 	strb	w2, [x0, #-1]!
    3a8c:	eb18001f 	cmp	x0, x24
    3a90:	54ffffa8 	b.hi	3a84 <fmt_fp+0xbd4>  // b.pmore
    3a94:	cb010300 	sub	x0, x24, x1
    3a98:	eb18003f 	cmp	x1, x24
    3a9c:	9a9f2000 	csel	x0, x0, xzr, cs  // cs = hs, nlast
    3aa0:	8b000021 	add	x1, x1, x0
    3aa4:	f9403be0 	ldr	x0, [sp, #112]
    3aa8:	f90043e7 	str	x7, [sp, #128]
    3aac:	9100139c 	add	x28, x28, #0x4
    3ab0:	cb010002 	sub	x2, x0, x1
    3ab4:	aa1403e0 	mov	x0, x20
    3ab8:	97fffccf 	bl	2df4 <out>
    3abc:	f94043e7 	ldr	x7, [sp, #128]
    3ac0:	17ffff98 	b	3920 <fmt_fp+0xa70>
    3ac4:	b94002a0 	ldr	w0, [x21]
    3ac8:	aa1803e1 	mov	x1, x24
    3acc:	97fffca6 	bl	2d64 <fmt_u>
    3ad0:	aa0003e1 	mov	x1, x0
    3ad4:	eb1b003f 	cmp	x1, x27
    3ad8:	540001c8 	b.hi	3b10 <fmt_fp+0xc60>  // b.pmore
    3adc:	eb1b001f 	cmp	x0, x27
    3ae0:	cb000361 	sub	x1, x27, x0
    3ae4:	9a9f2021 	csel	x1, x1, xzr, cs  // cs = hs, nlast
    3ae8:	7100267f 	cmp	w19, #0x9
    3aec:	52800122 	mov	w2, #0x9                   	// #9
    3af0:	1a82d262 	csel	w2, w19, w2, le
    3af4:	8b010001 	add	x1, x0, x1
    3af8:	910012b5 	add	x21, x21, #0x4
    3afc:	93407c42 	sxtw	x2, w2
    3b00:	aa1403e0 	mov	x0, x20
    3b04:	51002673 	sub	w19, w19, #0x9
    3b08:	97fffcbb 	bl	2df4 <out>
    3b0c:	17ffff99 	b	3970 <fmt_fp+0xac0>
    3b10:	381ffc3c 	strb	w28, [x1, #-1]!
    3b14:	17fffff0 	b	3ad4 <fmt_fp+0xc24>
    3b18:	52800013 	mov	w19, #0x0                   	// #0
    3b1c:	17ffff98 	b	397c <fmt_fp+0xacc>
    3b20:	eb1b035f 	cmp	x26, x27
    3b24:	54000048 	b.hi	3b2c <fmt_fp+0xc7c>  // b.pmore
    3b28:	9100137a 	add	x26, x27, #0x4
    3b2c:	910383f5 	add	x21, sp, #0xe0
    3b30:	b0000060 	adrp	x0, 10000 <__text_end+0x1600>
    3b34:	aa1b03f8 	mov	x24, x27
    3b38:	91322400 	add	x0, x0, #0xc89
    3b3c:	f90033e0 	str	x0, [sp, #96]
    3b40:	910026a0 	add	x0, x21, #0x9
    3b44:	f9004fe0 	str	x0, [sp, #152]
    3b48:	7100027f 	cmp	w19, #0x0
    3b4c:	fa5aa302 	ccmp	x24, x26, #0x2, ge  // ge = tcont
    3b50:	54000183 	b.cc	3b80 <fmt_fp+0xcd0>  // b.lo, b.ul, b.last
    3b54:	aa1403e0 	mov	x0, x20
    3b58:	52800243 	mov	w3, #0x12                  	// #18
    3b5c:	52800601 	mov	w1, #0x30                  	// #48
    3b60:	0b030262 	add	w2, w19, w3
    3b64:	52800004 	mov	w4, #0x0                   	// #0
    3b68:	97fffcab 	bl	2e14 <pad>
    3b6c:	f9403be0 	ldr	x0, [sp, #112]
    3b70:	910373e2 	add	x2, sp, #0xdc
    3b74:	cb000042 	sub	x2, x2, x0
    3b78:	aa0003e1 	mov	x1, x0
    3b7c:	17fffd06 	b	2f94 <fmt_fp+0xe4>
    3b80:	b9400300 	ldr	w0, [x24]
    3b84:	910026a4 	add	x4, x21, #0x9
    3b88:	aa0403e1 	mov	x1, x4
    3b8c:	97fffc76 	bl	2d64 <fmt_u>
    3b90:	aa0003e1 	mov	x1, x0
    3b94:	eb04001f 	cmp	x0, x4
    3b98:	54000081 	b.ne	3ba8 <fmt_fp+0xcf8>  // b.any
    3b9c:	910022a1 	add	x1, x21, #0x8
    3ba0:	52800600 	mov	w0, #0x30                  	// #48
    3ba4:	3903a3e0 	strb	w0, [sp, #232]
    3ba8:	eb1b031f 	cmp	x24, x27
    3bac:	54000421 	b.ne	3c30 <fmt_fp+0xd80>  // b.any
    3bb0:	aa1403e0 	mov	x0, x20
    3bb4:	9100043c 	add	x28, x1, #0x1
    3bb8:	d2800022 	mov	x2, #0x1                   	// #1
    3bbc:	97fffc8e 	bl	2df4 <out>
    3bc0:	b94083e0 	ldr	w0, [sp, #128]
    3bc4:	2a130000 	orr	w0, w0, w19
    3bc8:	340001a0 	cbz	w0, 3bfc <fmt_fp+0xd4c>
    3bcc:	f94033e1 	ldr	x1, [sp, #96]
    3bd0:	aa1403e0 	mov	x0, x20
    3bd4:	d2800022 	mov	x2, #0x1                   	// #1
    3bd8:	97fffc87 	bl	2df4 <out>
    3bdc:	14000008 	b	3bfc <fmt_fp+0xd4c>
    3be0:	381ffc02 	strb	w2, [x0, #-1]!
    3be4:	eb15001f 	cmp	x0, x21
    3be8:	54ffffc8 	b.hi	3be0 <fmt_fp+0xd30>  // b.pmore
    3bec:	cb0102a3 	sub	x3, x21, x1
    3bf0:	eb15003f 	cmp	x1, x21
    3bf4:	9a9f2063 	csel	x3, x3, xzr, cs  // cs = hs, nlast
    3bf8:	8b03003c 	add	x28, x1, x3
    3bfc:	f9404fe0 	ldr	x0, [sp, #152]
    3c00:	93407e62 	sxtw	x2, w19
    3c04:	aa1c03e1 	mov	x1, x28
    3c08:	91001318 	add	x24, x24, #0x4
    3c0c:	cb1c0004 	sub	x4, x0, x28
    3c10:	aa1403e0 	mov	x0, x20
    3c14:	eb33c09f 	cmp	x4, w19, sxtw
    3c18:	f90053e4 	str	x4, [sp, #160]
    3c1c:	9a84a042 	csel	x2, x2, x4, ge  // ge = tcont
    3c20:	97fffc75 	bl	2df4 <out>
    3c24:	f94053e4 	ldr	x4, [sp, #160]
    3c28:	4b040273 	sub	w19, w19, w4
    3c2c:	17ffffc7 	b	3b48 <fmt_fp+0xc98>
    3c30:	aa0103e0 	mov	x0, x1
    3c34:	52800602 	mov	w2, #0x30                  	// #48
    3c38:	17ffffeb 	b	3be4 <fmt_fp+0xd34>

0000000000003c3c <printf_core>:
    3c3c:	a9af53f3 	stp	x19, x20, [sp, #-272]!
    3c40:	52800014 	mov	w20, #0x0                   	// #0
    3c44:	a9015bf5 	stp	x21, x22, [sp, #16]
    3c48:	aa0003f5 	mov	x21, x0
    3c4c:	910363e0 	add	x0, sp, #0xd8
    3c50:	a90263f7 	stp	x23, x24, [sp, #32]
    3c54:	aa0203f7 	mov	x23, x2
    3c58:	52800016 	mov	w22, #0x0                   	// #0
    3c5c:	a9036bf9 	stp	x25, x26, [sp, #48]
    3c60:	9100dc19 	add	x25, x0, #0x37
    3c64:	a90473fb 	stp	x27, x28, [sp, #64]
    3c68:	f9002bfe 	str	x30, [sp, #80]
    3c6c:	b90067ff 	str	wzr, [sp, #100]
    3c70:	a90683e4 	stp	x4, x0, [sp, #104]
    3c74:	9102a3e0 	add	x0, sp, #0xa8
    3c78:	f9003fe3 	str	x3, [sp, #120]
    3c7c:	f90047e0 	str	x0, [sp, #136]
    3c80:	f9005be1 	str	x1, [sp, #176]
    3c84:	f9405bfc 	ldr	x28, [sp, #176]
    3c88:	0b1402d6 	add	w22, w22, w20
    3c8c:	39400380 	ldrb	w0, [x28]
    3c90:	35000220 	cbnz	w0, 3cd4 <printf_core+0x98>
    3c94:	b5001c75 	cbnz	x21, 4020 <printf_core+0x3e4>
    3c98:	b94067e0 	ldr	w0, [sp, #100]
    3c9c:	34001c00 	cbz	w0, 401c <printf_core+0x3e0>
    3ca0:	d2800033 	mov	x19, #0x1                   	// #1
    3ca4:	f94037e0 	ldr	x0, [sp, #104]
    3ca8:	b8737801 	ldr	w1, [x0, x19, lsl #2]
    3cac:	35004141 	cbnz	w1, 44d4 <printf_core+0x898>
    3cb0:	f94037e0 	ldr	x0, [sp, #104]
    3cb4:	b8737800 	ldr	w0, [x0, x19, lsl #2]
    3cb8:	35001260 	cbnz	w0, 3f04 <printf_core+0x2c8>
    3cbc:	91000673 	add	x19, x19, #0x1
    3cc0:	f1002a7f 	cmp	x19, #0xa
    3cc4:	54ffff61 	b.ne	3cb0 <printf_core+0x74>  // b.any
    3cc8:	1400020a 	b	44f0 <printf_core+0x8b4>
    3ccc:	910004c6 	add	x6, x6, #0x1
    3cd0:	f9005be6 	str	x6, [sp, #176]
    3cd4:	f9405be6 	ldr	x6, [sp, #176]
    3cd8:	394000c0 	ldrb	w0, [x6]
    3cdc:	7100941f 	cmp	w0, #0x25
    3ce0:	7a401804 	ccmp	w0, #0x0, #0x4, ne  // ne = any
    3ce4:	54ffff41 	b.ne	3ccc <printf_core+0x90>  // b.any
    3ce8:	f9405be0 	ldr	x0, [sp, #176]
    3cec:	39400001 	ldrb	w1, [x0]
    3cf0:	7100943f 	cmp	w1, #0x25
    3cf4:	54000081 	b.ne	3d04 <printf_core+0xc8>  // b.any
    3cf8:	39400401 	ldrb	w1, [x0, #1]
    3cfc:	7100943f 	cmp	w1, #0x25
    3d00:	54000e60 	b.eq	3ecc <printf_core+0x290>  // b.none
    3d04:	12b00000 	mov	w0, #0x7fffffff            	// #2147483647
    3d08:	4b160000 	sub	w0, w0, w22
    3d0c:	b90083e0 	str	w0, [sp, #128]
    3d10:	cb1c00d8 	sub	x24, x6, x28
    3d14:	eb20c31f 	cmp	x24, w0, sxtw
    3d18:	5400398c 	b.gt	4448 <printf_core+0x80c>
    3d1c:	2a1803f4 	mov	w20, w24
    3d20:	b40000b5 	cbz	x21, 3d34 <printf_core+0xf8>
    3d24:	93407f02 	sxtw	x2, w24
    3d28:	aa1c03e1 	mov	x1, x28
    3d2c:	aa1503e0 	mov	x0, x21
    3d30:	97fffc31 	bl	2df4 <out>
    3d34:	35003858 	cbnz	w24, 443c <printf_core+0x800>
    3d38:	f9405be2 	ldr	x2, [sp, #176]
    3d3c:	39400441 	ldrb	w1, [x2, #1]
    3d40:	5100c021 	sub	w1, w1, #0x30
    3d44:	7100243f 	cmp	w1, #0x9
    3d48:	54000ca8 	b.hi	3edc <printf_core+0x2a0>  // b.pmore
    3d4c:	39400840 	ldrb	w0, [x2, #2]
    3d50:	7100901f 	cmp	w0, #0x24
    3d54:	54000c41 	b.ne	3edc <printf_core+0x2a0>  // b.any
    3d58:	2a0103ea 	mov	w10, w1
    3d5c:	91000c42 	add	x2, x2, #0x3
    3d60:	52800020 	mov	w0, #0x1                   	// #1
    3d64:	b90067e0 	str	w0, [sp, #100]
    3d68:	52851124 	mov	w4, #0x2889                	// #10377
    3d6c:	5280001b 	mov	w27, #0x0                   	// #0
    3d70:	72a00024 	movk	w4, #0x1, lsl #16
    3d74:	52800025 	mov	w5, #0x1                   	// #1
    3d78:	f9005be2 	str	x2, [sp, #176]
    3d7c:	f9405be1 	ldr	x1, [sp, #176]
    3d80:	39400022 	ldrb	w2, [x1]
    3d84:	51008040 	sub	w0, w2, #0x20
    3d88:	71007c1f 	cmp	w0, #0x1f
    3d8c:	54000068 	b.hi	3d98 <printf_core+0x15c>  // b.pmore
    3d90:	1ac02483 	lsr	w3, w4, w0
    3d94:	37000aa3 	tbnz	w3, #0, 3ee8 <printf_core+0x2ac>
    3d98:	7100a85f 	cmp	w2, #0x2a
    3d9c:	54000e61 	b.ne	3f68 <printf_core+0x32c>  // b.any
    3da0:	39400420 	ldrb	w0, [x1, #1]
    3da4:	5100c002 	sub	w2, w0, #0x30
    3da8:	7100245f 	cmp	w2, #0x9
    3dac:	54000a88 	b.hi	3efc <printf_core+0x2c0>  // b.pmore
    3db0:	39400822 	ldrb	w2, [x1, #2]
    3db4:	7100905f 	cmp	w2, #0x24
    3db8:	54000a21 	b.ne	3efc <printf_core+0x2c0>  // b.any
    3dbc:	f94037e2 	ldr	x2, [sp, #104]
    3dc0:	91000c21 	add	x1, x1, #0x3
    3dc4:	8b200840 	add	x0, x2, w0, uxtb #2
    3dc8:	52800142 	mov	w2, #0xa                   	// #10
    3dcc:	b8140002 	stur	w2, [x0, #-192]
    3dd0:	92805fe2 	mov	x2, #0xfffffffffffffd00    	// #-768
    3dd4:	385fe020 	ldurb	w0, [x1, #-2]
    3dd8:	f9005be1 	str	x1, [sp, #176]
    3ddc:	8b205040 	add	x0, x2, w0, uxtw #4
    3de0:	f9403fe2 	ldr	x2, [sp, #120]
    3de4:	b8606853 	ldr	w19, [x2, x0]
    3de8:	52800020 	mov	w0, #0x1                   	// #1
    3dec:	b90067e0 	str	w0, [sp, #100]
    3df0:	36f80073 	tbz	w19, #31, 3dfc <printf_core+0x1c0>
    3df4:	3213037b 	orr	w27, w27, #0x2000
    3df8:	4b1303f3 	neg	w19, w19
    3dfc:	f9405be1 	ldr	x1, [sp, #176]
    3e00:	39400020 	ldrb	w0, [x1]
    3e04:	7100b81f 	cmp	w0, #0x2e
    3e08:	54000ee1 	b.ne	3fe4 <printf_core+0x3a8>  // b.any
    3e0c:	39400420 	ldrb	w0, [x1, #1]
    3e10:	7100a81f 	cmp	w0, #0x2a
    3e14:	54000da1 	b.ne	3fc8 <printf_core+0x38c>  // b.any
    3e18:	39400820 	ldrb	w0, [x1, #2]
    3e1c:	5100c002 	sub	w2, w0, #0x30
    3e20:	7100245f 	cmp	w2, #0x9
    3e24:	54000ac8 	b.hi	3f7c <printf_core+0x340>  // b.pmore
    3e28:	39400c22 	ldrb	w2, [x1, #3]
    3e2c:	7100905f 	cmp	w2, #0x24
    3e30:	54000a61 	b.ne	3f7c <printf_core+0x340>  // b.any
    3e34:	f94037e2 	ldr	x2, [sp, #104]
    3e38:	91001021 	add	x1, x1, #0x4
    3e3c:	8b200840 	add	x0, x2, w0, uxtb #2
    3e40:	52800142 	mov	w2, #0xa                   	// #10
    3e44:	b8140002 	stur	w2, [x0, #-192]
    3e48:	92805fe2 	mov	x2, #0xfffffffffffffd00    	// #-768
    3e4c:	385fe020 	ldurb	w0, [x1, #-2]
    3e50:	8b205040 	add	x0, x2, w0, uxtw #4
    3e54:	f9403fe2 	ldr	x2, [sp, #120]
    3e58:	b8606858 	ldr	w24, [x2, x0]
    3e5c:	2a3803e3 	mvn	w3, w24
    3e60:	f9005be1 	str	x1, [sp, #176]
    3e64:	531f7c7a 	lsr	w26, w3, #31
    3e68:	b0000062 	adrp	x2, 10000 <__text_end+0x1600>
    3e6c:	91327042 	add	x2, x2, #0xc9c
    3e70:	52800005 	mov	w5, #0x0                   	// #0
    3e74:	d2800744 	mov	x4, #0x3a                  	// #58
    3e78:	f9405be0 	ldr	x0, [sp, #176]
    3e7c:	39400001 	ldrb	w1, [x0]
    3e80:	51010421 	sub	w1, w1, #0x41
    3e84:	7100e43f 	cmp	w1, #0x39
    3e88:	540003e8 	b.hi	3f04 <printf_core+0x2c8>  // b.pmore
    3e8c:	91000401 	add	x1, x0, #0x1
    3e90:	f9005be1 	str	x1, [sp, #176]
    3e94:	39400001 	ldrb	w1, [x0]
    3e98:	2a0503e0 	mov	w0, w5
    3e9c:	51010421 	sub	w1, w1, #0x41
    3ea0:	9b040800 	madd	x0, x0, x4, x2
    3ea4:	3861c801 	ldrb	w1, [x0, w1, sxtw]
    3ea8:	51000420 	sub	w0, w1, #0x1
    3eac:	71001c1f 	cmp	w0, #0x7
    3eb0:	54000a09 	b.ls	3ff0 <printf_core+0x3b4>  // b.plast
    3eb4:	34000281 	cbz	w1, 3f04 <printf_core+0x2c8>
    3eb8:	71006c3f 	cmp	w1, #0x1b
    3ebc:	540009e1 	b.ne	3ff8 <printf_core+0x3bc>  // b.any
    3ec0:	36f8022a 	tbz	w10, #31, 3f04 <printf_core+0x2c8>
    3ec4:	b5000c95 	cbnz	x21, 4054 <printf_core+0x418>
    3ec8:	17ffff6f 	b	3c84 <printf_core+0x48>
    3ecc:	91000800 	add	x0, x0, #0x2
    3ed0:	910004c6 	add	x6, x6, #0x1
    3ed4:	f9005be0 	str	x0, [sp, #176]
    3ed8:	17ffff84 	b	3ce8 <printf_core+0xac>
    3edc:	91000442 	add	x2, x2, #0x1
    3ee0:	1280000a 	mov	w10, #0xffffffff            	// #-1
    3ee4:	17ffffa1 	b	3d68 <printf_core+0x12c>
    3ee8:	91000421 	add	x1, x1, #0x1
    3eec:	1ac020a0 	lsl	w0, w5, w0
    3ef0:	2a00037b 	orr	w27, w27, w0
    3ef4:	f9005be1 	str	x1, [sp, #176]
    3ef8:	17ffffa1 	b	3d7c <printf_core+0x140>
    3efc:	b94067e0 	ldr	w0, [sp, #100]
    3f00:	340000c0 	cbz	w0, 3f18 <printf_core+0x2dc>
    3f04:	9400041a 	bl	4f6c <__errno_location>
    3f08:	528002c1 	mov	w1, #0x16                  	// #22
    3f0c:	b9000001 	str	w1, [x0]
    3f10:	12800016 	mov	w22, #0xffffffff            	// #-1
    3f14:	14000043 	b	4020 <printf_core+0x3e4>
    3f18:	b4000255 	cbz	x21, 3f60 <printf_core+0x324>
    3f1c:	b9401ae0 	ldr	w0, [x23, #24]
    3f20:	f94002e2 	ldr	x2, [x23]
    3f24:	37f80100 	tbnz	w0, #31, 3f44 <printf_core+0x308>
    3f28:	91002c40 	add	x0, x2, #0xb
    3f2c:	927df000 	and	x0, x0, #0xfffffffffffffff8
    3f30:	f90002e0 	str	x0, [x23]
    3f34:	b9400053 	ldr	w19, [x2]
    3f38:	91000421 	add	x1, x1, #0x1
    3f3c:	f9005be1 	str	x1, [sp, #176]
    3f40:	17ffffac 	b	3df0 <printf_core+0x1b4>
    3f44:	11002003 	add	w3, w0, #0x8
    3f48:	b9001ae3 	str	w3, [x23, #24]
    3f4c:	7100007f 	cmp	w3, #0x0
    3f50:	54fffecc 	b.gt	3f28 <printf_core+0x2ec>
    3f54:	f94006e2 	ldr	x2, [x23, #8]
    3f58:	8b20c042 	add	x2, x2, w0, sxtw
    3f5c:	17fffff6 	b	3f34 <printf_core+0x2f8>
    3f60:	2a1803f3 	mov	w19, w24
    3f64:	17fffff5 	b	3f38 <printf_core+0x2fc>
    3f68:	9102c3e0 	add	x0, sp, #0xb0
    3f6c:	97fffb89 	bl	2d90 <getint>
    3f70:	2a0003f3 	mov	w19, w0
    3f74:	36fff440 	tbz	w0, #31, 3dfc <printf_core+0x1c0>
    3f78:	14000134 	b	4448 <printf_core+0x80c>
    3f7c:	b94067e0 	ldr	w0, [sp, #100]
    3f80:	35fffc20 	cbnz	w0, 3f04 <printf_core+0x2c8>
    3f84:	b4000115 	cbz	x21, 3fa4 <printf_core+0x368>
    3f88:	b9401ae2 	ldr	w2, [x23, #24]
    3f8c:	f94002e0 	ldr	x0, [x23]
    3f90:	37f800e2 	tbnz	w2, #31, 3fac <printf_core+0x370>
    3f94:	91002c02 	add	x2, x0, #0xb
    3f98:	927df042 	and	x2, x2, #0xfffffffffffffff8
    3f9c:	f90002e2 	str	x2, [x23]
    3fa0:	b9400018 	ldr	w24, [x0]
    3fa4:	91000821 	add	x1, x1, #0x2
    3fa8:	17ffffad 	b	3e5c <printf_core+0x220>
    3fac:	11002043 	add	w3, w2, #0x8
    3fb0:	b9001ae3 	str	w3, [x23, #24]
    3fb4:	7100007f 	cmp	w3, #0x0
    3fb8:	54fffeec 	b.gt	3f94 <printf_core+0x358>
    3fbc:	f94006e0 	ldr	x0, [x23, #8]
    3fc0:	8b22c000 	add	x0, x0, w2, sxtw
    3fc4:	17fffff7 	b	3fa0 <printf_core+0x364>
    3fc8:	91000421 	add	x1, x1, #0x1
    3fcc:	9102c3e0 	add	x0, sp, #0xb0
    3fd0:	5280003a 	mov	w26, #0x1                   	// #1
    3fd4:	f9005be1 	str	x1, [sp, #176]
    3fd8:	97fffb6e 	bl	2d90 <getint>
    3fdc:	2a0003f8 	mov	w24, w0
    3fe0:	17ffffa2 	b	3e68 <printf_core+0x22c>
    3fe4:	2a1803fa 	mov	w26, w24
    3fe8:	12800018 	mov	w24, #0xffffffff            	// #-1
    3fec:	17ffff9f 	b	3e68 <printf_core+0x22c>
    3ff0:	2a0103e5 	mov	w5, w1
    3ff4:	17ffffa1 	b	3e78 <printf_core+0x23c>
    3ff8:	37f8010a 	tbnz	w10, #31, 4018 <printf_core+0x3dc>
    3ffc:	f94037e0 	ldr	x0, [sp, #104]
    4000:	b82ad801 	str	w1, [x0, w10, sxtw #2]
    4004:	f9403fe0 	ldr	x0, [sp, #120]
    4008:	8b2ad001 	add	x1, x0, w10, sxtw #4
    400c:	a9400420 	ldp	x0, x1, [x1]
    4010:	a90c07e0 	stp	x0, x1, [sp, #192]
    4014:	17ffffac 	b	3ec4 <printf_core+0x288>
    4018:	b5000155 	cbnz	x21, 4040 <printf_core+0x404>
    401c:	52800016 	mov	w22, #0x0                   	// #0
    4020:	2a1603e0 	mov	w0, w22
    4024:	a9415bf5 	ldp	x21, x22, [sp, #16]
    4028:	a94263f7 	ldp	x23, x24, [sp, #32]
    402c:	a9436bf9 	ldp	x25, x26, [sp, #48]
    4030:	a94473fb 	ldp	x27, x28, [sp, #64]
    4034:	f9402bfe 	ldr	x30, [sp, #80]
    4038:	a8d153f3 	ldp	x19, x20, [sp], #272
    403c:	d65f03c0 	ret
    4040:	aa1703e2 	mov	x2, x23
    4044:	910303e0 	add	x0, sp, #0xc0
    4048:	b90093e5 	str	w5, [sp, #144]
    404c:	97fffab6 	bl	2b24 <pop_arg>
    4050:	b94093e5 	ldr	w5, [sp, #144]
    4054:	f9405be0 	ldr	x0, [sp, #176]
    4058:	385ff004 	ldurb	w4, [x0, #-1]
    405c:	340000a5 	cbz	w5, 4070 <printf_core+0x434>
    4060:	12000c80 	and	w0, w4, #0xf
    4064:	71000c1f 	cmp	w0, #0x3
    4068:	54000041 	b.ne	4070 <printf_core+0x434>  // b.any
    406c:	121a7884 	and	w4, w4, #0xffffffdf
    4070:	3668005b 	tbz	w27, #13, 4078 <printf_core+0x43c>
    4074:	120f7b7b 	and	w27, w27, #0xfffeffff
    4078:	51010481 	sub	w1, w4, #0x41
    407c:	7100dc3f 	cmp	w1, #0x37
    4080:	540021e8 	b.hi	44bc <printf_core+0x880>  // b.pmore
    4084:	90000060 	adrp	x0, 10000 <__text_end+0x1600>
    4088:	91163000 	add	x0, x0, #0x58c
    408c:	78615800 	ldrh	w0, [x0, w1, uxtw #1]
    4090:	10000061 	adr	x1, 409c <printf_core+0x460>
    4094:	8b20a820 	add	x0, x1, w0, sxth #2
    4098:	d61f0000 	br	x0
    409c:	71001cbf 	cmp	w5, #0x7
    40a0:	54001ce8 	b.hi	443c <printf_core+0x800>  // b.pmore
    40a4:	90000060 	adrp	x0, 10000 <__text_end+0x1600>
    40a8:	9117f000 	add	x0, x0, #0x5fc
    40ac:	78655800 	ldrh	w0, [x0, w5, uxtw #1]
    40b0:	10000061 	adr	x1, 40bc <printf_core+0x480>
    40b4:	8b20a820 	add	x0, x1, w0, sxth #2
    40b8:	d61f0000 	br	x0
    40bc:	f94063e0 	ldr	x0, [sp, #192]
    40c0:	b9000016 	str	w22, [x0]
    40c4:	17fffef0 	b	3c84 <printf_core+0x48>
    40c8:	f94063e0 	ldr	x0, [sp, #192]
    40cc:	79000016 	strh	w22, [x0]
    40d0:	17fffeed 	b	3c84 <printf_core+0x48>
    40d4:	f94063e0 	ldr	x0, [sp, #192]
    40d8:	39000016 	strb	w22, [x0]
    40dc:	17fffeea 	b	3c84 <printf_core+0x48>
    40e0:	f94063e1 	ldr	x1, [sp, #192]
    40e4:	93407ec0 	sxtw	x0, w22
    40e8:	f9000020 	str	x0, [x1]
    40ec:	17fffee6 	b	3c84 <printf_core+0x48>
    40f0:	7100431f 	cmp	w24, #0x10
    40f4:	52800200 	mov	w0, #0x10                  	// #16
    40f8:	321d037b 	orr	w27, w27, #0x8
    40fc:	1a802318 	csel	w24, w24, w0, cs  // cs = hs, nlast
    4100:	52800f04 	mov	w4, #0x78                  	// #120
    4104:	f9403be1 	ldr	x1, [sp, #112]
    4108:	121b0085 	and	w5, w4, #0x20
    410c:	f94063e9 	ldr	x9, [sp, #192]
    4110:	9100dc3c 	add	x28, x1, #0x37
    4114:	90000061 	adrp	x1, 10000 <__text_end+0x1600>
    4118:	9139b021 	add	x1, x1, #0xe6c
    411c:	aa0903e0 	mov	x0, x9
    4120:	b50002e0 	cbnz	x0, 417c <printf_core+0x540>
    4124:	90000065 	adrp	x5, 10000 <__text_end+0x1600>
    4128:	b40004e9 	cbz	x9, 41c4 <printf_core+0x588>
    412c:	361804db 	tbz	w27, #3, 41c4 <printf_core+0x588>
    4130:	d3441c84 	ubfx	x4, x4, #4, #4
    4134:	91322ca5 	add	x5, x5, #0xc8b
    4138:	8b050085 	add	x5, x4, x5
    413c:	52800054 	mov	w20, #0x2                   	// #2
    4140:	6a587f5f 	tst	w26, w24, lsr #31
    4144:	54001821 	b.ne	4448 <printf_core+0x80c>  // b.any
    4148:	3400005a 	cbz	w26, 4150 <printf_core+0x514>
    414c:	120f7b7b 	and	w27, w27, #0xfffeffff
    4150:	f94063e1 	ldr	x1, [sp, #192]
    4154:	b5000041 	cbnz	x1, 415c <printf_core+0x520>
    4158:	34001b98 	cbz	w24, 44c8 <printf_core+0x88c>
    415c:	f100003f 	cmp	x1, #0x0
    4160:	cb1c0320 	sub	x0, x25, x28
    4164:	9a801400 	cinc	x0, x0, eq  // eq = none
    4168:	93407f01 	sxtw	x1, w24
    416c:	eb38c01f 	cmp	x0, w24, sxtw
    4170:	9a81a018 	csel	x24, x0, x1, ge  // ge = tcont
    4174:	aa1903e2 	mov	x2, x25
    4178:	1400003b 	b	4264 <printf_core+0x628>
    417c:	92400c02 	and	x2, x0, #0xf
    4180:	d344fc00 	lsr	x0, x0, #4
    4184:	38626822 	ldrb	w2, [x1, x2]
    4188:	2a0200a2 	orr	w2, w5, w2
    418c:	381fff82 	strb	w2, [x28, #-1]!
    4190:	17ffffe4 	b	4120 <printf_core+0x4e4>
    4194:	f9403be1 	ldr	x1, [sp, #112]
    4198:	f94063e0 	ldr	x0, [sp, #192]
    419c:	9100dc3c 	add	x28, x1, #0x37
    41a0:	b5000160 	cbnz	x0, 41cc <printf_core+0x590>
    41a4:	90000065 	adrp	x5, 10000 <__text_end+0x1600>
    41a8:	361800fb 	tbz	w27, #3, 41c4 <printf_core+0x588>
    41ac:	f9403be0 	ldr	x0, [sp, #112]
    41b0:	9100dc00 	add	x0, x0, #0x37
    41b4:	cb1c0000 	sub	x0, x0, x28
    41b8:	eb38c01f 	cmp	x0, w24, sxtw
    41bc:	5400004b 	b.lt	41c4 <printf_core+0x588>  // b.tstop
    41c0:	11000418 	add	w24, w0, #0x1
    41c4:	91322ca5 	add	x5, x5, #0xc8b
    41c8:	17ffffde 	b	4140 <printf_core+0x504>
    41cc:	12000801 	and	w1, w0, #0x7
    41d0:	d343fc00 	lsr	x0, x0, #3
    41d4:	1100c021 	add	w1, w1, #0x30
    41d8:	381fff81 	strb	w1, [x28, #-1]!
    41dc:	17fffff1 	b	41a0 <printf_core+0x564>
    41e0:	f94063e0 	ldr	x0, [sp, #192]
    41e4:	b6f801a0 	tbz	x0, #63, 4218 <printf_core+0x5dc>
    41e8:	cb0003e0 	neg	x0, x0
    41ec:	52800034 	mov	w20, #0x1                   	// #1
    41f0:	f90063e0 	str	x0, [sp, #192]
    41f4:	90000065 	adrp	x5, 10000 <__text_end+0x1600>
    41f8:	91322ca5 	add	x5, x5, #0xc8b
    41fc:	f94063e0 	ldr	x0, [sp, #192]
    4200:	aa1903e1 	mov	x1, x25
    4204:	f9004be5 	str	x5, [sp, #144]
    4208:	97fffad7 	bl	2d64 <fmt_u>
    420c:	aa0003fc 	mov	x28, x0
    4210:	f9404be5 	ldr	x5, [sp, #144]
    4214:	17ffffcb 	b	4140 <printf_core+0x504>
    4218:	375800db 	tbnz	w27, #11, 4230 <printf_core+0x5f4>
    421c:	3607fedb 	tbz	w27, #0, 41f4 <printf_core+0x5b8>
    4220:	90000065 	adrp	x5, 10000 <__text_end+0x1600>
    4224:	52800034 	mov	w20, #0x1                   	// #1
    4228:	913234a5 	add	x5, x5, #0xc8d
    422c:	17fffff4 	b	41fc <printf_core+0x5c0>
    4230:	90000065 	adrp	x5, 10000 <__text_end+0x1600>
    4234:	52800034 	mov	w20, #0x1                   	// #1
    4238:	913230a5 	add	x5, x5, #0xc8c
    423c:	17fffff0 	b	41fc <printf_core+0x5c0>
    4240:	f94063e0 	ldr	x0, [sp, #192]
    4244:	39043be0 	strb	w0, [sp, #270]
    4248:	f9403be0 	ldr	x0, [sp, #112]
    424c:	90000065 	adrp	x5, 10000 <__text_end+0x1600>
    4250:	120f7b7b 	and	w27, w27, #0xfffeffff
    4254:	91322ca5 	add	x5, x5, #0xc8b
    4258:	aa1903e2 	mov	x2, x25
    425c:	9100d81c 	add	x28, x0, #0x36
    4260:	52800038 	mov	w24, #0x1                   	// #1
    4264:	cb1c0049 	sub	x9, x2, x28
    4268:	a90917e9 	stp	x9, x5, [sp, #144]
    426c:	eb38c13f 	cmp	x9, w24, sxtw
    4270:	1a89d318 	csel	w24, w24, w9, le
    4274:	12b00000 	mov	w0, #0x7fffffff            	// #2147483647
    4278:	4b140000 	sub	w0, w0, w20
    427c:	6b18001f 	cmp	w0, w24
    4280:	54000e4b 	b.lt	4448 <printf_core+0x80c>  // b.tstop
    4284:	0b14031a 	add	w26, w24, w20
    4288:	b94083e0 	ldr	w0, [sp, #128]
    428c:	6b13035f 	cmp	w26, w19
    4290:	1a93a353 	csel	w19, w26, w19, ge  // ge = tcont
    4294:	6b13001f 	cmp	w0, w19
    4298:	54000d8b 	b.lt	4448 <printf_core+0x80c>  // b.tstop
    429c:	2a1b03e4 	mov	w4, w27
    42a0:	2a1a03e3 	mov	w3, w26
    42a4:	2a1303e2 	mov	w2, w19
    42a8:	aa1503e0 	mov	x0, x21
    42ac:	52800401 	mov	w1, #0x20                  	// #32
    42b0:	97fffad9 	bl	2e14 <pad>
    42b4:	f9404fe5 	ldr	x5, [sp, #152]
    42b8:	93407e82 	sxtw	x2, w20
    42bc:	aa1503e0 	mov	x0, x21
    42c0:	2a1303f4 	mov	w20, w19
    42c4:	aa0503e1 	mov	x1, x5
    42c8:	97fffacb 	bl	2df4 <out>
    42cc:	52100364 	eor	w4, w27, #0x10000
    42d0:	2a1a03e3 	mov	w3, w26
    42d4:	2a1303e2 	mov	w2, w19
    42d8:	aa1503e0 	mov	x0, x21
    42dc:	52800601 	mov	w1, #0x30                  	// #48
    42e0:	97fffacd 	bl	2e14 <pad>
    42e4:	f9404be9 	ldr	x9, [sp, #144]
    42e8:	2a1803e2 	mov	w2, w24
    42ec:	aa1503e0 	mov	x0, x21
    42f0:	52800004 	mov	w4, #0x0                   	// #0
    42f4:	2a0903e3 	mov	w3, w9
    42f8:	52800601 	mov	w1, #0x30                  	// #48
    42fc:	f90043e9 	str	x9, [sp, #128]
    4300:	97fffac5 	bl	2e14 <pad>
    4304:	f94043e9 	ldr	x9, [sp, #128]
    4308:	aa1c03e1 	mov	x1, x28
    430c:	aa1503e0 	mov	x0, x21
    4310:	aa0903e2 	mov	x2, x9
    4314:	97fffab8 	bl	2df4 <out>
    4318:	52130364 	eor	w4, w27, #0x2000
    431c:	2a1a03e3 	mov	w3, w26
    4320:	2a1303e2 	mov	w2, w19
    4324:	aa1503e0 	mov	x0, x21
    4328:	52800401 	mov	w1, #0x20                  	// #32
    432c:	97fffaba 	bl	2e14 <pad>
    4330:	17fffe55 	b	3c84 <printf_core+0x48>
    4334:	9400030e 	bl	4f6c <__errno_location>
    4338:	b9400000 	ldr	w0, [x0]
    433c:	9400031a 	bl	4fa4 <strerror>
    4340:	aa0003fc 	mov	x28, x0
    4344:	7100031f 	cmp	w24, #0x0
    4348:	12b00001 	mov	w1, #0x7fffffff            	// #2147483647
    434c:	1a81a301 	csel	w1, w24, w1, ge  // ge = tcont
    4350:	aa1c03e0 	mov	x0, x28
    4354:	93407c21 	sxtw	x1, w1
    4358:	94000226 	bl	4bf0 <strnlen>
    435c:	8b000382 	add	x2, x28, x0
    4360:	36f80078 	tbz	w24, #31, 436c <printf_core+0x730>
    4364:	38606b81 	ldrb	w1, [x28, x0]
    4368:	35000701 	cbnz	w1, 4448 <printf_core+0x80c>
    436c:	90000065 	adrp	x5, 10000 <__text_end+0x1600>
    4370:	2a0003f8 	mov	w24, w0
    4374:	120f7b7b 	and	w27, w27, #0xfffeffff
    4378:	91322ca5 	add	x5, x5, #0xc8b
    437c:	17ffffba 	b	4264 <printf_core+0x628>
    4380:	f94063fc 	ldr	x28, [sp, #192]
    4384:	b5fffe1c 	cbnz	x28, 4344 <printf_core+0x708>
    4388:	90000067 	adrp	x7, 10000 <__text_end+0x1600>
    438c:	913254fc 	add	x28, x7, #0xc95
    4390:	17ffffed 	b	4344 <printf_core+0x708>
    4394:	f94063e0 	ldr	x0, [sp, #192]
    4398:	12800018 	mov	w24, #0xffffffff            	// #-1
    439c:	29177fe0 	stp	w0, wzr, [sp, #184]
    43a0:	9102e3e0 	add	x0, sp, #0xb8
    43a4:	f90063e0 	str	x0, [sp, #192]
    43a8:	f94063f4 	ldr	x20, [sp, #192]
    43ac:	93407f18 	sxtw	x24, w24
    43b0:	d280001a 	mov	x26, #0x0                   	// #0
    43b4:	eb1a031f 	cmp	x24, x26
    43b8:	54000169 	b.ls	43e4 <printf_core+0x7a8>  // b.plast
    43bc:	b9400281 	ldr	w1, [x20]
    43c0:	34000121 	cbz	w1, 43e4 <printf_core+0x7a8>
    43c4:	f94047e0 	ldr	x0, [sp, #136]
    43c8:	91001294 	add	x20, x20, #0x4
    43cc:	9400034e 	bl	5104 <wctomb>
    43d0:	37ffda00 	tbnz	w0, #31, 3f10 <printf_core+0x2d4>
    43d4:	cb1a0301 	sub	x1, x24, x26
    43d8:	93407c02 	sxtw	x2, w0
    43dc:	eb20c03f 	cmp	x1, w0, sxtw
    43e0:	540003a2 	b.cs	4454 <printf_core+0x818>  // b.hs, b.nlast
    43e4:	b2407be0 	mov	x0, #0x7fffffff            	// #2147483647
    43e8:	eb00035f 	cmp	x26, x0
    43ec:	540002e8 	b.hi	4448 <printf_core+0x80c>  // b.pmore
    43f0:	2a1b03e4 	mov	w4, w27
    43f4:	2a1a03e3 	mov	w3, w26
    43f8:	2a1303e2 	mov	w2, w19
    43fc:	aa1503e0 	mov	x0, x21
    4400:	52800401 	mov	w1, #0x20                  	// #32
    4404:	97fffa84 	bl	2e14 <pad>
    4408:	f94063fc 	ldr	x28, [sp, #192]
    440c:	2a1a03f4 	mov	w20, w26
    4410:	d2800018 	mov	x24, #0x0                   	// #0
    4414:	eb18035f 	cmp	x26, x24
    4418:	54000228 	b.hi	445c <printf_core+0x820>  // b.pmore
    441c:	2a1403e3 	mov	w3, w20
    4420:	52130364 	eor	w4, w27, #0x2000
    4424:	2a1303e2 	mov	w2, w19
    4428:	aa1503e0 	mov	x0, x21
    442c:	52800401 	mov	w1, #0x20                  	// #32
    4430:	97fffa79 	bl	2e14 <pad>
    4434:	6b14027f 	cmp	w19, w20
    4438:	1a94a274 	csel	w20, w19, w20, ge  // ge = tcont
    443c:	b94083e0 	ldr	w0, [sp, #128]
    4440:	6b14001f 	cmp	w0, w20
    4444:	54ffc20a 	b.ge	3c84 <printf_core+0x48>  // b.tcont
    4448:	940002c9 	bl	4f6c <__errno_location>
    444c:	52800961 	mov	w1, #0x4b                  	// #75
    4450:	17fffeaf 	b	3f0c <printf_core+0x2d0>
    4454:	8b02035a 	add	x26, x26, x2
    4458:	17ffffd7 	b	43b4 <printf_core+0x778>
    445c:	b9400381 	ldr	w1, [x28]
    4460:	34fffde1 	cbz	w1, 441c <printf_core+0x7e0>
    4464:	f94047e0 	ldr	x0, [sp, #136]
    4468:	9100139c 	add	x28, x28, #0x4
    446c:	94000326 	bl	5104 <wctomb>
    4470:	8b20c318 	add	x24, x24, w0, sxtw
    4474:	93407c02 	sxtw	x2, w0
    4478:	eb1a031f 	cmp	x24, x26
    447c:	54fffd08 	b.hi	441c <printf_core+0x7e0>  // b.pmore
    4480:	f94047e1 	ldr	x1, [sp, #136]
    4484:	aa1503e0 	mov	x0, x21
    4488:	97fffa5b 	bl	2df4 <out>
    448c:	17ffffe2 	b	4414 <printf_core+0x7d8>
    4490:	6a587f5f 	tst	w26, w24, lsr #31
    4494:	54fffda1 	b.ne	4448 <printf_core+0x80c>  // b.any
    4498:	3dc033e0 	ldr	q0, [sp, #192]
    449c:	2a1b03e3 	mov	w3, w27
    44a0:	2a1803e2 	mov	w2, w24
    44a4:	2a1303e1 	mov	w1, w19
    44a8:	aa1503e0 	mov	x0, x21
    44ac:	97fffa81 	bl	2eb0 <fmt_fp>
    44b0:	2a0003f4 	mov	w20, w0
    44b4:	36fffc40 	tbz	w0, #31, 443c <printf_core+0x800>
    44b8:	17ffffe4 	b	4448 <printf_core+0x80c>
    44bc:	90000065 	adrp	x5, 10000 <__text_end+0x1600>
    44c0:	91322ca5 	add	x5, x5, #0xc8b
    44c4:	17ffff2c 	b	4174 <printf_core+0x538>
    44c8:	aa1903e2 	mov	x2, x25
    44cc:	aa1903fc 	mov	x28, x25
    44d0:	17ffff65 	b	4264 <printf_core+0x628>
    44d4:	f9403fe0 	ldr	x0, [sp, #120]
    44d8:	aa1703e2 	mov	x2, x23
    44dc:	8b131000 	add	x0, x0, x19, lsl #4
    44e0:	91000673 	add	x19, x19, #0x1
    44e4:	97fff990 	bl	2b24 <pop_arg>
    44e8:	f1002a7f 	cmp	x19, #0xa
    44ec:	54ffbdc1 	b.ne	3ca4 <printf_core+0x68>  // b.any
    44f0:	52800036 	mov	w22, #0x1                   	// #1
    44f4:	17fffecb 	b	4020 <printf_core+0x3e4>

00000000000044f8 <vfprintf>:
    44f8:	a9a753f3 	stp	x19, x20, [sp, #-400]!
    44fc:	aa0103f4 	mov	x20, x1
    4500:	aa0003f3 	mov	x19, x0
    4504:	a90263f7 	stp	x23, x24, [sp, #32]
    4508:	910163f8 	add	x24, sp, #0x58
    450c:	aa0203e1 	mov	x1, x2
    4510:	aa1803e0 	mov	x0, x24
    4514:	d2800402 	mov	x2, #0x20                  	// #32
    4518:	a9015bf5 	stp	x21, x22, [sp, #16]
    451c:	a9036bf9 	stp	x25, x26, [sp, #48]
    4520:	9101e3fa 	add	x26, sp, #0x78
    4524:	9103c3f9 	add	x25, sp, #0xf0
    4528:	f90023fe 	str	x30, [sp, #64]
    452c:	a907ffff 	stp	xzr, xzr, [sp, #120]
    4530:	a908ffff 	stp	xzr, xzr, [sp, #136]
    4534:	f9004fff 	str	xzr, [sp, #152]
    4538:	9400004c 	bl	4668 <memcpy>
    453c:	aa1a03e4 	mov	x4, x26
    4540:	aa1903e3 	mov	x3, x25
    4544:	aa1803e2 	mov	x2, x24
    4548:	aa1403e1 	mov	x1, x20
    454c:	d2800000 	mov	x0, #0x0                   	// #0
    4550:	97fffdbb 	bl	3c3c <printf_core>
    4554:	37f80860 	tbnz	w0, #31, 4660 <vfprintf+0x168>
    4558:	b9408e60 	ldr	w0, [x19, #140]
    455c:	37f80720 	tbnz	w0, #31, 4640 <vfprintf+0x148>
    4560:	aa1303e0 	mov	x0, x19
    4564:	94000379 	bl	5348 <__lockfile>
    4568:	2a0003f6 	mov	w22, w0
    456c:	b9400260 	ldr	w0, [x19]
    4570:	b9408a61 	ldr	w1, [x19, #136]
    4574:	121b0017 	and	w23, w0, #0x20
    4578:	7100003f 	cmp	w1, #0x0
    457c:	5400006c 	b.gt	4588 <vfprintf+0x90>
    4580:	121a7800 	and	w0, w0, #0xffffffdf
    4584:	b9000260 	str	w0, [x19]
    4588:	f9403260 	ldr	x0, [x19, #96]
    458c:	b50005e0 	cbnz	x0, 4648 <vfprintf+0x150>
    4590:	910283e0 	add	x0, sp, #0xa0
    4594:	a9027e7f 	stp	xzr, xzr, [x19, #32]
    4598:	f9001e7f 	str	xzr, [x19, #56]
    459c:	f9402e75 	ldr	x21, [x19, #88]
    45a0:	f9002e60 	str	x0, [x19, #88]
    45a4:	d2800a00 	mov	x0, #0x50                  	// #80
    45a8:	f9003260 	str	x0, [x19, #96]
    45ac:	aa1303e0 	mov	x0, x19
    45b0:	9400047c 	bl	57a0 <__towrite>
    45b4:	35000520 	cbnz	w0, 4658 <vfprintf+0x160>
    45b8:	aa1403e1 	mov	x1, x20
    45bc:	aa1a03e4 	mov	x4, x26
    45c0:	aa1903e3 	mov	x3, x25
    45c4:	aa1803e2 	mov	x2, x24
    45c8:	aa1303e0 	mov	x0, x19
    45cc:	97fffd9c 	bl	3c3c <printf_core>
    45d0:	2a0003f4 	mov	w20, w0
    45d4:	b4000195 	cbz	x21, 4604 <vfprintf+0x10c>
    45d8:	f9402663 	ldr	x3, [x19, #72]
    45dc:	aa1303e0 	mov	x0, x19
    45e0:	d2800002 	mov	x2, #0x0                   	// #0
    45e4:	d2800001 	mov	x1, #0x0                   	// #0
    45e8:	d63f0060 	blr	x3
    45ec:	f9001e7f 	str	xzr, [x19, #56]
    45f0:	f9401660 	ldr	x0, [x19, #40]
    45f4:	a9027e7f 	stp	xzr, xzr, [x19, #32]
    45f8:	f100001f 	cmp	x0, #0x0
    45fc:	a905fe75 	stp	x21, xzr, [x19, #88]
    4600:	5a9f1294 	csinv	w20, w20, wzr, ne  // ne = any
    4604:	b9400260 	ldr	w0, [x19]
    4608:	2a0002f7 	orr	w23, w23, w0
    460c:	b9000277 	str	w23, [x19]
    4610:	f27b001f 	tst	x0, #0x20
    4614:	5a9f0294 	csinv	w20, w20, wzr, eq  // eq = none
    4618:	34000076 	cbz	w22, 4624 <vfprintf+0x12c>
    461c:	aa1303e0 	mov	x0, x19
    4620:	9400037f 	bl	541c <__unlockfile>
    4624:	2a1403e0 	mov	w0, w20
    4628:	a9415bf5 	ldp	x21, x22, [sp, #16]
    462c:	a94263f7 	ldp	x23, x24, [sp, #32]
    4630:	a9436bf9 	ldp	x25, x26, [sp, #48]
    4634:	f94023fe 	ldr	x30, [sp, #64]
    4638:	a8d953f3 	ldp	x19, x20, [sp], #400
    463c:	d65f03c0 	ret
    4640:	52800016 	mov	w22, #0x0                   	// #0
    4644:	17ffffca 	b	456c <vfprintf+0x74>
    4648:	f9401275 	ldr	x21, [x19, #32]
    464c:	b4fffb15 	cbz	x21, 45ac <vfprintf+0xb4>
    4650:	d2800015 	mov	x21, #0x0                   	// #0
    4654:	17ffffd9 	b	45b8 <vfprintf+0xc0>
    4658:	12800014 	mov	w20, #0xffffffff            	// #-1
    465c:	17ffffde 	b	45d4 <vfprintf+0xdc>
    4660:	12800014 	mov	w20, #0xffffffff            	// #-1
    4664:	17fffff0 	b	4624 <vfprintf+0x12c>

0000000000004668 <memcpy>:
    4668:	aa0003e3 	mov	x3, x0
    466c:	f240043f 	tst	x1, #0x3
    4670:	54000040 	b.eq	4678 <memcpy+0x10>  // b.none
    4674:	b5000462 	cbnz	x2, 4700 <memcpy+0x98>
    4678:	f2400465 	ands	x5, x3, #0x3
    467c:	54000601 	b.ne	473c <memcpy+0xd4>  // b.any
    4680:	927cec46 	and	x6, x2, #0xfffffffffffffff0
    4684:	d344fc45 	lsr	x5, x2, #4
    4688:	8b060027 	add	x7, x1, x6
    468c:	aa0303e4 	mov	x4, x3
    4690:	eb0100ff 	cmp	x7, x1
    4694:	540003e1 	b.ne	4710 <memcpy+0xa8>  // b.any
    4698:	928001e4 	mov	x4, #0xfffffffffffffff0    	// #-16
    469c:	9b0408a5 	madd	x5, x5, x4, x2
    46a0:	8b060064 	add	x4, x3, x6
    46a4:	361800e2 	tbz	w2, #3, 46c0 <memcpy+0x58>
    46a8:	b9400022 	ldr	w2, [x1]
    46ac:	91002084 	add	x4, x4, #0x8
    46b0:	b8266862 	str	w2, [x3, x6]
    46b4:	91002021 	add	x1, x1, #0x8
    46b8:	b85fc022 	ldur	w2, [x1, #-4]
    46bc:	b81fc082 	stur	w2, [x4, #-4]
    46c0:	36100065 	tbz	w5, #2, 46cc <memcpy+0x64>
    46c4:	b8404422 	ldr	w2, [x1], #4
    46c8:	b8004482 	str	w2, [x4], #4
    46cc:	36080125 	tbz	w5, #1, 46f0 <memcpy+0x88>
    46d0:	aa0103e3 	mov	x3, x1
    46d4:	aa0403e2 	mov	x2, x4
    46d8:	39400421 	ldrb	w1, [x1, #1]
    46dc:	38402466 	ldrb	w6, [x3], #2
    46e0:	38002446 	strb	w6, [x2], #2
    46e4:	39000481 	strb	w1, [x4, #1]
    46e8:	aa0303e1 	mov	x1, x3
    46ec:	aa0203e4 	mov	x4, x2
    46f0:	36000065 	tbz	w5, #0, 46fc <memcpy+0x94>
    46f4:	39400021 	ldrb	w1, [x1]
    46f8:	39000081 	strb	w1, [x4]
    46fc:	d65f03c0 	ret
    4700:	38401424 	ldrb	w4, [x1], #1
    4704:	d1000442 	sub	x2, x2, #0x1
    4708:	38001464 	strb	w4, [x3], #1
    470c:	17ffffd8 	b	466c <memcpy+0x4>
    4710:	b9400028 	ldr	w8, [x1]
    4714:	91004084 	add	x4, x4, #0x10
    4718:	b81f0088 	stur	w8, [x4, #-16]
    471c:	91004021 	add	x1, x1, #0x10
    4720:	b85f4028 	ldur	w8, [x1, #-12]
    4724:	b81f4088 	stur	w8, [x4, #-12]
    4728:	b85f8028 	ldur	w8, [x1, #-8]
    472c:	b81f8088 	stur	w8, [x4, #-8]
    4730:	b85fc028 	ldur	w8, [x1, #-4]
    4734:	b81fc088 	stur	w8, [x4, #-4]
    4738:	17ffffd6 	b	4690 <memcpy+0x28>
    473c:	f1007c5f 	cmp	x2, #0x1f
    4740:	54000549 	b.ls	47e8 <memcpy+0x180>  // b.plast
    4744:	39400026 	ldrb	w6, [x1]
    4748:	f10008bf 	cmp	x5, #0x2
    474c:	b9400024 	ldr	w4, [x1]
    4750:	8b020068 	add	x8, x3, x2
    4754:	54000e60 	b.eq	4920 <memcpy+0x2b8>  // b.none
    4758:	f1000cbf 	cmp	x5, #0x3
    475c:	54001200 	b.eq	499c <memcpy+0x334>  // b.none
    4760:	39400425 	ldrb	w5, [x1, #1]
    4764:	91000c27 	add	x7, x1, #0x3
    4768:	39400821 	ldrb	w1, [x1, #2]
    476c:	39000066 	strb	w6, [x3]
    4770:	91000c66 	add	x6, x3, #0x3
    4774:	39000465 	strb	w5, [x3, #1]
    4778:	39000861 	strb	w1, [x3, #2]
    477c:	aa0703e3 	mov	x3, x7
    4780:	aa0603e1 	mov	x1, x6
    4784:	b8401065 	ldur	w5, [x3, #1]
    4788:	91004021 	add	x1, x1, #0x10
    478c:	91004063 	add	x3, x3, #0x10
    4790:	138460a4 	extr	w4, w5, w4, #24
    4794:	b81f0024 	stur	w4, [x1, #-16]
    4798:	b85f5064 	ldur	w4, [x3, #-11]
    479c:	13856085 	extr	w5, w4, w5, #24
    47a0:	b81f4025 	stur	w5, [x1, #-12]
    47a4:	b85f9065 	ldur	w5, [x3, #-7]
    47a8:	138460a4 	extr	w4, w5, w4, #24
    47ac:	b81f8024 	stur	w4, [x1, #-8]
    47b0:	b85fd064 	ldur	w4, [x3, #-3]
    47b4:	13856085 	extr	w5, w4, w5, #24
    47b8:	b81fc025 	stur	w5, [x1, #-4]
    47bc:	cb010105 	sub	x5, x8, x1
    47c0:	f10040bf 	cmp	x5, #0x10
    47c4:	54fffe08 	b.hi	4784 <memcpy+0x11c>  // b.pmore
    47c8:	d1005044 	sub	x4, x2, #0x14
    47cc:	d1004c42 	sub	x2, x2, #0x13
    47d0:	d344fc84 	lsr	x4, x4, #4
    47d4:	91000483 	add	x3, x4, #0x1
    47d8:	8b0310e1 	add	x1, x7, x3, lsl #4
    47dc:	8b0310c3 	add	x3, x6, x3, lsl #4
    47e0:	928001e5 	mov	x5, #0xfffffffffffffff0    	// #-16
    47e4:	9b050882 	madd	x2, x4, x5, x2
    47e8:	36200462 	tbz	w2, #4, 4874 <memcpy+0x20c>
    47ec:	39400024 	ldrb	w4, [x1]
    47f0:	91004063 	add	x3, x3, #0x10
    47f4:	381f0064 	sturb	w4, [x3, #-16]
    47f8:	91004021 	add	x1, x1, #0x10
    47fc:	385f1024 	ldurb	w4, [x1, #-15]
    4800:	381f1064 	sturb	w4, [x3, #-15]
    4804:	385f2024 	ldurb	w4, [x1, #-14]
    4808:	381f2064 	sturb	w4, [x3, #-14]
    480c:	385f3024 	ldurb	w4, [x1, #-13]
    4810:	381f3064 	sturb	w4, [x3, #-13]
    4814:	385f4024 	ldurb	w4, [x1, #-12]
    4818:	381f4064 	sturb	w4, [x3, #-12]
    481c:	385f5024 	ldurb	w4, [x1, #-11]
    4820:	381f5064 	sturb	w4, [x3, #-11]
    4824:	385f6024 	ldurb	w4, [x1, #-10]
    4828:	381f6064 	sturb	w4, [x3, #-10]
    482c:	385f7024 	ldurb	w4, [x1, #-9]
    4830:	381f7064 	sturb	w4, [x3, #-9]
    4834:	385f8024 	ldurb	w4, [x1, #-8]
    4838:	381f8064 	sturb	w4, [x3, #-8]
    483c:	385f9024 	ldurb	w4, [x1, #-7]
    4840:	381f9064 	sturb	w4, [x3, #-7]
    4844:	385fa024 	ldurb	w4, [x1, #-6]
    4848:	381fa064 	sturb	w4, [x3, #-6]
    484c:	385fb024 	ldurb	w4, [x1, #-5]
    4850:	381fb064 	sturb	w4, [x3, #-5]
    4854:	385fc024 	ldurb	w4, [x1, #-4]
    4858:	381fc064 	sturb	w4, [x3, #-4]
    485c:	385fd024 	ldurb	w4, [x1, #-3]
    4860:	381fd064 	sturb	w4, [x3, #-3]
    4864:	385fe024 	ldurb	w4, [x1, #-2]
    4868:	381fe064 	sturb	w4, [x3, #-2]
    486c:	385ff024 	ldurb	w4, [x1, #-1]
    4870:	381ff064 	sturb	w4, [x3, #-1]
    4874:	36180262 	tbz	w2, #3, 48c0 <memcpy+0x258>
    4878:	39400024 	ldrb	w4, [x1]
    487c:	91002063 	add	x3, x3, #0x8
    4880:	381f8064 	sturb	w4, [x3, #-8]
    4884:	91002021 	add	x1, x1, #0x8
    4888:	385f9024 	ldurb	w4, [x1, #-7]
    488c:	381f9064 	sturb	w4, [x3, #-7]
    4890:	385fa024 	ldurb	w4, [x1, #-6]
    4894:	381fa064 	sturb	w4, [x3, #-6]
    4898:	385fb024 	ldurb	w4, [x1, #-5]
    489c:	381fb064 	sturb	w4, [x3, #-5]
    48a0:	385fc024 	ldurb	w4, [x1, #-4]
    48a4:	381fc064 	sturb	w4, [x3, #-4]
    48a8:	385fd024 	ldurb	w4, [x1, #-3]
    48ac:	381fd064 	sturb	w4, [x3, #-3]
    48b0:	385fe024 	ldurb	w4, [x1, #-2]
    48b4:	381fe064 	sturb	w4, [x3, #-2]
    48b8:	385ff024 	ldurb	w4, [x1, #-1]
    48bc:	381ff064 	sturb	w4, [x3, #-1]
    48c0:	36100162 	tbz	w2, #2, 48ec <memcpy+0x284>
    48c4:	39400024 	ldrb	w4, [x1]
    48c8:	91001063 	add	x3, x3, #0x4
    48cc:	381fc064 	sturb	w4, [x3, #-4]
    48d0:	91001021 	add	x1, x1, #0x4
    48d4:	385fd024 	ldurb	w4, [x1, #-3]
    48d8:	381fd064 	sturb	w4, [x3, #-3]
    48dc:	385fe024 	ldurb	w4, [x1, #-2]
    48e0:	381fe064 	sturb	w4, [x3, #-2]
    48e4:	385ff024 	ldurb	w4, [x1, #-1]
    48e8:	381ff064 	sturb	w4, [x3, #-1]
    48ec:	36080122 	tbz	w2, #1, 4910 <memcpy+0x2a8>
    48f0:	aa0103e5 	mov	x5, x1
    48f4:	aa0303e4 	mov	x4, x3
    48f8:	39400421 	ldrb	w1, [x1, #1]
    48fc:	384024a6 	ldrb	w6, [x5], #2
    4900:	38002486 	strb	w6, [x4], #2
    4904:	39000461 	strb	w1, [x3, #1]
    4908:	aa0503e1 	mov	x1, x5
    490c:	aa0403e3 	mov	x3, x4
    4910:	3607ef62 	tbz	w2, #0, 46fc <memcpy+0x94>
    4914:	39400021 	ldrb	w1, [x1]
    4918:	39000061 	strb	w1, [x3]
    491c:	17ffff78 	b	46fc <memcpy+0x94>
    4920:	aa0303e5 	mov	x5, x3
    4924:	91000827 	add	x7, x1, #0x2
    4928:	39400421 	ldrb	w1, [x1, #1]
    492c:	380024a6 	strb	w6, [x5], #2
    4930:	39000461 	strb	w1, [x3, #1]
    4934:	aa0703e3 	mov	x3, x7
    4938:	aa0503e1 	mov	x1, x5
    493c:	b8402066 	ldur	w6, [x3, #2]
    4940:	91004021 	add	x1, x1, #0x10
    4944:	91004063 	add	x3, x3, #0x10
    4948:	138440c4 	extr	w4, w6, w4, #16
    494c:	b81f0024 	stur	w4, [x1, #-16]
    4950:	b85f6064 	ldur	w4, [x3, #-10]
    4954:	13864086 	extr	w6, w4, w6, #16
    4958:	b81f4026 	stur	w6, [x1, #-12]
    495c:	b85fa066 	ldur	w6, [x3, #-6]
    4960:	138440c4 	extr	w4, w6, w4, #16
    4964:	b81f8024 	stur	w4, [x1, #-8]
    4968:	b85fe064 	ldur	w4, [x3, #-2]
    496c:	13864086 	extr	w6, w4, w6, #16
    4970:	b81fc026 	stur	w6, [x1, #-4]
    4974:	cb010106 	sub	x6, x8, x1
    4978:	f10044df 	cmp	x6, #0x11
    497c:	54fffe08 	b.hi	493c <memcpy+0x2d4>  // b.pmore
    4980:	d1005044 	sub	x4, x2, #0x14
    4984:	d1004842 	sub	x2, x2, #0x12
    4988:	d344fc84 	lsr	x4, x4, #4
    498c:	91000483 	add	x3, x4, #0x1
    4990:	8b0310e1 	add	x1, x7, x3, lsl #4
    4994:	8b0310a3 	add	x3, x5, x3, lsl #4
    4998:	17ffff92 	b	47e0 <memcpy+0x178>
    499c:	38001466 	strb	w6, [x3], #1
    49a0:	91000421 	add	x1, x1, #0x1
    49a4:	aa0103e6 	mov	x6, x1
    49a8:	aa0303e5 	mov	x5, x3
    49ac:	b84030c7 	ldur	w7, [x6, #3]
    49b0:	910040a5 	add	x5, x5, #0x10
    49b4:	910040c6 	add	x6, x6, #0x10
    49b8:	138420e4 	extr	w4, w7, w4, #8
    49bc:	b81f00a4 	stur	w4, [x5, #-16]
    49c0:	b85f70c4 	ldur	w4, [x6, #-9]
    49c4:	13872087 	extr	w7, w4, w7, #8
    49c8:	b81f40a7 	stur	w7, [x5, #-12]
    49cc:	b85fb0c7 	ldur	w7, [x6, #-5]
    49d0:	138420e4 	extr	w4, w7, w4, #8
    49d4:	b81f80a4 	stur	w4, [x5, #-8]
    49d8:	b85ff0c4 	ldur	w4, [x6, #-1]
    49dc:	13872087 	extr	w7, w4, w7, #8
    49e0:	b81fc0a7 	stur	w7, [x5, #-4]
    49e4:	cb050107 	sub	x7, x8, x5
    49e8:	f10048ff 	cmp	x7, #0x12
    49ec:	54fffe08 	b.hi	49ac <memcpy+0x344>  // b.pmore
    49f0:	d1005044 	sub	x4, x2, #0x14
    49f4:	d1004442 	sub	x2, x2, #0x11
    49f8:	d344fc84 	lsr	x4, x4, #4
    49fc:	91000485 	add	x5, x4, #0x1
    4a00:	8b051021 	add	x1, x1, x5, lsl #4
    4a04:	8b051063 	add	x3, x3, x5, lsl #4
    4a08:	17ffff76 	b	47e0 <memcpy+0x178>

0000000000004a0c <memset>:
    4a0c:	b4000602 	cbz	x2, 4acc <memset+0xc0>
    4a10:	8b020004 	add	x4, x0, x2
    4a14:	12001c23 	and	w3, w1, #0xff
    4a18:	39000003 	strb	w3, [x0]
    4a1c:	f100085f 	cmp	x2, #0x2
    4a20:	381ff083 	sturb	w3, [x4, #-1]
    4a24:	54000549 	b.ls	4acc <memset+0xc0>  // b.plast
    4a28:	39000403 	strb	w3, [x0, #1]
    4a2c:	f100185f 	cmp	x2, #0x6
    4a30:	39000803 	strb	w3, [x0, #2]
    4a34:	381fd083 	sturb	w3, [x4, #-3]
    4a38:	381fe083 	sturb	w3, [x4, #-2]
    4a3c:	54000489 	b.ls	4acc <memset+0xc0>  // b.plast
    4a40:	39000c03 	strb	w3, [x0, #3]
    4a44:	f100205f 	cmp	x2, #0x8
    4a48:	381fc083 	sturb	w3, [x4, #-4]
    4a4c:	54000409 	b.ls	4acc <memset+0xc0>  // b.plast
    4a50:	cb0003e4 	neg	x4, x0
    4a54:	12001c21 	and	w1, w1, #0xff
    4a58:	92400484 	and	x4, x4, #0x3
    4a5c:	3200c3e5 	mov	w5, #0x1010101             	// #16843009
    4a60:	cb040042 	sub	x2, x2, x4
    4a64:	8b040003 	add	x3, x0, x4
    4a68:	1b057c21 	mul	w1, w1, w5
    4a6c:	927ef442 	and	x2, x2, #0xfffffffffffffffc
    4a70:	b8246801 	str	w1, [x0, x4]
    4a74:	8b020064 	add	x4, x3, x2
    4a78:	f100205f 	cmp	x2, #0x8
    4a7c:	b81fc081 	stur	w1, [x4, #-4]
    4a80:	54000269 	b.ls	4acc <memset+0xc0>  // b.plast
    4a84:	29008461 	stp	w1, w1, [x3, #4]
    4a88:	f100605f 	cmp	x2, #0x18
    4a8c:	293e8481 	stp	w1, w1, [x4, #-12]
    4a90:	540001e9 	b.ls	4acc <memset+0xc0>  // b.plast
    4a94:	29018461 	stp	w1, w1, [x3, #12]
    4a98:	2a0103e5 	mov	w5, w1
    4a9c:	29028461 	stp	w1, w1, [x3, #20]
    4aa0:	293c8481 	stp	w1, w1, [x4, #-28]
    4aa4:	293d8481 	stp	w1, w1, [x4, #-20]
    4aa8:	927e0064 	and	x4, x3, #0x4
    4aac:	91006084 	add	x4, x4, #0x18
    4ab0:	aa0180a1 	orr	x1, x5, x1, lsl #32
    4ab4:	cb040042 	sub	x2, x2, x4
    4ab8:	8b040063 	add	x3, x3, x4
    4abc:	927be842 	and	x2, x2, #0xffffffffffffffe0
    4ac0:	8b020062 	add	x2, x3, x2
    4ac4:	eb02007f 	cmp	x3, x2
    4ac8:	54000041 	b.ne	4ad0 <memset+0xc4>  // b.any
    4acc:	d65f03c0 	ret
    4ad0:	a9000461 	stp	x1, x1, [x3]
    4ad4:	a9010461 	stp	x1, x1, [x3, #16]
    4ad8:	91008063 	add	x3, x3, #0x20
    4adc:	17fffffa 	b	4ac4 <memset+0xb8>

0000000000004ae0 <strchr>:
    4ae0:	a9bf7bf3 	stp	x19, x30, [sp, #-16]!
    4ae4:	2a0103f3 	mov	w19, w1
    4ae8:	94000006 	bl	4b00 <strchrnul>
    4aec:	39400001 	ldrb	w1, [x0]
    4af0:	6b33003f 	cmp	w1, w19, uxtb
    4af4:	9a9f0000 	csel	x0, x0, xzr, eq  // eq = none
    4af8:	a8c17bf3 	ldp	x19, x30, [sp], #16
    4afc:	d65f03c0 	ret

0000000000004b00 <strchrnul>:
    4b00:	a9bf7bf3 	stp	x19, x30, [sp, #-16]!
    4b04:	72001c21 	ands	w1, w1, #0xff
    4b08:	aa0003f3 	mov	x19, x0
    4b0c:	54000161 	b.ne	4b38 <strchrnul+0x38>  // b.any
    4b10:	94000022 	bl	4b98 <strlen>
    4b14:	8b000273 	add	x19, x19, x0
    4b18:	aa1303e0 	mov	x0, x19
    4b1c:	a8c17bf3 	ldp	x19, x30, [sp], #16
    4b20:	d65f03c0 	ret
    4b24:	39400260 	ldrb	w0, [x19]
    4b28:	34ffff80 	cbz	w0, 4b18 <strchrnul+0x18>
    4b2c:	6b01001f 	cmp	w0, w1
    4b30:	54ffff40 	b.eq	4b18 <strchrnul+0x18>  // b.none
    4b34:	91000673 	add	x19, x19, #0x1
    4b38:	f2400a7f 	tst	x19, #0x7
    4b3c:	54ffff41 	b.ne	4b24 <strchrnul+0x24>  // b.any
    4b40:	93407c23 	sxtw	x3, w1
    4b44:	b200c3e0 	mov	x0, #0x101010101010101     	// #72340172838076673
    4b48:	b207dbe4 	mov	x4, #0xfefefefefefefefe    	// #-72340172838076674
    4b4c:	f29fdfe4 	movk	x4, #0xfeff
    4b50:	9b007c63 	mul	x3, x3, x0
    4b54:	f9400260 	ldr	x0, [x19]
    4b58:	ca030002 	eor	x2, x0, x3
    4b5c:	8b040005 	add	x5, x0, x4
    4b60:	8a2000a0 	bic	x0, x5, x0
    4b64:	8b040045 	add	x5, x2, x4
    4b68:	8a2200a2 	bic	x2, x5, x2
    4b6c:	aa020000 	orr	x0, x0, x2
    4b70:	f201c01f 	tst	x0, #0x8080808080808080
    4b74:	540000e0 	b.eq	4b90 <strchrnul+0x90>  // b.none
    4b78:	39400260 	ldrb	w0, [x19]
    4b7c:	34fffce0 	cbz	w0, 4b18 <strchrnul+0x18>
    4b80:	6b01001f 	cmp	w0, w1
    4b84:	54fffca0 	b.eq	4b18 <strchrnul+0x18>  // b.none
    4b88:	91000673 	add	x19, x19, #0x1
    4b8c:	17fffffb 	b	4b78 <strchrnul+0x78>
    4b90:	91002273 	add	x19, x19, #0x8
    4b94:	17fffff0 	b	4b54 <strchrnul+0x54>

0000000000004b98 <strlen>:
    4b98:	aa0003e1 	mov	x1, x0
    4b9c:	f240083f 	tst	x1, #0x7
    4ba0:	54000181 	b.ne	4bd0 <strlen+0x38>  // b.any
    4ba4:	b207dbe4 	mov	x4, #0xfefefefefefefefe    	// #-72340172838076674
    4ba8:	f29fdfe4 	movk	x4, #0xfeff
    4bac:	f9400022 	ldr	x2, [x1]
    4bb0:	8b040043 	add	x3, x2, x4
    4bb4:	8a220062 	bic	x2, x3, x2
    4bb8:	f201c05f 	tst	x2, #0x8080808080808080
    4bbc:	54000160 	b.eq	4be8 <strlen+0x50>  // b.none
    4bc0:	39400022 	ldrb	w2, [x1]
    4bc4:	340000a2 	cbz	w2, 4bd8 <strlen+0x40>
    4bc8:	91000421 	add	x1, x1, #0x1
    4bcc:	17fffffd 	b	4bc0 <strlen+0x28>
    4bd0:	39400022 	ldrb	w2, [x1]
    4bd4:	35000062 	cbnz	w2, 4be0 <strlen+0x48>
    4bd8:	cb000020 	sub	x0, x1, x0
    4bdc:	d65f03c0 	ret
    4be0:	91000421 	add	x1, x1, #0x1
    4be4:	17ffffee 	b	4b9c <strlen+0x4>
    4be8:	91002021 	add	x1, x1, #0x8
    4bec:	17fffff0 	b	4bac <strlen+0x14>

0000000000004bf0 <strnlen>:
    4bf0:	a9be53f3 	stp	x19, x20, [sp, #-32]!
    4bf4:	aa0103e2 	mov	x2, x1
    4bf8:	aa0103f3 	mov	x19, x1
    4bfc:	aa0003f4 	mov	x20, x0
    4c00:	52800001 	mov	w1, #0x0                   	// #0
    4c04:	f9000bfe 	str	x30, [sp, #16]
    4c08:	940003f0 	bl	5bc8 <memchr>
    4c0c:	b4000040 	cbz	x0, 4c14 <strnlen+0x24>
    4c10:	cb140013 	sub	x19, x0, x20
    4c14:	aa1303e0 	mov	x0, x19
    4c18:	f9400bfe 	ldr	x30, [sp, #16]
    4c1c:	a8c253f3 	ldp	x19, x20, [sp], #32
    4c20:	d65f03c0 	ret

0000000000004c24 <__lock>:
    4c24:	a9bd53f3 	stp	x19, x20, [sp, #-48]!
    4c28:	aa0003f4 	mov	x20, x0
    4c2c:	f0000060 	adrp	x0, 13000 <_DYNAMIC>
    4c30:	911c2001 	add	x1, x0, #0x708
    4c34:	a9015bf5 	stp	x21, x22, [sp, #16]
    4c38:	a9027bf7 	stp	x23, x30, [sp, #32]
    4c3c:	39400c22 	ldrb	w2, [x1, #3]
    4c40:	13001c42 	sxtb	w2, w2
    4c44:	34000702 	cbz	w2, 4d24 <__lock+0x100>
    4c48:	320107e3 	mov	w3, #0x80000001            	// #-2147483647
    4c4c:	885ffe81 	ldaxr	w1, [x20]
    4c50:	34000601 	cbz	w1, 4d10 <__lock+0xec>
    4c54:	d5033bbf 	dmb	ish
    4c58:	36f80062 	tbz	w2, #31, 4c64 <__lock+0x40>
    4c5c:	911c2000 	add	x0, x0, #0x708
    4c60:	39000c1f 	strb	wzr, [x0, #3]
    4c64:	52800142 	mov	w2, #0xa                   	// #10
    4c68:	12b00004 	mov	w4, #0x7fffffff            	// #2147483647
    4c6c:	320107e5 	mov	w5, #0x80000001            	// #-2147483647
    4c70:	0b040020 	add	w0, w1, w4
    4c74:	7100003f 	cmp	w1, #0x0
    4c78:	1a81b000 	csel	w0, w0, w1, lt  // lt = tstop
    4c7c:	0b050003 	add	w3, w0, w5
    4c80:	885ffe81 	ldaxr	w1, [x20]
    4c84:	6b01001f 	cmp	w0, w1
    4c88:	54000560 	b.eq	4d34 <__lock+0x110>  // b.none
    4c8c:	d5033bbf 	dmb	ish
    4c90:	71000442 	subs	w2, w2, #0x1
    4c94:	54fffee1 	b.ne	4c70 <__lock+0x4c>  // b.any
    4c98:	885ffe93 	ldaxr	w19, [x20]
    4c9c:	11000673 	add	w19, w19, #0x1
    4ca0:	8800fe93 	stlxr	w0, w19, [x20]
    4ca4:	35ffffa0 	cbnz	w0, 4c98 <__lock+0x74>
    4ca8:	12b00017 	mov	w23, #0x7fffffff            	// #2147483647
    4cac:	52b00016 	mov	w22, #0x80000000            	// #-2147483648
    4cb0:	36f80233 	tbz	w19, #31, 4cf4 <__lock+0xd0>
    4cb4:	93407e75 	sxtw	x21, w19
    4cb8:	aa1403e1 	mov	x1, x20
    4cbc:	aa1503e3 	mov	x3, x21
    4cc0:	d2800004 	mov	x4, #0x0                   	// #0
    4cc4:	d2801002 	mov	x2, #0x80                  	// #128
    4cc8:	d2800c40 	mov	x0, #0x62                  	// #98
    4ccc:	9400094d 	bl	7200 <__syscall4>
    4cd0:	b100981f 	cmn	x0, #0x26
    4cd4:	540000e1 	b.ne	4cf0 <__lock+0xcc>  // b.any
    4cd8:	aa1503e3 	mov	x3, x21
    4cdc:	aa1403e1 	mov	x1, x20
    4ce0:	d2800004 	mov	x4, #0x0                   	// #0
    4ce4:	d2800002 	mov	x2, #0x0                   	// #0
    4ce8:	d2800c40 	mov	x0, #0x62                  	// #98
    4cec:	94000945 	bl	7200 <__syscall4>
    4cf0:	0b170273 	add	w19, w19, w23
    4cf4:	0b160260 	add	w0, w19, w22
    4cf8:	885ffe81 	ldaxr	w1, [x20]
    4cfc:	6b01027f 	cmp	w19, w1
    4d00:	54000200 	b.eq	4d40 <__lock+0x11c>  // b.none
    4d04:	d5033bbf 	dmb	ish
    4d08:	2a0103f3 	mov	w19, w1
    4d0c:	17ffffe9 	b	4cb0 <__lock+0x8c>
    4d10:	8801fe83 	stlxr	w1, w3, [x20]
    4d14:	35fff9c1 	cbnz	w1, 4c4c <__lock+0x28>
    4d18:	36f80062 	tbz	w2, #31, 4d24 <__lock+0x100>
    4d1c:	911c2000 	add	x0, x0, #0x708
    4d20:	39000c1f 	strb	wzr, [x0, #3]
    4d24:	a9415bf5 	ldp	x21, x22, [sp, #16]
    4d28:	a9427bf7 	ldp	x23, x30, [sp, #32]
    4d2c:	a8c353f3 	ldp	x19, x20, [sp], #48
    4d30:	d65f03c0 	ret
    4d34:	8801fe83 	stlxr	w1, w3, [x20]
    4d38:	35fffa41 	cbnz	w1, 4c80 <__lock+0x5c>
    4d3c:	17fffffa 	b	4d24 <__lock+0x100>
    4d40:	8801fe80 	stlxr	w1, w0, [x20]
    4d44:	35fffda1 	cbnz	w1, 4cf8 <__lock+0xd4>
    4d48:	17fffff7 	b	4d24 <__lock+0x100>

0000000000004d4c <__unlock>:
    4d4c:	a9bf7bf3 	stp	x19, x30, [sp, #-16]!
    4d50:	aa0003f3 	mov	x19, x0
    4d54:	b9400000 	ldr	w0, [x0]
    4d58:	36f802c0 	tbz	w0, #31, 4db0 <__unlock+0x64>
    4d5c:	12b00003 	mov	w3, #0x7fffffff            	// #2147483647
    4d60:	885ffe60 	ldaxr	w0, [x19]
    4d64:	0b030001 	add	w1, w0, w3
    4d68:	8802fe61 	stlxr	w2, w1, [x19]
    4d6c:	35ffffa2 	cbnz	w2, 4d60 <__unlock+0x14>
    4d70:	320107e1 	mov	w1, #0x80000001            	// #-2147483647
    4d74:	6b01001f 	cmp	w0, w1
    4d78:	540001c0 	b.eq	4db0 <__unlock+0x64>  // b.none
    4d7c:	aa1303e1 	mov	x1, x19
    4d80:	d2800023 	mov	x3, #0x1                   	// #1
    4d84:	d2801022 	mov	x2, #0x81                  	// #129
    4d88:	d2800c40 	mov	x0, #0x62                  	// #98
    4d8c:	94000919 	bl	71f0 <__syscall3>
    4d90:	b100981f 	cmn	x0, #0x26
    4d94:	540000e1 	b.ne	4db0 <__unlock+0x64>  // b.any
    4d98:	aa1303e1 	mov	x1, x19
    4d9c:	d2800023 	mov	x3, #0x1                   	// #1
    4da0:	a8c17bf3 	ldp	x19, x30, [sp], #16
    4da4:	aa0303e2 	mov	x2, x3
    4da8:	d2800c40 	mov	x0, #0x62                  	// #98
    4dac:	14000911 	b	71f0 <__syscall3>
    4db0:	a8c17bf3 	ldp	x19, x30, [sp], #16
    4db4:	d65f03c0 	ret

0000000000004db8 <trace_set_level>:
    4db8:	f0000061 	adrp	x1, 13000 <_DYNAMIC>
    4dbc:	f940a421 	ldr	x1, [x1, #328]
    4dc0:	b9000020 	str	w0, [x1]
    4dc4:	d65f03c0 	ret

0000000000004dc8 <trace_vprintf>:
    4dc8:	a9ab53f3 	stp	x19, x20, [sp, #-336]!
    4dcc:	72001c7f 	tst	w3, #0xff
    4dd0:	a9015bf5 	stp	x21, x22, [sp, #16]
    4dd4:	aa0403f5 	mov	x21, x4
    4dd8:	aa0503f6 	mov	x22, x5
    4ddc:	a9027bf7 	stp	x23, x30, [sp, #32]
    4de0:	54000840 	b.eq	4ee8 <trace_vprintf+0x120>  // b.none
    4de4:	f0000060 	adrp	x0, 13000 <_DYNAMIC>
    4de8:	f940a400 	ldr	x0, [x0, #328]
    4dec:	b9400000 	ldr	w0, [x0]
    4df0:	6b02001f 	cmp	w0, w2
    4df4:	5400072b 	b.lt	4ed8 <trace_vprintf+0x110>  // b.tstop
    4df8:	7100145f 	cmp	w2, #0x5
    4dfc:	90000060 	adrp	x0, 10000 <__text_end+0x1600>
    4e00:	1a9f3042 	csel	w2, w2, wzr, cc  // cc = lo, ul, last
    4e04:	913a1000 	add	x0, x0, #0xe84
    4e08:	3862c803 	ldrb	w3, [x0, w2, sxtw]
    4e0c:	910143f4 	add	x20, sp, #0x50
    4e10:	90000062 	adrp	x2, 10000 <__text_end+0x1600>
    4e14:	aa1403e0 	mov	x0, x20
    4e18:	9139f042 	add	x2, x2, #0xe7c
    4e1c:	d2802001 	mov	x1, #0x100                 	// #256
    4e20:	940002ec 	bl	59d0 <snprintf>
    4e24:	37f805a0 	tbnz	w0, #31, 4ed8 <trace_vprintf+0x110>
    4e28:	f0000063 	adrp	x3, 13000 <_DYNAMIC>
    4e2c:	d2802017 	mov	x23, #0x100                 	// #256
    4e30:	93407c13 	sxtw	x19, w0
    4e34:	cb20c2e1 	sub	x1, x23, w0, sxtw
    4e38:	f940a863 	ldr	x3, [x3, #336]
    4e3c:	90000062 	adrp	x2, 10000 <__text_end+0x1600>
    4e40:	8b20c280 	add	x0, x20, w0, sxtw
    4e44:	913a0042 	add	x2, x2, #0xe80
    4e48:	940002e2 	bl	59d0 <snprintf>
    4e4c:	37f80460 	tbnz	w0, #31, 4ed8 <trace_vprintf+0x110>
    4e50:	8b20c260 	add	x0, x19, w0, sxtw
    4e54:	f103f81f 	cmp	x0, #0xfe
    4e58:	54000408 	b.hi	4ed8 <trace_vprintf+0x110>  // b.pmore
    4e5c:	91000413 	add	x19, x0, #0x1
    4e60:	9100c3e3 	add	x3, sp, #0x30
    4e64:	52800401 	mov	w1, #0x20                  	// #32
    4e68:	38206a81 	strb	w1, [x20, x0]
    4e6c:	d2800402 	mov	x2, #0x20                  	// #32
    4e70:	aa1603e1 	mov	x1, x22
    4e74:	aa0303e0 	mov	x0, x3
    4e78:	38336a9f 	strb	wzr, [x20, x19]
    4e7c:	97fffdfb 	bl	4668 <memcpy>
    4e80:	aa0003e3 	mov	x3, x0
    4e84:	aa1503e2 	mov	x2, x21
    4e88:	cb1302e1 	sub	x1, x23, x19
    4e8c:	8b130280 	add	x0, x20, x19
    4e90:	94000319 	bl	5af4 <vsnprintf>
    4e94:	7100001f 	cmp	w0, #0x0
    4e98:	5400004d 	b.le	4ea0 <trace_vprintf+0xd8>
    4e9c:	8b20c273 	add	x19, x19, w0, sxtw
    4ea0:	f103fa7f 	cmp	x19, #0xfe
    4ea4:	d2801fc0 	mov	x0, #0xfe                  	// #254
    4ea8:	9a809273 	csel	x19, x19, x0, ls  // ls = plast
    4eac:	52800140 	mov	w0, #0xa                   	// #10
    4eb0:	38336a80 	strb	w0, [x20, x19]
    4eb4:	f1000673 	subs	x19, x19, #0x1
    4eb8:	54000080 	b.eq	4ec8 <trace_vprintf+0x100>  // b.none
    4ebc:	38736a80 	ldrb	w0, [x20, x19]
    4ec0:	7100281f 	cmp	w0, #0xa
    4ec4:	54ffff80 	b.eq	4eb4 <trace_vprintf+0xec>  // b.none
    4ec8:	91014be0 	add	x0, sp, #0x52
    4ecc:	3833681f 	strb	wzr, [x0, x19]
    4ed0:	aa1403e0 	mov	x0, x20
    4ed4:	97fff6e8 	bl	2a74 <puts>
    4ed8:	a9415bf5 	ldp	x21, x22, [sp, #16]
    4edc:	a9427bf7 	ldp	x23, x30, [sp, #32]
    4ee0:	a8d553f3 	ldp	x19, x20, [sp], #336
    4ee4:	d65f03c0 	ret
    4ee8:	528009a3 	mov	w3, #0x4d                  	// #77
    4eec:	17ffffc8 	b	4e0c <trace_vprintf+0x44>

0000000000004ef0 <trace_printf>:
    4ef0:	f8110ffe 	str	x30, [sp, #-240]!
    4ef4:	a90d9be5 	stp	x5, x6, [sp, #216]
    4ef8:	9103c3e5 	add	x5, sp, #0xf0
    4efc:	a90317e5 	stp	x5, x5, [sp, #48]
    4f00:	910343e5 	add	x5, sp, #0xd0
    4f04:	f90023e5 	str	x5, [sp, #64]
    4f08:	128002e5 	mov	w5, #0xffffffe8            	// #-24
    4f0c:	b9004be5 	str	w5, [sp, #72]
    4f10:	12800fe5 	mov	w5, #0xffffff80            	// #-128
    4f14:	b9004fe5 	str	w5, [sp, #76]
    4f18:	910043e5 	add	x5, sp, #0x10
    4f1c:	f90077e7 	str	x7, [sp, #232]
    4f20:	a9431fe6 	ldp	x6, x7, [sp, #48]
    4f24:	a9011fe6 	stp	x6, x7, [sp, #16]
    4f28:	a9441fe6 	ldp	x6, x7, [sp, #64]
    4f2c:	a9021fe6 	stp	x6, x7, [sp, #32]
    4f30:	3d8017e0 	str	q0, [sp, #80]
    4f34:	3d801be1 	str	q1, [sp, #96]
    4f38:	3d801fe2 	str	q2, [sp, #112]
    4f3c:	3d8023e3 	str	q3, [sp, #128]
    4f40:	3d8027e4 	str	q4, [sp, #144]
    4f44:	3d802be5 	str	q5, [sp, #160]
    4f48:	3d802fe6 	str	q6, [sp, #176]
    4f4c:	3d8033e7 	str	q7, [sp, #192]
    4f50:	97ffff9e 	bl	4dc8 <trace_vprintf>
    4f54:	f84f07fe 	ldr	x30, [sp], #240
    4f58:	d65f03c0 	ret

0000000000004f5c <trace_get_level>:
    4f5c:	f0000060 	adrp	x0, 13000 <_DYNAMIC>
    4f60:	f940a400 	ldr	x0, [x0, #328]
    4f64:	b9400000 	ldr	w0, [x0]
    4f68:	d65f03c0 	ret

0000000000004f6c <__errno_location>:
    4f6c:	d53bd040 	mrs	x0, tpidr_el0
    4f70:	f9400000 	ldr	x0, [x0]
    4f74:	91009000 	add	x0, x0, #0x24
    4f78:	d65f03c0 	ret

0000000000004f7c <__strerror_l>:
    4f7c:	7102101f 	cmp	w0, #0x84
    4f80:	90000062 	adrp	x2, 10000 <__text_end+0x1600>
    4f84:	1a9f3000 	csel	w0, w0, wzr, cc  // cc = lo, ul, last
    4f88:	91244042 	add	x2, x2, #0x910
    4f8c:	f9401421 	ldr	x1, [x1, #40]
    4f90:	7860d842 	ldrh	w2, [x2, w0, sxtw #1]
    4f94:	90000060 	adrp	x0, 10000 <__text_end+0x1600>
    4f98:	913a2400 	add	x0, x0, #0xe89
    4f9c:	8b020000 	add	x0, x0, x2
    4fa0:	14000010 	b	4fe0 <__lctrans>

0000000000004fa4 <strerror>:
    4fa4:	d53bd041 	mrs	x1, tpidr_el0
    4fa8:	f9400021 	ldr	x1, [x1]
    4fac:	f9404c21 	ldr	x1, [x1, #152]
    4fb0:	17fffff3 	b	4f7c <__strerror_l>

0000000000004fb4 <__syscall_ret>:
    4fb4:	a9bf7bf3 	stp	x19, x30, [sp, #-16]!
    4fb8:	b140041f 	cmn	x0, #0x1, lsl #12
    4fbc:	aa0003f3 	mov	x19, x0
    4fc0:	540000a9 	b.ls	4fd4 <__syscall_ret+0x20>  // b.plast
    4fc4:	97ffffea 	bl	4f6c <__errno_location>
    4fc8:	4b1303f3 	neg	w19, w19
    4fcc:	b9000013 	str	w19, [x0]
    4fd0:	92800000 	mov	x0, #0xffffffffffffffff    	// #-1
    4fd4:	a8c17bf3 	ldp	x19, x30, [sp], #16
    4fd8:	d65f03c0 	ret

0000000000004fdc <__lctrans_impl>:
    4fdc:	d65f03c0 	ret

0000000000004fe0 <__lctrans>:
    4fe0:	17ffffff 	b	4fdc <__lctrans_impl>

0000000000004fe4 <__lctrans_cur>:
    4fe4:	d53bd041 	mrs	x1, tpidr_el0
    4fe8:	f9400021 	ldr	x1, [x1]
    4fec:	f9404c21 	ldr	x1, [x1, #152]
    4ff0:	f9401421 	ldr	x1, [x1, #40]
    4ff4:	17fffffa 	b	4fdc <__lctrans_impl>

0000000000004ff8 <free>:
    4ff8:	140005a3 	b	6684 <__libc_free>

0000000000004ffc <__fpclassifyl>:
    4ffc:	d10043ff 	sub	sp, sp, #0x10
    5000:	3d8003e0 	str	q0, [sp]
    5004:	a94003e1 	ldp	x1, x0, [sp]
    5008:	d370f802 	ubfx	x2, x0, #48, #15
    500c:	9240bc00 	and	x0, x0, #0xffffffffffff
    5010:	350000e2 	cbnz	w2, 502c <__fpclassifyl+0x30>
    5014:	aa010000 	orr	x0, x0, x1
    5018:	f100001f 	cmp	x0, #0x0
    501c:	1a9f07e0 	cset	w0, ne  // ne = any
    5020:	11000800 	add	w0, w0, #0x2
    5024:	910043ff 	add	sp, sp, #0x10
    5028:	d65f03c0 	ret
    502c:	528fffe3 	mov	w3, #0x7fff                	// #32767
    5030:	6b03005f 	cmp	w2, w3
    5034:	540000a1 	b.ne	5048 <__fpclassifyl+0x4c>  // b.any
    5038:	aa010000 	orr	x0, x0, x1
    503c:	f100001f 	cmp	x0, #0x0
    5040:	1a9f17e0 	cset	w0, eq  // eq = none
    5044:	17fffff8 	b	5024 <__fpclassifyl+0x28>
    5048:	52800080 	mov	w0, #0x4                   	// #4
    504c:	17fffff6 	b	5024 <__fpclassifyl+0x28>

0000000000005050 <__signbitl>:
    5050:	d10043ff 	sub	sp, sp, #0x10
    5054:	3d8003e0 	str	q0, [sp]
    5058:	f94007e0 	ldr	x0, [sp, #8]
    505c:	910043ff 	add	sp, sp, #0x10
    5060:	d370fc00 	lsr	x0, x0, #48
    5064:	530f7c00 	lsr	w0, w0, #15
    5068:	d65f03c0 	ret

000000000000506c <frexpl>:
    506c:	a9be7bf3 	stp	x19, x30, [sp, #-32]!
    5070:	aa0003f3 	mov	x19, x0
    5074:	3d8007e0 	str	q0, [sp, #16]
    5078:	f9400fe1 	ldr	x1, [sp, #24]
    507c:	a9410fe2 	ldp	x2, x3, [sp, #16]
    5080:	d370fc20 	lsr	x0, x1, #48
    5084:	d370f821 	ubfx	x1, x1, #48, #15
    5088:	35000281 	cbnz	w1, 50d8 <frexpl+0x6c>
    508c:	6f00e401 	movi	v1.2d, #0x0
    5090:	97ffeeae 	bl	b48 <__eqtf2>
    5094:	340001e0 	cbz	w0, 50d0 <frexpl+0x64>
    5098:	f0000040 	adrp	x0, 10000 <__text_end+0x1600>
    509c:	9114c000 	add	x0, x0, #0x530
    50a0:	3dc007e0 	ldr	q0, [sp, #16]
    50a4:	3dc00001 	ldr	q1, [x0]
    50a8:	97ffeeea 	bl	c50 <__multf3>
    50ac:	aa1303e0 	mov	x0, x19
    50b0:	97ffffef 	bl	506c <frexpl>
    50b4:	b9400260 	ldr	w0, [x19]
    50b8:	3d8007e0 	str	q0, [sp, #16]
    50bc:	5101e000 	sub	w0, w0, #0x78
    50c0:	b9000260 	str	w0, [x19]
    50c4:	3dc007e0 	ldr	q0, [sp, #16]
    50c8:	a8c27bf3 	ldp	x19, x30, [sp], #32
    50cc:	d65f03c0 	ret
    50d0:	b900027f 	str	wzr, [x19]
    50d4:	17fffffc 	b	50c4 <frexpl+0x58>
    50d8:	528fffe4 	mov	w4, #0x7fff                	// #32767
    50dc:	6b04003f 	cmp	w1, w4
    50e0:	54ffff20 	b.eq	50c4 <frexpl+0x58>  // b.none
    50e4:	12114000 	and	w0, w0, #0xffff8000
    50e8:	1287ffa4 	mov	w4, #0xffffc002            	// #-16382
    50ec:	321f3000 	orr	w0, w0, #0x3ffe
    50f0:	0b040021 	add	w1, w1, w4
    50f4:	b9000261 	str	w1, [x19]
    50f8:	b3503c03 	bfi	x3, x0, #48, #16
    50fc:	a9010fe2 	stp	x2, x3, [sp, #16]
    5100:	17fffff1 	b	50c4 <frexpl+0x58>

0000000000005104 <wctomb>:
    5104:	b40000c0 	cbz	x0, 511c <wctomb+0x18>
    5108:	f81f0ffe 	str	x30, [sp, #-16]!
    510c:	d2800002 	mov	x2, #0x0                   	// #0
    5110:	940006fb 	bl	6cfc <wcrtomb>
    5114:	f84107fe 	ldr	x30, [sp], #16
    5118:	d65f03c0 	ret
    511c:	52800000 	mov	w0, #0x0                   	// #0
    5120:	d65f03c0 	ret

0000000000005124 <fdopen>:
    5124:	a9bd53f3 	stp	x19, x20, [sp, #-48]!
    5128:	aa0103f4 	mov	x20, x1
    512c:	a9017bf5 	stp	x21, x30, [sp, #16]
    5130:	2a0003f5 	mov	w21, w0
    5134:	f0000040 	adrp	x0, 10000 <__text_end+0x1600>
    5138:	39400021 	ldrb	w1, [x1]
    513c:	91318800 	add	x0, x0, #0xc62
    5140:	97fffe68 	bl	4ae0 <strchr>
    5144:	b5000120 	cbnz	x0, 5168 <fdopen+0x44>
    5148:	aa0003f3 	mov	x19, x0
    514c:	97ffff88 	bl	4f6c <__errno_location>
    5150:	528002c1 	mov	w1, #0x16                  	// #22
    5154:	b9000001 	str	w1, [x0]
    5158:	aa1303e0 	mov	x0, x19
    515c:	a9417bf5 	ldp	x21, x30, [sp, #16]
    5160:	a8c353f3 	ldp	x19, x20, [sp], #48
    5164:	d65f03c0 	ret
    5168:	d2809e00 	mov	x0, #0x4f0                 	// #1264
    516c:	940006b1 	bl	6c30 <malloc>
    5170:	aa0003f3 	mov	x19, x0
    5174:	b4ffff20 	cbz	x0, 5158 <fdopen+0x34>
    5178:	d2801d02 	mov	x2, #0xe8                  	// #232
    517c:	52800001 	mov	w1, #0x0                   	// #0
    5180:	97fffe23 	bl	4a0c <memset>
    5184:	aa1403e0 	mov	x0, x20
    5188:	52800561 	mov	w1, #0x2b                  	// #43
    518c:	97fffe55 	bl	4ae0 <strchr>
    5190:	b50000e0 	cbnz	x0, 51ac <fdopen+0x88>
    5194:	39400280 	ldrb	w0, [x20]
    5198:	52800081 	mov	w1, #0x4                   	// #4
    519c:	7101c81f 	cmp	w0, #0x72
    51a0:	52800100 	mov	w0, #0x8                   	// #8
    51a4:	1a810000 	csel	w0, w0, w1, eq  // eq = none
    51a8:	b9000260 	str	w0, [x19]
    51ac:	aa1403e0 	mov	x0, x20
    51b0:	52800ca1 	mov	w1, #0x65                  	// #101
    51b4:	97fffe4b 	bl	4ae0 <strchr>
    51b8:	b40000c0 	cbz	x0, 51d0 <fdopen+0xac>
    51bc:	93407ea1 	sxtw	x1, w21
    51c0:	d2800023 	mov	x3, #0x1                   	// #1
    51c4:	d2800042 	mov	x2, #0x2                   	// #2
    51c8:	d2800320 	mov	x0, #0x19                  	// #25
    51cc:	94000809 	bl	71f0 <__syscall3>
    51d0:	39400280 	ldrb	w0, [x20]
    51d4:	7101841f 	cmp	w0, #0x61
    51d8:	54000201 	b.ne	5218 <fdopen+0xf4>  // b.any
    51dc:	93407eb4 	sxtw	x20, w21
    51e0:	d2800062 	mov	x2, #0x3                   	// #3
    51e4:	aa1403e1 	mov	x1, x20
    51e8:	d2800320 	mov	x0, #0x19                  	// #25
    51ec:	940007fc 	bl	71dc <__syscall2>
    51f0:	375000e0 	tbnz	w0, #10, 520c <fdopen+0xe8>
    51f4:	32160000 	orr	w0, w0, #0x400
    51f8:	aa1403e1 	mov	x1, x20
    51fc:	d2800082 	mov	x2, #0x4                   	// #4
    5200:	93407c03 	sxtw	x3, w0
    5204:	d2800320 	mov	x0, #0x19                  	// #25
    5208:	940007fa 	bl	71f0 <__syscall3>
    520c:	b9400260 	ldr	w0, [x19]
    5210:	32190000 	orr	w0, w0, #0x80
    5214:	b9000260 	str	w0, [x19]
    5218:	9103c260 	add	x0, x19, #0xf0
    521c:	f9002e60 	str	x0, [x19, #88]
    5220:	d2808000 	mov	x0, #0x400                 	// #1024
    5224:	f9003260 	str	x0, [x19, #96]
    5228:	12800000 	mov	w0, #0xffffffff            	// #-1
    522c:	b9009260 	str	w0, [x19, #144]
    5230:	b9400260 	ldr	w0, [x19]
    5234:	b9007a75 	str	w21, [x19, #120]
    5238:	37180120 	tbnz	w0, #3, 525c <fdopen+0x138>
    523c:	9100a3e3 	add	x3, sp, #0x28
    5240:	93407ea1 	sxtw	x1, w21
    5244:	d28a8262 	mov	x2, #0x5413                	// #21523
    5248:	d28003a0 	mov	x0, #0x1d                  	// #29
    524c:	940007e9 	bl	71f0 <__syscall3>
    5250:	b5000060 	cbnz	x0, 525c <fdopen+0x138>
    5254:	52800140 	mov	w0, #0xa                   	// #10
    5258:	b9009260 	str	w0, [x19, #144]
    525c:	90000000 	adrp	x0, 5000 <__fpclassifyl+0x4>
    5260:	91145000 	add	x0, x0, #0x514
    5264:	f9002260 	str	x0, [x19, #64]
    5268:	90000000 	adrp	x0, 5000 <__fpclassifyl+0x4>
    526c:	91179000 	add	x0, x0, #0x5e4
    5270:	f9002660 	str	x0, [x19, #72]
    5274:	90000000 	adrp	x0, 5000 <__fpclassifyl+0x4>
    5278:	91177000 	add	x0, x0, #0x5dc
    527c:	f9002a60 	str	x0, [x19, #80]
    5280:	90000000 	adrp	x0, 5000 <__fpclassifyl+0x4>
    5284:	9113c000 	add	x0, x0, #0x4f0
    5288:	f9000e60 	str	x0, [x19, #24]
    528c:	d0000060 	adrp	x0, 13000 <_DYNAMIC>
    5290:	395c2400 	ldrb	w0, [x0, #1801]
    5294:	35000060 	cbnz	w0, 52a0 <fdopen+0x17c>
    5298:	12800000 	mov	w0, #0xffffffff            	// #-1
    529c:	b9008e60 	str	w0, [x19, #140]
    52a0:	aa1303e0 	mov	x0, x19
    52a4:	940001bf 	bl	59a0 <__ofl_add>
    52a8:	aa0003f3 	mov	x19, x0
    52ac:	17ffffab 	b	5158 <fdopen+0x34>

00000000000052b0 <__fmodeflags>:
    52b0:	a9be53f3 	stp	x19, x20, [sp, #-32]!
    52b4:	52800561 	mov	w1, #0x2b                  	// #43
    52b8:	aa0003f4 	mov	x20, x0
    52bc:	f9000bfe 	str	x30, [sp, #16]
    52c0:	97fffe08 	bl	4ae0 <strchr>
    52c4:	b5000380 	cbnz	x0, 5334 <__fmodeflags+0x84>
    52c8:	39400280 	ldrb	w0, [x20]
    52cc:	7101c81f 	cmp	w0, #0x72
    52d0:	1a9f07f3 	cset	w19, ne  // ne = any
    52d4:	aa1403e0 	mov	x0, x20
    52d8:	52800f01 	mov	w1, #0x78                  	// #120
    52dc:	97fffe01 	bl	4ae0 <strchr>
    52e0:	b4000040 	cbz	x0, 52e8 <__fmodeflags+0x38>
    52e4:	32190273 	orr	w19, w19, #0x80
    52e8:	aa1403e0 	mov	x0, x20
    52ec:	52800ca1 	mov	w1, #0x65                  	// #101
    52f0:	97fffdfc 	bl	4ae0 <strchr>
    52f4:	b4000040 	cbz	x0, 52fc <__fmodeflags+0x4c>
    52f8:	320d0273 	orr	w19, w19, #0x80000
    52fc:	39400280 	ldrb	w0, [x20]
    5300:	7101c81f 	cmp	w0, #0x72
    5304:	54000100 	b.eq	5324 <__fmodeflags+0x74>  // b.none
    5308:	7101dc1f 	cmp	w0, #0x77
    530c:	54000180 	b.eq	533c <__fmodeflags+0x8c>  // b.none
    5310:	321a0261 	orr	w1, w19, #0x40
    5314:	7101841f 	cmp	w0, #0x61
    5318:	52808802 	mov	w2, #0x440                 	// #1088
    531c:	2a020273 	orr	w19, w19, w2
    5320:	1a810273 	csel	w19, w19, w1, eq  // eq = none
    5324:	2a1303e0 	mov	w0, w19
    5328:	f9400bfe 	ldr	x30, [sp, #16]
    532c:	a8c253f3 	ldp	x19, x20, [sp], #32
    5330:	d65f03c0 	ret
    5334:	52800053 	mov	w19, #0x2                   	// #2
    5338:	17ffffe7 	b	52d4 <__fmodeflags+0x24>
    533c:	52804800 	mov	w0, #0x240                 	// #576
    5340:	2a000273 	orr	w19, w19, w0
    5344:	17fffff8 	b	5324 <__fmodeflags+0x74>

0000000000005348 <__lockfile>:
    5348:	d53bd041 	mrs	x1, tpidr_el0
    534c:	f9400021 	ldr	x1, [x1]
    5350:	b9408c02 	ldr	w2, [x0, #140]
    5354:	b9402021 	ldr	w1, [x1, #32]
    5358:	12017842 	and	w2, w2, #0xbfffffff
    535c:	6b01005f 	cmp	w2, w1
    5360:	540005a0 	b.eq	5414 <__lockfile+0xcc>  // b.none
    5364:	a9be53f3 	stp	x19, x20, [sp, #-32]!
    5368:	91023013 	add	x19, x0, #0x8c
    536c:	a9017bf5 	stp	x21, x30, [sp, #16]
    5370:	885ffe60 	ldaxr	w0, [x19]
    5374:	340001a0 	cbz	w0, 53a8 <__lockfile+0x60>
    5378:	d5033bbf 	dmb	ish
    537c:	32020034 	orr	w20, w1, #0x40000000
    5380:	885ffe60 	ldaxr	w0, [x19]
    5384:	34000420 	cbz	w0, 5408 <__lockfile+0xc0>
    5388:	d5033bbf 	dmb	ish
    538c:	32020003 	orr	w3, w0, #0x40000000
    5390:	37f001c0 	tbnz	w0, #30, 53c8 <__lockfile+0x80>
    5394:	885ffe61 	ldaxr	w1, [x19]
    5398:	6b00003f 	cmp	w1, w0
    539c:	54000120 	b.eq	53c0 <__lockfile+0x78>  // b.none
    53a0:	d5033bbf 	dmb	ish
    53a4:	17fffff7 	b	5380 <__lockfile+0x38>
    53a8:	8800fe61 	stlxr	w0, w1, [x19]
    53ac:	35fffe20 	cbnz	w0, 5370 <__lockfile+0x28>
    53b0:	52800020 	mov	w0, #0x1                   	// #1
    53b4:	a9417bf5 	ldp	x21, x30, [sp, #16]
    53b8:	a8c253f3 	ldp	x19, x20, [sp], #32
    53bc:	d65f03c0 	ret
    53c0:	8801fe63 	stlxr	w1, w3, [x19]
    53c4:	35fffe81 	cbnz	w1, 5394 <__lockfile+0x4c>
    53c8:	93407c75 	sxtw	x21, w3
    53cc:	aa1303e1 	mov	x1, x19
    53d0:	aa1503e3 	mov	x3, x21
    53d4:	d2800004 	mov	x4, #0x0                   	// #0
    53d8:	d2801002 	mov	x2, #0x80                  	// #128
    53dc:	d2800c40 	mov	x0, #0x62                  	// #98
    53e0:	94000788 	bl	7200 <__syscall4>
    53e4:	b100981f 	cmn	x0, #0x26
    53e8:	54fffcc1 	b.ne	5380 <__lockfile+0x38>  // b.any
    53ec:	aa1503e3 	mov	x3, x21
    53f0:	aa1303e1 	mov	x1, x19
    53f4:	d2800004 	mov	x4, #0x0                   	// #0
    53f8:	d2800002 	mov	x2, #0x0                   	// #0
    53fc:	d2800c40 	mov	x0, #0x62                  	// #98
    5400:	94000780 	bl	7200 <__syscall4>
    5404:	17ffffdf 	b	5380 <__lockfile+0x38>
    5408:	8800fe74 	stlxr	w0, w20, [x19]
    540c:	35fffba0 	cbnz	w0, 5380 <__lockfile+0x38>
    5410:	17ffffe8 	b	53b0 <__lockfile+0x68>
    5414:	52800000 	mov	w0, #0x0                   	// #0
    5418:	d65f03c0 	ret

000000000000541c <__unlockfile>:
    541c:	a9bf7bf3 	stp	x19, x30, [sp, #-16]!
    5420:	91023013 	add	x19, x0, #0x8c
    5424:	52800000 	mov	w0, #0x0                   	// #0
    5428:	885ffe61 	ldaxr	w1, [x19]
    542c:	8802fe60 	stlxr	w2, w0, [x19]
    5430:	35ffffc2 	cbnz	w2, 5428 <__unlockfile+0xc>
    5434:	36f001c1 	tbz	w1, #30, 546c <__unlockfile+0x50>
    5438:	aa1303e1 	mov	x1, x19
    543c:	d2800023 	mov	x3, #0x1                   	// #1
    5440:	d2801022 	mov	x2, #0x81                  	// #129
    5444:	d2800c40 	mov	x0, #0x62                  	// #98
    5448:	9400076a 	bl	71f0 <__syscall3>
    544c:	b100981f 	cmn	x0, #0x26
    5450:	540000e1 	b.ne	546c <__unlockfile+0x50>  // b.any
    5454:	aa1303e1 	mov	x1, x19
    5458:	d2800023 	mov	x3, #0x1                   	// #1
    545c:	a8c17bf3 	ldp	x19, x30, [sp], #16
    5460:	aa0303e2 	mov	x2, x3
    5464:	d2800c40 	mov	x0, #0x62                  	// #98
    5468:	14000762 	b	71f0 <__syscall3>
    546c:	a8c17bf3 	ldp	x19, x30, [sp], #16
    5470:	d65f03c0 	ret

0000000000005474 <__overflow>:
    5474:	a9be7bf3 	stp	x19, x30, [sp, #-32]!
    5478:	aa0003f3 	mov	x19, x0
    547c:	39007fe1 	strb	w1, [sp, #31]
    5480:	f9401001 	ldr	x1, [x0, #32]
    5484:	b40001a1 	cbz	x1, 54b8 <__overflow+0x44>
    5488:	a9420660 	ldp	x0, x1, [x19, #32]
    548c:	eb00003f 	cmp	x1, x0
    5490:	540001e1 	b.ne	54cc <__overflow+0x58>  // b.any
    5494:	f9402663 	ldr	x3, [x19, #72]
    5498:	91007fe1 	add	x1, sp, #0x1f
    549c:	aa1303e0 	mov	x0, x19
    54a0:	d2800022 	mov	x2, #0x1                   	// #1
    54a4:	d63f0060 	blr	x3
    54a8:	f100041f 	cmp	x0, #0x1
    54ac:	540000a1 	b.ne	54c0 <__overflow+0x4c>  // b.any
    54b0:	39407fe0 	ldrb	w0, [sp, #31]
    54b4:	14000004 	b	54c4 <__overflow+0x50>
    54b8:	940000ba 	bl	57a0 <__towrite>
    54bc:	34fffe60 	cbz	w0, 5488 <__overflow+0x14>
    54c0:	12800000 	mov	w0, #0xffffffff            	// #-1
    54c4:	a8c27bf3 	ldp	x19, x30, [sp], #32
    54c8:	d65f03c0 	ret
    54cc:	39407fe0 	ldrb	w0, [sp, #31]
    54d0:	b9409262 	ldr	w2, [x19, #144]
    54d4:	6b02001f 	cmp	w0, w2
    54d8:	54fffde0 	b.eq	5494 <__overflow+0x20>  // b.none
    54dc:	91000422 	add	x2, x1, #0x1
    54e0:	f9001662 	str	x2, [x19, #40]
    54e4:	39000020 	strb	w0, [x1]
    54e8:	17fffff7 	b	54c4 <__overflow+0x50>

00000000000054ec <__aio_close>:
    54ec:	d65f03c0 	ret

00000000000054f0 <__stdio_close>:
    54f0:	b9407800 	ldr	w0, [x0, #120]
    54f4:	f81f0ffe 	str	x30, [sp, #-16]!
    54f8:	97fffffd 	bl	54ec <__aio_close>
    54fc:	93407c01 	sxtw	x1, w0
    5500:	d2800720 	mov	x0, #0x39                  	// #57
    5504:	94000730 	bl	71c4 <__syscall1>
    5508:	97fffeab 	bl	4fb4 <__syscall_ret>
    550c:	f84107fe 	ldr	x30, [sp], #16
    5510:	d65f03c0 	ret

0000000000005514 <__stdio_read>:
    5514:	a9bc53f3 	stp	x19, x20, [sp, #-64]!
    5518:	aa0003f3 	mov	x19, x0
    551c:	aa0203f4 	mov	x20, x2
    5520:	f9403003 	ldr	x3, [x0, #96]
    5524:	a9017bf5 	stp	x21, x30, [sp, #16]
    5528:	aa0103f5 	mov	x21, x1
    552c:	f100007f 	cmp	x3, #0x0
    5530:	9a9f07e0 	cset	x0, ne  // ne = any
    5534:	cb000040 	sub	x0, x2, x0
    5538:	a90203e1 	stp	x1, x0, [sp, #32]
    553c:	b9807a61 	ldrsw	x1, [x19, #120]
    5540:	f9402e62 	ldr	x2, [x19, #88]
    5544:	a9030fe2 	stp	x2, x3, [sp, #48]
    5548:	b4000260 	cbz	x0, 5594 <__stdio_read+0x80>
    554c:	910083e2 	add	x2, sp, #0x20
    5550:	d2800043 	mov	x3, #0x2                   	// #2
    5554:	d2800820 	mov	x0, #0x41                  	// #65
    5558:	94000726 	bl	71f0 <__syscall3>
    555c:	97fffe96 	bl	4fb4 <__syscall_ret>
    5560:	f100001f 	cmp	x0, #0x0
    5564:	540001cc 	b.gt	559c <__stdio_read+0x88>
    5568:	b9400260 	ldr	w0, [x19]
    556c:	52800401 	mov	w1, #0x20                  	// #32
    5570:	52800202 	mov	w2, #0x10                  	// #16
    5574:	1a821021 	csel	w1, w1, w2, ne  // ne = any
    5578:	2a010000 	orr	w0, w0, w1
    557c:	d2800014 	mov	x20, #0x0                   	// #0
    5580:	b9000260 	str	w0, [x19]
    5584:	aa1403e0 	mov	x0, x20
    5588:	a9417bf5 	ldp	x21, x30, [sp, #16]
    558c:	a8c453f3 	ldp	x19, x20, [sp], #64
    5590:	d65f03c0 	ret
    5594:	d28007e0 	mov	x0, #0x3f                  	// #63
    5598:	17fffff0 	b	5558 <__stdio_read+0x44>
    559c:	f94017e3 	ldr	x3, [sp, #40]
    55a0:	eb00007f 	cmp	x3, x0
    55a4:	54000182 	b.cs	55d4 <__stdio_read+0xc0>  // b.hs, b.nlast
    55a8:	cb030003 	sub	x3, x0, x3
    55ac:	a9458261 	ldp	x1, x0, [x19, #88]
    55b0:	8b030023 	add	x3, x1, x3
    55b4:	a9008e61 	stp	x1, x3, [x19, #8]
    55b8:	b4fffe60 	cbz	x0, 5584 <__stdio_read+0x70>
    55bc:	91000420 	add	x0, x1, #0x1
    55c0:	8b1402b5 	add	x21, x21, x20
    55c4:	f9000660 	str	x0, [x19, #8]
    55c8:	39400020 	ldrb	w0, [x1]
    55cc:	381ff2a0 	sturb	w0, [x21, #-1]
    55d0:	17ffffed 	b	5584 <__stdio_read+0x70>
    55d4:	aa0003f4 	mov	x20, x0
    55d8:	17ffffeb 	b	5584 <__stdio_read+0x70>

00000000000055dc <__stdio_seek>:
    55dc:	b9407800 	ldr	w0, [x0, #120]
    55e0:	140001a3 	b	5c6c <lseek>

00000000000055e4 <__stdio_write>:
    55e4:	a9bb53f3 	stp	x19, x20, [sp, #-80]!
    55e8:	aa0003f3 	mov	x19, x0
    55ec:	a9015bf5 	stp	x21, x22, [sp, #16]
    55f0:	9100c3f4 	add	x20, sp, #0x30
    55f4:	aa0203f5 	mov	x21, x2
    55f8:	f9401416 	ldr	x22, [x0, #40]
    55fc:	a9027bf7 	stp	x23, x30, [sp, #32]
    5600:	52800057 	mov	w23, #0x2                   	// #2
    5604:	f9401c00 	ldr	x0, [x0, #56]
    5608:	a9040be1 	stp	x1, x2, [sp, #64]
    560c:	cb0002d6 	sub	x22, x22, x0
    5610:	a9035be0 	stp	x0, x22, [sp, #48]
    5614:	8b0202d6 	add	x22, x22, x2
    5618:	b9807a61 	ldrsw	x1, [x19, #120]
    561c:	93407ee3 	sxtw	x3, w23
    5620:	aa1403e2 	mov	x2, x20
    5624:	d2800840 	mov	x0, #0x42                  	// #66
    5628:	940006f2 	bl	71f0 <__syscall3>
    562c:	97fffe62 	bl	4fb4 <__syscall_ret>
    5630:	eb0002df 	cmp	x22, x0
    5634:	54000141 	b.ne	565c <__stdio_write+0x78>  // b.any
    5638:	a9458660 	ldp	x0, x1, [x19, #88]
    563c:	f9001e60 	str	x0, [x19, #56]
    5640:	8b010001 	add	x1, x0, x1
    5644:	a9020261 	stp	x1, x0, [x19, #32]
    5648:	aa1503e0 	mov	x0, x21
    564c:	a9415bf5 	ldp	x21, x22, [sp, #16]
    5650:	a9427bf7 	ldp	x23, x30, [sp, #32]
    5654:	a8c553f3 	ldp	x19, x20, [sp], #80
    5658:	d65f03c0 	ret
    565c:	b6f80160 	tbz	x0, #63, 5688 <__stdio_write+0xa4>
    5660:	b9400260 	ldr	w0, [x19]
    5664:	71000aff 	cmp	w23, #0x2
    5668:	a9027e7f 	stp	xzr, xzr, [x19, #32]
    566c:	321b0000 	orr	w0, w0, #0x20
    5670:	b9000260 	str	w0, [x19]
    5674:	f9001e7f 	str	xzr, [x19, #56]
    5678:	54000240 	b.eq	56c0 <__stdio_write+0xdc>  // b.none
    567c:	f9400680 	ldr	x0, [x20, #8]
    5680:	cb0002b5 	sub	x21, x21, x0
    5684:	17fffff1 	b	5648 <__stdio_write+0x64>
    5688:	f9400681 	ldr	x1, [x20, #8]
    568c:	cb0002d6 	sub	x22, x22, x0
    5690:	eb01001f 	cmp	x0, x1
    5694:	54000089 	b.ls	56a4 <__stdio_write+0xc0>  // b.plast
    5698:	cb010000 	sub	x0, x0, x1
    569c:	91004294 	add	x20, x20, #0x10
    56a0:	510006f7 	sub	w23, w23, #0x1
    56a4:	f9400281 	ldr	x1, [x20]
    56a8:	8b000021 	add	x1, x1, x0
    56ac:	f9000281 	str	x1, [x20]
    56b0:	f9400681 	ldr	x1, [x20, #8]
    56b4:	cb000020 	sub	x0, x1, x0
    56b8:	f9000680 	str	x0, [x20, #8]
    56bc:	17ffffd7 	b	5618 <__stdio_write+0x34>
    56c0:	d2800015 	mov	x21, #0x0                   	// #0
    56c4:	17ffffe1 	b	5648 <__stdio_write+0x64>

00000000000056c8 <__stdout_write>:
    56c8:	a9bd53f3 	stp	x19, x20, [sp, #-48]!
    56cc:	aa0003f3 	mov	x19, x0
    56d0:	90000000 	adrp	x0, 5000 <__fpclassifyl+0x4>
    56d4:	91179000 	add	x0, x0, #0x5e4
    56d8:	a9017bf5 	stp	x21, x30, [sp, #16]
    56dc:	aa0103f4 	mov	x20, x1
    56e0:	f9002660 	str	x0, [x19, #72]
    56e4:	aa0203f5 	mov	x21, x2
    56e8:	b9400260 	ldr	w0, [x19]
    56ec:	37300120 	tbnz	w0, #6, 5710 <__stdout_write+0x48>
    56f0:	b9807a61 	ldrsw	x1, [x19, #120]
    56f4:	9100a3e3 	add	x3, sp, #0x28
    56f8:	d28a8262 	mov	x2, #0x5413                	// #21523
    56fc:	d28003a0 	mov	x0, #0x1d                  	// #29
    5700:	940006bc 	bl	71f0 <__syscall3>
    5704:	b4000060 	cbz	x0, 5710 <__stdout_write+0x48>
    5708:	12800000 	mov	w0, #0xffffffff            	// #-1
    570c:	b9009260 	str	w0, [x19, #144]
    5710:	aa1503e2 	mov	x2, x21
    5714:	aa1403e1 	mov	x1, x20
    5718:	aa1303e0 	mov	x0, x19
    571c:	97ffffb2 	bl	55e4 <__stdio_write>
    5720:	a9417bf5 	ldp	x21, x30, [sp, #16]
    5724:	a8c353f3 	ldp	x19, x20, [sp], #48
    5728:	d65f03c0 	ret

000000000000572c <__toread>:
    572c:	a9bf7bf3 	stp	x19, x30, [sp, #-16]!
    5730:	aa0003f3 	mov	x19, x0
    5734:	b9408802 	ldr	w2, [x0, #136]
    5738:	51000441 	sub	w1, w2, #0x1
    573c:	2a020021 	orr	w1, w1, w2
    5740:	b9008801 	str	w1, [x0, #136]
    5744:	f9401402 	ldr	x2, [x0, #40]
    5748:	f9401c01 	ldr	x1, [x0, #56]
    574c:	eb01005f 	cmp	x2, x1
    5750:	540000a0 	b.eq	5764 <__toread+0x38>  // b.none
    5754:	f9402403 	ldr	x3, [x0, #72]
    5758:	d2800002 	mov	x2, #0x0                   	// #0
    575c:	d2800001 	mov	x1, #0x0                   	// #0
    5760:	d63f0060 	blr	x3
    5764:	b9400260 	ldr	w0, [x19]
    5768:	a9027e7f 	stp	xzr, xzr, [x19, #32]
    576c:	f9001e7f 	str	xzr, [x19, #56]
    5770:	361000c0 	tbz	w0, #2, 5788 <__toread+0x5c>
    5774:	321b0000 	orr	w0, w0, #0x20
    5778:	b9000260 	str	w0, [x19]
    577c:	12800000 	mov	w0, #0xffffffff            	// #-1
    5780:	a8c17bf3 	ldp	x19, x30, [sp], #16
    5784:	d65f03c0 	ret
    5788:	a9458a61 	ldp	x1, x2, [x19, #88]
    578c:	93441000 	sbfx	x0, x0, #4, #1
    5790:	8b020021 	add	x1, x1, x2
    5794:	a9008661 	stp	x1, x1, [x19, #8]
    5798:	17fffffa 	b	5780 <__toread+0x54>

000000000000579c <__toread_needs_stdio_exit>:
    579c:	140005ba 	b	6e84 <__stdio_exit>

00000000000057a0 <__towrite>:
    57a0:	b9408802 	ldr	w2, [x0, #136]
    57a4:	51000441 	sub	w1, w2, #0x1
    57a8:	2a020021 	orr	w1, w1, w2
    57ac:	b9008801 	str	w1, [x0, #136]
    57b0:	b9400001 	ldr	w1, [x0]
    57b4:	361800a1 	tbz	w1, #3, 57c8 <__towrite+0x28>
    57b8:	321b0021 	orr	w1, w1, #0x20
    57bc:	b9000001 	str	w1, [x0]
    57c0:	12800000 	mov	w0, #0xffffffff            	// #-1
    57c4:	d65f03c0 	ret
    57c8:	a9458801 	ldp	x1, x2, [x0, #88]
    57cc:	a900fc1f 	stp	xzr, xzr, [x0, #8]
    57d0:	f9001401 	str	x1, [x0, #40]
    57d4:	f9001c01 	str	x1, [x0, #56]
    57d8:	8b020021 	add	x1, x1, x2
    57dc:	f9001001 	str	x1, [x0, #32]
    57e0:	52800000 	mov	w0, #0x0                   	// #0
    57e4:	17fffff8 	b	57c4 <__towrite+0x24>

00000000000057e8 <__towrite_needs_stdio_exit>:
    57e8:	140005a7 	b	6e84 <__stdio_exit>

00000000000057ec <fputs>:
    57ec:	a9be53f3 	stp	x19, x20, [sp, #-32]!
    57f0:	aa0003f4 	mov	x20, x0
    57f4:	a9017bf5 	stp	x21, x30, [sp, #16]
    57f8:	aa0103f5 	mov	x21, x1
    57fc:	97fffce7 	bl	4b98 <strlen>
    5800:	aa0003f3 	mov	x19, x0
    5804:	aa1503e3 	mov	x3, x21
    5808:	aa0003e2 	mov	x2, x0
    580c:	d2800021 	mov	x1, #0x1                   	// #1
    5810:	aa1403e0 	mov	x0, x20
    5814:	94000041 	bl	5918 <fwrite>
    5818:	eb13001f 	cmp	x0, x19
    581c:	5a9f03e0 	csetm	w0, ne  // ne = any
    5820:	a9417bf5 	ldp	x21, x30, [sp, #16]
    5824:	a8c253f3 	ldp	x19, x20, [sp], #32
    5828:	d65f03c0 	ret

000000000000582c <__fwritex>:
    582c:	a9bd53f3 	stp	x19, x20, [sp, #-48]!
    5830:	aa0203f3 	mov	x19, x2
    5834:	a9015bf5 	stp	x21, x22, [sp, #16]
    5838:	aa0003f6 	mov	x22, x0
    583c:	aa0103f5 	mov	x21, x1
    5840:	f9401040 	ldr	x0, [x2, #32]
    5844:	f90013fe 	str	x30, [sp, #32]
    5848:	b40001c0 	cbz	x0, 5880 <__fwritex+0x54>
    584c:	a9420660 	ldp	x0, x1, [x19, #32]
    5850:	cb010000 	sub	x0, x0, x1
    5854:	eb15001f 	cmp	x0, x21
    5858:	540001e2 	b.cs	5894 <__fwritex+0x68>  // b.hs, b.nlast
    585c:	aa1503e2 	mov	x2, x21
    5860:	aa1603e1 	mov	x1, x22
    5864:	aa1303e0 	mov	x0, x19
    5868:	a9415bf5 	ldp	x21, x22, [sp, #16]
    586c:	f94013fe 	ldr	x30, [sp, #32]
    5870:	f9402663 	ldr	x3, [x19, #72]
    5874:	a8c353f3 	ldp	x19, x20, [sp], #48
    5878:	aa0303f0 	mov	x16, x3
    587c:	d61f0200 	br	x16
    5880:	aa0203e0 	mov	x0, x2
    5884:	97ffffc7 	bl	57a0 <__towrite>
    5888:	34fffe20 	cbz	w0, 584c <__fwritex+0x20>
    588c:	d2800000 	mov	x0, #0x0                   	// #0
    5890:	1400001a 	b	58f8 <__fwritex+0xcc>
    5894:	b9409260 	ldr	w0, [x19, #144]
    5898:	aa1503f4 	mov	x20, x21
    589c:	37f801e0 	tbnz	w0, #31, 58d8 <__fwritex+0xac>
    58a0:	b4000394 	cbz	x20, 5910 <__fwritex+0xe4>
    58a4:	d1000680 	sub	x0, x20, #0x1
    58a8:	38606ac1 	ldrb	w1, [x22, x0]
    58ac:	7100283f 	cmp	w1, #0xa
    58b0:	540002c1 	b.ne	5908 <__fwritex+0xdc>  // b.any
    58b4:	f9402663 	ldr	x3, [x19, #72]
    58b8:	aa1403e2 	mov	x2, x20
    58bc:	aa1603e1 	mov	x1, x22
    58c0:	aa1303e0 	mov	x0, x19
    58c4:	d63f0060 	blr	x3
    58c8:	eb00029f 	cmp	x20, x0
    58cc:	54000168 	b.hi	58f8 <__fwritex+0xcc>  // b.pmore
    58d0:	8b1402d6 	add	x22, x22, x20
    58d4:	cb1402b4 	sub	x20, x21, x20
    58d8:	f9401660 	ldr	x0, [x19, #40]
    58dc:	aa1403e2 	mov	x2, x20
    58e0:	aa1603e1 	mov	x1, x22
    58e4:	97fffb61 	bl	4668 <memcpy>
    58e8:	f9401662 	ldr	x2, [x19, #40]
    58ec:	aa1503e0 	mov	x0, x21
    58f0:	8b140054 	add	x20, x2, x20
    58f4:	f9001674 	str	x20, [x19, #40]
    58f8:	a9415bf5 	ldp	x21, x22, [sp, #16]
    58fc:	f94013fe 	ldr	x30, [sp, #32]
    5900:	a8c353f3 	ldp	x19, x20, [sp], #48
    5904:	d65f03c0 	ret
    5908:	aa0003f4 	mov	x20, x0
    590c:	17ffffe5 	b	58a0 <__fwritex+0x74>
    5910:	aa1503f4 	mov	x20, x21
    5914:	17fffff1 	b	58d8 <__fwritex+0xac>

0000000000005918 <fwrite>:
    5918:	a9bc53f3 	stp	x19, x20, [sp, #-64]!
    591c:	f100003f 	cmp	x1, #0x0
    5920:	aa0303f4 	mov	x20, x3
    5924:	a9015bf5 	stp	x21, x22, [sp, #16]
    5928:	aa0003f6 	mov	x22, x0
    592c:	b9408c60 	ldr	w0, [x3, #140]
    5930:	a90263f7 	stp	x23, x24, [sp, #32]
    5934:	aa0103f5 	mov	x21, x1
    5938:	9b027c38 	mul	x24, x1, x2
    593c:	f9001bfe 	str	x30, [sp, #48]
    5940:	9a9f1053 	csel	x19, x2, xzr, ne  // ne = any
    5944:	37f802a0 	tbnz	w0, #31, 5998 <fwrite+0x80>
    5948:	aa0303e0 	mov	x0, x3
    594c:	97fffe7f 	bl	5348 <__lockfile>
    5950:	2a0003f7 	mov	w23, w0
    5954:	aa1603e0 	mov	x0, x22
    5958:	aa1403e2 	mov	x2, x20
    595c:	aa1803e1 	mov	x1, x24
    5960:	97ffffb3 	bl	582c <__fwritex>
    5964:	aa0003f6 	mov	x22, x0
    5968:	34000077 	cbz	w23, 5974 <fwrite+0x5c>
    596c:	aa1403e0 	mov	x0, x20
    5970:	97fffeab 	bl	541c <__unlockfile>
    5974:	eb16031f 	cmp	x24, x22
    5978:	54000040 	b.eq	5980 <fwrite+0x68>  // b.none
    597c:	9ad50ad3 	udiv	x19, x22, x21
    5980:	aa1303e0 	mov	x0, x19
    5984:	a9415bf5 	ldp	x21, x22, [sp, #16]
    5988:	a94263f7 	ldp	x23, x24, [sp, #32]
    598c:	f9401bfe 	ldr	x30, [sp, #48]
    5990:	a8c453f3 	ldp	x19, x20, [sp], #64
    5994:	d65f03c0 	ret
    5998:	52800017 	mov	w23, #0x0                   	// #0
    599c:	17ffffee 	b	5954 <fwrite+0x3c>

00000000000059a0 <__ofl_add>:
    59a0:	a9bf7bf3 	stp	x19, x30, [sp, #-16]!
    59a4:	aa0003f3 	mov	x19, x0
    59a8:	97fff406 	bl	29c0 <__ofl_lock>
    59ac:	f9400001 	ldr	x1, [x0]
    59b0:	f9003a61 	str	x1, [x19, #112]
    59b4:	b4000041 	cbz	x1, 59bc <__ofl_add+0x1c>
    59b8:	f9003433 	str	x19, [x1, #104]
    59bc:	f9000013 	str	x19, [x0]
    59c0:	97fff408 	bl	29e0 <__ofl_unlock>
    59c4:	aa1303e0 	mov	x0, x19
    59c8:	a8c17bf3 	ldp	x19, x30, [sp], #16
    59cc:	d65f03c0 	ret

00000000000059d0 <snprintf>:
    59d0:	d10403ff 	sub	sp, sp, #0x100
    59d4:	a90d93e3 	stp	x3, x4, [sp, #216]
    59d8:	910403e3 	add	x3, sp, #0x100
    59dc:	a9030fe3 	stp	x3, x3, [sp, #48]
    59e0:	910343e3 	add	x3, sp, #0xd0
    59e4:	f90023e3 	str	x3, [sp, #64]
    59e8:	128004e3 	mov	w3, #0xffffffd8            	// #-40
    59ec:	b9004be3 	str	w3, [sp, #72]
    59f0:	12800fe3 	mov	w3, #0xffffff80            	// #-128
    59f4:	b9004fe3 	str	w3, [sp, #76]
    59f8:	910043e3 	add	x3, sp, #0x10
    59fc:	a90e9be5 	stp	x5, x6, [sp, #232]
    5a00:	a94317e4 	ldp	x4, x5, [sp, #48]
    5a04:	a90117e4 	stp	x4, x5, [sp, #16]
    5a08:	a94417e4 	ldp	x4, x5, [sp, #64]
    5a0c:	f90003fe 	str	x30, [sp]
    5a10:	a90217e4 	stp	x4, x5, [sp, #32]
    5a14:	3d8017e0 	str	q0, [sp, #80]
    5a18:	3d801be1 	str	q1, [sp, #96]
    5a1c:	3d801fe2 	str	q2, [sp, #112]
    5a20:	3d8023e3 	str	q3, [sp, #128]
    5a24:	3d8027e4 	str	q4, [sp, #144]
    5a28:	3d802be5 	str	q5, [sp, #160]
    5a2c:	3d802fe6 	str	q6, [sp, #176]
    5a30:	3d8033e7 	str	q7, [sp, #192]
    5a34:	f9007fe7 	str	x7, [sp, #248]
    5a38:	9400002f 	bl	5af4 <vsnprintf>
    5a3c:	f94003fe 	ldr	x30, [sp]
    5a40:	910403ff 	add	sp, sp, #0x100
    5a44:	d65f03c0 	ret

0000000000005a48 <sn_write>:
    5a48:	a9bd53f3 	stp	x19, x20, [sp, #-48]!
    5a4c:	f9404c13 	ldr	x19, [x0, #152]
    5a50:	a9027bf7 	stp	x23, x30, [sp, #32]
    5a54:	aa0103f7 	mov	x23, x1
    5a58:	f9401414 	ldr	x20, [x0, #40]
    5a5c:	a9015bf5 	stp	x21, x22, [sp, #16]
    5a60:	aa0203f6 	mov	x22, x2
    5a64:	f9401c01 	ldr	x1, [x0, #56]
    5a68:	aa0003f5 	mov	x21, x0
    5a6c:	f9400662 	ldr	x2, [x19, #8]
    5a70:	cb010294 	sub	x20, x20, x1
    5a74:	eb02029f 	cmp	x20, x2
    5a78:	9a829294 	csel	x20, x20, x2, ls  // ls = plast
    5a7c:	b4000114 	cbz	x20, 5a9c <sn_write+0x54>
    5a80:	f9400260 	ldr	x0, [x19]
    5a84:	aa1403e2 	mov	x2, x20
    5a88:	97fffaf8 	bl	4668 <memcpy>
    5a8c:	a9400a60 	ldp	x0, x2, [x19]
    5a90:	8b140000 	add	x0, x0, x20
    5a94:	cb140042 	sub	x2, x2, x20
    5a98:	a9000a60 	stp	x0, x2, [x19]
    5a9c:	f9400674 	ldr	x20, [x19, #8]
    5aa0:	eb16029f 	cmp	x20, x22
    5aa4:	9a969294 	csel	x20, x20, x22, ls  // ls = plast
    5aa8:	b4000134 	cbz	x20, 5acc <sn_write+0x84>
    5aac:	f9400260 	ldr	x0, [x19]
    5ab0:	aa1403e2 	mov	x2, x20
    5ab4:	aa1703e1 	mov	x1, x23
    5ab8:	97fffaec 	bl	4668 <memcpy>
    5abc:	a9400a60 	ldp	x0, x2, [x19]
    5ac0:	8b140000 	add	x0, x0, x20
    5ac4:	cb140042 	sub	x2, x2, x20
    5ac8:	a9000a60 	stp	x0, x2, [x19]
    5acc:	f9400260 	ldr	x0, [x19]
    5ad0:	3900001f 	strb	wzr, [x0]
    5ad4:	f9402ea0 	ldr	x0, [x21, #88]
    5ad8:	a9427bf7 	ldp	x23, x30, [sp, #32]
    5adc:	f90016a0 	str	x0, [x21, #40]
    5ae0:	f9001ea0 	str	x0, [x21, #56]
    5ae4:	aa1603e0 	mov	x0, x22
    5ae8:	a9415bf5 	ldp	x21, x22, [sp, #16]
    5aec:	a8c353f3 	ldp	x19, x20, [sp], #48
    5af0:	d65f03c0 	ret

0000000000005af4 <vsnprintf>:
    5af4:	a9a953f3 	stp	x19, x20, [sp, #-368]!
    5af8:	aa0103f4 	mov	x20, x1
    5afc:	a9015bf5 	stp	x21, x22, [sp, #16]
    5b00:	aa0203f6 	mov	x22, x2
    5b04:	a90263f7 	stp	x23, x24, [sp, #32]
    5b08:	aa0303f7 	mov	x23, x3
    5b0c:	f9001bfe 	str	x30, [sp, #48]
    5b10:	b5000421 	cbnz	x1, 5b94 <vsnprintf+0xa0>
    5b14:	9101c3f5 	add	x21, sp, #0x70
    5b18:	f100029f 	cmp	x20, #0x0
    5b1c:	d1000680 	sub	x0, x20, #0x1
    5b20:	9a9f1000 	csel	x0, x0, xzr, ne  // ne = any
    5b24:	910223f8 	add	x24, sp, #0x88
    5b28:	d2801d02 	mov	x2, #0xe8                  	// #232
    5b2c:	52800001 	mov	w1, #0x0                   	// #0
    5b30:	a90783f5 	stp	x21, x0, [sp, #120]
    5b34:	aa1803e0 	mov	x0, x24
    5b38:	97fffbb5 	bl	4a0c <memset>
    5b3c:	90000000 	adrp	x0, 5000 <__fpclassifyl+0x4>
    5b40:	91292000 	add	x0, x0, #0xa48
    5b44:	f9006be0 	str	x0, [sp, #208]
    5b48:	9101a3e0 	add	x0, sp, #0x68
    5b4c:	12800013 	mov	w19, #0xffffffff            	// #-1
    5b50:	f90073e0 	str	x0, [sp, #224]
    5b54:	9101e3e0 	add	x0, sp, #0x78
    5b58:	b90117f3 	str	w19, [sp, #276]
    5b5c:	b9011bf3 	str	w19, [sp, #280]
    5b60:	f90093e0 	str	x0, [sp, #288]
    5b64:	b2407be0 	mov	x0, #0x7fffffff            	// #2147483647
    5b68:	eb00029f 	cmp	x20, x0
    5b6c:	54000189 	b.ls	5b9c <vsnprintf+0xa8>  // b.plast
    5b70:	97fffcff 	bl	4f6c <__errno_location>
    5b74:	52800961 	mov	w1, #0x4b                  	// #75
    5b78:	b9000001 	str	w1, [x0]
    5b7c:	2a1303e0 	mov	w0, w19
    5b80:	a9415bf5 	ldp	x21, x22, [sp, #16]
    5b84:	a94263f7 	ldp	x23, x24, [sp, #32]
    5b88:	f9401bfe 	ldr	x30, [sp, #48]
    5b8c:	a8d753f3 	ldp	x19, x20, [sp], #368
    5b90:	d65f03c0 	ret
    5b94:	aa0003f5 	mov	x21, x0
    5b98:	17ffffe0 	b	5b18 <vsnprintf+0x24>
    5b9c:	910103e3 	add	x3, sp, #0x40
    5ba0:	390002bf 	strb	wzr, [x21]
    5ba4:	aa1703e1 	mov	x1, x23
    5ba8:	aa0303e0 	mov	x0, x3
    5bac:	d2800402 	mov	x2, #0x20                  	// #32
    5bb0:	97fffaae 	bl	4668 <memcpy>
    5bb4:	aa0003e2 	mov	x2, x0
    5bb8:	aa1603e1 	mov	x1, x22
    5bbc:	aa1803e0 	mov	x0, x24
    5bc0:	97fffa4e 	bl	44f8 <vfprintf>
    5bc4:	17ffffef 	b	5b80 <vsnprintf+0x8c>

0000000000005bc8 <memchr>:
    5bc8:	12001c21 	and	w1, w1, #0xff
    5bcc:	f240081f 	tst	x0, #0x7
    5bd0:	540001e0 	b.eq	5c0c <memchr+0x44>  // b.none
    5bd4:	b4000482 	cbz	x2, 5c64 <memchr+0x9c>
    5bd8:	39400003 	ldrb	w3, [x0]
    5bdc:	6b01007f 	cmp	w3, w1
    5be0:	54000101 	b.ne	5c00 <memchr+0x38>  // b.any
    5be4:	8b020002 	add	x2, x0, x2
    5be8:	eb02001f 	cmp	x0, x2
    5bec:	540003c0 	b.eq	5c64 <memchr+0x9c>  // b.none
    5bf0:	39400003 	ldrb	w3, [x0]
    5bf4:	6b01007f 	cmp	w3, w1
    5bf8:	54000321 	b.ne	5c5c <memchr+0x94>  // b.any
    5bfc:	d65f03c0 	ret
    5c00:	91000400 	add	x0, x0, #0x1
    5c04:	d1000442 	sub	x2, x2, #0x1
    5c08:	17fffff1 	b	5bcc <memchr+0x4>
    5c0c:	b40002c2 	cbz	x2, 5c64 <memchr+0x9c>
    5c10:	39400003 	ldrb	w3, [x0]
    5c14:	6b01007f 	cmp	w3, w1
    5c18:	54fffe60 	b.eq	5be4 <memchr+0x1c>  // b.none
    5c1c:	93407c24 	sxtw	x4, w1
    5c20:	b200c3e3 	mov	x3, #0x101010101010101     	// #72340172838076673
    5c24:	b207dbe6 	mov	x6, #0xfefefefefefefefe    	// #-72340172838076674
    5c28:	f29fdfe6 	movk	x6, #0xfeff
    5c2c:	9b037c84 	mul	x4, x4, x3
    5c30:	f1001c5f 	cmp	x2, #0x7
    5c34:	54fffd89 	b.ls	5be4 <memchr+0x1c>  // b.plast
    5c38:	f9400003 	ldr	x3, [x0]
    5c3c:	ca030083 	eor	x3, x4, x3
    5c40:	8b060065 	add	x5, x3, x6
    5c44:	8a2300a3 	bic	x3, x5, x3
    5c48:	f201c07f 	tst	x3, #0x8080808080808080
    5c4c:	54fffcc1 	b.ne	5be4 <memchr+0x1c>  // b.any
    5c50:	91002000 	add	x0, x0, #0x8
    5c54:	d1002042 	sub	x2, x2, #0x8
    5c58:	17fffff6 	b	5c30 <memchr+0x68>
    5c5c:	91000400 	add	x0, x0, #0x1
    5c60:	17ffffe2 	b	5be8 <memchr+0x20>
    5c64:	d2800000 	mov	x0, #0x0                   	// #0
    5c68:	17ffffe5 	b	5bfc <memchr+0x34>

0000000000005c6c <lseek>:
    5c6c:	f81f0ffe 	str	x30, [sp, #-16]!
    5c70:	93407c43 	sxtw	x3, w2
    5c74:	aa0103e2 	mov	x2, x1
    5c78:	93407c01 	sxtw	x1, w0
    5c7c:	d28007c0 	mov	x0, #0x3e                  	// #62
    5c80:	9400055c 	bl	71f0 <__syscall3>
    5c84:	f84107fe 	ldr	x30, [sp], #16
    5c88:	17fffccb 	b	4fb4 <__syscall_ret>

0000000000005c8c <raw_malloc_return_hook.constprop.0>:
    5c8c:	d0000062 	adrp	x2, 13000 <_DYNAMIC>
    5c90:	9114a044 	add	x4, x2, #0x528
    5c94:	f9401083 	ldr	x3, [x4, #32]
    5c98:	b9406c85 	ldr	w5, [x4, #108]
    5c9c:	eb05007f 	cmp	x3, x5
    5ca0:	5400004d 	b.le	5ca8 <raw_malloc_return_hook.constprop.0+0x1c>
    5ca4:	b9006c83 	str	w3, [x4, #108]
    5ca8:	b5000120 	cbnz	x0, 5ccc <raw_malloc_return_hook.constprop.0+0x40>
    5cac:	9114a040 	add	x0, x2, #0x528
    5cb0:	b9407402 	ldr	w2, [x0, #116]
    5cb4:	11000442 	add	w2, w2, #0x1
    5cb8:	b9007402 	str	w2, [x0, #116]
    5cbc:	b9407802 	ldr	w2, [x0, #120]
    5cc0:	eb01005f 	cmp	x2, x1
    5cc4:	54000042 	b.cs	5ccc <raw_malloc_return_hook.constprop.0+0x40>  // b.hs, b.nlast
    5cc8:	290f0c01 	stp	w1, w3, [x0, #120]
    5ccc:	d65f03c0 	ret

0000000000005cd0 <bget>:
    5cd0:	f81f0ffe 	str	x30, [sp, #-16]!
    5cd4:	f100005f 	cmp	x2, #0x0
    5cd8:	5400012c 	b.gt	5cfc <bget+0x2c>
    5cdc:	90000063 	adrp	x3, 11000 <errmsgstr+0x177>
    5ce0:	90000061 	adrp	x1, 11000 <errmsgstr+0x177>
    5ce4:	90000060 	adrp	x0, 11000 <errmsgstr+0x177>
    5ce8:	91229063 	add	x3, x3, #0x8a4
    5cec:	91169c21 	add	x1, x1, #0x5a7
    5cf0:	91214400 	add	x0, x0, #0x851
    5cf4:	52804e22 	mov	w2, #0x271                 	// #625
    5cf8:	94000325 	bl	698c <__assert_fail>
    5cfc:	f100001f 	cmp	x0, #0x0
    5d00:	5400022b 	b.lt	5d44 <bget+0x74>  // b.tstop
    5d04:	54000080 	b.eq	5d14 <bget+0x44>  // b.none
    5d08:	cb0003e4 	neg	x4, x0
    5d0c:	ea24001f 	bics	xzr, x0, x4
    5d10:	540001a1 	b.ne	5d44 <bget+0x74>  // b.any
    5d14:	f2400c3f 	tst	x1, #0xf
    5d18:	54000161 	b.ne	5d44 <bget+0x74>  // b.any
    5d1c:	d2800205 	mov	x5, #0x10                  	// #16
    5d20:	eb05005f 	cmp	x2, x5
    5d24:	9a85a042 	csel	x2, x2, x5, ge  // ge = tcont
    5d28:	b1003c44 	adds	x4, x2, #0xf
    5d2c:	540000c4 	b.mi	5d44 <bget+0x74>  // b.first
    5d30:	eb02009f 	cmp	x4, x2
    5d34:	54000083 	b.cc	5d44 <bget+0x74>  // b.lo, b.ul, b.last
    5d38:	927cec84 	and	x4, x4, #0xfffffffffffffff0
    5d3c:	b1004084 	adds	x4, x4, #0x10
    5d40:	54000067 	b.vc	5d4c <bget+0x7c>
    5d44:	d2800000 	mov	x0, #0x0                   	// #0
    5d48:	1400008d 	b	5f7c <bget+0x2ac>
    5d4c:	ab010084 	adds	x4, x4, x1
    5d50:	54ffffa6 	b.vs	5d44 <bget+0x74>
    5d54:	f100401f 	cmp	x0, #0x10
    5d58:	91004027 	add	x7, x1, #0x10
    5d5c:	9a85a000 	csel	x0, x0, x5, ge  // ge = tcont
    5d60:	cb0400e7 	sub	x7, x7, x4
    5d64:	f9400862 	ldr	x2, [x3, #16]
    5d68:	cb0003e0 	neg	x0, x0
    5d6c:	b27be7ea 	mov	x10, #0x7fffffffffffffe0    	// #9223372036854775776
    5d70:	eb03005f 	cmp	x2, x3
    5d74:	54fffe80 	b.eq	5d44 <bget+0x74>  // b.none
    5d78:	f9400445 	ldr	x5, [x2, #8]
    5d7c:	eb05009f 	cmp	x4, x5
    5d80:	5400102c 	b.gt	5f84 <bget+0x2b4>
    5d84:	8b0200a9 	add	x9, x5, x2
    5d88:	8b010048 	add	x8, x2, x1
    5d8c:	8b070126 	add	x6, x9, x7
    5d90:	8a060006 	and	x6, x0, x6
    5d94:	cb0800c6 	sub	x6, x6, x8
    5d98:	f10040c8 	subs	x8, x6, #0x10
    5d9c:	54000080 	b.eq	5dac <bget+0xdc>  // b.none
    5da0:	d100c0c6 	sub	x6, x6, #0x30
    5da4:	eb0a00df 	cmp	x6, x10
    5da8:	54000ee2 	b.cs	5f84 <bget+0x2b4>  // b.hs, b.nlast
    5dac:	f8656841 	ldr	x1, [x2, x5]
    5db0:	8b080040 	add	x0, x2, x8
    5db4:	eb05003f 	cmp	x1, x5
    5db8:	54000120 	b.eq	5ddc <bget+0x10c>  // b.none
    5dbc:	90000063 	adrp	x3, 11000 <errmsgstr+0x177>
    5dc0:	90000061 	adrp	x1, 11000 <errmsgstr+0x177>
    5dc4:	90000060 	adrp	x0, 11000 <errmsgstr+0x177>
    5dc8:	91229063 	add	x3, x3, #0x8a4
    5dcc:	91169c21 	add	x1, x1, #0x5a7
    5dd0:	91177000 	add	x0, x0, #0x5dc
    5dd4:	52805642 	mov	w2, #0x2b2                 	// #690
    5dd8:	17ffffc8 	b	5cf8 <bget+0x28>
    5ddc:	f9400c41 	ldr	x1, [x2, #24]
    5de0:	f825685f 	str	xzr, [x2, x5]
    5de4:	f9400826 	ldr	x6, [x1, #16]
    5de8:	eb06005f 	cmp	x2, x6
    5dec:	54000120 	b.eq	5e10 <bget+0x140>  // b.none
    5df0:	90000063 	adrp	x3, 11000 <errmsgstr+0x177>
    5df4:	90000061 	adrp	x1, 11000 <errmsgstr+0x177>
    5df8:	90000060 	adrp	x0, 11000 <errmsgstr+0x177>
    5dfc:	91229063 	add	x3, x3, #0x8a4
    5e00:	91169c21 	add	x1, x1, #0x5a7
    5e04:	9117f000 	add	x0, x0, #0x5fc
    5e08:	52805742 	mov	w2, #0x2ba                 	// #698
    5e0c:	17ffffbb 	b	5cf8 <bget+0x28>
    5e10:	f9400846 	ldr	x6, [x2, #16]
    5e14:	f9400cc7 	ldr	x7, [x6, #24]
    5e18:	eb07005f 	cmp	x2, x7
    5e1c:	54000120 	b.eq	5e40 <bget+0x170>  // b.none
    5e20:	90000063 	adrp	x3, 11000 <errmsgstr+0x177>
    5e24:	90000061 	adrp	x1, 11000 <errmsgstr+0x177>
    5e28:	90000060 	adrp	x0, 11000 <errmsgstr+0x177>
    5e2c:	91229063 	add	x3, x3, #0x8a4
    5e30:	91169c21 	add	x1, x1, #0x5a7
    5e34:	91185c00 	add	x0, x0, #0x617
    5e38:	52805762 	mov	w2, #0x2bb                 	// #699
    5e3c:	17ffffaf 	b	5cf8 <bget+0x28>
    5e40:	b5000208 	cbnz	x8, 5e80 <bget+0x1b0>
    5e44:	f9000826 	str	x6, [x1, #16]
    5e48:	cb0503e5 	neg	x5, x5
    5e4c:	f9400846 	ldr	x6, [x2, #16]
    5e50:	f9000cc1 	str	x1, [x6, #24]
    5e54:	f9000445 	str	x5, [x2, #8]
    5e58:	f9400402 	ldr	x2, [x0, #8]
    5e5c:	b7f801a2 	tbnz	x2, #63, 5e90 <bget+0x1c0>
    5e60:	90000063 	adrp	x3, 11000 <errmsgstr+0x177>
    5e64:	90000061 	adrp	x1, 11000 <errmsgstr+0x177>
    5e68:	90000060 	adrp	x0, 11000 <errmsgstr+0x177>
    5e6c:	91229063 	add	x3, x3, #0x8a4
    5e70:	91169c21 	add	x1, x1, #0x5a7
    5e74:	9118c800 	add	x0, x0, #0x632
    5e78:	52805a22 	mov	w2, #0x2d1                 	// #721
    5e7c:	17ffff9f 	b	5cf8 <bget+0x28>
    5e80:	cb050105 	sub	x5, x8, x5
    5e84:	a9001408 	stp	x8, x5, [x0]
    5e88:	f9000448 	str	x8, [x2, #8]
    5e8c:	17fffff3 	b	5e58 <bget+0x188>
    5e90:	cb0203e2 	neg	x2, x2
    5e94:	cb040042 	sub	x2, x2, x4
    5e98:	f100805f 	cmp	x2, #0x20
    5e9c:	54000609 	b.ls	5f5c <bget+0x28c>  // b.plast
    5ea0:	8b040001 	add	x1, x0, x4
    5ea4:	f9000422 	str	x2, [x1, #8]
    5ea8:	f824681f 	str	xzr, [x0, x4]
    5eac:	f9400404 	ldr	x4, [x0, #8]
    5eb0:	8b020082 	add	x2, x4, x2
    5eb4:	f9000402 	str	x2, [x0, #8]
    5eb8:	f9400c62 	ldr	x2, [x3, #24]
    5ebc:	f9400844 	ldr	x4, [x2, #16]
    5ec0:	eb03009f 	cmp	x4, x3
    5ec4:	54000120 	b.eq	5ee8 <bget+0x218>  // b.none
    5ec8:	90000063 	adrp	x3, 11000 <errmsgstr+0x177>
    5ecc:	90000061 	adrp	x1, 11000 <errmsgstr+0x177>
    5ed0:	90000060 	adrp	x0, 11000 <errmsgstr+0x177>
    5ed4:	91229063 	add	x3, x3, #0x8a4
    5ed8:	91169c21 	add	x1, x1, #0x5a7
    5edc:	91191400 	add	x0, x0, #0x645
    5ee0:	52805c42 	mov	w2, #0x2e2                 	// #738
    5ee4:	17ffff85 	b	5cf8 <bget+0x28>
    5ee8:	f9400864 	ldr	x4, [x3, #16]
    5eec:	f9400c84 	ldr	x4, [x4, #24]
    5ef0:	eb03009f 	cmp	x4, x3
    5ef4:	54000120 	b.eq	5f18 <bget+0x248>  // b.none
    5ef8:	90000063 	adrp	x3, 11000 <errmsgstr+0x177>
    5efc:	90000061 	adrp	x1, 11000 <errmsgstr+0x177>
    5f00:	90000060 	adrp	x0, 11000 <errmsgstr+0x177>
    5f04:	91229063 	add	x3, x3, #0x8a4
    5f08:	91169c21 	add	x1, x1, #0x5a7
    5f0c:	911a0000 	add	x0, x0, #0x680
    5f10:	52805c82 	mov	w2, #0x2e4                 	// #740
    5f14:	17ffff79 	b	5cf8 <bget+0x28>
    5f18:	a9010823 	stp	x3, x2, [x1, #16]
    5f1c:	f9000c61 	str	x1, [x3, #24]
    5f20:	f9400c22 	ldr	x2, [x1, #24]
    5f24:	f9000841 	str	x1, [x2, #16]
    5f28:	f9400422 	ldr	x2, [x1, #8]
    5f2c:	8b020021 	add	x1, x1, x2
    5f30:	eb01013f 	cmp	x9, x1
    5f34:	54000120 	b.eq	5f58 <bget+0x288>  // b.none
    5f38:	90000063 	adrp	x3, 11000 <errmsgstr+0x177>
    5f3c:	90000061 	adrp	x1, 11000 <errmsgstr+0x177>
    5f40:	90000060 	adrp	x0, 11000 <errmsgstr+0x177>
    5f44:	91229063 	add	x3, x3, #0x8a4
    5f48:	91169c21 	add	x1, x1, #0x5a7
    5f4c:	911aec00 	add	x0, x0, #0x6bb
    5f50:	52805d62 	mov	w2, #0x2eb                 	// #747
    5f54:	17ffff69 	b	5cf8 <bget+0x28>
    5f58:	f9000122 	str	x2, [x9]
    5f5c:	f9400402 	ldr	x2, [x0, #8]
    5f60:	91004000 	add	x0, x0, #0x10
    5f64:	f9401061 	ldr	x1, [x3, #32]
    5f68:	cb020021 	sub	x1, x1, x2
    5f6c:	f9001061 	str	x1, [x3, #32]
    5f70:	f9401461 	ldr	x1, [x3, #40]
    5f74:	91000421 	add	x1, x1, #0x1
    5f78:	f9001461 	str	x1, [x3, #40]
    5f7c:	f84107fe 	ldr	x30, [sp], #16
    5f80:	d65f03c0 	ret
    5f84:	f9400842 	ldr	x2, [x2, #16]
    5f88:	17ffff7a 	b	5d70 <bget+0xa0>

0000000000005f8c <bgetz>:
    5f8c:	a9be53f3 	stp	x19, x20, [sp, #-32]!
    5f90:	aa0203f4 	mov	x20, x2
    5f94:	f9000bfe 	str	x30, [sp, #16]
    5f98:	97ffff4e 	bl	5cd0 <bget>
    5f9c:	aa0003f3 	mov	x19, x0
    5fa0:	b40002c0 	cbz	x0, 5ff8 <bgetz+0x6c>
    5fa4:	f85f8002 	ldur	x2, [x0, #-8]
    5fa8:	b50001c2 	cbnz	x2, 5fe0 <bgetz+0x54>
    5fac:	a97e0801 	ldp	x1, x2, [x0, #-32]
    5fb0:	d1008021 	sub	x1, x1, #0x20
    5fb4:	cb020022 	sub	x2, x1, x2
    5fb8:	eb14005f 	cmp	x2, x20
    5fbc:	5400016a 	b.ge	5fe8 <bgetz+0x5c>  // b.tcont
    5fc0:	90000063 	adrp	x3, 11000 <errmsgstr+0x177>
    5fc4:	90000061 	adrp	x1, 11000 <errmsgstr+0x177>
    5fc8:	90000060 	adrp	x0, 11000 <errmsgstr+0x177>
    5fcc:	9122a463 	add	x3, x3, #0x8a9
    5fd0:	91169c21 	add	x1, x1, #0x5a7
    5fd4:	911b8400 	add	x0, x0, #0x6e1
    5fd8:	52806c62 	mov	w2, #0x363                 	// #867
    5fdc:	9400026c 	bl	698c <__assert_fail>
    5fe0:	928001e1 	mov	x1, #0xfffffffffffffff0    	// #-16
    5fe4:	17fffff4 	b	5fb4 <bgetz+0x28>
    5fe8:	93407c42 	sxtw	x2, w2
    5fec:	aa1303e0 	mov	x0, x19
    5ff0:	52800001 	mov	w1, #0x0                   	// #0
    5ff4:	97fffa86 	bl	4a0c <memset>
    5ff8:	aa1303e0 	mov	x0, x19
    5ffc:	f9400bfe 	ldr	x30, [sp, #16]
    6000:	a8c253f3 	ldp	x19, x20, [sp], #32
    6004:	d65f03c0 	ret

0000000000006008 <brel>:
    6008:	a9be53f3 	stp	x19, x20, [sp, #-32]!
    600c:	f9401823 	ldr	x3, [x1, #48]
    6010:	f9000bfe 	str	x30, [sp, #16]
    6014:	91000463 	add	x3, x3, #0x1
    6018:	f9001823 	str	x3, [x1, #48]
    601c:	b5000120 	cbnz	x0, 6040 <brel+0x38>
    6020:	f0000043 	adrp	x3, 11000 <errmsgstr+0x177>
    6024:	f0000041 	adrp	x1, 11000 <errmsgstr+0x177>
    6028:	f0000040 	adrp	x0, 11000 <errmsgstr+0x177>
    602c:	9122d463 	add	x3, x3, #0x8b5
    6030:	91169c21 	add	x1, x1, #0x5a7
    6034:	911bbc00 	add	x0, x0, #0x6ef
    6038:	528074a2 	mov	w2, #0x3a5                 	// #933
    603c:	94000254 	bl	698c <__assert_fail>
    6040:	f85f8003 	ldur	x3, [x0, #-8]
    6044:	b7f80123 	tbnz	x3, #63, 6068 <brel+0x60>
    6048:	f0000043 	adrp	x3, 11000 <errmsgstr+0x177>
    604c:	f0000041 	adrp	x1, 11000 <errmsgstr+0x177>
    6050:	f0000040 	adrp	x0, 11000 <errmsgstr+0x177>
    6054:	9122d463 	add	x3, x3, #0x8b5
    6058:	91169c21 	add	x1, x1, #0x5a7
    605c:	911bec00 	add	x0, x0, #0x6fb
    6060:	52807902 	mov	w2, #0x3c8                 	// #968
    6064:	17fffff6 	b	603c <brel+0x34>
    6068:	d1004013 	sub	x19, x0, #0x10
    606c:	cb030264 	sub	x4, x19, x3
    6070:	f9400084 	ldr	x4, [x4]
    6074:	b4000124 	cbz	x4, 6098 <brel+0x90>
    6078:	f0000043 	adrp	x3, 11000 <errmsgstr+0x177>
    607c:	f0000041 	adrp	x1, 11000 <errmsgstr+0x177>
    6080:	f0000040 	adrp	x0, 11000 <errmsgstr+0x177>
    6084:	9122d463 	add	x3, x3, #0x8b5
    6088:	91169c21 	add	x1, x1, #0x5a7
    608c:	911c2c00 	add	x0, x0, #0x70b
    6090:	528079c2 	mov	w2, #0x3ce                 	// #974
    6094:	17ffffea 	b	603c <brel+0x34>
    6098:	f9401024 	ldr	x4, [x1, #32]
    609c:	8b040064 	add	x4, x3, x4
    60a0:	f9001024 	str	x4, [x1, #32]
    60a4:	b6f80124 	tbz	x4, #63, 60c8 <brel+0xc0>
    60a8:	f0000043 	adrp	x3, 11000 <errmsgstr+0x177>
    60ac:	f0000041 	adrp	x1, 11000 <errmsgstr+0x177>
    60b0:	f0000040 	adrp	x0, 11000 <errmsgstr+0x177>
    60b4:	9122d463 	add	x3, x3, #0x8b5
    60b8:	91169c21 	add	x1, x1, #0x5a7
    60bc:	911cdc00 	add	x0, x0, #0x737
    60c0:	52807a42 	mov	w2, #0x3d2                 	// #978
    60c4:	17ffffde 	b	603c <brel+0x34>
    60c8:	f85f0004 	ldur	x4, [x0, #-16]
    60cc:	b40003e4 	cbz	x4, 6148 <brel+0x140>
    60d0:	cb040273 	sub	x19, x19, x4
    60d4:	f9400660 	ldr	x0, [x19, #8]
    60d8:	eb00009f 	cmp	x4, x0
    60dc:	54000120 	b.eq	6100 <brel+0xf8>  // b.none
    60e0:	f0000043 	adrp	x3, 11000 <errmsgstr+0x177>
    60e4:	f0000041 	adrp	x1, 11000 <errmsgstr+0x177>
    60e8:	f0000040 	adrp	x0, 11000 <errmsgstr+0x177>
    60ec:	9122d463 	add	x3, x3, #0x8b5
    60f0:	91169c21 	add	x1, x1, #0x5a7
    60f4:	911d3800 	add	x0, x0, #0x74e
    60f8:	52807c42 	mov	w2, #0x3e2                 	// #994
    60fc:	17ffffd0 	b	603c <brel+0x34>
    6100:	cb030083 	sub	x3, x4, x3
    6104:	f9000663 	str	x3, [x19, #8]
    6108:	f9400660 	ldr	x0, [x19, #8]
    610c:	8b000274 	add	x20, x19, x0
    6110:	f9400681 	ldr	x1, [x20, #8]
    6114:	f100003f 	cmp	x1, #0x0
    6118:	5400090d 	b.le	6238 <brel+0x230>
    611c:	f8616a83 	ldr	x3, [x20, x1]
    6120:	eb03003f 	cmp	x1, x3
    6124:	54000500 	b.eq	61c4 <brel+0x1bc>  // b.none
    6128:	f0000043 	adrp	x3, 11000 <errmsgstr+0x177>
    612c:	f0000041 	adrp	x1, 11000 <errmsgstr+0x177>
    6130:	f0000040 	adrp	x0, 11000 <errmsgstr+0x177>
    6134:	9122d463 	add	x3, x3, #0x8b5
    6138:	91169c21 	add	x1, x1, #0x5a7
    613c:	911e1c00 	add	x0, x0, #0x787
    6140:	52807fc2 	mov	w2, #0x3fe                 	// #1022
    6144:	17ffffbe 	b	603c <brel+0x34>
    6148:	f9400c25 	ldr	x5, [x1, #24]
    614c:	f94008a4 	ldr	x4, [x5, #16]
    6150:	eb01009f 	cmp	x4, x1
    6154:	54000120 	b.eq	6178 <brel+0x170>  // b.none
    6158:	f0000043 	adrp	x3, 11000 <errmsgstr+0x177>
    615c:	f0000041 	adrp	x1, 11000 <errmsgstr+0x177>
    6160:	f0000040 	adrp	x0, 11000 <errmsgstr+0x177>
    6164:	9122d463 	add	x3, x3, #0x8b5
    6168:	91169c21 	add	x1, x1, #0x5a7
    616c:	91191400 	add	x0, x0, #0x645
    6170:	52807d42 	mov	w2, #0x3ea                 	// #1002
    6174:	17ffffb2 	b	603c <brel+0x34>
    6178:	f9400881 	ldr	x1, [x4, #16]
    617c:	f9400c21 	ldr	x1, [x1, #24]
    6180:	eb01009f 	cmp	x4, x1
    6184:	54000120 	b.eq	61a8 <brel+0x1a0>  // b.none
    6188:	f0000043 	adrp	x3, 11000 <errmsgstr+0x177>
    618c:	f0000041 	adrp	x1, 11000 <errmsgstr+0x177>
    6190:	f0000040 	adrp	x0, 11000 <errmsgstr+0x177>
    6194:	9122d463 	add	x3, x3, #0x8b5
    6198:	91169c21 	add	x1, x1, #0x5a7
    619c:	911a0000 	add	x0, x0, #0x680
    61a0:	52807d62 	mov	w2, #0x3eb                 	// #1003
    61a4:	17ffffa6 	b	603c <brel+0x34>
    61a8:	a9011664 	stp	x4, x5, [x19, #16]
    61ac:	cb0303e3 	neg	x3, x3
    61b0:	f9000c93 	str	x19, [x4, #24]
    61b4:	f9400e61 	ldr	x1, [x19, #24]
    61b8:	f9000833 	str	x19, [x1, #16]
    61bc:	f81f8003 	stur	x3, [x0, #-8]
    61c0:	17ffffd2 	b	6108 <brel+0x100>
    61c4:	f9400e84 	ldr	x4, [x20, #24]
    61c8:	f9400885 	ldr	x5, [x4, #16]
    61cc:	eb1400bf 	cmp	x5, x20
    61d0:	54000120 	b.eq	61f4 <brel+0x1ec>  // b.none
    61d4:	f0000043 	adrp	x3, 11000 <errmsgstr+0x177>
    61d8:	f0000041 	adrp	x1, 11000 <errmsgstr+0x177>
    61dc:	f0000040 	adrp	x0, 11000 <errmsgstr+0x177>
    61e0:	9122d463 	add	x3, x3, #0x8b5
    61e4:	91169c21 	add	x1, x1, #0x5a7
    61e8:	911f0000 	add	x0, x0, #0x7c0
    61ec:	52807fe2 	mov	w2, #0x3ff                 	// #1023
    61f0:	17ffff93 	b	603c <brel+0x34>
    61f4:	f94008a3 	ldr	x3, [x5, #16]
    61f8:	f9400c66 	ldr	x6, [x3, #24]
    61fc:	eb0500df 	cmp	x6, x5
    6200:	54000120 	b.eq	6224 <brel+0x21c>  // b.none
    6204:	f0000043 	adrp	x3, 11000 <errmsgstr+0x177>
    6208:	f0000041 	adrp	x1, 11000 <errmsgstr+0x177>
    620c:	f0000040 	adrp	x0, 11000 <errmsgstr+0x177>
    6210:	9122d463 	add	x3, x3, #0x8b5
    6214:	91169c21 	add	x1, x1, #0x5a7
    6218:	911f7400 	add	x0, x0, #0x7dd
    621c:	52808002 	mov	w2, #0x400                 	// #1024
    6220:	17ffff87 	b	603c <brel+0x34>
    6224:	f9000883 	str	x3, [x4, #16]
    6228:	8b010014 	add	x20, x0, x1
    622c:	f9000c64 	str	x4, [x3, #24]
    6230:	f9000674 	str	x20, [x19, #8]
    6234:	8b140274 	add	x20, x19, x20
    6238:	340000e2 	cbz	w2, 6254 <brel+0x24c>
    623c:	f9400662 	ldr	x2, [x19, #8]
    6240:	91008260 	add	x0, x19, #0x20
    6244:	52800aa1 	mov	w1, #0x55                  	// #85
    6248:	51008042 	sub	w2, w2, #0x20
    624c:	93407c42 	sxtw	x2, w2
    6250:	97fff9ef 	bl	4a0c <memset>
    6254:	f9400680 	ldr	x0, [x20, #8]
    6258:	b7f80120 	tbnz	x0, #63, 627c <brel+0x274>
    625c:	f0000043 	adrp	x3, 11000 <errmsgstr+0x177>
    6260:	f0000041 	adrp	x1, 11000 <errmsgstr+0x177>
    6264:	f0000040 	adrp	x0, 11000 <errmsgstr+0x177>
    6268:	9122d463 	add	x3, x3, #0x8b5
    626c:	91169c21 	add	x1, x1, #0x5a7
    6270:	911fe800 	add	x0, x0, #0x7fa
    6274:	52808242 	mov	w2, #0x412                 	// #1042
    6278:	17ffff71 	b	603c <brel+0x34>
    627c:	f9400660 	ldr	x0, [x19, #8]
    6280:	f9400bfe 	ldr	x30, [sp, #16]
    6284:	f9000280 	str	x0, [x20]
    6288:	a8c253f3 	ldp	x19, x20, [sp], #32
    628c:	d65f03c0 	ret

0000000000006290 <bgetr>:
    6290:	a9bd53f3 	stp	x19, x20, [sp, #-48]!
    6294:	aa0303f4 	mov	x20, x3
    6298:	aa0403e3 	mov	x3, x4
    629c:	a9015bf5 	stp	x21, x22, [sp, #16]
    62a0:	aa0003f5 	mov	x21, x0
    62a4:	aa0103e0 	mov	x0, x1
    62a8:	aa0203e1 	mov	x1, x2
    62ac:	aa1403e2 	mov	x2, x20
    62b0:	a9027bf7 	stp	x23, x30, [sp, #32]
    62b4:	aa0403f7 	mov	x23, x4
    62b8:	97fffe86 	bl	5cd0 <bget>
    62bc:	aa0003f6 	mov	x22, x0
    62c0:	b40003e0 	cbz	x0, 633c <bgetr+0xac>
    62c4:	b40003d5 	cbz	x21, 633c <bgetr+0xac>
    62c8:	f85f82a1 	ldur	x1, [x21, #-8]
    62cc:	928001f3 	mov	x19, #0xfffffffffffffff0    	// #-16
    62d0:	cb010273 	sub	x19, x19, x1
    62d4:	f100027f 	cmp	x19, #0x0
    62d8:	5400012c 	b.gt	62fc <bgetr+0x6c>
    62dc:	f0000043 	adrp	x3, 11000 <errmsgstr+0x177>
    62e0:	f0000041 	adrp	x1, 11000 <errmsgstr+0x177>
    62e4:	f0000040 	adrp	x0, 11000 <errmsgstr+0x177>
    62e8:	9122bc63 	add	x3, x3, #0x8af
    62ec:	91169c21 	add	x1, x1, #0x5a7
    62f0:	91202c00 	add	x0, x0, #0x80b
    62f4:	52807162 	mov	w2, #0x38b                 	// #907
    62f8:	940001a5 	bl	698c <__assert_fail>
    62fc:	eb13029f 	cmp	x20, x19
    6300:	93407e81 	sxtw	x1, w20
    6304:	93407e62 	sxtw	x2, w19
    6308:	9a81a042 	csel	x2, x2, x1, ge  // ge = tcont
    630c:	aa1503e1 	mov	x1, x21
    6310:	97fff8d6 	bl	4668 <memcpy>
    6314:	eb13029f 	cmp	x20, x19
    6318:	540000ad 	b.le	632c <bgetr+0x9c>
    631c:	cb130282 	sub	x2, x20, x19
    6320:	8b1302c0 	add	x0, x22, x19
    6324:	52800001 	mov	w1, #0x0                   	// #0
    6328:	97fff9b9 	bl	4a0c <memset>
    632c:	aa1703e1 	mov	x1, x23
    6330:	aa1503e0 	mov	x0, x21
    6334:	52800002 	mov	w2, #0x0                   	// #0
    6338:	97ffff34 	bl	6008 <brel>
    633c:	aa1603e0 	mov	x0, x22
    6340:	a9415bf5 	ldp	x21, x22, [sp, #16]
    6344:	a9427bf7 	ldp	x23, x30, [sp, #32]
    6348:	a8c353f3 	ldp	x19, x20, [sp], #48
    634c:	d65f03c0 	ret

0000000000006350 <bpool>:
    6350:	f81f0ffe 	str	x30, [sp, #-16]!
    6354:	927cec21 	and	x1, x1, #0xfffffffffffffff0
    6358:	f1004021 	subs	x1, x1, #0x10
    635c:	54000125 	b.pl	6380 <bpool+0x30>  // b.nfrst
    6360:	f0000043 	adrp	x3, 11000 <errmsgstr+0x177>
    6364:	f0000041 	adrp	x1, 11000 <errmsgstr+0x177>
    6368:	f0000040 	adrp	x0, 11000 <errmsgstr+0x177>
    636c:	9122e863 	add	x3, x3, #0x8ba
    6370:	91169c21 	add	x1, x1, #0x5a7
    6374:	91205400 	add	x0, x0, #0x815
    6378:	52808ca2 	mov	w2, #0x465                 	// #1125
    637c:	94000184 	bl	698c <__assert_fail>
    6380:	f9400c44 	ldr	x4, [x2, #24]
    6384:	f9400883 	ldr	x3, [x4, #16]
    6388:	f900001f 	str	xzr, [x0]
    638c:	eb02007f 	cmp	x3, x2
    6390:	54000120 	b.eq	63b4 <bpool+0x64>  // b.none
    6394:	f0000043 	adrp	x3, 11000 <errmsgstr+0x177>
    6398:	f0000041 	adrp	x1, 11000 <errmsgstr+0x177>
    639c:	f0000040 	adrp	x0, 11000 <errmsgstr+0x177>
    63a0:	9122e863 	add	x3, x3, #0x8ba
    63a4:	91169c21 	add	x1, x1, #0x5a7
    63a8:	91191400 	add	x0, x0, #0x645
    63ac:	52808de2 	mov	w2, #0x46f                 	// #1135
    63b0:	17fffff3 	b	637c <bpool+0x2c>
    63b4:	f9400862 	ldr	x2, [x3, #16]
    63b8:	f9400c42 	ldr	x2, [x2, #24]
    63bc:	eb02007f 	cmp	x3, x2
    63c0:	54000120 	b.eq	63e4 <bpool+0x94>  // b.none
    63c4:	f0000043 	adrp	x3, 11000 <errmsgstr+0x177>
    63c8:	f0000041 	adrp	x1, 11000 <errmsgstr+0x177>
    63cc:	f0000040 	adrp	x0, 11000 <errmsgstr+0x177>
    63d0:	9122e863 	add	x3, x3, #0x8ba
    63d4:	91169c21 	add	x1, x1, #0x5a7
    63d8:	911a0000 	add	x0, x0, #0x680
    63dc:	52808e02 	mov	w2, #0x470                 	// #1136
    63e0:	17ffffe7 	b	637c <bpool+0x2c>
    63e4:	f84107fe 	ldr	x30, [sp], #16
    63e8:	a9011003 	stp	x3, x4, [x0, #16]
    63ec:	f9000c60 	str	x0, [x3, #24]
    63f0:	f9400c02 	ldr	x2, [x0, #24]
    63f4:	f9000840 	str	x0, [x2, #16]
    63f8:	8b010002 	add	x2, x0, x1
    63fc:	f9000401 	str	x1, [x0, #8]
    6400:	f8216801 	str	x1, [x0, x1]
    6404:	d2f00000 	mov	x0, #0x8000000000000000    	// #-9223372036854775808
    6408:	f9000440 	str	x0, [x2, #8]
    640c:	d65f03c0 	ret

0000000000006410 <bstats>:
    6410:	f94014a7 	ldr	x7, [x5, #40]
    6414:	f94008a6 	ldr	x6, [x5, #16]
    6418:	f9000067 	str	x7, [x3]
    641c:	f94018a3 	ldr	x3, [x5, #48]
    6420:	f9000083 	str	x3, [x4]
    6424:	f94010a3 	ldr	x3, [x5, #32]
    6428:	f9000003 	str	x3, [x0]
    642c:	f900003f 	str	xzr, [x1]
    6430:	92800000 	mov	x0, #0xffffffffffffffff    	// #-1
    6434:	f9000040 	str	x0, [x2]
    6438:	eb0600bf 	cmp	x5, x6
    643c:	54000041 	b.ne	6444 <bstats+0x34>  // b.any
    6440:	d65f03c0 	ret
    6444:	f94004c3 	ldr	x3, [x6, #8]
    6448:	f100007f 	cmp	x3, #0x0
    644c:	5400014c 	b.gt	6474 <bstats+0x64>
    6450:	f81f0ffe 	str	x30, [sp, #-16]!
    6454:	f0000043 	adrp	x3, 11000 <errmsgstr+0x177>
    6458:	f0000041 	adrp	x1, 11000 <errmsgstr+0x177>
    645c:	f0000040 	adrp	x0, 11000 <errmsgstr+0x177>
    6460:	91230063 	add	x3, x3, #0x8c0
    6464:	91169c21 	add	x1, x1, #0x5a7
    6468:	91212800 	add	x0, x0, #0x84a
    646c:	52809382 	mov	w2, #0x49c                 	// #1180
    6470:	94000147 	bl	698c <__assert_fail>
    6474:	f9400020 	ldr	x0, [x1]
    6478:	8b030000 	add	x0, x0, x3
    647c:	f9000020 	str	x0, [x1]
    6480:	f9400043 	ldr	x3, [x2]
    6484:	f94004c0 	ldr	x0, [x6, #8]
    6488:	eb03001f 	cmp	x0, x3
    648c:	5400004d 	b.le	6494 <bstats+0x84>
    6490:	f9000040 	str	x0, [x2]
    6494:	f94008c6 	ldr	x6, [x6, #16]
    6498:	17ffffe8 	b	6438 <bstats+0x28>

000000000000649c <malloc_reset_stats>:
    649c:	b0000060 	adrp	x0, 13000 <_DYNAMIC>
    64a0:	9114a000 	add	x0, x0, #0x528
    64a4:	b9006c1f 	str	wzr, [x0, #108]
    64a8:	b900741f 	str	wzr, [x0, #116]
    64ac:	f9003c1f 	str	xzr, [x0, #120]
    64b0:	d65f03c0 	ret

00000000000064b4 <malloc_get_stats>:
    64b4:	a9be53f3 	stp	x19, x20, [sp, #-32]!
    64b8:	b0000073 	adrp	x19, 13000 <_DYNAMIC>
    64bc:	9114a273 	add	x19, x19, #0x528
    64c0:	aa0003f4 	mov	x20, x0
    64c4:	91012261 	add	x1, x19, #0x48
    64c8:	d2800702 	mov	x2, #0x38                  	// #56
    64cc:	f9000bfe 	str	x30, [sp, #16]
    64d0:	97fff866 	bl	4668 <memcpy>
    64d4:	f9401260 	ldr	x0, [x19, #32]
    64d8:	f9400bfe 	ldr	x30, [sp, #16]
    64dc:	b9002280 	str	w0, [x20, #32]
    64e0:	a8c253f3 	ldp	x19, x20, [sp], #32
    64e4:	d65f03c0 	ret

00000000000064e8 <__libc_malloc_impl>:
    64e8:	a9bf7bf3 	stp	x19, x30, [sp, #-16]!
    64ec:	aa0003f3 	mov	x19, x0
    64f0:	b7f801e0 	tbnz	x0, #63, 652c <__libc_malloc_impl+0x44>
    64f4:	f100001f 	cmp	x0, #0x0
    64f8:	b0000063 	adrp	x3, 13000 <_DYNAMIC>
    64fc:	9a9f1402 	csinc	x2, x0, xzr, ne  // ne = any
    6500:	9114a063 	add	x3, x3, #0x528
    6504:	d2800001 	mov	x1, #0x0                   	// #0
    6508:	d2800200 	mov	x0, #0x10                  	// #16
    650c:	97fffdf1 	bl	5cd0 <bget>
    6510:	aa0003e6 	mov	x6, x0
    6514:	aa1303e1 	mov	x1, x19
    6518:	aa0603e0 	mov	x0, x6
    651c:	97fffddc 	bl	5c8c <raw_malloc_return_hook.constprop.0>
    6520:	aa0603e0 	mov	x0, x6
    6524:	a8c17bf3 	ldp	x19, x30, [sp], #16
    6528:	d65f03c0 	ret
    652c:	d2800006 	mov	x6, #0x0                   	// #0
    6530:	17fffff9 	b	6514 <__libc_malloc_impl+0x2c>

0000000000006534 <__libc_calloc_impl>:
    6534:	a9bf7bf3 	stp	x19, x30, [sp, #-16]!
    6538:	9b017c13 	mul	x19, x0, x1
    653c:	9bc17c00 	umulh	x0, x0, x1
    6540:	d2800022 	mov	x2, #0x1                   	// #1
    6544:	f100001f 	cmp	x0, #0x0
    6548:	9a9f07e0 	cset	x0, ne  // ne = any
    654c:	f100027f 	cmp	x19, #0x0
    6550:	9a82a000 	csel	x0, x0, x2, ge  // ge = tcont
    6554:	b50001a0 	cbnz	x0, 6588 <__libc_calloc_impl+0x54>
    6558:	9a821262 	csel	x2, x19, x2, ne  // ne = any
    655c:	b0000063 	adrp	x3, 13000 <_DYNAMIC>
    6560:	d2800001 	mov	x1, #0x0                   	// #0
    6564:	9114a063 	add	x3, x3, #0x528
    6568:	97fffe89 	bl	5f8c <bgetz>
    656c:	aa0003e6 	mov	x6, x0
    6570:	aa1303e1 	mov	x1, x19
    6574:	aa0603e0 	mov	x0, x6
    6578:	97fffdc5 	bl	5c8c <raw_malloc_return_hook.constprop.0>
    657c:	aa0603e0 	mov	x0, x6
    6580:	a8c17bf3 	ldp	x19, x30, [sp], #16
    6584:	d65f03c0 	ret
    6588:	d2800006 	mov	x6, #0x0                   	// #0
    658c:	17fffff9 	b	6570 <__libc_calloc_impl+0x3c>

0000000000006590 <__libc_realloc>:
    6590:	a9bf7bf3 	stp	x19, x30, [sp, #-16]!
    6594:	aa0103f3 	mov	x19, x1
    6598:	b7f801e1 	tbnz	x1, #63, 65d4 <__libc_realloc+0x44>
    659c:	f100003f 	cmp	x1, #0x0
    65a0:	b0000064 	adrp	x4, 13000 <_DYNAMIC>
    65a4:	9a9f1423 	csinc	x3, x1, xzr, ne  // ne = any
    65a8:	9114a084 	add	x4, x4, #0x528
    65ac:	d2800002 	mov	x2, #0x0                   	// #0
    65b0:	d2800001 	mov	x1, #0x0                   	// #0
    65b4:	97ffff37 	bl	6290 <bgetr>
    65b8:	aa0003e6 	mov	x6, x0
    65bc:	aa1303e1 	mov	x1, x19
    65c0:	aa0603e0 	mov	x0, x6
    65c4:	97fffdb2 	bl	5c8c <raw_malloc_return_hook.constprop.0>
    65c8:	aa0603e0 	mov	x0, x6
    65cc:	a8c17bf3 	ldp	x19, x30, [sp], #16
    65d0:	d65f03c0 	ret
    65d4:	d2800006 	mov	x6, #0x0                   	// #0
    65d8:	17fffff9 	b	65bc <__libc_realloc+0x2c>

00000000000065dc <memalign>:
    65dc:	b40002c0 	cbz	x0, 6634 <memalign+0x58>
    65e0:	a9bf7bf3 	stp	x19, x30, [sp, #-16]!
    65e4:	aa0103f3 	mov	x19, x1
    65e8:	cb0003e1 	neg	x1, x0
    65ec:	ea21001f 	bics	xzr, x0, x1
    65f0:	54000281 	b.ne	6640 <memalign+0x64>  // b.any
    65f4:	b7f801d3 	tbnz	x19, #63, 662c <memalign+0x50>
    65f8:	f100027f 	cmp	x19, #0x0
    65fc:	b0000063 	adrp	x3, 13000 <_DYNAMIC>
    6600:	9a9f1662 	csinc	x2, x19, xzr, ne  // ne = any
    6604:	9114a063 	add	x3, x3, #0x528
    6608:	d2800001 	mov	x1, #0x0                   	// #0
    660c:	97fffdb1 	bl	5cd0 <bget>
    6610:	aa0003e6 	mov	x6, x0
    6614:	aa1303e1 	mov	x1, x19
    6618:	aa0603e0 	mov	x0, x6
    661c:	97fffd9c 	bl	5c8c <raw_malloc_return_hook.constprop.0>
    6620:	aa0603e0 	mov	x0, x6
    6624:	a8c17bf3 	ldp	x19, x30, [sp], #16
    6628:	d65f03c0 	ret
    662c:	d2800006 	mov	x6, #0x0                   	// #0
    6630:	17fffff9 	b	6614 <memalign+0x38>
    6634:	d2800006 	mov	x6, #0x0                   	// #0
    6638:	aa0603e0 	mov	x0, x6
    663c:	d65f03c0 	ret
    6640:	d2800006 	mov	x6, #0x0                   	// #0
    6644:	17fffff7 	b	6620 <memalign+0x44>

0000000000006648 <msize>:
    6648:	f85f8001 	ldur	x1, [x0, #-8]
    664c:	928001e0 	mov	x0, #0xfffffffffffffff0    	// #-16
    6650:	cb010000 	sub	x0, x0, x1
    6654:	f100001f 	cmp	x0, #0x0
    6658:	5400014c 	b.gt	6680 <msize+0x38>
    665c:	f81f0ffe 	str	x30, [sp, #-16]!
    6660:	f0000043 	adrp	x3, 11000 <errmsgstr+0x177>
    6664:	f0000041 	adrp	x1, 11000 <errmsgstr+0x177>
    6668:	f0000040 	adrp	x0, 11000 <errmsgstr+0x177>
    666c:	91236863 	add	x3, x3, #0x8da
    6670:	91216821 	add	x1, x1, #0x85a
    6674:	91202c00 	add	x0, x0, #0x80b
    6678:	52803aa2 	mov	w2, #0x1d5                 	// #469
    667c:	940000c4 	bl	698c <__assert_fail>
    6680:	d65f03c0 	ret

0000000000006684 <__libc_free>:
    6684:	b40000a0 	cbz	x0, 6698 <__libc_free+0x14>
    6688:	52800002 	mov	w2, #0x0                   	// #0
    668c:	b0000061 	adrp	x1, 13000 <_DYNAMIC>
    6690:	9114a021 	add	x1, x1, #0x528
    6694:	17fffe5d 	b	6008 <brel>
    6698:	d65f03c0 	ret

000000000000669c <free_wipe>:
    669c:	b40000a0 	cbz	x0, 66b0 <free_wipe+0x14>
    66a0:	52800022 	mov	w2, #0x1                   	// #1
    66a4:	b0000061 	adrp	x1, 13000 <_DYNAMIC>
    66a8:	9114a021 	add	x1, x1, #0x528
    66ac:	17fffe57 	b	6008 <brel>
    66b0:	d65f03c0 	ret

00000000000066b4 <malloc_add_pool>:
    66b4:	a9bc53f3 	stp	x19, x20, [sp, #-64]!
    66b8:	8b010013 	add	x19, x0, x1
    66bc:	91003c00 	add	x0, x0, #0xf
    66c0:	a9015bf5 	stp	x21, x22, [sp, #16]
    66c4:	927cee73 	and	x19, x19, #0xfffffffffffffff0
    66c8:	927cec15 	and	x21, x0, #0xfffffffffffffff0
    66cc:	a90263f7 	stp	x23, x24, [sp, #32]
    66d0:	eb1302bf 	cmp	x21, x19
    66d4:	f9001bfe 	str	x30, [sp, #48]
    66d8:	54000123 	b.cc	66fc <malloc_add_pool+0x48>  // b.lo, b.ul, b.last
    66dc:	f0000043 	adrp	x3, 11000 <errmsgstr+0x177>
    66e0:	f0000041 	adrp	x1, 11000 <errmsgstr+0x177>
    66e4:	f0000040 	adrp	x0, 11000 <errmsgstr+0x177>
    66e8:	9123a063 	add	x3, x3, #0x8e8
    66ec:	91216821 	add	x1, x1, #0x85a
    66f0:	91225800 	add	x0, x0, #0x896
    66f4:	528062a2 	mov	w2, #0x315                 	// #789
    66f8:	940000a5 	bl	698c <__assert_fail>
    66fc:	cb150273 	sub	x19, x19, x21
    6700:	f100be7f 	cmp	x19, #0x2f
    6704:	54000589 	b.ls	67b4 <malloc_add_pool+0x100>  // b.plast
    6708:	b0000074 	adrp	x20, 13000 <_DYNAMIC>
    670c:	9114a298 	add	x24, x20, #0x528
    6710:	aa1803e2 	mov	x2, x24
    6714:	aa1303e1 	mov	x1, x19
    6718:	aa1503e0 	mov	x0, x21
    671c:	97ffff0d 	bl	6350 <bpool>
    6720:	f9402316 	ldr	x22, [x24, #64]
    6724:	910006d6 	add	x22, x22, #0x1
    6728:	d37ceed7 	lsl	x23, x22, #4
    672c:	b7d802b6 	tbnz	x22, #59, 6780 <malloc_add_pool+0xcc>
    6730:	f9401f00 	ldr	x0, [x24, #56]
    6734:	f10002ff 	cmp	x23, #0x0
    6738:	aa1803e4 	mov	x4, x24
    673c:	9a9f16e3 	csinc	x3, x23, xzr, ne  // ne = any
    6740:	d2800002 	mov	x2, #0x0                   	// #0
    6744:	d2800001 	mov	x1, #0x0                   	// #0
    6748:	97fffed2 	bl	6290 <bgetr>
    674c:	aa0003e6 	mov	x6, x0
    6750:	aa1703e1 	mov	x1, x23
    6754:	aa0603e0 	mov	x0, x6
    6758:	97fffd4d 	bl	5c8c <raw_malloc_return_hook.constprop.0>
    675c:	b5000166 	cbnz	x6, 6788 <malloc_add_pool+0xd4>
    6760:	f0000043 	adrp	x3, 11000 <errmsgstr+0x177>
    6764:	f0000041 	adrp	x1, 11000 <errmsgstr+0x177>
    6768:	f0000040 	adrp	x0, 11000 <errmsgstr+0x177>
    676c:	9123a063 	add	x3, x3, #0x8e8
    6770:	91216821 	add	x1, x1, #0x85a
    6774:	91228800 	add	x0, x0, #0x8a2
    6778:	52806442 	mov	w2, #0x322                 	// #802
    677c:	17ffffdf 	b	66f8 <malloc_add_pool+0x44>
    6780:	d2800006 	mov	x6, #0x0                   	// #0
    6784:	17fffff3 	b	6750 <malloc_add_pool+0x9c>
    6788:	9114a281 	add	x1, x20, #0x528
    678c:	f9402020 	ldr	x0, [x1, #64]
    6790:	f9001c26 	str	x6, [x1, #56]
    6794:	d37cec02 	lsl	x2, x0, #4
    6798:	8b0010c0 	add	x0, x6, x0, lsl #4
    679c:	f82268d5 	str	x21, [x6, x2]
    67a0:	f9000413 	str	x19, [x0, #8]
    67a4:	b9407020 	ldr	w0, [x1, #112]
    67a8:	f9002036 	str	x22, [x1, #64]
    67ac:	0b130013 	add	w19, w0, w19
    67b0:	b9007033 	str	w19, [x1, #112]
    67b4:	a9415bf5 	ldp	x21, x22, [sp, #16]
    67b8:	a94263f7 	ldp	x23, x24, [sp, #32]
    67bc:	f9401bfe 	ldr	x30, [sp, #48]
    67c0:	a8c453f3 	ldp	x19, x20, [sp], #64
    67c4:	d65f03c0 	ret

00000000000067c8 <malloc_buffer_is_within_alloced>:
    67c8:	ab010001 	adds	x1, x0, x1
    67cc:	54000aa2 	b.cs	6920 <malloc_buffer_is_within_alloced+0x158>  // b.hs, b.nlast
    67d0:	aa0003e4 	mov	x4, x0
    67d4:	b0000060 	adrp	x0, 13000 <_DYNAMIC>
    67d8:	9114a000 	add	x0, x0, #0x528
    67dc:	d2800006 	mov	x6, #0x0                   	// #0
    67e0:	d2f0000a 	mov	x10, #0x8000000000000000    	// #-9223372036854775808
    67e4:	928001eb 	mov	x11, #0xfffffffffffffff0    	// #-16
    67e8:	a943a407 	ldp	x7, x9, [x0, #56]
    67ec:	f94000e3 	ldr	x3, [x7]
    67f0:	aa0303e0 	mov	x0, x3
    67f4:	f9400462 	ldr	x2, [x3, #8]
    67f8:	eb0a005f 	cmp	x2, x10
    67fc:	540008c0 	b.eq	6914 <malloc_buffer_is_within_alloced+0x14c>  // b.none
    6800:	f81f0ffe 	str	x30, [sp, #-16]!
    6804:	1400000d 	b	6838 <malloc_buffer_is_within_alloced+0x70>
    6808:	91004005 	add	x5, x0, #0x10
    680c:	8b0200a2 	add	x2, x5, x2
    6810:	eb02003f 	cmp	x1, x2
    6814:	1a9f87e0 	cset	w0, ls  // ls = plast
    6818:	eb05009f 	cmp	x4, x5
    681c:	1a9f37e2 	cset	w2, cs  // cs = hs, nlast
    6820:	6a020000 	ands	w0, w0, w2
    6824:	540006e1 	b.ne	6900 <malloc_buffer_is_within_alloced+0x138>  // b.any
    6828:	f9400462 	ldr	x2, [x3, #8]
    682c:	aa0303e0 	mov	x0, x3
    6830:	eb0a005f 	cmp	x2, x10
    6834:	540005e0 	b.eq	68f0 <malloc_buffer_is_within_alloced+0x128>  // b.none
    6838:	b6f80202 	tbz	x2, #63, 6878 <malloc_buffer_is_within_alloced+0xb0>
    683c:	cb0203e8 	neg	x8, x2
    6840:	52800005 	mov	w5, #0x0                   	// #0
    6844:	8b080063 	add	x3, x3, x8
    6848:	35ffff05 	cbnz	w5, 6828 <malloc_buffer_is_within_alloced+0x60>
    684c:	cb020162 	sub	x2, x11, x2
    6850:	f100005f 	cmp	x2, #0x0
    6854:	54fffdac 	b.gt	6808 <malloc_buffer_is_within_alloced+0x40>
    6858:	f0000043 	adrp	x3, 11000 <errmsgstr+0x177>
    685c:	f0000041 	adrp	x1, 11000 <errmsgstr+0x177>
    6860:	f0000040 	adrp	x0, 11000 <errmsgstr+0x177>
    6864:	91236863 	add	x3, x3, #0x8da
    6868:	91216821 	add	x1, x1, #0x85a
    686c:	91202c00 	add	x0, x0, #0x80b
    6870:	52803aa2 	mov	w2, #0x1d5                 	// #469
    6874:	94000046 	bl	698c <__assert_fail>
    6878:	f9400c65 	ldr	x5, [x3, #24]
    687c:	f94008a5 	ldr	x5, [x5, #16]
    6880:	eb0300bf 	cmp	x5, x3
    6884:	54000120 	b.eq	68a8 <malloc_buffer_is_within_alloced+0xe0>  // b.none
    6888:	f0000043 	adrp	x3, 11000 <errmsgstr+0x177>
    688c:	f0000041 	adrp	x1, 11000 <errmsgstr+0x177>
    6890:	f0000040 	adrp	x0, 11000 <errmsgstr+0x177>
    6894:	91231c63 	add	x3, x3, #0x8c7
    6898:	91216821 	add	x1, x1, #0x85a
    689c:	9117f000 	add	x0, x0, #0x5fc
    68a0:	52802802 	mov	w2, #0x140                 	// #320
    68a4:	9400003a 	bl	698c <__assert_fail>
    68a8:	f9400865 	ldr	x5, [x3, #16]
    68ac:	f9400ca5 	ldr	x5, [x5, #24]
    68b0:	eb0300bf 	cmp	x5, x3
    68b4:	54000120 	b.eq	68d8 <malloc_buffer_is_within_alloced+0x110>  // b.none
    68b8:	f0000043 	adrp	x3, 11000 <errmsgstr+0x177>
    68bc:	f0000041 	adrp	x1, 11000 <errmsgstr+0x177>
    68c0:	f0000040 	adrp	x0, 11000 <errmsgstr+0x177>
    68c4:	91231c63 	add	x3, x3, #0x8c7
    68c8:	91216821 	add	x1, x1, #0x85a
    68cc:	91185c00 	add	x0, x0, #0x617
    68d0:	52802822 	mov	w2, #0x141                 	// #321
    68d4:	9400002e 	bl	698c <__assert_fail>
    68d8:	aa0203e8 	mov	x8, x2
    68dc:	52800025 	mov	w5, #0x1                   	// #1
    68e0:	17ffffd9 	b	6844 <malloc_buffer_is_within_alloced+0x7c>
    68e4:	d37cecc0 	lsl	x0, x6, #4
    68e8:	f86068e3 	ldr	x3, [x7, x0]
    68ec:	17ffffcf 	b	6828 <malloc_buffer_is_within_alloced+0x60>
    68f0:	910004c6 	add	x6, x6, #0x1
    68f4:	eb0900df 	cmp	x6, x9
    68f8:	54ffff63 	b.cc	68e4 <malloc_buffer_is_within_alloced+0x11c>  // b.lo, b.ul, b.last
    68fc:	52800000 	mov	w0, #0x0                   	// #0
    6900:	f84107fe 	ldr	x30, [sp], #16
    6904:	d65f03c0 	ret
    6908:	d37cecc0 	lsl	x0, x6, #4
    690c:	f86068e3 	ldr	x3, [x7, x0]
    6910:	17ffffb8 	b	67f0 <malloc_buffer_is_within_alloced+0x28>
    6914:	910004c6 	add	x6, x6, #0x1
    6918:	eb0900df 	cmp	x6, x9
    691c:	54ffff63 	b.cc	6908 <malloc_buffer_is_within_alloced+0x140>  // b.lo, b.ul, b.last
    6920:	52800000 	mov	w0, #0x0                   	// #0
    6924:	d65f03c0 	ret

0000000000006928 <malloc_buffer_overlaps_heap>:
    6928:	ab010001 	adds	x1, x0, x1
    692c:	aa0003e3 	mov	x3, x0
    6930:	b0000060 	adrp	x0, 13000 <_DYNAMIC>
    6934:	9114a000 	add	x0, x0, #0x528
    6938:	9a9f37e9 	cset	x9, cs  // cs = hs, nlast
    693c:	d2800007 	mov	x7, #0x0                   	// #0
    6940:	a943a004 	ldp	x4, x8, [x0, #56]
    6944:	eb0800ff 	cmp	x7, x8
    6948:	54000061 	b.ne	6954 <malloc_buffer_overlaps_heap+0x2c>  // b.any
    694c:	52800000 	mov	w0, #0x0                   	// #0
    6950:	d65f03c0 	ret
    6954:	a9400086 	ldp	x6, x0, [x4]
    6958:	ab0000c5 	adds	x5, x6, x0
    695c:	1a9f37e2 	cset	w2, cs  // cs = hs, nlast
    6960:	2a090040 	orr	w0, w2, w9
    6964:	35ffff60 	cbnz	w0, 6950 <malloc_buffer_overlaps_heap+0x28>
    6968:	eb06003f 	cmp	x1, x6
    696c:	91004084 	add	x4, x4, #0x10
    6970:	1a9f97e2 	cset	w2, hi  // hi = pmore
    6974:	eb05007f 	cmp	x3, x5
    6978:	1a9f27e0 	cset	w0, cc  // cc = lo, ul, last
    697c:	2a000040 	orr	w0, w2, w0
    6980:	35fffe80 	cbnz	w0, 6950 <malloc_buffer_overlaps_heap+0x28>
    6984:	910004e7 	add	x7, x7, #0x1
    6988:	17ffffef 	b	6944 <malloc_buffer_overlaps_heap+0x1c>

000000000000698c <__assert_fail>:
    698c:	2a0203e5 	mov	w5, w2
    6990:	aa0303e4 	mov	x4, x3
    6994:	aa0003e2 	mov	x2, x0
    6998:	aa0103e3 	mov	x3, x1
    699c:	f0000041 	adrp	x1, 11000 <errmsgstr+0x177>
    69a0:	9123f021 	add	x1, x1, #0x8fc
    69a4:	f81f0ffe 	str	x30, [sp, #-16]!
    69a8:	b0000060 	adrp	x0, 13000 <_DYNAMIC>
    69ac:	9116c000 	add	x0, x0, #0x5b0
    69b0:	94000147 	bl	6ecc <fprintf>
    69b4:	94000164 	bl	6f44 <abort>

00000000000069b8 <__simple_malloc>:
    69b8:	a9b853f3 	stp	x19, x20, [sp, #-128]!
    69bc:	f100001f 	cmp	x0, #0x0
    69c0:	a9015bf5 	stp	x21, x22, [sp, #16]
    69c4:	a90263f7 	stp	x23, x24, [sp, #32]
    69c8:	a9036bf9 	stp	x25, x26, [sp, #48]
    69cc:	a90473fb 	stp	x27, x28, [sp, #64]
    69d0:	f9002bfe 	str	x30, [sp, #80]
    69d4:	540000ca 	b.ge	69ec <__simple_malloc+0x34>  // b.tcont
    69d8:	97fff965 	bl	4f6c <__errno_location>
    69dc:	52800181 	mov	w1, #0xc                   	// #12
    69e0:	b9000001 	str	w1, [x0]
    69e4:	d2800013 	mov	x19, #0x0                   	// #0
    69e8:	14000085 	b	6bfc <__simple_malloc+0x244>
    69ec:	d2800034 	mov	x20, #0x1                   	// #1
    69f0:	9a941015 	csel	x21, x0, x20, ne  // ne = any
    69f4:	eb15029f 	cmp	x20, x21
    69f8:	fa4f3a82 	ccmp	x20, #0xf, #0x2, cc  // cc = lo, ul, last
    69fc:	54000a29 	b.ls	6b40 <__simple_malloc+0x188>  // b.plast
    6a00:	b0000077 	adrp	x23, 13000 <_DYNAMIC>
    6a04:	90000096 	adrp	x22, 16000 <data.4829+0x2800>
    6a08:	9126b2c0 	add	x0, x22, #0x9ac
    6a0c:	97fff886 	bl	4c24 <__lock>
    6a10:	f943bef3 	ldr	x19, [x23, #1912]
    6a14:	d1000694 	sub	x20, x20, #0x1
    6a18:	b0000078 	adrp	x24, 13000 <_DYNAMIC>
    6a1c:	cb1303fa 	neg	x26, x19
    6a20:	8a140354 	and	x20, x26, x20
    6a24:	8b13029a 	add	x26, x20, x19
    6a28:	f903befa 	str	x26, [x23, #1912]
    6a2c:	f943c314 	ldr	x20, [x24, #1920]
    6a30:	cb1a0280 	sub	x0, x20, x26
    6a34:	eb15001f 	cmp	x0, x21
    6a38:	54000782 	b.cs	6b28 <__simple_malloc+0x170>  // b.hs, b.nlast
    6a3c:	b0000079 	adrp	x25, 13000 <_DYNAMIC>
    6a40:	911c2333 	add	x19, x25, #0x708
    6a44:	b000007b 	adrp	x27, 13000 <_DYNAMIC>
    6a48:	f9401a7c 	ldr	x28, [x19, #48]
    6a4c:	d1000783 	sub	x3, x28, #0x1
    6a50:	b50001da 	cbnz	x26, 6a88 <__simple_malloc+0xd0>
    6a54:	d2800001 	mov	x1, #0x0                   	// #0
    6a58:	d2801ac0 	mov	x0, #0xd6                  	// #214
    6a5c:	f90037e3 	str	x3, [sp, #104]
    6a60:	940001d9 	bl	71c4 <__syscall1>
    6a64:	f9401a61 	ldr	x1, [x19, #48]
    6a68:	cb0003e2 	neg	x2, x0
    6a6c:	f94037e3 	ldr	x3, [sp, #104]
    6a70:	d1000421 	sub	x1, x1, #0x1
    6a74:	8a020021 	and	x1, x1, x2
    6a78:	8b000020 	add	x0, x1, x0
    6a7c:	f903bb60 	str	x0, [x27, #1904]
    6a80:	f903c300 	str	x0, [x24, #1920]
    6a84:	f903bee0 	str	x0, [x23, #1912]
    6a88:	f943bb62 	ldr	x2, [x27, #1904]
    6a8c:	f943c300 	ldr	x0, [x24, #1920]
    6a90:	eb00005f 	cmp	x2, x0
    6a94:	540005a1 	b.ne	6b48 <__simple_malloc+0x190>  // b.any
    6a98:	cb1402b4 	sub	x20, x21, x20
    6a9c:	cb1c03fc 	neg	x28, x28
    6aa0:	8b030293 	add	x19, x20, x3
    6aa4:	aa2203e0 	mvn	x0, x2
    6aa8:	8b1a0273 	add	x19, x19, x26
    6aac:	8a1c0273 	and	x19, x19, x28
    6ab0:	eb13001f 	cmp	x0, x19
    6ab4:	540004a9 	b.ls	6b48 <__simple_malloc+0x190>  // b.plast
    6ab8:	911c2320 	add	x0, x25, #0x708
    6abc:	8b130041 	add	x1, x2, x19
    6ac0:	f9400403 	ldr	x3, [x0, #8]
    6ac4:	d2a01000 	mov	x0, #0x800000              	// #8388608
    6ac8:	eb00007f 	cmp	x3, x0
    6acc:	9a802064 	csel	x4, x3, x0, cs  // cs = hs, nlast
    6ad0:	d1600084 	sub	x4, x4, #0x800, lsl #12
    6ad4:	eb04003f 	cmp	x1, x4
    6ad8:	fa438042 	ccmp	x2, x3, #0x2, hi  // hi = pmore
    6adc:	54000363 	b.cc	6b48 <__simple_malloc+0x190>  // b.lo, b.ul, b.last
    6ae0:	9101e3e3 	add	x3, sp, #0x78
    6ae4:	eb00007f 	cmp	x3, x0
    6ae8:	9a802060 	csel	x0, x3, x0, cs  // cs = hs, nlast
    6aec:	d1600000 	sub	x0, x0, #0x800, lsl #12
    6af0:	eb00003f 	cmp	x1, x0
    6af4:	54000069 	b.ls	6b00 <__simple_malloc+0x148>  // b.plast
    6af8:	eb03005f 	cmp	x2, x3
    6afc:	54000263 	b.cc	6b48 <__simple_malloc+0x190>  // b.lo, b.ul, b.last
    6b00:	d2801ac0 	mov	x0, #0xd6                  	// #214
    6b04:	940001b0 	bl	71c4 <__syscall1>
    6b08:	f943bb61 	ldr	x1, [x27, #1904]
    6b0c:	8b010261 	add	x1, x19, x1
    6b10:	eb01001f 	cmp	x0, x1
    6b14:	540001a1 	b.ne	6b48 <__simple_malloc+0x190>  // b.any
    6b18:	f943c300 	ldr	x0, [x24, #1920]
    6b1c:	8b000273 	add	x19, x19, x0
    6b20:	f903c313 	str	x19, [x24, #1920]
    6b24:	f903bb73 	str	x19, [x27, #1904]
    6b28:	f943bef3 	ldr	x19, [x23, #1912]
    6b2c:	9126b2c0 	add	x0, x22, #0x9ac
    6b30:	8b150275 	add	x21, x19, x21
    6b34:	f903bef5 	str	x21, [x23, #1912]
    6b38:	97fff885 	bl	4d4c <__unlock>
    6b3c:	14000030 	b	6bfc <__simple_malloc+0x244>
    6b40:	d37ffa94 	lsl	x20, x20, #1
    6b44:	17ffffac 	b	69f4 <__simple_malloc+0x3c>
    6b48:	911c2339 	add	x25, x25, #0x708
    6b4c:	f9401b20 	ldr	x0, [x25, #48]
    6b50:	d1000413 	sub	x19, x0, #0x1
    6b54:	cb0003f4 	neg	x20, x0
    6b58:	8b150273 	add	x19, x19, x21
    6b5c:	8a140274 	and	x20, x19, x20
    6b60:	cb150281 	sub	x1, x20, x21
    6b64:	eb540c3f 	cmp	x1, x20, lsr #3
    6b68:	54000289 	b.ls	6bb8 <__simple_malloc+0x200>  // b.plast
    6b6c:	90000083 	adrp	x3, 16000 <data.4829+0x2800>
    6b70:	f943bee5 	ldr	x5, [x23, #1912]
    6b74:	b949b061 	ldr	w1, [x3, #2480]
    6b78:	53017c22 	lsr	w2, w1, #1
    6b7c:	9ac22000 	lsl	x0, x0, x2
    6b80:	cb150004 	sub	x4, x0, x21
    6b84:	f943c302 	ldr	x2, [x24, #1920]
    6b88:	cb050042 	sub	x2, x2, x5
    6b8c:	eb02009f 	cmp	x4, x2
    6b90:	54000149 	b.ls	6bb8 <__simple_malloc+0x200>  // b.plast
    6b94:	eb00029f 	cmp	x20, x0
    6b98:	540000c2 	b.cs	6bb0 <__simple_malloc+0x1f8>  // b.hs, b.nlast
    6b9c:	71002c3f 	cmp	w1, #0xb
    6ba0:	54000068 	b.hi	6bac <__simple_malloc+0x1f4>  // b.pmore
    6ba4:	11000421 	add	w1, w1, #0x1
    6ba8:	b909b061 	str	w1, [x3, #2480]
    6bac:	aa0003f4 	mov	x20, x0
    6bb0:	52800039 	mov	w25, #0x1                   	// #1
    6bb4:	14000002 	b	6bbc <__simple_malloc+0x204>
    6bb8:	52800019 	mov	w25, #0x0                   	// #0
    6bbc:	aa1403e1 	mov	x1, x20
    6bc0:	52000339 	eor	w25, w25, #0x1
    6bc4:	d2800005 	mov	x5, #0x0                   	// #0
    6bc8:	12800004 	mov	w4, #0xffffffff            	// #-1
    6bcc:	52800443 	mov	w3, #0x22                  	// #34
    6bd0:	52800062 	mov	w2, #0x3                   	// #3
    6bd4:	d2800000 	mov	x0, #0x0                   	// #0
    6bd8:	94000018 	bl	6c38 <mmap>
    6bdc:	b100041f 	cmn	x0, #0x1
    6be0:	aa0003f3 	mov	x19, x0
    6be4:	1a9f1739 	csinc	w25, w25, wzr, ne  // ne = any
    6be8:	340001b9 	cbz	w25, 6c1c <__simple_malloc+0x264>
    6bec:	9126b2c0 	add	x0, x22, #0x9ac
    6bf0:	97fff857 	bl	4d4c <__unlock>
    6bf4:	b100067f 	cmn	x19, #0x1
    6bf8:	54ffef60 	b.eq	69e4 <__simple_malloc+0x2c>  // b.none
    6bfc:	aa1303e0 	mov	x0, x19
    6c00:	a9415bf5 	ldp	x21, x22, [sp, #16]
    6c04:	a94263f7 	ldp	x23, x24, [sp, #32]
    6c08:	a9436bf9 	ldp	x25, x26, [sp, #48]
    6c0c:	a94473fb 	ldp	x27, x28, [sp, #64]
    6c10:	f9402bfe 	ldr	x30, [sp, #80]
    6c14:	a8c853f3 	ldp	x19, x20, [sp], #128
    6c18:	d65f03c0 	ret
    6c1c:	8b140013 	add	x19, x0, x20
    6c20:	f903bee0 	str	x0, [x23, #1912]
    6c24:	f903c313 	str	x19, [x24, #1920]
    6c28:	17ffffc0 	b	6b28 <__simple_malloc+0x170>

0000000000006c2c <__libc_malloc>:
    6c2c:	17fffe2f 	b	64e8 <__libc_malloc_impl>

0000000000006c30 <malloc>:
    6c30:	17fffe2e 	b	64e8 <__libc_malloc_impl>

0000000000006c34 <__vm_wait>:
    6c34:	d65f03c0 	ret

0000000000006c38 <mmap>:
    6c38:	a9bc53f3 	stp	x19, x20, [sp, #-64]!
    6c3c:	f2402cbf 	tst	x5, #0xfff
    6c40:	a9015bf5 	stp	x21, x22, [sp, #16]
    6c44:	a90263f7 	stp	x23, x24, [sp, #32]
    6c48:	f9001bfe 	str	x30, [sp, #48]
    6c4c:	54000140 	b.eq	6c74 <mmap+0x3c>  // b.none
    6c50:	97fff8c7 	bl	4f6c <__errno_location>
    6c54:	528002c1 	mov	w1, #0x16                  	// #22
    6c58:	b9000001 	str	w1, [x0]
    6c5c:	92800000 	mov	x0, #0xffffffffffffffff    	// #-1
    6c60:	a9415bf5 	ldp	x21, x22, [sp, #16]
    6c64:	a94263f7 	ldp	x23, x24, [sp, #32]
    6c68:	f9401bfe 	ldr	x30, [sp, #48]
    6c6c:	a8c453f3 	ldp	x19, x20, [sp], #64
    6c70:	d65f03c0 	ret
    6c74:	aa0003f4 	mov	x20, x0
    6c78:	aa0103f5 	mov	x21, x1
    6c7c:	b27ff7e0 	mov	x0, #0x7ffffffffffffffe    	// #9223372036854775806
    6c80:	eb00003f 	cmp	x1, x0
    6c84:	54000089 	b.ls	6c94 <mmap+0x5c>  // b.plast
    6c88:	97fff8b9 	bl	4f6c <__errno_location>
    6c8c:	52800181 	mov	w1, #0xc                   	// #12
    6c90:	17fffff2 	b	6c58 <mmap+0x20>
    6c94:	2a0203f7 	mov	w23, w2
    6c98:	2a0303f3 	mov	w19, w3
    6c9c:	2a0403f8 	mov	w24, w4
    6ca0:	aa0503f6 	mov	x22, x5
    6ca4:	36200053 	tbz	w19, #4, 6cac <mmap+0x74>
    6ca8:	97ffffe3 	bl	6c34 <__vm_wait>
    6cac:	aa1603e6 	mov	x6, x22
    6cb0:	93407f05 	sxtw	x5, w24
    6cb4:	93407e64 	sxtw	x4, w19
    6cb8:	93407ee3 	sxtw	x3, w23
    6cbc:	aa1503e2 	mov	x2, x21
    6cc0:	aa1403e1 	mov	x1, x20
    6cc4:	d2801bc0 	mov	x0, #0xde                  	// #222
    6cc8:	94000153 	bl	7214 <__syscall6>
    6ccc:	f100029f 	cmp	x20, #0x0
    6cd0:	ba410800 	ccmn	x0, #0x1, #0x0, eq  // eq = none
    6cd4:	540000a1 	b.ne	6ce8 <mmap+0xb0>  // b.any
    6cd8:	121c0673 	and	w19, w19, #0x30
    6cdc:	92800160 	mov	x0, #0xfffffffffffffff4    	// #-12
    6ce0:	7100827f 	cmp	w19, #0x20
    6ce4:	da9f0000 	csinv	x0, x0, xzr, eq  // eq = none
    6ce8:	a9415bf5 	ldp	x21, x22, [sp, #16]
    6cec:	a94263f7 	ldp	x23, x24, [sp, #32]
    6cf0:	f9401bfe 	ldr	x30, [sp, #48]
    6cf4:	a8c453f3 	ldp	x19, x20, [sp], #64
    6cf8:	17fff8af 	b	4fb4 <__syscall_ret>

0000000000006cfc <wcrtomb>:
    6cfc:	b4000080 	cbz	x0, 6d0c <wcrtomb+0x10>
    6d00:	7101fc3f 	cmp	w1, #0x7f
    6d04:	54000108 	b.hi	6d24 <wcrtomb+0x28>  // b.pmore
    6d08:	39000001 	strb	w1, [x0]
    6d0c:	d2800020 	mov	x0, #0x1                   	// #1
    6d10:	d65f03c0 	ret
    6d14:	39000001 	strb	w1, [x0]
    6d18:	d2800020 	mov	x0, #0x1                   	// #1
    6d1c:	f84107fe 	ldr	x30, [sp], #16
    6d20:	d65f03c0 	ret
    6d24:	d53bd042 	mrs	x2, tpidr_el0
    6d28:	f9400042 	ldr	x2, [x2]
    6d2c:	f81f0ffe 	str	x30, [sp, #-16]!
    6d30:	f9404c42 	ldr	x2, [x2, #152]
    6d34:	f9400042 	ldr	x2, [x2]
    6d38:	b5000142 	cbnz	x2, 6d60 <wcrtomb+0x64>
    6d3c:	129befe2 	mov	w2, #0xffff2080            	// #-57216
    6d40:	0b020022 	add	w2, w1, w2
    6d44:	7101fc5f 	cmp	w2, #0x7f
    6d48:	54fffe69 	b.ls	6d14 <wcrtomb+0x18>  // b.plast
    6d4c:	97fff888 	bl	4f6c <__errno_location>
    6d50:	52800a81 	mov	w1, #0x54                  	// #84
    6d54:	b9000001 	str	w1, [x0]
    6d58:	92800000 	mov	x0, #0xffffffffffffffff    	// #-1
    6d5c:	17fffff0 	b	6d1c <wcrtomb+0x20>
    6d60:	711ffc3f 	cmp	w1, #0x7ff
    6d64:	54000128 	b.hi	6d88 <wcrtomb+0x8c>  // b.pmore
    6d68:	53067c22 	lsr	w2, w1, #6
    6d6c:	12001421 	and	w1, w1, #0x3f
    6d70:	321a6442 	orr	w2, w2, #0xffffffc0
    6d74:	32196021 	orr	w1, w1, #0xffffff80
    6d78:	39000002 	strb	w2, [x0]
    6d7c:	39000401 	strb	w1, [x0, #1]
    6d80:	d2800040 	mov	x0, #0x2                   	// #2
    6d84:	17ffffe6 	b	6d1c <wcrtomb+0x20>
    6d88:	51403823 	sub	w3, w1, #0xe, lsl #12
    6d8c:	5283ffe2 	mov	w2, #0x1fff                	// #8191
    6d90:	6b02007f 	cmp	w3, w2
    6d94:	529affe2 	mov	w2, #0xd7ff                	// #55295
    6d98:	7a428020 	ccmp	w1, w2, #0x0, hi  // hi = pmore
    6d9c:	54000188 	b.hi	6dcc <wcrtomb+0xd0>  // b.pmore
    6da0:	530c7c22 	lsr	w2, w1, #12
    6da4:	321b6842 	orr	w2, w2, #0xffffffe0
    6da8:	39000002 	strb	w2, [x0]
    6dac:	d3462c22 	ubfx	x2, x1, #6, #6
    6db0:	12001421 	and	w1, w1, #0x3f
    6db4:	32196042 	orr	w2, w2, #0xffffff80
    6db8:	32196021 	orr	w1, w1, #0xffffff80
    6dbc:	39000402 	strb	w2, [x0, #1]
    6dc0:	39000801 	strb	w1, [x0, #2]
    6dc4:	d2800060 	mov	x0, #0x3                   	// #3
    6dc8:	17ffffd5 	b	6d1c <wcrtomb+0x20>
    6dcc:	51404023 	sub	w3, w1, #0x10, lsl #12
    6dd0:	12bffe02 	mov	w2, #0xfffff               	// #1048575
    6dd4:	6b02007f 	cmp	w3, w2
    6dd8:	54fffba8 	b.hi	6d4c <wcrtomb+0x50>  // b.pmore
    6ddc:	53127c22 	lsr	w2, w1, #18
    6de0:	321c6c42 	orr	w2, w2, #0xfffffff0
    6de4:	39000002 	strb	w2, [x0]
    6de8:	d34c4422 	ubfx	x2, x1, #12, #6
    6dec:	32196042 	orr	w2, w2, #0xffffff80
    6df0:	39000402 	strb	w2, [x0, #1]
    6df4:	d3462c22 	ubfx	x2, x1, #6, #6
    6df8:	12001421 	and	w1, w1, #0x3f
    6dfc:	32196042 	orr	w2, w2, #0xffffff80
    6e00:	32196021 	orr	w1, w1, #0xffffff80
    6e04:	39000802 	strb	w2, [x0, #2]
    6e08:	39000c01 	strb	w1, [x0, #3]
    6e0c:	d2800080 	mov	x0, #0x4                   	// #4
    6e10:	17ffffc3 	b	6d1c <wcrtomb+0x20>

0000000000006e14 <close_file>:
    6e14:	b4000360 	cbz	x0, 6e80 <close_file+0x6c>
    6e18:	a9bf7bf3 	stp	x19, x30, [sp, #-16]!
    6e1c:	aa0003f3 	mov	x19, x0
    6e20:	b9408c01 	ldr	w1, [x0, #140]
    6e24:	37f80041 	tbnz	w1, #31, 6e2c <close_file+0x18>
    6e28:	97fff948 	bl	5348 <__lockfile>
    6e2c:	f9401661 	ldr	x1, [x19, #40]
    6e30:	f9401e60 	ldr	x0, [x19, #56]
    6e34:	eb00003f 	cmp	x1, x0
    6e38:	540000c0 	b.eq	6e50 <close_file+0x3c>  // b.none
    6e3c:	f9402663 	ldr	x3, [x19, #72]
    6e40:	aa1303e0 	mov	x0, x19
    6e44:	d2800002 	mov	x2, #0x0                   	// #0
    6e48:	d2800001 	mov	x1, #0x0                   	// #0
    6e4c:	d63f0060 	blr	x3
    6e50:	a9408261 	ldp	x1, x0, [x19, #8]
    6e54:	eb00003f 	cmp	x1, x0
    6e58:	54000100 	b.eq	6e78 <close_file+0x64>  // b.none
    6e5c:	cb000021 	sub	x1, x1, x0
    6e60:	aa1303e0 	mov	x0, x19
    6e64:	f9402a63 	ldr	x3, [x19, #80]
    6e68:	52800022 	mov	w2, #0x1                   	// #1
    6e6c:	a8c17bf3 	ldp	x19, x30, [sp], #16
    6e70:	aa0303f0 	mov	x16, x3
    6e74:	d61f0200 	br	x16
    6e78:	a8c17bf3 	ldp	x19, x30, [sp], #16
    6e7c:	d65f03c0 	ret
    6e80:	d65f03c0 	ret

0000000000006e84 <__stdio_exit>:
    6e84:	a9bf7bf3 	stp	x19, x30, [sp, #-16]!
    6e88:	97ffeece 	bl	29c0 <__ofl_lock>
    6e8c:	f9400013 	ldr	x19, [x0]
    6e90:	b5000173 	cbnz	x19, 6ebc <__stdio_exit+0x38>
    6e94:	b0000060 	adrp	x0, 13000 <_DYNAMIC>
    6e98:	f943c400 	ldr	x0, [x0, #1928]
    6e9c:	97ffffde 	bl	6e14 <close_file>
    6ea0:	b0000060 	adrp	x0, 13000 <_DYNAMIC>
    6ea4:	f9428c00 	ldr	x0, [x0, #1304]
    6ea8:	97ffffdb 	bl	6e14 <close_file>
    6eac:	a8c17bf3 	ldp	x19, x30, [sp], #16
    6eb0:	b0000060 	adrp	x0, 13000 <_DYNAMIC>
    6eb4:	f9434c00 	ldr	x0, [x0, #1688]
    6eb8:	17ffffd7 	b	6e14 <close_file>
    6ebc:	aa1303e0 	mov	x0, x19
    6ec0:	97ffffd5 	bl	6e14 <close_file>
    6ec4:	f9403a73 	ldr	x19, [x19, #112]
    6ec8:	17fffff2 	b	6e90 <__stdio_exit+0xc>

0000000000006ecc <fprintf>:
    6ecc:	d10403ff 	sub	sp, sp, #0x100
    6ed0:	a90d0fe2 	stp	x2, x3, [sp, #208]
    6ed4:	910403e2 	add	x2, sp, #0x100
    6ed8:	a9030be2 	stp	x2, x2, [sp, #48]
    6edc:	910343e2 	add	x2, sp, #0xd0
    6ee0:	f90023e2 	str	x2, [sp, #64]
    6ee4:	128005e2 	mov	w2, #0xffffffd0            	// #-48
    6ee8:	b9004be2 	str	w2, [sp, #72]
    6eec:	12800fe2 	mov	w2, #0xffffff80            	// #-128
    6ef0:	b9004fe2 	str	w2, [sp, #76]
    6ef4:	a9430fe2 	ldp	x2, x3, [sp, #48]
    6ef8:	a9010fe2 	stp	x2, x3, [sp, #16]
    6efc:	a9440fe2 	ldp	x2, x3, [sp, #64]
    6f00:	f90003fe 	str	x30, [sp]
    6f04:	a9020fe2 	stp	x2, x3, [sp, #32]
    6f08:	910043e2 	add	x2, sp, #0x10
    6f0c:	3d8017e0 	str	q0, [sp, #80]
    6f10:	3d801be1 	str	q1, [sp, #96]
    6f14:	3d801fe2 	str	q2, [sp, #112]
    6f18:	3d8023e3 	str	q3, [sp, #128]
    6f1c:	3d8027e4 	str	q4, [sp, #144]
    6f20:	3d802be5 	str	q5, [sp, #160]
    6f24:	3d802fe6 	str	q6, [sp, #176]
    6f28:	3d8033e7 	str	q7, [sp, #192]
    6f2c:	a90e17e4 	stp	x4, x5, [sp, #224]
    6f30:	a90f1fe6 	stp	x6, x7, [sp, #240]
    6f34:	97fff571 	bl	44f8 <vfprintf>
    6f38:	f94003fe 	ldr	x30, [sp]
    6f3c:	910403ff 	add	sp, sp, #0x100
    6f40:	d65f03c0 	ret

0000000000006f44 <abort>:
    6f44:	f81c0ffe 	str	x30, [sp, #-64]!
    6f48:	528000c0 	mov	w0, #0x6                   	// #6
    6f4c:	94000033 	bl	7018 <raise>
    6f50:	d2800000 	mov	x0, #0x0                   	// #0
    6f54:	9400001d 	bl	6fc8 <__block_all_sigs>
    6f58:	90000080 	adrp	x0, 16000 <data.4829+0x2800>
    6f5c:	9126d000 	add	x0, x0, #0x9b4
    6f60:	97fff731 	bl	4c24 <__lock>
    6f64:	a9027fff 	stp	xzr, xzr, [sp, #32]
    6f68:	910083e2 	add	x2, sp, #0x20
    6f6c:	d2800104 	mov	x4, #0x8                   	// #8
    6f70:	d2800003 	mov	x3, #0x0                   	// #0
    6f74:	d28000c1 	mov	x1, #0x6                   	// #6
    6f78:	d28010c0 	mov	x0, #0x86                  	// #134
    6f7c:	a9037fff 	stp	xzr, xzr, [sp, #48]
    6f80:	940000a0 	bl	7200 <__syscall4>
    6f84:	d53bd040 	mrs	x0, tpidr_el0
    6f88:	f9400000 	ldr	x0, [x0]
    6f8c:	d28000c2 	mov	x2, #0x6                   	// #6
    6f90:	b9802001 	ldrsw	x1, [x0, #32]
    6f94:	d2801040 	mov	x0, #0x82                  	// #130
    6f98:	94000091 	bl	71dc <__syscall2>
    6f9c:	d2800400 	mov	x0, #0x20                  	// #32
    6fa0:	910063e2 	add	x2, sp, #0x18
    6fa4:	d2800104 	mov	x4, #0x8                   	// #8
    6fa8:	d2800003 	mov	x3, #0x0                   	// #0
    6fac:	d2800021 	mov	x1, #0x1                   	// #1
    6fb0:	f9000fe0 	str	x0, [sp, #24]
    6fb4:	d28010e0 	mov	x0, #0x87                  	// #135
    6fb8:	94000092 	bl	7200 <__syscall4>
    6fbc:	d2800000 	mov	x0, #0x0                   	// #0
    6fc0:	3900001f 	strb	wzr, [x0]
    6fc4:	d4207d00 	brk	#0x3e8

0000000000006fc8 <__block_all_sigs>:
    6fc8:	aa0003e3 	mov	x3, x0
    6fcc:	d2800104 	mov	x4, #0x8                   	// #8
    6fd0:	d0000042 	adrp	x2, 10000 <__text_end+0x1600>
    6fd4:	d2800001 	mov	x1, #0x0                   	// #0
    6fd8:	9115a042 	add	x2, x2, #0x568
    6fdc:	d28010e0 	mov	x0, #0x87                  	// #135
    6fe0:	14000088 	b	7200 <__syscall4>

0000000000006fe4 <__block_app_sigs>:
    6fe4:	aa0003e3 	mov	x3, x0
    6fe8:	d2800104 	mov	x4, #0x8                   	// #8
    6fec:	d0000042 	adrp	x2, 10000 <__text_end+0x1600>
    6ff0:	d2800001 	mov	x1, #0x0                   	// #0
    6ff4:	9115c042 	add	x2, x2, #0x570
    6ff8:	d28010e0 	mov	x0, #0x87                  	// #135
    6ffc:	14000081 	b	7200 <__syscall4>

0000000000007000 <__restore_sigs>:
    7000:	aa0003e2 	mov	x2, x0
    7004:	d2800104 	mov	x4, #0x8                   	// #8
    7008:	d2800003 	mov	x3, #0x0                   	// #0
    700c:	d2800041 	mov	x1, #0x2                   	// #2
    7010:	d28010e0 	mov	x0, #0x87                  	// #135
    7014:	1400007b 	b	7200 <__syscall4>

0000000000007018 <raise>:
    7018:	a9b653f3 	stp	x19, x20, [sp, #-160]!
    701c:	2a0003f3 	mov	w19, w0
    7020:	910083f4 	add	x20, sp, #0x20
    7024:	f9000bfe 	str	x30, [sp, #16]
    7028:	aa1403e0 	mov	x0, x20
    702c:	97ffffee 	bl	6fe4 <__block_app_sigs>
    7030:	d53bd040 	mrs	x0, tpidr_el0
    7034:	f9400000 	ldr	x0, [x0]
    7038:	93407e62 	sxtw	x2, w19
    703c:	b9802001 	ldrsw	x1, [x0, #32]
    7040:	d2801040 	mov	x0, #0x82                  	// #130
    7044:	94000066 	bl	71dc <__syscall2>
    7048:	97fff7db 	bl	4fb4 <__syscall_ret>
    704c:	aa0003f3 	mov	x19, x0
    7050:	aa1403e0 	mov	x0, x20
    7054:	97ffffeb 	bl	7000 <__restore_sigs>
    7058:	2a1303e0 	mov	w0, w19
    705c:	f9400bfe 	ldr	x30, [sp, #16]
    7060:	a8ca53f3 	ldp	x19, x20, [sp], #160
    7064:	d65f03c0 	ret

0000000000007068 <__syscall_n>:
    7068:	d101c3ff 	sub	sp, sp, #0x70
    706c:	a9017bfd 	stp	x29, x30, [sp, #16]
    7070:	910043fd 	add	x29, sp, #0x10
    7074:	a90253f3 	stp	x19, x20, [sp, #32]
    7078:	aa0103f4 	mov	x20, x1
    707c:	d100e001 	sub	x1, x0, #0x38
    7080:	a9035bf5 	stp	x21, x22, [sp, #48]
    7084:	f100283f 	cmp	x1, #0xa
    7088:	aa0003f6 	mov	x22, x0
    708c:	a90463f7 	stp	x23, x24, [sp, #64]
    7090:	aa0303f5 	mov	x21, x3
    7094:	aa0403f7 	mov	x23, x4
    7098:	a9056bf9 	stp	x25, x26, [sp, #80]
    709c:	aa0503f8 	mov	x24, x5
    70a0:	aa0203fa 	mov	x26, x2
    70a4:	f90033fb 	str	x27, [sp, #96]
    70a8:	aa0603f9 	mov	x25, x6
    70ac:	540007a8 	b.hi	71a0 <__syscall_n+0x138>  // b.pmore
    70b0:	7100283f 	cmp	w1, #0xa
    70b4:	54000768 	b.hi	71a0 <__syscall_n+0x138>  // b.pmore
    70b8:	b0000040 	adrp	x0, 10000 <__text_end+0x1600>
    70bc:	91183000 	add	x0, x0, #0x60c
    70c0:	38614800 	ldrb	w0, [x0, w1, uxtw]
    70c4:	10000061 	adr	x1, 70d0 <__syscall_n+0x68>
    70c8:	8b208820 	add	x0, x1, w0, sxtb #2
    70cc:	d61f0000 	br	x0
    70d0:	2a0403e3 	mov	w3, w4
    70d4:	2a1503e2 	mov	w2, w21
    70d8:	aa1a03e1 	mov	x1, x26
    70dc:	2a1403e0 	mov	w0, w20
    70e0:	9400004e 	bl	7218 <tee_fs_openat>
    70e4:	93407c13 	sxtw	x19, w0
    70e8:	9000007b 	adrp	x27, 13000 <_DYNAMIC>
    70ec:	aa1803e7 	mov	x7, x24
    70f0:	aa1703e6 	mov	x6, x23
    70f4:	aa1503e5 	mov	x5, x21
    70f8:	f940d37b 	ldr	x27, [x27, #416]
    70fc:	aa1a03e4 	mov	x4, x26
    7100:	aa1403e3 	mov	x3, x20
    7104:	aa1603e2 	mov	x2, x22
    7108:	d0000041 	adrp	x1, 11000 <errmsgstr+0x177>
    710c:	91247c21 	add	x1, x1, #0x91f
    7110:	a9004ff9 	stp	x25, x19, [sp]
    7114:	aa1b03e0 	mov	x0, x27
    7118:	94001d9d 	bl	e78c <sprintf>
    711c:	aa1b03e0 	mov	x0, x27
    7120:	97fff69e 	bl	4b98 <strlen>
    7124:	aa0003e1 	mov	x1, x0
    7128:	aa1b03e0 	mov	x0, x27
    712c:	940000cc 	bl	745c <_utee_log>
    7130:	aa1303e0 	mov	x0, x19
    7134:	a9417bfd 	ldp	x29, x30, [sp, #16]
    7138:	a94253f3 	ldp	x19, x20, [sp, #32]
    713c:	a9435bf5 	ldp	x21, x22, [sp, #48]
    7140:	a94463f7 	ldp	x23, x24, [sp, #64]
    7144:	a9456bf9 	ldp	x25, x26, [sp, #80]
    7148:	f94033fb 	ldr	x27, [sp, #96]
    714c:	9101c3ff 	add	sp, sp, #0x70
    7150:	d65f03c0 	ret
    7154:	93407c62 	sxtw	x2, w3
    7158:	aa1a03e1 	mov	x1, x26
    715c:	2a1403e0 	mov	w0, w20
    7160:	94000058 	bl	72c0 <tee_fs_read>
    7164:	17ffffe0 	b	70e4 <__syscall_n+0x7c>
    7168:	2a0303e2 	mov	w2, w3
    716c:	aa1a03e1 	mov	x1, x26
    7170:	2a1403e0 	mov	w0, w20
    7174:	94000068 	bl	7314 <tee_fs_readv>
    7178:	17ffffdb 	b	70e4 <__syscall_n+0x7c>
    717c:	2a0303e2 	mov	w2, w3
    7180:	aa1a03e1 	mov	x1, x26
    7184:	2a1403e0 	mov	w0, w20
    7188:	94000084 	bl	7398 <tee_fs_writev>
    718c:	17ffffd6 	b	70e4 <__syscall_n+0x7c>
    7190:	2a1403e0 	mov	w0, w20
    7194:	d2800013 	mov	x19, #0x0                   	// #0
    7198:	940000a6 	bl	7430 <tee_fs_close>
    719c:	17ffffd3 	b	70e8 <__syscall_n+0x80>
    71a0:	92800013 	mov	x19, #0xffffffffffffffff    	// #-1
    71a4:	17ffffd1 	b	70e8 <__syscall_n+0x80>

00000000000071a8 <__syscall0>:
    71a8:	d2800006 	mov	x6, #0x0                   	// #0
    71ac:	d2800005 	mov	x5, #0x0                   	// #0
    71b0:	d2800004 	mov	x4, #0x0                   	// #0
    71b4:	d2800003 	mov	x3, #0x0                   	// #0
    71b8:	d2800002 	mov	x2, #0x0                   	// #0
    71bc:	d2800001 	mov	x1, #0x0                   	// #0
    71c0:	17ffffaa 	b	7068 <__syscall_n>

00000000000071c4 <__syscall1>:
    71c4:	d2800006 	mov	x6, #0x0                   	// #0
    71c8:	d2800005 	mov	x5, #0x0                   	// #0
    71cc:	d2800004 	mov	x4, #0x0                   	// #0
    71d0:	d2800003 	mov	x3, #0x0                   	// #0
    71d4:	d2800002 	mov	x2, #0x0                   	// #0
    71d8:	17ffffa4 	b	7068 <__syscall_n>

00000000000071dc <__syscall2>:
    71dc:	d2800006 	mov	x6, #0x0                   	// #0
    71e0:	d2800005 	mov	x5, #0x0                   	// #0
    71e4:	d2800004 	mov	x4, #0x0                   	// #0
    71e8:	d2800003 	mov	x3, #0x0                   	// #0
    71ec:	17ffff9f 	b	7068 <__syscall_n>

00000000000071f0 <__syscall3>:
    71f0:	d2800006 	mov	x6, #0x0                   	// #0
    71f4:	d2800005 	mov	x5, #0x0                   	// #0
    71f8:	d2800004 	mov	x4, #0x0                   	// #0
    71fc:	17ffff9b 	b	7068 <__syscall_n>

0000000000007200 <__syscall4>:
    7200:	d2800006 	mov	x6, #0x0                   	// #0
    7204:	d2800005 	mov	x5, #0x0                   	// #0
    7208:	17ffff98 	b	7068 <__syscall_n>

000000000000720c <__syscall5>:
    720c:	d2800006 	mov	x6, #0x0                   	// #0
    7210:	17ffff96 	b	7068 <__syscall_n>

0000000000007214 <__syscall6>:
    7214:	17ffff95 	b	7068 <__syscall_n>

0000000000007218 <tee_fs_openat>:
    7218:	a9bd7bfd 	stp	x29, x30, [sp, #-48]!
    721c:	aa0103e0 	mov	x0, x1
    7220:	2a0203e1 	mov	w1, w2
    7224:	910003fd 	mov	x29, sp
    7228:	2a0303e2 	mov	w2, w3
    722c:	9100b3e3 	add	x3, sp, #0x2c
    7230:	a90153f3 	stp	x19, x20, [sp, #16]
    7234:	90000073 	adrp	x19, 13000 <_DYNAMIC>
    7238:	9400012e 	bl	76f0 <_utee_fs_open>
    723c:	340002c0 	cbz	w0, 7294 <tee_fs_openat+0x7c>
    7240:	97fff74b 	bl	4f6c <__errno_location>
    7244:	12800014 	mov	w20, #0xffffffff            	// #-1
    7248:	528001a1 	mov	w1, #0xd                   	// #13
    724c:	b9000001 	str	w1, [x0]
    7250:	f940d273 	ldr	x19, [x19, #416]
    7254:	2a1403e3 	mov	w3, w20
    7258:	d0000042 	adrp	x2, 11000 <errmsgstr+0x177>
    725c:	d0000041 	adrp	x1, 11000 <errmsgstr+0x177>
    7260:	91258042 	add	x2, x2, #0x960
    7264:	91253421 	add	x1, x1, #0x94d
    7268:	aa1303e0 	mov	x0, x19
    726c:	94001d48 	bl	e78c <sprintf>
    7270:	aa1303e0 	mov	x0, x19
    7274:	97fff649 	bl	4b98 <strlen>
    7278:	aa0003e1 	mov	x1, x0
    727c:	aa1303e0 	mov	x0, x19
    7280:	94000077 	bl	745c <_utee_log>
    7284:	2a1403e0 	mov	w0, w20
    7288:	a94153f3 	ldp	x19, x20, [sp, #16]
    728c:	a8c37bfd 	ldp	x29, x30, [sp], #48
    7290:	d65f03c0 	ret
    7294:	f9409a60 	ldr	x0, [x19, #304]
    7298:	b9400014 	ldr	w20, [x0]
    729c:	11000681 	add	w1, w20, #0x1
    72a0:	b9000001 	str	w1, [x0]
    72a4:	f940c660 	ldr	x0, [x19, #392]
    72a8:	937d7e82 	sbfiz	x2, x20, #3, #32
    72ac:	8b34cc01 	add	x1, x0, w20, sxtw #3
    72b0:	b822681f 	str	wzr, [x0, x2]
    72b4:	b9402fe0 	ldr	w0, [sp, #44]
    72b8:	b9000420 	str	w0, [x1, #4]
    72bc:	17ffffe5 	b	7250 <tee_fs_openat+0x38>

00000000000072c0 <tee_fs_read>:
    72c0:	a9bd7bfd 	stp	x29, x30, [sp, #-48]!
    72c4:	910003fd 	mov	x29, sp
    72c8:	a90153f3 	stp	x19, x20, [sp, #16]
    72cc:	90000073 	adrp	x19, 13000 <_DYNAMIC>
    72d0:	937d7c14 	sbfiz	x20, x0, #3, #32
    72d4:	f940c673 	ldr	x19, [x19, #392]
    72d8:	9100a3e4 	add	x4, sp, #0x28
    72dc:	8b20ce60 	add	x0, x19, w0, sxtw #3
    72e0:	b8b46a63 	ldrsw	x3, [x19, x20]
    72e4:	b9400400 	ldr	w0, [x0, #4]
    72e8:	94000105 	bl	76fc <_utee_fs_read>
    72ec:	35000100 	cbnz	w0, 730c <tee_fs_read+0x4c>
    72f0:	f94017e0 	ldr	x0, [sp, #40]
    72f4:	b8746a61 	ldr	w1, [x19, x20]
    72f8:	0b000021 	add	w1, w1, w0
    72fc:	b8346a61 	str	w1, [x19, x20]
    7300:	a94153f3 	ldp	x19, x20, [sp, #16]
    7304:	a8c37bfd 	ldp	x29, x30, [sp], #48
    7308:	d65f03c0 	ret
    730c:	12800000 	mov	w0, #0xffffffff            	// #-1
    7310:	17fffffc 	b	7300 <tee_fs_read+0x40>

0000000000007314 <tee_fs_readv>:
    7314:	a9bc7bfd 	stp	x29, x30, [sp, #-64]!
    7318:	910003fd 	mov	x29, sp
    731c:	a90153f3 	stp	x19, x20, [sp, #16]
    7320:	aa0103f3 	mov	x19, x1
    7324:	52800014 	mov	w20, #0x0                   	// #0
    7328:	a9025bf5 	stp	x21, x22, [sp, #32]
    732c:	2a0203f5 	mov	w21, w2
    7330:	52800016 	mov	w22, #0x0                   	// #0
    7334:	a90363f7 	stp	x23, x24, [sp, #48]
    7338:	2a0003f7 	mov	w23, w0
    733c:	52800018 	mov	w24, #0x0                   	// #0
    7340:	6b1502df 	cmp	w22, w21
    7344:	5400010b 	b.lt	7364 <tee_fs_readv+0x50>  // b.tstop
    7348:	7100031f 	cmp	w24, #0x0
    734c:	5a9f0280 	csinv	w0, w20, wzr, eq  // eq = none
    7350:	a94153f3 	ldp	x19, x20, [sp, #16]
    7354:	a9425bf5 	ldp	x21, x22, [sp, #32]
    7358:	a94363f7 	ldp	x23, x24, [sp, #48]
    735c:	a8c47bfd 	ldp	x29, x30, [sp], #64
    7360:	d65f03c0 	ret
    7364:	f9400662 	ldr	x2, [x19, #8]
    7368:	b40000e2 	cbz	x2, 7384 <tee_fs_readv+0x70>
    736c:	f9400261 	ldr	x1, [x19]
    7370:	2a1703e0 	mov	w0, w23
    7374:	97ffffd3 	bl	72c0 <tee_fs_read>
    7378:	7100001f 	cmp	w0, #0x0
    737c:	540000ad 	b.le	7390 <tee_fs_readv+0x7c>
    7380:	0b000294 	add	w20, w20, w0
    7384:	110006d6 	add	w22, w22, #0x1
    7388:	91004273 	add	x19, x19, #0x10
    738c:	17ffffed 	b	7340 <tee_fs_readv+0x2c>
    7390:	52800038 	mov	w24, #0x1                   	// #1
    7394:	17fffffc 	b	7384 <tee_fs_readv+0x70>

0000000000007398 <tee_fs_writev>:
    7398:	a9bd7bfd 	stp	x29, x30, [sp, #-48]!
    739c:	910003fd 	mov	x29, sp
    73a0:	a90153f3 	stp	x19, x20, [sp, #16]
    73a4:	aa0103f3 	mov	x19, x1
    73a8:	52800014 	mov	w20, #0x0                   	// #0
    73ac:	a9025bf5 	stp	x21, x22, [sp, #32]
    73b0:	2a0203f5 	mov	w21, w2
    73b4:	52800016 	mov	w22, #0x0                   	// #0
    73b8:	6b1502df 	cmp	w22, w21
    73bc:	540002ab 	b.lt	7410 <tee_fs_writev+0x78>  // b.tstop
    73c0:	90000073 	adrp	x19, 13000 <_DYNAMIC>
    73c4:	d0000042 	adrp	x2, 11000 <errmsgstr+0x177>
    73c8:	91258042 	add	x2, x2, #0x960
    73cc:	2a1403e3 	mov	w3, w20
    73d0:	f940d273 	ldr	x19, [x19, #416]
    73d4:	91003842 	add	x2, x2, #0xe
    73d8:	d0000041 	adrp	x1, 11000 <errmsgstr+0x177>
    73dc:	91253421 	add	x1, x1, #0x94d
    73e0:	aa1303e0 	mov	x0, x19
    73e4:	94001cea 	bl	e78c <sprintf>
    73e8:	aa1303e0 	mov	x0, x19
    73ec:	97fff5eb 	bl	4b98 <strlen>
    73f0:	aa0003e1 	mov	x1, x0
    73f4:	aa1303e0 	mov	x0, x19
    73f8:	94000019 	bl	745c <_utee_log>
    73fc:	2a1403e0 	mov	w0, w20
    7400:	a94153f3 	ldp	x19, x20, [sp, #16]
    7404:	a9425bf5 	ldp	x21, x22, [sp, #32]
    7408:	a8c37bfd 	ldp	x29, x30, [sp], #48
    740c:	d65f03c0 	ret
    7410:	f9400661 	ldr	x1, [x19, #8]
    7414:	0b010294 	add	w20, w20, w1
    7418:	b4000061 	cbz	x1, 7424 <tee_fs_writev+0x8c>
    741c:	f9400260 	ldr	x0, [x19]
    7420:	9400000f 	bl	745c <_utee_log>
    7424:	110006d6 	add	w22, w22, #0x1
    7428:	91004273 	add	x19, x19, #0x10
    742c:	17ffffe3 	b	73b8 <tee_fs_writev+0x20>

0000000000007430 <tee_fs_close>:
    7430:	90000061 	adrp	x1, 13000 <_DYNAMIC>
    7434:	f940c421 	ldr	x1, [x1, #392]
    7438:	8b20cc20 	add	x0, x1, w0, sxtw #3
    743c:	b9400400 	ldr	w0, [x0, #4]
    7440:	140000b5 	b	7714 <_utee_fs_close>

0000000000007444 <_utee_panic>:
    7444:	a9bf7bfd 	stp	x29, x30, [sp, #-16]!
    7448:	910003e1 	mov	x1, sp
    744c:	94000007 	bl	7468 <__utee_panic>

0000000000007450 <_utee_return>:
    7450:	d2800008 	mov	x8, #0x0                   	// #0
    7454:	d4000001 	svc	#0x0
    7458:	d65f03c0 	ret

000000000000745c <_utee_log>:
    745c:	d2800028 	mov	x8, #0x1                   	// #1
    7460:	d4000001 	svc	#0x0
    7464:	d65f03c0 	ret

0000000000007468 <__utee_panic>:
    7468:	d2800048 	mov	x8, #0x2                   	// #2
    746c:	d4000001 	svc	#0x0
    7470:	d65f03c0 	ret

0000000000007474 <_utee_get_property>:
    7474:	d2800068 	mov	x8, #0x3                   	// #3
    7478:	d4000001 	svc	#0x0
    747c:	d65f03c0 	ret

0000000000007480 <_utee_get_property_name_to_index>:
    7480:	d2800088 	mov	x8, #0x4                   	// #4
    7484:	d4000001 	svc	#0x0
    7488:	d65f03c0 	ret

000000000000748c <_utee_open_ta_session>:
    748c:	d28000a8 	mov	x8, #0x5                   	// #5
    7490:	d4000001 	svc	#0x0
    7494:	d65f03c0 	ret

0000000000007498 <_utee_close_ta_session>:
    7498:	d28000c8 	mov	x8, #0x6                   	// #6
    749c:	d4000001 	svc	#0x0
    74a0:	d65f03c0 	ret

00000000000074a4 <_utee_invoke_ta_command>:
    74a4:	d28000e8 	mov	x8, #0x7                   	// #7
    74a8:	d4000001 	svc	#0x0
    74ac:	d65f03c0 	ret

00000000000074b0 <_utee_get_cancellation_flag>:
    74b0:	d2800128 	mov	x8, #0x9                   	// #9
    74b4:	d4000001 	svc	#0x0
    74b8:	d65f03c0 	ret

00000000000074bc <_utee_check_access_rights>:
    74bc:	d2800108 	mov	x8, #0x8                   	// #8
    74c0:	d4000001 	svc	#0x0
    74c4:	d65f03c0 	ret

00000000000074c8 <_utee_unmask_cancellation>:
    74c8:	d2800148 	mov	x8, #0xa                   	// #10
    74cc:	d4000001 	svc	#0x0
    74d0:	d65f03c0 	ret

00000000000074d4 <_utee_mask_cancellation>:
    74d4:	d2800168 	mov	x8, #0xb                   	// #11
    74d8:	d4000001 	svc	#0x0
    74dc:	d65f03c0 	ret

00000000000074e0 <_utee_wait>:
    74e0:	d2800188 	mov	x8, #0xc                   	// #12
    74e4:	d4000001 	svc	#0x0
    74e8:	d65f03c0 	ret

00000000000074ec <_utee_get_time>:
    74ec:	d28001a8 	mov	x8, #0xd                   	// #13
    74f0:	d4000001 	svc	#0x0
    74f4:	d65f03c0 	ret

00000000000074f8 <_utee_set_ta_time>:
    74f8:	d28001c8 	mov	x8, #0xe                   	// #14
    74fc:	d4000001 	svc	#0x0
    7500:	d65f03c0 	ret

0000000000007504 <_utee_cryp_state_alloc>:
    7504:	d28001e8 	mov	x8, #0xf                   	// #15
    7508:	d4000001 	svc	#0x0
    750c:	d65f03c0 	ret

0000000000007510 <_utee_cryp_state_copy>:
    7510:	d2800208 	mov	x8, #0x10                  	// #16
    7514:	d4000001 	svc	#0x0
    7518:	d65f03c0 	ret

000000000000751c <_utee_cryp_state_free>:
    751c:	d2800228 	mov	x8, #0x11                  	// #17
    7520:	d4000001 	svc	#0x0
    7524:	d65f03c0 	ret

0000000000007528 <_utee_hash_init>:
    7528:	d2800248 	mov	x8, #0x12                  	// #18
    752c:	d4000001 	svc	#0x0
    7530:	d65f03c0 	ret

0000000000007534 <_utee_hash_update>:
    7534:	d2800268 	mov	x8, #0x13                  	// #19
    7538:	d4000001 	svc	#0x0
    753c:	d65f03c0 	ret

0000000000007540 <_utee_hash_final>:
    7540:	d2800288 	mov	x8, #0x14                  	// #20
    7544:	d4000001 	svc	#0x0
    7548:	d65f03c0 	ret

000000000000754c <_utee_cipher_init>:
    754c:	d28002a8 	mov	x8, #0x15                  	// #21
    7550:	d4000001 	svc	#0x0
    7554:	d65f03c0 	ret

0000000000007558 <_utee_cipher_update>:
    7558:	d28002c8 	mov	x8, #0x16                  	// #22
    755c:	d4000001 	svc	#0x0
    7560:	d65f03c0 	ret

0000000000007564 <_utee_cipher_final>:
    7564:	d28002e8 	mov	x8, #0x17                  	// #23
    7568:	d4000001 	svc	#0x0
    756c:	d65f03c0 	ret

0000000000007570 <_utee_cryp_obj_get_info>:
    7570:	d2800308 	mov	x8, #0x18                  	// #24
    7574:	d4000001 	svc	#0x0
    7578:	d65f03c0 	ret

000000000000757c <_utee_cryp_obj_restrict_usage>:
    757c:	d2800328 	mov	x8, #0x19                  	// #25
    7580:	d4000001 	svc	#0x0
    7584:	d65f03c0 	ret

0000000000007588 <_utee_cryp_obj_get_attr>:
    7588:	d2800348 	mov	x8, #0x1a                  	// #26
    758c:	d4000001 	svc	#0x0
    7590:	d65f03c0 	ret

0000000000007594 <_utee_cryp_obj_alloc>:
    7594:	d2800368 	mov	x8, #0x1b                  	// #27
    7598:	d4000001 	svc	#0x0
    759c:	d65f03c0 	ret

00000000000075a0 <_utee_cryp_obj_close>:
    75a0:	d2800388 	mov	x8, #0x1c                  	// #28
    75a4:	d4000001 	svc	#0x0
    75a8:	d65f03c0 	ret

00000000000075ac <_utee_cryp_obj_reset>:
    75ac:	d28003a8 	mov	x8, #0x1d                  	// #29
    75b0:	d4000001 	svc	#0x0
    75b4:	d65f03c0 	ret

00000000000075b8 <_utee_cryp_obj_populate>:
    75b8:	d28003c8 	mov	x8, #0x1e                  	// #30
    75bc:	d4000001 	svc	#0x0
    75c0:	d65f03c0 	ret

00000000000075c4 <_utee_cryp_obj_copy>:
    75c4:	d28003e8 	mov	x8, #0x1f                  	// #31
    75c8:	d4000001 	svc	#0x0
    75cc:	d65f03c0 	ret

00000000000075d0 <_utee_cryp_derive_key>:
    75d0:	d2800408 	mov	x8, #0x20                  	// #32
    75d4:	d4000001 	svc	#0x0
    75d8:	d65f03c0 	ret

00000000000075dc <_utee_cryp_random_number_generate>:
    75dc:	d2800428 	mov	x8, #0x21                  	// #33
    75e0:	d4000001 	svc	#0x0
    75e4:	d65f03c0 	ret

00000000000075e8 <_utee_authenc_init>:
    75e8:	d2800448 	mov	x8, #0x22                  	// #34
    75ec:	d4000001 	svc	#0x0
    75f0:	d65f03c0 	ret

00000000000075f4 <_utee_authenc_update_aad>:
    75f4:	d2800468 	mov	x8, #0x23                  	// #35
    75f8:	d4000001 	svc	#0x0
    75fc:	d65f03c0 	ret

0000000000007600 <_utee_authenc_update_payload>:
    7600:	d2800488 	mov	x8, #0x24                  	// #36
    7604:	d4000001 	svc	#0x0
    7608:	d65f03c0 	ret

000000000000760c <_utee_authenc_enc_final>:
    760c:	d28004a8 	mov	x8, #0x25                  	// #37
    7610:	d4000001 	svc	#0x0
    7614:	d65f03c0 	ret

0000000000007618 <_utee_authenc_dec_final>:
    7618:	d28004c8 	mov	x8, #0x26                  	// #38
    761c:	d4000001 	svc	#0x0
    7620:	d65f03c0 	ret

0000000000007624 <_utee_asymm_operate>:
    7624:	d28004e8 	mov	x8, #0x27                  	// #39
    7628:	d4000001 	svc	#0x0
    762c:	d65f03c0 	ret

0000000000007630 <_utee_asymm_verify>:
    7630:	d2800508 	mov	x8, #0x28                  	// #40
    7634:	d4000001 	svc	#0x0
    7638:	d65f03c0 	ret

000000000000763c <_utee_storage_obj_open>:
    763c:	d2800528 	mov	x8, #0x29                  	// #41
    7640:	d4000001 	svc	#0x0
    7644:	d65f03c0 	ret

0000000000007648 <_utee_storage_obj_create>:
    7648:	d2800548 	mov	x8, #0x2a                  	// #42
    764c:	d4000001 	svc	#0x0
    7650:	d65f03c0 	ret

0000000000007654 <_utee_storage_obj_del>:
    7654:	d2800568 	mov	x8, #0x2b                  	// #43
    7658:	d4000001 	svc	#0x0
    765c:	d65f03c0 	ret

0000000000007660 <_utee_storage_obj_rename>:
    7660:	d2800588 	mov	x8, #0x2c                  	// #44
    7664:	d4000001 	svc	#0x0
    7668:	d65f03c0 	ret

000000000000766c <_utee_storage_alloc_enum>:
    766c:	d28005a8 	mov	x8, #0x2d                  	// #45
    7670:	d4000001 	svc	#0x0
    7674:	d65f03c0 	ret

0000000000007678 <_utee_storage_free_enum>:
    7678:	d28005c8 	mov	x8, #0x2e                  	// #46
    767c:	d4000001 	svc	#0x0
    7680:	d65f03c0 	ret

0000000000007684 <_utee_storage_reset_enum>:
    7684:	d28005e8 	mov	x8, #0x2f                  	// #47
    7688:	d4000001 	svc	#0x0
    768c:	d65f03c0 	ret

0000000000007690 <_utee_storage_start_enum>:
    7690:	d2800608 	mov	x8, #0x30                  	// #48
    7694:	d4000001 	svc	#0x0
    7698:	d65f03c0 	ret

000000000000769c <_utee_storage_next_enum>:
    769c:	d2800628 	mov	x8, #0x31                  	// #49
    76a0:	d4000001 	svc	#0x0
    76a4:	d65f03c0 	ret

00000000000076a8 <_utee_storage_obj_read>:
    76a8:	d2800648 	mov	x8, #0x32                  	// #50
    76ac:	d4000001 	svc	#0x0
    76b0:	d65f03c0 	ret

00000000000076b4 <_utee_storage_obj_write>:
    76b4:	d2800668 	mov	x8, #0x33                  	// #51
    76b8:	d4000001 	svc	#0x0
    76bc:	d65f03c0 	ret

00000000000076c0 <_utee_storage_obj_trunc>:
    76c0:	d2800688 	mov	x8, #0x34                  	// #52
    76c4:	d4000001 	svc	#0x0
    76c8:	d65f03c0 	ret

00000000000076cc <_utee_storage_obj_seek>:
    76cc:	d28006a8 	mov	x8, #0x35                  	// #53
    76d0:	d4000001 	svc	#0x0
    76d4:	d65f03c0 	ret

00000000000076d8 <_utee_cryp_obj_generate_key>:
    76d8:	d28006c8 	mov	x8, #0x36                  	// #54
    76dc:	d4000001 	svc	#0x0
    76e0:	d65f03c0 	ret

00000000000076e4 <_utee_cache_operation>:
    76e4:	d28008c8 	mov	x8, #0x46                  	// #70
    76e8:	d4000001 	svc	#0x0
    76ec:	d65f03c0 	ret

00000000000076f0 <_utee_fs_open>:
    76f0:	d28008e8 	mov	x8, #0x47                  	// #71
    76f4:	d4000001 	svc	#0x0
    76f8:	d65f03c0 	ret

00000000000076fc <_utee_fs_read>:
    76fc:	d2800908 	mov	x8, #0x48                  	// #72
    7700:	d4000001 	svc	#0x0
    7704:	d65f03c0 	ret

0000000000007708 <_utee_fs_write>:
    7708:	d2800928 	mov	x8, #0x49                  	// #73
    770c:	d4000001 	svc	#0x0
    7710:	d65f03c0 	ret

0000000000007714 <_utee_fs_close>:
    7714:	d2800948 	mov	x8, #0x4a                  	// #74
    7718:	d4000001 	svc	#0x0
    771c:	d65f03c0 	ret

0000000000007720 <_get_fn_array>:
    7720:	79403009 	ldrh	w9, [x0, #24]
    7724:	93407c21 	sxtw	x1, w1
    7728:	93407c42 	sxtw	x2, w2
    772c:	d2800007 	mov	x7, #0x0                   	// #0
    7730:	d280070a 	mov	x10, #0x38                  	// #56
    7734:	eb07013f 	cmp	x9, x7
    7738:	54000048 	b.hi	7740 <_get_fn_array+0x20>  // b.pmore
    773c:	d65f03c0 	ret
    7740:	9b0a7ce5 	mul	x5, x7, x10
    7744:	f9400808 	ldr	x8, [x0, #16]
    7748:	8b050106 	add	x6, x8, x5
    774c:	b8656905 	ldr	w5, [x8, x5]
    7750:	710008bf 	cmp	w5, #0x2
    7754:	54000060 	b.eq	7760 <_get_fn_array+0x40>  // b.none
    7758:	910004e7 	add	x7, x7, #0x1
    775c:	17fffff6 	b	7734 <_get_fn_array+0x14>
    7760:	f9400008 	ldr	x8, [x0]
    7764:	f94008c5 	ldr	x5, [x6, #16]
    7768:	f94014c6 	ldr	x6, [x6, #40]
    776c:	8b0800a5 	add	x5, x5, x8
    7770:	927cecc6 	and	x6, x6, #0xfffffffffffffff0
    7774:	8b0500c6 	add	x6, x6, x5
    7778:	eb0600bf 	cmp	x5, x6
    777c:	54fffee0 	b.eq	7758 <_get_fn_array+0x38>  // b.none
    7780:	f9400068 	ldr	x8, [x3]
    7784:	b4000068 	cbz	x8, 7790 <_get_fn_array+0x70>
    7788:	f9400088 	ldr	x8, [x4]
    778c:	b5fffe68 	cbnz	x8, 7758 <_get_fn_array+0x38>
    7790:	f94000a8 	ldr	x8, [x5]
    7794:	b4fffe28 	cbz	x8, 7758 <_get_fn_array+0x38>
    7798:	eb01011f 	cmp	x8, x1
    779c:	540000e1 	b.ne	77b8 <_get_fn_array+0x98>  // b.any
    77a0:	f940000b 	ldr	x11, [x0]
    77a4:	f94004a8 	ldr	x8, [x5, #8]
    77a8:	8b0b0108 	add	x8, x8, x11
    77ac:	f9000068 	str	x8, [x3]
    77b0:	910040a5 	add	x5, x5, #0x10
    77b4:	17fffff1 	b	7778 <_get_fn_array+0x58>
    77b8:	eb02011f 	cmp	x8, x2
    77bc:	54ffffa1 	b.ne	77b0 <_get_fn_array+0x90>  // b.any
    77c0:	f94004a8 	ldr	x8, [x5, #8]
    77c4:	d343fd08 	lsr	x8, x8, #3
    77c8:	f9000088 	str	x8, [x4]
    77cc:	17fffff9 	b	77b0 <_get_fn_array+0x90>

00000000000077d0 <_fini_iterate_phdr_cb>:
    77d0:	a9bd7bfd 	stp	x29, x30, [sp, #-48]!
    77d4:	52800382 	mov	w2, #0x1c                  	// #28
    77d8:	52800341 	mov	w1, #0x1a                  	// #26
    77dc:	910003fd 	mov	x29, sp
    77e0:	f9000bf3 	str	x19, [sp, #16]
    77e4:	d2800033 	mov	x19, #0x1                   	// #1
    77e8:	9100a3e4 	add	x4, sp, #0x28
    77ec:	910083e3 	add	x3, sp, #0x20
    77f0:	a9027fff 	stp	xzr, xzr, [sp, #32]
    77f4:	97ffffcb 	bl	7720 <_get_fn_array>
    77f8:	f94017e0 	ldr	x0, [sp, #40]
    77fc:	eb13001f 	cmp	x0, x19
    7800:	540000a2 	b.cs	7814 <_fini_iterate_phdr_cb+0x44>  // b.hs, b.nlast
    7804:	52800000 	mov	w0, #0x0                   	// #0
    7808:	f9400bf3 	ldr	x19, [sp, #16]
    780c:	a8c37bfd 	ldp	x29, x30, [sp], #48
    7810:	d65f03c0 	ret
    7814:	f94013e1 	ldr	x1, [sp, #32]
    7818:	cb130000 	sub	x0, x0, x19
    781c:	91000673 	add	x19, x19, #0x1
    7820:	f8607820 	ldr	x0, [x1, x0, lsl #3]
    7824:	d63f0000 	blr	x0
    7828:	17fffff4 	b	77f8 <_fini_iterate_phdr_cb+0x28>

000000000000782c <ta_header_get_session>:
    782c:	2a0003e1 	mov	w1, w0
    7830:	90000060 	adrp	x0, 13000 <_DYNAMIC>
    7834:	f9435400 	ldr	x0, [x0, #1704]
    7838:	b5000040 	cbnz	x0, 7840 <ta_header_get_session+0x14>
    783c:	d65f03c0 	ret
    7840:	b9400002 	ldr	w2, [x0]
    7844:	6b01005f 	cmp	w2, w1
    7848:	54ffffa0 	b.eq	783c <ta_header_get_session+0x10>  // b.none
    784c:	f9400800 	ldr	x0, [x0, #16]
    7850:	17fffffa 	b	7838 <ta_header_get_session+0xc>

0000000000007854 <to_utee_params>:
    7854:	2a0103e3 	mov	w3, w1
    7858:	f8008403 	str	x3, [x0], #8
    785c:	52800003 	mov	w3, #0x0                   	// #0
    7860:	1ac32425 	lsr	w5, w1, w3
    7864:	12000ca4 	and	w4, w5, #0xf
    7868:	721e04bf 	tst	w5, #0xc
    786c:	54000181 	b.ne	789c <to_utee_params+0x48>  // b.any
    7870:	340001c4 	cbz	w4, 78a8 <to_utee_params+0x54>
    7874:	b9400044 	ldr	w4, [x2]
    7878:	f9000004 	str	x4, [x0]
    787c:	b9400444 	ldr	w4, [x2, #4]
    7880:	f9000404 	str	x4, [x0, #8]
    7884:	11001063 	add	w3, w3, #0x4
    7888:	91004042 	add	x2, x2, #0x10
    788c:	91004000 	add	x0, x0, #0x10
    7890:	7100407f 	cmp	w3, #0x10
    7894:	54fffe61 	b.ne	7860 <to_utee_params+0xc>  // b.any
    7898:	d65f03c0 	ret
    789c:	51001484 	sub	w4, w4, #0x5
    78a0:	7100089f 	cmp	w4, #0x2
    78a4:	54000069 	b.ls	78b0 <to_utee_params+0x5c>  // b.plast
    78a8:	a9007c1f 	stp	xzr, xzr, [x0]
    78ac:	17fffff6 	b	7884 <to_utee_params+0x30>
    78b0:	f9400044 	ldr	x4, [x2]
    78b4:	f9000004 	str	x4, [x0]
    78b8:	b9400844 	ldr	w4, [x2, #8]
    78bc:	17fffff1 	b	7880 <to_utee_params+0x2c>

00000000000078c0 <from_utee_params>:
    78c0:	f8408445 	ldr	x5, [x2], #8
    78c4:	52800003 	mov	w3, #0x0                   	// #0
    78c8:	2a0503e9 	mov	w9, w5
    78cc:	1ac32528 	lsr	w8, w9, w3
    78d0:	12000d04 	and	w4, w8, #0xf
    78d4:	721e051f 	tst	w8, #0xc
    78d8:	a9401847 	ldp	x7, x6, [x2]
    78dc:	54000081 	b.ne	78ec <from_utee_params+0x2c>  // b.any
    78e0:	340000c4 	cbz	w4, 78f8 <from_utee_params+0x38>
    78e4:	29001807 	stp	w7, w6, [x0]
    78e8:	14000004 	b	78f8 <from_utee_params+0x38>
    78ec:	51001484 	sub	w4, w4, #0x5
    78f0:	7100089f 	cmp	w4, #0x2
    78f4:	54000109 	b.ls	7914 <from_utee_params+0x54>  // b.plast
    78f8:	11001063 	add	w3, w3, #0x4
    78fc:	91004042 	add	x2, x2, #0x10
    7900:	91004000 	add	x0, x0, #0x10
    7904:	7100407f 	cmp	w3, #0x10
    7908:	54fffe21 	b.ne	78cc <from_utee_params+0xc>  // b.any
    790c:	b9000025 	str	w5, [x1]
    7910:	d65f03c0 	ret
    7914:	f9000007 	str	x7, [x0]
    7918:	b9000806 	str	w6, [x0, #8]
    791c:	17fffff7 	b	78f8 <from_utee_params+0x38>

0000000000007920 <_init_iterate_phdr_cb>:
    7920:	a9bd7bfd 	stp	x29, x30, [sp, #-48]!
    7924:	910003fd 	mov	x29, sp
    7928:	a90153f3 	stp	x19, x20, [sp, #16]
    792c:	aa0203f4 	mov	x20, x2
    7930:	f90013f5 	str	x21, [sp, #32]
    7934:	aa0003f5 	mov	x21, x0
    7938:	d2800a00 	mov	x0, #0x50                  	// #80
    793c:	97fffcbd 	bl	6c30 <malloc>
    7940:	b5000140 	cbnz	x0, 7968 <_init_iterate_phdr_cb+0x48>
    7944:	d0000044 	adrp	x4, 11000 <errmsgstr+0x177>
    7948:	d0000040 	adrp	x0, 11000 <errmsgstr+0x177>
    794c:	9125f084 	add	x4, x4, #0x97c
    7950:	91265400 	add	x0, x0, #0x995
    7954:	52800023 	mov	w3, #0x1                   	// #1
    7958:	52800022 	mov	w2, #0x1                   	// #1
    795c:	528007a1 	mov	w1, #0x3d                  	// #61
    7960:	97fff564 	bl	4ef0 <trace_printf>
    7964:	97fffd78 	bl	6f44 <abort>
    7968:	aa0003f3 	mov	x19, x0
    796c:	aa1503e1 	mov	x1, x21
    7970:	d2800802 	mov	x2, #0x40                  	// #64
    7974:	97fff33d 	bl	4668 <memcpy>
    7978:	90000060 	adrp	x0, 13000 <_DYNAMIC>
    797c:	911aa000 	add	x0, x0, #0x6a8
    7980:	f94013f5 	ldr	x21, [sp, #32]
    7984:	f9400c01 	ldr	x1, [x0, #24]
    7988:	a904067f 	stp	xzr, x1, [x19, #64]
    798c:	f9000033 	str	x19, [x1]
    7990:	91010273 	add	x19, x19, #0x40
    7994:	f9000c13 	str	x19, [x0, #24]
    7998:	f9400280 	ldr	x0, [x20]
    799c:	91000400 	add	x0, x0, #0x1
    79a0:	f9000280 	str	x0, [x20]
    79a4:	52800000 	mov	w0, #0x0                   	// #0
    79a8:	a94153f3 	ldp	x19, x20, [sp, #16]
    79ac:	a8c37bfd 	ldp	x29, x30, [sp], #48
    79b0:	d65f03c0 	ret

00000000000079b4 <ta_header_save_params.part.0>:
    79b4:	90000060 	adrp	x0, 13000 <_DYNAMIC>
    79b8:	d2800802 	mov	x2, #0x40                  	// #64
    79bc:	52800001 	mov	w1, #0x0                   	// #0
    79c0:	f940c800 	ldr	x0, [x0, #400]
    79c4:	17fff412 	b	4a0c <memset>

00000000000079c8 <__utee_call_elf_init_fn>:
    79c8:	a9b97bfd 	stp	x29, x30, [sp, #-112]!
    79cc:	90000000 	adrp	x0, 7000 <__restore_sigs>
    79d0:	91248000 	add	x0, x0, #0x920
    79d4:	910003fd 	mov	x29, sp
    79d8:	910183e1 	add	x1, sp, #0x60
    79dc:	a90153f3 	stp	x19, x20, [sp, #16]
    79e0:	d2800014 	mov	x20, #0x0                   	// #0
    79e4:	a9025bf5 	stp	x21, x22, [sp, #32]
    79e8:	a90363f7 	stp	x23, x24, [sp, #48]
    79ec:	90000077 	adrp	x23, 13000 <_DYNAMIC>
    79f0:	aa1703f8 	mov	x24, x23
    79f4:	a9046bf9 	stp	x25, x26, [sp, #64]
    79f8:	9101a3f9 	add	x25, sp, #0x68
    79fc:	910163fa 	add	x26, sp, #0x58
    7a00:	a905ffff 	stp	xzr, xzr, [sp, #88]
    7a04:	f90037ff 	str	xzr, [sp, #104]
    7a08:	94000a85 	bl	a41c <dl_iterate_phdr>
    7a0c:	90000061 	adrp	x1, 13000 <_DYNAMIC>
    7a10:	911aa020 	add	x0, x1, #0x6a8
    7a14:	aa0103f3 	mov	x19, x1
    7a18:	f9400c00 	ldr	x0, [x0, #24]
    7a1c:	f9400400 	ldr	x0, [x0, #8]
    7a20:	f9400015 	ldr	x21, [x0]
    7a24:	f943cae1 	ldr	x1, [x23, #1936]
    7a28:	b5000175 	cbnz	x21, 7a54 <__utee_call_elf_init_fn+0x8c>
    7a2c:	8b010294 	add	x20, x20, x1
    7a30:	911aa261 	add	x1, x19, #0x6a8
    7a34:	aa0103f3 	mov	x19, x1
    7a38:	f903cb14 	str	x20, [x24, #1936]
    7a3c:	f9400820 	ldr	x0, [x1, #16]
    7a40:	b40004a0 	cbz	x0, 7ad4 <__utee_call_elf_init_fn+0x10c>
    7a44:	a9440414 	ldp	x20, x1, [x0, #64]
    7a48:	b50003b4 	cbnz	x20, 7abc <__utee_call_elf_init_fn+0xf4>
    7a4c:	f9000e61 	str	x1, [x19, #24]
    7a50:	1400001c 	b	7ac0 <__utee_call_elf_init_fn+0xf8>
    7a54:	f94033e0 	ldr	x0, [sp, #96]
    7a58:	cb010000 	sub	x0, x0, x1
    7a5c:	eb14001f 	cmp	x0, x20
    7a60:	54fffe60 	b.eq	7a2c <__utee_call_elf_init_fn+0x64>  // b.none
    7a64:	d2800016 	mov	x22, #0x0                   	// #0
    7a68:	aa1903e4 	mov	x4, x25
    7a6c:	aa1a03e3 	mov	x3, x26
    7a70:	aa1503e0 	mov	x0, x21
    7a74:	52800362 	mov	w2, #0x1b                  	// #27
    7a78:	52800321 	mov	w1, #0x19                  	// #25
    7a7c:	97ffff29 	bl	7720 <_get_fn_array>
    7a80:	f94037e0 	ldr	x0, [sp, #104]
    7a84:	eb16001f 	cmp	x0, x22
    7a88:	54000108 	b.hi	7aa8 <__utee_call_elf_init_fn+0xe0>  // b.pmore
    7a8c:	f94026a0 	ldr	x0, [x21, #72]
    7a90:	91000694 	add	x20, x20, #0x1
    7a94:	f9400400 	ldr	x0, [x0, #8]
    7a98:	f9400015 	ldr	x21, [x0]
    7a9c:	f9002fff 	str	xzr, [sp, #88]
    7aa0:	f90037ff 	str	xzr, [sp, #104]
    7aa4:	17ffffe0 	b	7a24 <__utee_call_elf_init_fn+0x5c>
    7aa8:	f9402fe0 	ldr	x0, [sp, #88]
    7aac:	f8767800 	ldr	x0, [x0, x22, lsl #3]
    7ab0:	910006d6 	add	x22, x22, #0x1
    7ab4:	d63f0000 	blr	x0
    7ab8:	17fffff2 	b	7a80 <__utee_call_elf_init_fn+0xb8>
    7abc:	f9002681 	str	x1, [x20, #72]
    7ac0:	f9402401 	ldr	x1, [x0, #72]
    7ac4:	f9000034 	str	x20, [x1]
    7ac8:	97fff54c 	bl	4ff8 <free>
    7acc:	aa1403e0 	mov	x0, x20
    7ad0:	17ffffdc 	b	7a40 <__utee_call_elf_init_fn+0x78>
    7ad4:	a94153f3 	ldp	x19, x20, [sp, #16]
    7ad8:	a9425bf5 	ldp	x21, x22, [sp, #32]
    7adc:	a94363f7 	ldp	x23, x24, [sp, #48]
    7ae0:	a9446bf9 	ldp	x25, x26, [sp, #64]
    7ae4:	a8c77bfd 	ldp	x29, x30, [sp], #112
    7ae8:	d65f03c0 	ret

0000000000007aec <__utee_call_elf_fini_fn>:
    7aec:	d2800001 	mov	x1, #0x0                   	// #0
    7af0:	90000000 	adrp	x0, 7000 <__restore_sigs>
    7af4:	911f4000 	add	x0, x0, #0x7d0
    7af8:	14000a49 	b	a41c <dl_iterate_phdr>

0000000000007afc <ta_header_remove_session>:
    7afc:	a9be7bfd 	stp	x29, x30, [sp, #-32]!
    7b00:	2a0003e2 	mov	w2, w0
    7b04:	910003fd 	mov	x29, sp
    7b08:	f9000bf3 	str	x19, [sp, #16]
    7b0c:	90000073 	adrp	x19, 13000 <_DYNAMIC>
    7b10:	f9435660 	ldr	x0, [x19, #1704]
    7b14:	b5000080 	cbnz	x0, 7b24 <ta_header_remove_session+0x28>
    7b18:	f9400bf3 	ldr	x19, [sp, #16]
    7b1c:	a8c27bfd 	ldp	x29, x30, [sp], #32
    7b20:	d65f03c0 	ret
    7b24:	b9400003 	ldr	w3, [x0]
    7b28:	f9400801 	ldr	x1, [x0, #16]
    7b2c:	6b02007f 	cmp	w3, w2
    7b30:	540002e1 	b.ne	7b8c <ta_header_remove_session+0x90>  // b.any
    7b34:	f9400c02 	ldr	x2, [x0, #24]
    7b38:	b4000241 	cbz	x1, 7b80 <ta_header_remove_session+0x84>
    7b3c:	f9000c22 	str	x2, [x1, #24]
    7b40:	f9400c02 	ldr	x2, [x0, #24]
    7b44:	f9000041 	str	x1, [x2]
    7b48:	94000262 	bl	84d0 <TEE_Free>
    7b4c:	f9435660 	ldr	x0, [x19, #1704]
    7b50:	b5fffe40 	cbnz	x0, 7b18 <ta_header_remove_session+0x1c>
    7b54:	90000060 	adrp	x0, 13000 <_DYNAMIC>
    7b58:	52800281 	mov	w1, #0x14                  	// #20
    7b5c:	f940d400 	ldr	x0, [x0, #424]
    7b60:	b9401400 	ldr	w0, [x0, #20]
    7b64:	0a010000 	and	w0, w0, w1
    7b68:	6b01001f 	cmp	w0, w1
    7b6c:	54fffd60 	b.eq	7b18 <ta_header_remove_session+0x1c>  // b.none
    7b70:	97ffea0a 	bl	2398 <TA_DestroyEntryPoint>
    7b74:	f9400bf3 	ldr	x19, [sp, #16]
    7b78:	a8c27bfd 	ldp	x29, x30, [sp], #32
    7b7c:	17ffffdc 	b	7aec <__utee_call_elf_fini_fn>
    7b80:	911aa263 	add	x3, x19, #0x6a8
    7b84:	f9000462 	str	x2, [x3, #8]
    7b88:	17ffffee 	b	7b40 <ta_header_remove_session+0x44>
    7b8c:	aa0103e0 	mov	x0, x1
    7b90:	17ffffe1 	b	7b14 <ta_header_remove_session+0x18>

0000000000007b94 <__utee_entry>:
    7b94:	a9b77bfd 	stp	x29, x30, [sp, #-144]!
    7b98:	f100041f 	cmp	x0, #0x1
    7b9c:	910003fd 	mov	x29, sp
    7ba0:	a90153f3 	stp	x19, x20, [sp, #16]
    7ba4:	90000074 	adrp	x20, 13000 <_DYNAMIC>
    7ba8:	a9025bf5 	stp	x21, x22, [sp, #32]
    7bac:	aa0103f5 	mov	x21, x1
    7bb0:	a90363f7 	stp	x23, x24, [sp, #48]
    7bb4:	540009e0 	b.eq	7cf0 <__utee_entry+0x15c>  // b.none
    7bb8:	aa0203f6 	mov	x22, x2
    7bbc:	f100081f 	cmp	x0, #0x2
    7bc0:	54000aa0 	b.eq	7d14 <__utee_entry+0x180>  // b.none
    7bc4:	b5000e00 	cbnz	x0, 7d84 <__utee_entry+0x1f0>
    7bc8:	2a0103e0 	mov	w0, w1
    7bcc:	97ffff18 	bl	782c <ta_header_get_session>
    7bd0:	b5000560 	cbnz	x0, 7c7c <__utee_entry+0xe8>
    7bd4:	90000060 	adrp	x0, 13000 <_DYNAMIC>
    7bd8:	911e4000 	add	x0, x0, #0x790
    7bdc:	39402001 	ldrb	w1, [x0, #8]
    7be0:	340000e1 	cbz	w1, 7bfc <__utee_entry+0x68>
    7be4:	52b00001 	mov	w1, #0x80000000            	// #-2147483648
    7be8:	52800400 	mov	w0, #0x20                  	// #32
    7bec:	94000220 	bl	846c <TEE_Malloc>
    7bf0:	b5000340 	cbnz	x0, 7c58 <__utee_entry+0xc4>
    7bf4:	129ffe73 	mov	w19, #0xffff000c            	// #-65524
    7bf8:	1400000f 	b	7c34 <__utee_entry+0xa0>
    7bfc:	52800021 	mov	w1, #0x1                   	// #1
    7c00:	39002001 	strb	w1, [x0, #8]
    7c04:	97ffea7d 	bl	25f8 <tahead_get_trace_level>
    7c08:	97fff46c 	bl	4db8 <trace_set_level>
    7c0c:	f940a280 	ldr	x0, [x20, #320]
    7c10:	f9400001 	ldr	x1, [x0]
    7c14:	f940b680 	ldr	x0, [x20, #360]
    7c18:	97fffaa7 	bl	66b4 <malloc_add_pool>
    7c1c:	94000433 	bl	8ce8 <_TEE_MathAPI_Init>
    7c20:	94000968 	bl	a1c0 <__utee_tcb_init>
    7c24:	97ffff69 	bl	79c8 <__utee_call_elf_init_fn>
    7c28:	97ffe9da 	bl	2390 <TA_CreateEntryPoint>
    7c2c:	2a0003f3 	mov	w19, w0
    7c30:	34fffda0 	cbz	w0, 7be4 <__utee_entry+0x50>
    7c34:	f940be94 	ldr	x20, [x20, #376]
    7c38:	b900029f 	str	wzr, [x20]
    7c3c:	97ffff5e 	bl	79b4 <ta_header_save_params.part.0>
    7c40:	2a1303e0 	mov	w0, w19
    7c44:	a94153f3 	ldp	x19, x20, [sp, #16]
    7c48:	a9425bf5 	ldp	x21, x22, [sp, #32]
    7c4c:	a94363f7 	ldp	x23, x24, [sp, #48]
    7c50:	a8c97bfd 	ldp	x29, x30, [sp], #144
    7c54:	d65f03c0 	ret
    7c58:	90000061 	adrp	x1, 13000 <_DYNAMIC>
    7c5c:	911aa021 	add	x1, x1, #0x6a8
    7c60:	f9400422 	ldr	x2, [x1, #8]
    7c64:	b9000015 	str	w21, [x0]
    7c68:	a900fc1f 	stp	xzr, xzr, [x0, #8]
    7c6c:	f9000c02 	str	x2, [x0, #24]
    7c70:	f9000040 	str	x0, [x2]
    7c74:	91004000 	add	x0, x0, #0x10
    7c78:	f9000420 	str	x0, [x1, #8]
    7c7c:	2a1503e0 	mov	w0, w21
    7c80:	97fffeeb 	bl	782c <ta_header_get_session>
    7c84:	aa0003f3 	mov	x19, x0
    7c88:	b4000860 	cbz	x0, 7d94 <__utee_entry+0x200>
    7c8c:	910143f7 	add	x23, sp, #0x50
    7c90:	aa1603e2 	mov	x2, x22
    7c94:	910133e1 	add	x1, sp, #0x4c
    7c98:	aa1703e0 	mov	x0, x23
    7c9c:	97ffff09 	bl	78c0 <from_utee_params>
    7ca0:	b9404ff8 	ldr	w24, [sp, #76]
    7ca4:	f940be80 	ldr	x0, [x20, #376]
    7ca8:	aa1703e1 	mov	x1, x23
    7cac:	d2800802 	mov	x2, #0x40                  	// #64
    7cb0:	b9000018 	str	w24, [x0]
    7cb4:	f940ca80 	ldr	x0, [x20, #400]
    7cb8:	97fff26c 	bl	4668 <memcpy>
    7cbc:	91002262 	add	x2, x19, #0x8
    7cc0:	aa1703e1 	mov	x1, x23
    7cc4:	2a1803e0 	mov	w0, w24
    7cc8:	97ffe9b5 	bl	239c <TA_OpenSessionEntryPoint>
    7ccc:	b9404fe1 	ldr	w1, [sp, #76]
    7cd0:	2a0003f3 	mov	w19, w0
    7cd4:	aa1703e2 	mov	x2, x23
    7cd8:	aa1603e0 	mov	x0, x22
    7cdc:	97fffede 	bl	7854 <to_utee_params>
    7ce0:	34fffab3 	cbz	w19, 7c34 <__utee_entry+0xa0>
    7ce4:	2a1503e0 	mov	w0, w21
    7ce8:	97ffff85 	bl	7afc <ta_header_remove_session>
    7cec:	17ffffd2 	b	7c34 <__utee_entry+0xa0>
    7cf0:	2a0103e0 	mov	w0, w1
    7cf4:	97fffece 	bl	782c <ta_header_get_session>
    7cf8:	b40004e0 	cbz	x0, 7d94 <__utee_entry+0x200>
    7cfc:	f9400400 	ldr	x0, [x0, #8]
    7d00:	52800013 	mov	w19, #0x0                   	// #0
    7d04:	97ffe9b9 	bl	23e8 <TA_CloseSessionEntryPoint>
    7d08:	2a1503e0 	mov	w0, w21
    7d0c:	97ffff7c 	bl	7afc <ta_header_remove_session>
    7d10:	17ffffc9 	b	7c34 <__utee_entry+0xa0>
    7d14:	2a0103e0 	mov	w0, w1
    7d18:	97fffec5 	bl	782c <ta_header_get_session>
    7d1c:	aa0003f3 	mov	x19, x0
    7d20:	b40003a0 	cbz	x0, 7d94 <__utee_entry+0x200>
    7d24:	910143f5 	add	x21, sp, #0x50
    7d28:	aa0303f7 	mov	x23, x3
    7d2c:	aa1603e2 	mov	x2, x22
    7d30:	910133e1 	add	x1, sp, #0x4c
    7d34:	aa1503e0 	mov	x0, x21
    7d38:	97fffee2 	bl	78c0 <from_utee_params>
    7d3c:	f940be80 	ldr	x0, [x20, #376]
    7d40:	aa1503e1 	mov	x1, x21
    7d44:	b9404ff8 	ldr	w24, [sp, #76]
    7d48:	d2800802 	mov	x2, #0x40                  	// #64
    7d4c:	b9000018 	str	w24, [x0]
    7d50:	f940ca80 	ldr	x0, [x20, #400]
    7d54:	97fff245 	bl	4668 <memcpy>
    7d58:	f9400660 	ldr	x0, [x19, #8]
    7d5c:	2a1803e2 	mov	w2, w24
    7d60:	2a1703e1 	mov	w1, w23
    7d64:	aa1503e3 	mov	x3, x21
    7d68:	97ffe9a9 	bl	240c <TA_InvokeCommandEntryPoint>
    7d6c:	2a0003f3 	mov	w19, w0
    7d70:	b9404fe1 	ldr	w1, [sp, #76]
    7d74:	aa1503e2 	mov	x2, x21
    7d78:	aa1603e0 	mov	x0, x22
    7d7c:	97fffeb6 	bl	7854 <to_utee_params>
    7d80:	17ffffad 	b	7c34 <__utee_entry+0xa0>
    7d84:	52800000 	mov	w0, #0x0                   	// #0
    7d88:	12800013 	mov	w19, #0xffffffff            	// #-1
    7d8c:	94000830 	bl	9e4c <TEE_Panic>
    7d90:	17ffffa9 	b	7c34 <__utee_entry+0xa0>
    7d94:	129fff13 	mov	w19, #0xffff0007            	// #-65529
    7d98:	17ffffa7 	b	7c34 <__utee_entry+0xa0>

0000000000007d9c <update_out_param>:
    7d9c:	a9bc7bfd 	stp	x29, x30, [sp, #-64]!
    7da0:	910003fd 	mov	x29, sp
    7da4:	a90153f3 	stp	x19, x20, [sp, #16]
    7da8:	aa0203f4 	mov	x20, x2
    7dac:	aa0003f3 	mov	x19, x0
    7db0:	a90363f7 	stp	x23, x24, [sp, #48]
    7db4:	aa0103f8 	mov	x24, x1
    7db8:	f8408697 	ldr	x23, [x20], #8
    7dbc:	a9025bf5 	stp	x21, x22, [sp, #32]
    7dc0:	d2800015 	mov	x21, #0x0                   	// #0
    7dc4:	531e76a0 	lsl	w0, w21, #2
    7dc8:	f9400696 	ldr	x22, [x20, #8]
    7dcc:	1ac026e0 	lsr	w0, w23, w0
    7dd0:	12000c01 	and	w1, w0, #0xf
    7dd4:	721e041f 	tst	w0, #0xc
    7dd8:	540000c1 	b.ne	7df0 <update_out_param+0x54>  // b.any
    7ddc:	721f081f 	tst	w0, #0xe
    7de0:	540000e0 	b.eq	7dfc <update_out_param+0x60>  // b.none
    7de4:	f9400280 	ldr	x0, [x20]
    7de8:	29005a60 	stp	w0, w22, [x19]
    7dec:	14000004 	b	7dfc <update_out_param+0x60>
    7df0:	51001820 	sub	w0, w1, #0x6
    7df4:	7100041f 	cmp	w0, #0x1
    7df8:	54000169 	b.ls	7e24 <update_out_param+0x88>  // b.plast
    7dfc:	910006b5 	add	x21, x21, #0x1
    7e00:	91004294 	add	x20, x20, #0x10
    7e04:	91004273 	add	x19, x19, #0x10
    7e08:	f10012bf 	cmp	x21, #0x4
    7e0c:	54fffdc1 	b.ne	7dc4 <update_out_param+0x28>  // b.any
    7e10:	a94153f3 	ldp	x19, x20, [sp, #16]
    7e14:	a9425bf5 	ldp	x21, x22, [sp, #32]
    7e18:	a94363f7 	ldp	x23, x24, [sp, #48]
    7e1c:	a8c47bfd 	ldp	x29, x30, [sp], #64
    7e20:	d65f03c0 	ret
    7e24:	f8757b01 	ldr	x1, [x24, x21, lsl #3]
    7e28:	b40000c1 	cbz	x1, 7e40 <update_out_param+0xa4>
    7e2c:	b9400a62 	ldr	w2, [x19, #8]
    7e30:	f9400260 	ldr	x0, [x19]
    7e34:	eb16005f 	cmp	x2, x22
    7e38:	9a969042 	csel	x2, x2, x22, ls  // ls = plast
    7e3c:	97fff20b 	bl	4668 <memcpy>
    7e40:	b9000a76 	str	w22, [x19, #8]
    7e44:	17ffffee 	b	7dfc <update_out_param+0x60>

0000000000007e48 <TEE_CloseTASession>:
    7e48:	b4000120 	cbz	x0, 7e6c <TEE_CloseTASession+0x24>
    7e4c:	a9bf7bfd 	stp	x29, x30, [sp, #-16]!
    7e50:	910003fd 	mov	x29, sp
    7e54:	97fffd91 	bl	7498 <_utee_close_ta_session>
    7e58:	34000060 	cbz	w0, 7e64 <TEE_CloseTASession+0x1c>
    7e5c:	a8c17bfd 	ldp	x29, x30, [sp], #16
    7e60:	140007fb 	b	9e4c <TEE_Panic>
    7e64:	a8c17bfd 	ldp	x29, x30, [sp], #16
    7e68:	d65f03c0 	ret
    7e6c:	d65f03c0 	ret

0000000000007e70 <TEE_GetCancellationFlag>:
    7e70:	a9be7bfd 	stp	x29, x30, [sp, #-32]!
    7e74:	910003fd 	mov	x29, sp
    7e78:	910073e0 	add	x0, sp, #0x1c
    7e7c:	97fffd8d 	bl	74b0 <_utee_get_cancellation_flag>
    7e80:	34000040 	cbz	w0, 7e88 <TEE_GetCancellationFlag+0x18>
    7e84:	b9001fff 	str	wzr, [sp, #28]
    7e88:	b9401fe0 	ldr	w0, [sp, #28]
    7e8c:	a8c27bfd 	ldp	x29, x30, [sp], #32
    7e90:	7100001f 	cmp	w0, #0x0
    7e94:	1a9f07e0 	cset	w0, ne  // ne = any
    7e98:	d65f03c0 	ret

0000000000007e9c <TEE_UnmaskCancellation>:
    7e9c:	a9be7bfd 	stp	x29, x30, [sp, #-32]!
    7ea0:	910003fd 	mov	x29, sp
    7ea4:	910073e0 	add	x0, sp, #0x1c
    7ea8:	97fffd88 	bl	74c8 <_utee_unmask_cancellation>
    7eac:	34000040 	cbz	w0, 7eb4 <TEE_UnmaskCancellation+0x18>
    7eb0:	940007e7 	bl	9e4c <TEE_Panic>
    7eb4:	b9401fe0 	ldr	w0, [sp, #28]
    7eb8:	a8c27bfd 	ldp	x29, x30, [sp], #32
    7ebc:	7100001f 	cmp	w0, #0x0
    7ec0:	1a9f07e0 	cset	w0, ne  // ne = any
    7ec4:	d65f03c0 	ret

0000000000007ec8 <TEE_MaskCancellation>:
    7ec8:	a9be7bfd 	stp	x29, x30, [sp, #-32]!
    7ecc:	910003fd 	mov	x29, sp
    7ed0:	910073e0 	add	x0, sp, #0x1c
    7ed4:	97fffd80 	bl	74d4 <_utee_mask_cancellation>
    7ed8:	34000040 	cbz	w0, 7ee0 <TEE_MaskCancellation+0x18>
    7edc:	940007dc 	bl	9e4c <TEE_Panic>
    7ee0:	b9401fe0 	ldr	w0, [sp, #28]
    7ee4:	a8c27bfd 	ldp	x29, x30, [sp], #32
    7ee8:	7100001f 	cmp	w0, #0x0
    7eec:	1a9f07e0 	cset	w0, ne  // ne = any
    7ef0:	d65f03c0 	ret

0000000000007ef4 <TEE_CheckMemoryAccessRights>:
    7ef4:	34000062 	cbz	w2, 7f00 <TEE_CheckMemoryAccessRights+0xc>
    7ef8:	2a0203e2 	mov	w2, w2
    7efc:	17fffd70 	b	74bc <_utee_check_access_rights>
    7f00:	52800000 	mov	w0, #0x0                   	// #0
    7f04:	d65f03c0 	ret

0000000000007f08 <copy_param>:
    7f08:	a9b87bfd 	stp	x29, x30, [sp, #-128]!
    7f0c:	910003fd 	mov	x29, sp
    7f10:	a9046bf9 	stp	x25, x26, [sp, #64]
    7f14:	aa0303f9 	mov	x25, x3
    7f18:	9101e3e3 	add	x3, sp, #0x78
    7f1c:	a90363f7 	stp	x23, x24, [sp, #48]
    7f20:	aa0403f8 	mov	x24, x4
    7f24:	aa0503f7 	mov	x23, x5
    7f28:	a90153f3 	stp	x19, x20, [sp, #16]
    7f2c:	aa0003f3 	mov	x19, x0
    7f30:	aa0203f4 	mov	x20, x2
    7f34:	a9025bf5 	stp	x21, x22, [sp, #32]
    7f38:	2a0103f6 	mov	w22, w1
    7f3c:	d2800015 	mov	x21, #0x0                   	// #0
    7f40:	a90573fb 	stp	x27, x28, [sp, #80]
    7f44:	9100205c 	add	x28, x2, #0x8
    7f48:	d280001b 	mov	x27, #0x0                   	// #0
    7f4c:	f900033f 	str	xzr, [x25]
    7f50:	52800024 	mov	w4, #0x1                   	// #1
    7f54:	f900031f 	str	xzr, [x24]
    7f58:	b9007bff 	str	wzr, [sp, #120]
    7f5c:	531e76a0 	lsl	w0, w21, #2
    7f60:	f8357aff 	str	xzr, [x23, x21, lsl #3]
    7f64:	1ac026c0 	lsr	w0, w22, w0
    7f68:	12000c00 	and	w0, w0, #0xf
    7f6c:	51001400 	sub	w0, w0, #0x5
    7f70:	7100081f 	cmp	w0, #0x2
    7f74:	54000268 	b.hi	7fc0 <copy_param+0xb8>  // b.pmore
    7f78:	d37ceea0 	lsl	x0, x21, #4
    7f7c:	f8606a81 	ldr	x1, [x20, x0]
    7f80:	b8606b82 	ldr	w2, [x28, x0]
    7f84:	f100003f 	cmp	x1, #0x0
    7f88:	2a0203fa 	mov	w26, w2
    7f8c:	fa401b44 	ccmp	x26, #0x0, #0x4, ne  // ne = any
    7f90:	54000180 	b.eq	7fc0 <copy_param+0xb8>  // b.none
    7f94:	52800020 	mov	w0, #0x1                   	// #1
    7f98:	f90033e3 	str	x3, [sp, #96]
    7f9c:	b9006fe4 	str	w4, [sp, #108]
    7fa0:	97ffffd5 	bl	7ef4 <TEE_CheckMemoryAccessRights>
    7fa4:	b9406fe4 	ldr	w4, [sp, #108]
    7fa8:	f94033e3 	ldr	x3, [sp, #96]
    7fac:	350000a0 	cbnz	w0, 7fc0 <copy_param+0xb8>
    7fb0:	91003f5a 	add	x26, x26, #0xf
    7fb4:	38236aa4 	strb	w4, [x21, x3]
    7fb8:	927cef5a 	and	x26, x26, #0xfffffffffffffff0
    7fbc:	8b1a037b 	add	x27, x27, x26
    7fc0:	910006b5 	add	x21, x21, #0x1
    7fc4:	f10012bf 	cmp	x21, #0x4
    7fc8:	54fffca1 	b.ne	7f5c <copy_param+0x54>  // b.any
    7fcc:	b40002fb 	cbz	x27, 8028 <copy_param+0x120>
    7fd0:	2a1503e1 	mov	w1, w21
    7fd4:	aa1b03e0 	mov	x0, x27
    7fd8:	94000810 	bl	a018 <tee_map_zi>
    7fdc:	aa0003e6 	mov	x6, x0
    7fe0:	b4000780 	cbz	x0, 80d0 <copy_param+0x1c8>
    7fe4:	f9000320 	str	x0, [x25]
    7fe8:	f900031b 	str	x27, [x24]
    7fec:	9101e3fa 	add	x26, sp, #0x78
    7ff0:	2a1603e0 	mov	w0, w22
    7ff4:	d2800015 	mov	x21, #0x0                   	// #0
    7ff8:	f8008660 	str	x0, [x19], #8
    7ffc:	531e76a1 	lsl	w1, w21, #2
    8000:	1ac126c1 	lsr	w1, w22, w1
    8004:	12000c20 	and	w0, w1, #0xf
    8008:	71000c1f 	cmp	w0, #0x3
    800c:	540003a0 	b.eq	8080 <copy_param+0x178>  // b.none
    8010:	721e043f 	tst	w1, #0xc
    8014:	540000e1 	b.ne	8030 <copy_param+0x128>  // b.any
    8018:	7100041f 	cmp	w0, #0x1
    801c:	54000320 	b.eq	8080 <copy_param+0x178>  // b.none
    8020:	a9007e7f 	stp	xzr, xzr, [x19]
    8024:	1400001b 	b	8090 <copy_param+0x188>
    8028:	d2800006 	mov	x6, #0x0                   	// #0
    802c:	17fffff0 	b	7fec <copy_param+0xe4>
    8030:	51001401 	sub	w1, w0, #0x5
    8034:	7100083f 	cmp	w1, #0x2
    8038:	54ffff48 	b.hi	8020 <copy_param+0x118>  // b.pmore
    803c:	387a6aa1 	ldrb	w1, [x21, x26]
    8040:	b9400a99 	ldr	w25, [x20, #8]
    8044:	34000401 	cbz	w1, 80c4 <copy_param+0x1bc>
    8048:	91003f38 	add	x24, x25, #0xf
    804c:	f8357ae6 	str	x6, [x23, x21, lsl #3]
    8050:	927cef18 	and	x24, x24, #0xfffffffffffffff0
    8054:	7100181f 	cmp	w0, #0x6
    8058:	8b1800d8 	add	x24, x6, x24
    805c:	540000c0 	b.eq	8074 <copy_param+0x16c>  // b.none
    8060:	f9400281 	ldr	x1, [x20]
    8064:	aa0603e0 	mov	x0, x6
    8068:	aa1903e2 	mov	x2, x25
    806c:	97fff17f 	bl	4668 <memcpy>
    8070:	aa0003e6 	mov	x6, x0
    8074:	a9006666 	stp	x6, x25, [x19]
    8078:	aa1803e6 	mov	x6, x24
    807c:	14000005 	b	8090 <copy_param+0x188>
    8080:	b9400280 	ldr	w0, [x20]
    8084:	f9000260 	str	x0, [x19]
    8088:	b9400680 	ldr	w0, [x20, #4]
    808c:	f9000660 	str	x0, [x19, #8]
    8090:	910006b5 	add	x21, x21, #0x1
    8094:	91004294 	add	x20, x20, #0x10
    8098:	91004273 	add	x19, x19, #0x10
    809c:	f10012bf 	cmp	x21, #0x4
    80a0:	54fffae1 	b.ne	7ffc <copy_param+0xf4>  // b.any
    80a4:	52800000 	mov	w0, #0x0                   	// #0
    80a8:	a94153f3 	ldp	x19, x20, [sp, #16]
    80ac:	a9425bf5 	ldp	x21, x22, [sp, #32]
    80b0:	a94363f7 	ldp	x23, x24, [sp, #48]
    80b4:	a9446bf9 	ldp	x25, x26, [sp, #64]
    80b8:	a94573fb 	ldp	x27, x28, [sp, #80]
    80bc:	a8c87bfd 	ldp	x29, x30, [sp], #128
    80c0:	d65f03c0 	ret
    80c4:	aa0603f8 	mov	x24, x6
    80c8:	f9400286 	ldr	x6, [x20]
    80cc:	17ffffea 	b	8074 <copy_param+0x16c>
    80d0:	129ffe60 	mov	w0, #0xffff000c            	// #-65524
    80d4:	17fffff5 	b	80a8 <copy_param+0x1a0>

00000000000080d8 <TEE_OpenTASession>:
    80d8:	a9b37bfd 	stp	x29, x30, [sp, #-208]!
    80dc:	910003fd 	mov	x29, sp
    80e0:	a90153f3 	stp	x19, x20, [sp, #16]
    80e4:	2a0203f3 	mov	w19, w2
    80e8:	aa0303f4 	mov	x20, x3
    80ec:	a9025bf5 	stp	x21, x22, [sp, #32]
    80f0:	aa0403f5 	mov	x21, x4
    80f4:	a90363f7 	stp	x23, x24, [sp, #48]
    80f8:	aa0003f7 	mov	x23, x0
    80fc:	2a0103f8 	mov	w24, w1
    8100:	a9046bf9 	stp	x25, x26, [sp, #64]
    8104:	aa0503f9 	mov	x25, x5
    8108:	b90057ff 	str	wzr, [sp, #84]
    810c:	a905ffff 	stp	xzr, xzr, [sp, #88]
    8110:	a906ffff 	stp	xzr, xzr, [sp, #104]
    8114:	a907ffff 	stp	xzr, xzr, [sp, #120]
    8118:	34000082 	cbz	w2, 8128 <TEE_OpenTASession+0x50>
    811c:	aa0303e0 	mov	x0, x3
    8120:	d2800801 	mov	x1, #0x40                  	// #64
    8124:	94000793 	bl	9f70 <__utee_check_inout_annotation>
    8128:	aa1503e0 	mov	x0, x21
    812c:	d2800101 	mov	x1, #0x8                   	// #8
    8130:	9101a3fa 	add	x26, sp, #0x68
    8134:	9400077e 	bl	9f2c <__utee_check_out_annotation>
    8138:	910223f6 	add	x22, sp, #0x88
    813c:	2a1303e1 	mov	w1, w19
    8140:	aa1a03e5 	mov	x5, x26
    8144:	910183e4 	add	x4, sp, #0x60
    8148:	910163e3 	add	x3, sp, #0x58
    814c:	aa1403e2 	mov	x2, x20
    8150:	aa1603e0 	mov	x0, x22
    8154:	97ffff6d 	bl	7f08 <copy_param>
    8158:	2a0003f3 	mov	w19, w0
    815c:	35000260 	cbnz	w0, 81a8 <TEE_OpenTASession+0xd0>
    8160:	aa1903e4 	mov	x4, x25
    8164:	910153e3 	add	x3, sp, #0x54
    8168:	aa1603e2 	mov	x2, x22
    816c:	2a1803e1 	mov	w1, w24
    8170:	aa1703e0 	mov	x0, x23
    8174:	97fffcc6 	bl	748c <_utee_open_ta_session>
    8178:	aa1603e2 	mov	x2, x22
    817c:	2a0003f3 	mov	w19, w0
    8180:	aa1a03e1 	mov	x1, x26
    8184:	aa1403e0 	mov	x0, x20
    8188:	97ffff05 	bl	7d9c <update_out_param>
    818c:	f9402fe0 	ldr	x0, [sp, #88]
    8190:	b40000a0 	cbz	x0, 81a4 <TEE_OpenTASession+0xcc>
    8194:	f94033e1 	ldr	x1, [sp, #96]
    8198:	940007b9 	bl	a07c <tee_unmap>
    819c:	34000040 	cbz	w0, 81a4 <TEE_OpenTASession+0xcc>
    81a0:	9400072b 	bl	9e4c <TEE_Panic>
    81a4:	34000053 	cbz	w19, 81ac <TEE_OpenTASession+0xd4>
    81a8:	b90057ff 	str	wzr, [sp, #84]
    81ac:	b94057e0 	ldr	w0, [sp, #84]
    81b0:	a94363f7 	ldp	x23, x24, [sp, #48]
    81b4:	a9446bf9 	ldp	x25, x26, [sp, #64]
    81b8:	f90002a0 	str	x0, [x21]
    81bc:	2a1303e0 	mov	w0, w19
    81c0:	a94153f3 	ldp	x19, x20, [sp, #16]
    81c4:	a9425bf5 	ldp	x21, x22, [sp, #32]
    81c8:	a8cd7bfd 	ldp	x29, x30, [sp], #208
    81cc:	d65f03c0 	ret

00000000000081d0 <TEE_InvokeTACommand>:
    81d0:	a9b37bfd 	stp	x29, x30, [sp, #-208]!
    81d4:	910003fd 	mov	x29, sp
    81d8:	a90153f3 	stp	x19, x20, [sp, #16]
    81dc:	2a0303f3 	mov	w19, w3
    81e0:	aa0503f4 	mov	x20, x5
    81e4:	a9025bf5 	stp	x21, x22, [sp, #32]
    81e8:	aa0403f5 	mov	x21, x4
    81ec:	a90363f7 	stp	x23, x24, [sp, #48]
    81f0:	aa0003f7 	mov	x23, x0
    81f4:	52800060 	mov	w0, #0x3                   	// #3
    81f8:	a9046bf9 	stp	x25, x26, [sp, #64]
    81fc:	2a0103f8 	mov	w24, w1
    8200:	2a0203f9 	mov	w25, w2
    8204:	b90057e0 	str	w0, [sp, #84]
    8208:	a905ffff 	stp	xzr, xzr, [sp, #88]
    820c:	a906ffff 	stp	xzr, xzr, [sp, #104]
    8210:	a907ffff 	stp	xzr, xzr, [sp, #120]
    8214:	34000083 	cbz	w3, 8224 <TEE_InvokeTACommand+0x54>
    8218:	aa0403e0 	mov	x0, x4
    821c:	d2800801 	mov	x1, #0x40                  	// #64
    8220:	94000754 	bl	9f70 <__utee_check_inout_annotation>
    8224:	b4000094 	cbz	x20, 8234 <TEE_InvokeTACommand+0x64>
    8228:	aa1403e0 	mov	x0, x20
    822c:	d2800081 	mov	x1, #0x4                   	// #4
    8230:	9400073f 	bl	9f2c <__utee_check_out_annotation>
    8234:	9101a3fa 	add	x26, sp, #0x68
    8238:	910223f6 	add	x22, sp, #0x88
    823c:	2a1303e1 	mov	w1, w19
    8240:	aa1a03e5 	mov	x5, x26
    8244:	910183e4 	add	x4, sp, #0x60
    8248:	910163e3 	add	x3, sp, #0x58
    824c:	aa1503e2 	mov	x2, x21
    8250:	aa1603e0 	mov	x0, x22
    8254:	97ffff2d 	bl	7f08 <copy_param>
    8258:	2a0003f3 	mov	w19, w0
    825c:	35000240 	cbnz	w0, 82a4 <TEE_InvokeTACommand+0xd4>
    8260:	910153e4 	add	x4, sp, #0x54
    8264:	aa1603e3 	mov	x3, x22
    8268:	2a1903e2 	mov	w2, w25
    826c:	2a1803e1 	mov	w1, w24
    8270:	aa1703e0 	mov	x0, x23
    8274:	97fffc8c 	bl	74a4 <_utee_invoke_ta_command>
    8278:	aa1603e2 	mov	x2, x22
    827c:	2a0003f3 	mov	w19, w0
    8280:	aa1a03e1 	mov	x1, x26
    8284:	aa1503e0 	mov	x0, x21
    8288:	97fffec5 	bl	7d9c <update_out_param>
    828c:	f9402fe0 	ldr	x0, [sp, #88]
    8290:	b40000a0 	cbz	x0, 82a4 <TEE_InvokeTACommand+0xd4>
    8294:	f94033e1 	ldr	x1, [sp, #96]
    8298:	94000779 	bl	a07c <tee_unmap>
    829c:	34000040 	cbz	w0, 82a4 <TEE_InvokeTACommand+0xd4>
    82a0:	940006eb 	bl	9e4c <TEE_Panic>
    82a4:	b94057e0 	ldr	w0, [sp, #84]
    82a8:	b4000054 	cbz	x20, 82b0 <TEE_InvokeTACommand+0xe0>
    82ac:	b9000280 	str	w0, [x20]
    82b0:	7100101f 	cmp	w0, #0x4
    82b4:	54000140 	b.eq	82dc <TEE_InvokeTACommand+0x10c>  // b.none
    82b8:	7100027f 	cmp	w19, #0x0
    82bc:	129ffe60 	mov	w0, #0xffff000c            	// #-65524
    82c0:	7a401264 	ccmp	w19, w0, #0x4, ne  // ne = any
    82c4:	540000c0 	b.eq	82dc <TEE_InvokeTACommand+0x10c>  // b.none
    82c8:	1299fb60 	mov	w0, #0xffff3024            	// #-53212
    82cc:	6b00027f 	cmp	w19, w0
    82d0:	54000060 	b.eq	82dc <TEE_InvokeTACommand+0x10c>  // b.none
    82d4:	2a1303e0 	mov	w0, w19
    82d8:	940006dd 	bl	9e4c <TEE_Panic>
    82dc:	2a1303e0 	mov	w0, w19
    82e0:	a94153f3 	ldp	x19, x20, [sp, #16]
    82e4:	a9425bf5 	ldp	x21, x22, [sp, #32]
    82e8:	a94363f7 	ldp	x23, x24, [sp, #48]
    82ec:	a9446bf9 	ldp	x25, x26, [sp, #64]
    82f0:	a8cd7bfd 	ldp	x29, x30, [sp], #208
    82f4:	d65f03c0 	ret

00000000000082f8 <TEE_SetInstanceData>:
    82f8:	f0000041 	adrp	x1, 13000 <_DYNAMIC>
    82fc:	f903fc20 	str	x0, [x1, #2040]
    8300:	d65f03c0 	ret

0000000000008304 <TEE_GetInstanceData>:
    8304:	f0000040 	adrp	x0, 13000 <_DYNAMIC>
    8308:	f943fc00 	ldr	x0, [x0, #2040]
    830c:	d65f03c0 	ret

0000000000008310 <TEE_MemMove>:
    8310:	2a0203e2 	mov	w2, w2
    8314:	1400194d 	b	e848 <memmove>

0000000000008318 <TEE_MemCompare>:
    8318:	2a0203e2 	mov	w2, w2
    831c:	14001999 	b	e980 <consttime_memcmp>

0000000000008320 <TEE_MemFill>:
    8320:	2a0203e2 	mov	w2, w2
    8324:	17fff1ba 	b	4a0c <memset>

0000000000008328 <TEE_GetSystemTime>:
    8328:	a9bf7bfd 	stp	x29, x30, [sp, #-16]!
    832c:	aa0003e1 	mov	x1, x0
    8330:	d2800000 	mov	x0, #0x0                   	// #0
    8334:	910003fd 	mov	x29, sp
    8338:	97fffc6d 	bl	74ec <_utee_get_time>
    833c:	34000060 	cbz	w0, 8348 <TEE_GetSystemTime+0x20>
    8340:	a8c17bfd 	ldp	x29, x30, [sp], #16
    8344:	140006c2 	b	9e4c <TEE_Panic>
    8348:	a8c17bfd 	ldp	x29, x30, [sp], #16
    834c:	d65f03c0 	ret

0000000000008350 <TEE_Wait>:
    8350:	a9be7bfd 	stp	x29, x30, [sp, #-32]!
    8354:	2a0003e0 	mov	w0, w0
    8358:	910003fd 	mov	x29, sp
    835c:	f9000bf3 	str	x19, [sp, #16]
    8360:	97fffc60 	bl	74e0 <_utee_wait>
    8364:	7100001f 	cmp	w0, #0x0
    8368:	129fffa1 	mov	w1, #0xffff0002            	// #-65534
    836c:	2a0003f3 	mov	w19, w0
    8370:	7a411004 	ccmp	w0, w1, #0x4, ne  // ne = any
    8374:	54000040 	b.eq	837c <TEE_Wait+0x2c>  // b.none
    8378:	940006b5 	bl	9e4c <TEE_Panic>
    837c:	2a1303e0 	mov	w0, w19
    8380:	f9400bf3 	ldr	x19, [sp, #16]
    8384:	a8c27bfd 	ldp	x29, x30, [sp], #32
    8388:	d65f03c0 	ret

000000000000838c <TEE_GetTAPersistentTime>:
    838c:	a9be7bfd 	stp	x29, x30, [sp, #-32]!
    8390:	aa0003e1 	mov	x1, x0
    8394:	910003fd 	mov	x29, sp
    8398:	a90153f3 	stp	x19, x20, [sp, #16]
    839c:	aa0003f4 	mov	x20, x0
    83a0:	d2800020 	mov	x0, #0x1                   	// #1
    83a4:	97fffc52 	bl	74ec <_utee_get_time>
    83a8:	7100001f 	cmp	w0, #0x0
    83ac:	2a0003f3 	mov	w19, w0
    83b0:	1a9f07e2 	cset	w2, ne  // ne = any
    83b4:	1299fe00 	mov	w0, #0xffff300f            	// #-53233
    83b8:	6b00027f 	cmp	w19, w0
    83bc:	1a9f1041 	csel	w1, w2, wzr, ne  // ne = any
    83c0:	34000041 	cbz	w1, 83c8 <TEE_GetTAPersistentTime+0x3c>
    83c4:	29007e9f 	stp	wzr, wzr, [x20]
    83c8:	11402e60 	add	w0, w19, #0xb, lsl #12
    83cc:	7100005f 	cmp	w2, #0x0
    83d0:	7a411800 	ccmp	w0, #0x1, #0x0, ne  // ne = any
    83d4:	540000e9 	b.ls	83f0 <TEE_GetTAPersistentTime+0x64>  // b.plast
    83d8:	340000c1 	cbz	w1, 83f0 <TEE_GetTAPersistentTime+0x64>
    83dc:	129ffe60 	mov	w0, #0xffff000c            	// #-65524
    83e0:	6b00027f 	cmp	w19, w0
    83e4:	54000060 	b.eq	83f0 <TEE_GetTAPersistentTime+0x64>  // b.none
    83e8:	2a1303e0 	mov	w0, w19
    83ec:	94000698 	bl	9e4c <TEE_Panic>
    83f0:	2a1303e0 	mov	w0, w19
    83f4:	a94153f3 	ldp	x19, x20, [sp, #16]
    83f8:	a8c27bfd 	ldp	x29, x30, [sp], #32
    83fc:	d65f03c0 	ret

0000000000008400 <TEE_SetTAPersistentTime>:
    8400:	a9be7bfd 	stp	x29, x30, [sp, #-32]!
    8404:	910003fd 	mov	x29, sp
    8408:	f9000bf3 	str	x19, [sp, #16]
    840c:	97fffc3b 	bl	74f8 <_utee_set_ta_time>
    8410:	7100001f 	cmp	w0, #0x0
    8414:	129ffe61 	mov	w1, #0xffff000c            	// #-65524
    8418:	2a0003f3 	mov	w19, w0
    841c:	7a411004 	ccmp	w0, w1, #0x4, ne  // ne = any
    8420:	540000a0 	b.eq	8434 <TEE_SetTAPersistentTime+0x34>  // b.none
    8424:	1299f7c1 	mov	w1, #0xffff3041            	// #-53183
    8428:	6b01001f 	cmp	w0, w1
    842c:	54000040 	b.eq	8434 <TEE_SetTAPersistentTime+0x34>  // b.none
    8430:	94000687 	bl	9e4c <TEE_Panic>
    8434:	2a1303e0 	mov	w0, w19
    8438:	f9400bf3 	ldr	x19, [sp, #16]
    843c:	a8c27bfd 	ldp	x29, x30, [sp], #32
    8440:	d65f03c0 	ret

0000000000008444 <TEE_GetREETime>:
    8444:	a9bf7bfd 	stp	x29, x30, [sp, #-16]!
    8448:	aa0003e1 	mov	x1, x0
    844c:	d2800040 	mov	x0, #0x2                   	// #2
    8450:	910003fd 	mov	x29, sp
    8454:	97fffc26 	bl	74ec <_utee_get_time>
    8458:	34000060 	cbz	w0, 8464 <TEE_GetREETime+0x20>
    845c:	a8c17bfd 	ldp	x29, x30, [sp], #16
    8460:	1400067b 	b	9e4c <TEE_Panic>
    8464:	a8c17bfd 	ldp	x29, x30, [sp], #16
    8468:	d65f03c0 	ret

000000000000846c <TEE_Malloc>:
    846c:	35000081 	cbnz	w1, 847c <TEE_Malloc+0x10>
    8470:	2a0003e1 	mov	w1, w0
    8474:	d2800020 	mov	x0, #0x1                   	// #1
    8478:	1400183f 	b	e574 <calloc>
    847c:	2a0103e5 	mov	w5, w1
    8480:	52b00001 	mov	w1, #0x80000000            	// #-2147483648
    8484:	6b0100bf 	cmp	w5, w1
    8488:	54000061 	b.ne	8494 <TEE_Malloc+0x28>  // b.any
    848c:	2a0003e0 	mov	w0, w0
    8490:	17fff9e8 	b	6c30 <malloc>
    8494:	a9bf7bfd 	stp	x29, x30, [sp, #-16]!
    8498:	52800023 	mov	w3, #0x1                   	// #1
    849c:	52800022 	mov	w2, #0x1                   	// #1
    84a0:	910003fd 	mov	x29, sp
    84a4:	52803201 	mov	w1, #0x190                 	// #400
    84a8:	b0000044 	adrp	x4, 11000 <errmsgstr+0x177>
    84ac:	b0000040 	adrp	x0, 11000 <errmsgstr+0x177>
    84b0:	9126ac84 	add	x4, x4, #0x9ab
    84b4:	9126f000 	add	x0, x0, #0x9bc
    84b8:	97fff28e 	bl	4ef0 <trace_printf>
    84bc:	d2800000 	mov	x0, #0x0                   	// #0
    84c0:	a8c17bfd 	ldp	x29, x30, [sp], #16
    84c4:	d65f03c0 	ret

00000000000084c8 <TEE_Realloc>:
    84c8:	2a0103e1 	mov	w1, w1
    84cc:	1400185a 	b	e634 <realloc>

00000000000084d0 <TEE_Free>:
    84d0:	17fff2ca 	b	4ff8 <free>

00000000000084d4 <TEE_CacheClean>:
    84d4:	d2800002 	mov	x2, #0x0                   	// #0
    84d8:	17fffc83 	b	76e4 <_utee_cache_operation>

00000000000084dc <TEE_CacheFlush>:
    84dc:	d2800022 	mov	x2, #0x1                   	// #1
    84e0:	17fffc81 	b	76e4 <_utee_cache_operation>

00000000000084e4 <TEE_CacheInvalidate>:
    84e4:	d2800042 	mov	x2, #0x2                   	// #2
    84e8:	17fffc7f 	b	76e4 <_utee_cache_operation>

00000000000084ec <api_panic>:
    84ec:	a9bf7bfd 	stp	x29, x30, [sp, #-16]!
    84f0:	aa0203e3 	mov	x3, x2
    84f4:	2a0103e2 	mov	w2, w1
    84f8:	aa0003e1 	mov	x1, x0
    84fc:	910003fd 	mov	x29, sp
    8500:	b0000040 	adrp	x0, 11000 <errmsgstr+0x177>
    8504:	91271c00 	add	x0, x0, #0x9c7
    8508:	97ffe939 	bl	29ec <printf>
    850c:	528c24e0 	mov	w0, #0x6127                	// #24871
    8510:	72a01620 	movk	w0, #0xb1, lsl #16
    8514:	9400064e 	bl	9e4c <TEE_Panic>
    8518:	14000000 	b	8518 <api_panic+0x2c>

000000000000851c <mpi_panic>:
    851c:	a9bf7bfd 	stp	x29, x30, [sp, #-16]!
    8520:	2a0203e3 	mov	w3, w2
    8524:	2a0103e2 	mov	w2, w1
    8528:	aa0003e1 	mov	x1, x0
    852c:	910003fd 	mov	x29, sp
    8530:	b0000040 	adrp	x0, 11000 <errmsgstr+0x177>
    8534:	91279c00 	add	x0, x0, #0x9e7
    8538:	97ffe92d 	bl	29ec <printf>
    853c:	528c24e0 	mov	w0, #0x6127                	// #24871
    8540:	72a01620 	movk	w0, #0xb1, lsl #16
    8544:	94000642 	bl	9e4c <TEE_Panic>
    8548:	14000000 	b	8548 <mpi_panic+0x2c>

000000000000854c <get_mpi>:
    854c:	a9bd7bfd 	stp	x29, x30, [sp, #-48]!
    8550:	910003fd 	mov	x29, sp
    8554:	a90153f3 	stp	x19, x20, [sp, #16]
    8558:	aa0103f3 	mov	x19, x1
    855c:	a9025bf5 	stp	x21, x22, [sp, #32]
    8560:	aa0003f5 	mov	x21, x0
    8564:	94000953 	bl	aab0 <mbedtls_mpi_init_mempool>
    8568:	b4000373 	cbz	x19, 85d4 <get_mpi+0x88>
    856c:	79400e74 	ldrh	w20, [x19, #6]
    8570:	91002276 	add	x22, x19, #0x8
    8574:	91001261 	add	x1, x19, #0x4
    8578:	b4000074 	cbz	x20, 8584 <get_mpi+0x38>
    857c:	b8747820 	ldr	w0, [x1, x20, lsl #2]
    8580:	34000140 	cbz	w0, 85a8 <get_mpi+0x5c>
    8584:	aa1403e1 	mov	x1, x20
    8588:	aa1503e0 	mov	x0, x21
    858c:	9400096e 	bl	ab44 <mbedtls_mpi_grow>
    8590:	2a0003e2 	mov	w2, w0
    8594:	340000e0 	cbz	w0, 85b0 <get_mpi+0x64>
    8598:	b0000040 	adrp	x0, 11000 <errmsgstr+0x177>
    859c:	52800e01 	mov	w1, #0x70                  	// #112
    85a0:	9129f800 	add	x0, x0, #0xa7e
    85a4:	97ffffde 	bl	851c <mpi_panic>
    85a8:	d1000694 	sub	x20, x20, #0x1
    85ac:	17fffff3 	b	8578 <get_mpi+0x2c>
    85b0:	b9400260 	ldr	w0, [x19]
    85b4:	d37ef682 	lsl	x2, x20, #2
    85b8:	790002a0 	strh	w0, [x21]
    85bc:	aa1603e1 	mov	x1, x22
    85c0:	a94153f3 	ldp	x19, x20, [sp, #16]
    85c4:	f9400aa0 	ldr	x0, [x21, #16]
    85c8:	a9425bf5 	ldp	x21, x22, [sp, #32]
    85cc:	a8c37bfd 	ldp	x29, x30, [sp], #48
    85d0:	17fff026 	b	4668 <memcpy>
    85d4:	a94153f3 	ldp	x19, x20, [sp, #16]
    85d8:	a9425bf5 	ldp	x21, x22, [sp, #32]
    85dc:	a8c37bfd 	ldp	x29, x30, [sp], #48
    85e0:	d65f03c0 	ret

00000000000085e4 <copy_mpi_to_bigint>:
    85e4:	aa0003e4 	mov	x4, x0
    85e8:	aa0103e0 	mov	x0, x1
    85ec:	a9408482 	ldp	x2, x1, [x4, #8]
    85f0:	aa0203e3 	mov	x3, x2
    85f4:	b40000e3 	cbz	x3, 8610 <copy_mpi_to_bigint+0x2c>
    85f8:	8b030825 	add	x5, x1, x3, lsl #2
    85fc:	b85fc0a5 	ldur	w5, [x5, #-4]
    8600:	340001c5 	cbz	w5, 8638 <copy_mpi_to_bigint+0x54>
    8604:	79400805 	ldrh	w5, [x0, #4]
    8608:	eb0300bf 	cmp	x5, x3
    860c:	540001a3 	b.cc	8640 <copy_mpi_to_bigint+0x5c>  // b.lo, b.ul, b.last
    8610:	a9bf7bfd 	stp	x29, x30, [sp, #-16]!
    8614:	d37ef442 	lsl	x2, x2, #2
    8618:	910003fd 	mov	x29, sp
    861c:	79000c03 	strh	w3, [x0, #6]
    8620:	79c00083 	ldrsh	w3, [x4]
    8624:	b8008403 	str	w3, [x0], #8
    8628:	97fff010 	bl	4668 <memcpy>
    862c:	52800000 	mov	w0, #0x0                   	// #0
    8630:	a8c17bfd 	ldp	x29, x30, [sp], #16
    8634:	d65f03c0 	ret
    8638:	d1000463 	sub	x3, x3, #0x1
    863c:	17ffffee 	b	85f4 <copy_mpi_to_bigint+0x10>
    8640:	1299fe00 	mov	w0, #0xffff300f            	// #-53233
    8644:	d65f03c0 	ret

0000000000008648 <bigint_binary>:
    8648:	a9b67bfd 	stp	x29, x30, [sp, #-160]!
    864c:	910003fd 	mov	x29, sp
    8650:	a90153f3 	stp	x19, x20, [sp, #16]
    8654:	910163f3 	add	x19, sp, #0x58
    8658:	aa0003f4 	mov	x20, x0
    865c:	a9025bf5 	stp	x21, x22, [sp, #32]
    8660:	aa0203f5 	mov	x21, x2
    8664:	a90363f7 	stp	x23, x24, [sp, #48]
    8668:	aa0103f7 	mov	x23, x1
    866c:	aa0003e1 	mov	x1, x0
    8670:	aa1303e0 	mov	x0, x19
    8674:	a9046bf9 	stp	x25, x26, [sp, #64]
    8678:	aa0303fa 	mov	x26, x3
    867c:	97ffffb4 	bl	854c <get_mpi>
    8680:	9101c3f9 	add	x25, sp, #0x70
    8684:	eb17029f 	cmp	x20, x23
    8688:	54000320 	b.eq	86ec <bigint_binary+0xa4>  // b.none
    868c:	aa1903f6 	mov	x22, x25
    8690:	aa1703e1 	mov	x1, x23
    8694:	aa1903e0 	mov	x0, x25
    8698:	97ffffad 	bl	854c <get_mpi>
    869c:	eb15029f 	cmp	x20, x21
    86a0:	910223f8 	add	x24, sp, #0x88
    86a4:	54000280 	b.eq	86f4 <bigint_binary+0xac>  // b.none
    86a8:	eb1502ff 	cmp	x23, x21
    86ac:	54000280 	b.eq	86fc <bigint_binary+0xb4>  // b.none
    86b0:	aa1503e1 	mov	x1, x21
    86b4:	aa1803f5 	mov	x21, x24
    86b8:	aa1803e0 	mov	x0, x24
    86bc:	97ffffa4 	bl	854c <get_mpi>
    86c0:	aa1503e2 	mov	x2, x21
    86c4:	aa1603e1 	mov	x1, x22
    86c8:	aa1303e0 	mov	x0, x19
    86cc:	d63f0340 	blr	x26
    86d0:	2a0003e2 	mov	w2, w0
    86d4:	34000180 	cbz	w0, 8704 <bigint_binary+0xbc>
    86d8:	52802a81 	mov	w1, #0x154                 	// #340
    86dc:	b0000040 	adrp	x0, 11000 <errmsgstr+0x177>
    86e0:	9129f800 	add	x0, x0, #0xa7e
    86e4:	91002000 	add	x0, x0, #0x8
    86e8:	97ffff8d 	bl	851c <mpi_panic>
    86ec:	aa1303f6 	mov	x22, x19
    86f0:	17ffffeb 	b	869c <bigint_binary+0x54>
    86f4:	aa1303f5 	mov	x21, x19
    86f8:	17fffff2 	b	86c0 <bigint_binary+0x78>
    86fc:	aa1603f5 	mov	x21, x22
    8700:	17fffff0 	b	86c0 <bigint_binary+0x78>
    8704:	aa1403e1 	mov	x1, x20
    8708:	aa1303e0 	mov	x0, x19
    870c:	97ffffb6 	bl	85e4 <copy_mpi_to_bigint>
    8710:	2a0003e2 	mov	w2, w0
    8714:	34000060 	cbz	w0, 8720 <bigint_binary+0xd8>
    8718:	52802ac1 	mov	w1, #0x156                 	// #342
    871c:	17fffff0 	b	86dc <bigint_binary+0x94>
    8720:	aa1303e0 	mov	x0, x19
    8724:	940008ed 	bl	aad8 <mbedtls_mpi_free>
    8728:	eb1902df 	cmp	x22, x25
    872c:	54000061 	b.ne	8738 <bigint_binary+0xf0>  // b.any
    8730:	aa1603e0 	mov	x0, x22
    8734:	940008e9 	bl	aad8 <mbedtls_mpi_free>
    8738:	eb1802bf 	cmp	x21, x24
    873c:	54000061 	b.ne	8748 <bigint_binary+0x100>  // b.any
    8740:	aa1503e0 	mov	x0, x21
    8744:	940008e5 	bl	aad8 <mbedtls_mpi_free>
    8748:	a94153f3 	ldp	x19, x20, [sp, #16]
    874c:	a9425bf5 	ldp	x21, x22, [sp, #32]
    8750:	a94363f7 	ldp	x23, x24, [sp, #48]
    8754:	a9446bf9 	ldp	x25, x26, [sp, #64]
    8758:	a8ca7bfd 	ldp	x29, x30, [sp], #160
    875c:	d65f03c0 	ret

0000000000008760 <mpi_is_odd>:
    8760:	a9bf7bfd 	stp	x29, x30, [sp, #-16]!
    8764:	d2800001 	mov	x1, #0x0                   	// #0
    8768:	910003fd 	mov	x29, sp
    876c:	94000a3f 	bl	b068 <mbedtls_mpi_get_bit>
    8770:	7100001f 	cmp	w0, #0x0
    8774:	1a9f07e0 	cset	w0, ne  // ne = any
    8778:	a8c17bfd 	ldp	x29, x30, [sp], #16
    877c:	d65f03c0 	ret

0000000000008780 <rng_read>:
    8780:	a9bf7bfd 	stp	x29, x30, [sp, #-16]!
    8784:	aa0103e0 	mov	x0, x1
    8788:	aa0203e1 	mov	x1, x2
    878c:	910003fd 	mov	x29, sp
    8790:	97fffb93 	bl	75dc <_utee_cryp_random_number_generate>
    8794:	7100001f 	cmp	w0, #0x0
    8798:	a8c17bfd 	ldp	x29, x30, [sp], #16
    879c:	12800020 	mov	w0, #0xfffffffe            	// #-2
    87a0:	1a9f1000 	csel	w0, w0, wzr, ne  // ne = any
    87a4:	d65f03c0 	ret

00000000000087a8 <mpi_egcd>:
    87a8:	a9ae7bfd 	stp	x29, x30, [sp, #-288]!
    87ac:	910003fd 	mov	x29, sp
    87b0:	a90363f7 	stp	x23, x24, [sp, #48]
    87b4:	9101e3f8 	add	x24, sp, #0x78
    87b8:	910243f7 	add	x23, sp, #0x90
    87bc:	a90153f3 	stp	x19, x20, [sp, #16]
    87c0:	9102a3f4 	add	x20, sp, #0xa8
    87c4:	910303f3 	add	x19, sp, #0xc0
    87c8:	a9025bf5 	stp	x21, x22, [sp, #32]
    87cc:	aa0003f5 	mov	x21, x0
    87d0:	aa1803e0 	mov	x0, x24
    87d4:	a9046bf9 	stp	x25, x26, [sp, #64]
    87d8:	910363fa 	add	x26, sp, #0xd8
    87dc:	9103c3f9 	add	x25, sp, #0xf0
    87e0:	a90573fb 	stp	x27, x28, [sp, #80]
    87e4:	aa0103fb 	mov	x27, x1
    87e8:	aa0303fc 	mov	x28, x3
    87ec:	a90613e2 	stp	x2, x4, [sp, #96]
    87f0:	940008b0 	bl	aab0 <mbedtls_mpi_init_mempool>
    87f4:	aa1703e0 	mov	x0, x23
    87f8:	940008ae 	bl	aab0 <mbedtls_mpi_init_mempool>
    87fc:	910423f6 	add	x22, sp, #0x108
    8800:	aa1403e0 	mov	x0, x20
    8804:	940008ab 	bl	aab0 <mbedtls_mpi_init_mempool>
    8808:	aa1303e0 	mov	x0, x19
    880c:	940008a9 	bl	aab0 <mbedtls_mpi_init_mempool>
    8810:	aa1a03e0 	mov	x0, x26
    8814:	940008a7 	bl	aab0 <mbedtls_mpi_init_mempool>
    8818:	aa1903e0 	mov	x0, x25
    881c:	940008a5 	bl	aab0 <mbedtls_mpi_init_mempool>
    8820:	aa1603e0 	mov	x0, x22
    8824:	940008a3 	bl	aab0 <mbedtls_mpi_init_mempool>
    8828:	f94037e0 	ldr	x0, [sp, #104]
    882c:	52800001 	mov	w1, #0x0                   	// #0
    8830:	94000c2c 	bl	b8e0 <mbedtls_mpi_cmp_int>
    8834:	35000320 	cbnz	w0, 8898 <mpi_egcd+0xf0>
    8838:	aa1b03e0 	mov	x0, x27
    883c:	52800021 	mov	w1, #0x1                   	// #1
    8840:	940009f0 	bl	b000 <mbedtls_mpi_lset>
    8844:	2a0003e2 	mov	w2, w0
    8848:	340000c0 	cbz	w0, 8860 <mpi_egcd+0xb8>
    884c:	52804e41 	mov	w1, #0x272                 	// #626
    8850:	b0000040 	adrp	x0, 11000 <errmsgstr+0x177>
    8854:	9129f800 	add	x0, x0, #0xa7e
    8858:	91005800 	add	x0, x0, #0x16
    885c:	97ffff30 	bl	851c <mpi_panic>
    8860:	f94033e0 	ldr	x0, [sp, #96]
    8864:	52800001 	mov	w1, #0x0                   	// #0
    8868:	940009e6 	bl	b000 <mbedtls_mpi_lset>
    886c:	2a0003e2 	mov	w2, w0
    8870:	34000060 	cbz	w0, 887c <mpi_egcd+0xd4>
    8874:	52804e61 	mov	w1, #0x273                 	// #627
    8878:	17fffff6 	b	8850 <mpi_egcd+0xa8>
    887c:	aa1c03e1 	mov	x1, x28
    8880:	aa1503e0 	mov	x0, x21
    8884:	94000932 	bl	ad4c <mbedtls_mpi_copy>
    8888:	2a0003e2 	mov	w2, w0
    888c:	34002040 	cbz	w0, 8c94 <mpi_egcd+0x4ec>
    8890:	52804e81 	mov	w1, #0x274                 	// #628
    8894:	17ffffef 	b	8850 <mpi_egcd+0xa8>
    8898:	aa1c03e1 	mov	x1, x28
    889c:	aa1a03e0 	mov	x0, x26
    88a0:	9400092b 	bl	ad4c <mbedtls_mpi_copy>
    88a4:	2a0003e2 	mov	w2, w0
    88a8:	34000060 	cbz	w0, 88b4 <mpi_egcd+0x10c>
    88ac:	52804f01 	mov	w1, #0x278                 	// #632
    88b0:	17ffffe8 	b	8850 <mpi_egcd+0xa8>
    88b4:	f94037e1 	ldr	x1, [sp, #104]
    88b8:	aa1903e0 	mov	x0, x25
    88bc:	5280001c 	mov	w28, #0x0                   	// #0
    88c0:	94000923 	bl	ad4c <mbedtls_mpi_copy>
    88c4:	2a0003e2 	mov	w2, w0
    88c8:	34000140 	cbz	w0, 88f0 <mpi_egcd+0x148>
    88cc:	52804f21 	mov	w1, #0x279                 	// #633
    88d0:	17ffffe0 	b	8850 <mpi_egcd+0xa8>
    88d4:	aa1903e0 	mov	x0, x25
    88d8:	d2800021 	mov	x1, #0x1                   	// #1
    88dc:	94000b42 	bl	b5e4 <mbedtls_mpi_shift_r>
    88e0:	2a0003e2 	mov	w2, w0
    88e4:	34000060 	cbz	w0, 88f0 <mpi_egcd+0x148>
    88e8:	52804fe1 	mov	w1, #0x27f                 	// #639
    88ec:	17ffffd9 	b	8850 <mpi_egcd+0xa8>
    88f0:	aa1a03e0 	mov	x0, x26
    88f4:	97ffff9b 	bl	8760 <mpi_is_odd>
    88f8:	72001c1f 	tst	w0, #0xff
    88fc:	54000100 	b.eq	891c <mpi_egcd+0x174>  // b.none
    8900:	aa1a03e1 	mov	x1, x26
    8904:	aa1603e0 	mov	x0, x22
    8908:	94000911 	bl	ad4c <mbedtls_mpi_copy>
    890c:	2a0003e2 	mov	w2, w0
    8910:	340001e0 	cbz	w0, 894c <mpi_egcd+0x1a4>
    8914:	52805041 	mov	w1, #0x282                 	// #642
    8918:	17ffffce 	b	8850 <mpi_egcd+0xa8>
    891c:	aa1903e0 	mov	x0, x25
    8920:	97ffff90 	bl	8760 <mpi_is_odd>
    8924:	72001c1f 	tst	w0, #0xff
    8928:	54fffec1 	b.ne	8900 <mpi_egcd+0x158>  // b.any
    892c:	aa1a03e0 	mov	x0, x26
    8930:	d2800021 	mov	x1, #0x1                   	// #1
    8934:	1100079c 	add	w28, w28, #0x1
    8938:	94000b2b 	bl	b5e4 <mbedtls_mpi_shift_r>
    893c:	2a0003e2 	mov	w2, w0
    8940:	34fffca0 	cbz	w0, 88d4 <mpi_egcd+0x12c>
    8944:	52804fc1 	mov	w1, #0x27e                 	// #638
    8948:	17ffffc2 	b	8850 <mpi_egcd+0xa8>
    894c:	aa1903e1 	mov	x1, x25
    8950:	aa1503e0 	mov	x0, x21
    8954:	940008fe 	bl	ad4c <mbedtls_mpi_copy>
    8958:	2a0003e2 	mov	w2, w0
    895c:	34000060 	cbz	w0, 8968 <mpi_egcd+0x1c0>
    8960:	52805061 	mov	w1, #0x283                 	// #643
    8964:	17ffffbb 	b	8850 <mpi_egcd+0xa8>
    8968:	aa1803e0 	mov	x0, x24
    896c:	52800021 	mov	w1, #0x1                   	// #1
    8970:	940009a4 	bl	b000 <mbedtls_mpi_lset>
    8974:	2a0003e2 	mov	w2, w0
    8978:	34000060 	cbz	w0, 8984 <mpi_egcd+0x1dc>
    897c:	52805081 	mov	w1, #0x284                 	// #644
    8980:	17ffffb4 	b	8850 <mpi_egcd+0xa8>
    8984:	aa1703e0 	mov	x0, x23
    8988:	52800001 	mov	w1, #0x0                   	// #0
    898c:	9400099d 	bl	b000 <mbedtls_mpi_lset>
    8990:	2a0003e2 	mov	w2, w0
    8994:	34000060 	cbz	w0, 89a0 <mpi_egcd+0x1f8>
    8998:	528050a1 	mov	w1, #0x285                 	// #645
    899c:	17ffffad 	b	8850 <mpi_egcd+0xa8>
    89a0:	aa1403e0 	mov	x0, x20
    89a4:	52800001 	mov	w1, #0x0                   	// #0
    89a8:	94000996 	bl	b000 <mbedtls_mpi_lset>
    89ac:	2a0003e2 	mov	w2, w0
    89b0:	34000060 	cbz	w0, 89bc <mpi_egcd+0x214>
    89b4:	528050c1 	mov	w1, #0x286                 	// #646
    89b8:	17ffffa6 	b	8850 <mpi_egcd+0xa8>
    89bc:	aa1303e0 	mov	x0, x19
    89c0:	52800021 	mov	w1, #0x1                   	// #1
    89c4:	9400098f 	bl	b000 <mbedtls_mpi_lset>
    89c8:	2a0003e2 	mov	w2, w0
    89cc:	34001320 	cbz	w0, 8c30 <mpi_egcd+0x488>
    89d0:	528050e1 	mov	w1, #0x287                 	// #647
    89d4:	17ffff9f 	b	8850 <mpi_egcd+0xa8>
    89d8:	aa1603e0 	mov	x0, x22
    89dc:	d2800021 	mov	x1, #0x1                   	// #1
    89e0:	94000b01 	bl	b5e4 <mbedtls_mpi_shift_r>
    89e4:	2a0003e2 	mov	w2, w0
    89e8:	34000060 	cbz	w0, 89f4 <mpi_egcd+0x24c>
    89ec:	52805161 	mov	w1, #0x28b                 	// #651
    89f0:	17ffff98 	b	8850 <mpi_egcd+0xa8>
    89f4:	aa1803e0 	mov	x0, x24
    89f8:	97ffff5a 	bl	8760 <mpi_is_odd>
    89fc:	72001c1f 	tst	w0, #0xff
    8a00:	54000120 	b.eq	8a24 <mpi_egcd+0x27c>  // b.none
    8a04:	aa1903e2 	mov	x2, x25
    8a08:	aa1803e1 	mov	x1, x24
    8a0c:	aa1803e0 	mov	x0, x24
    8a10:	94000c41 	bl	bb14 <mbedtls_mpi_add_mpi>
    8a14:	2a0003e2 	mov	w2, w0
    8a18:	340001c0 	cbz	w0, 8a50 <mpi_egcd+0x2a8>
    8a1c:	528051a1 	mov	w1, #0x28d                 	// #653
    8a20:	17ffff8c 	b	8850 <mpi_egcd+0xa8>
    8a24:	aa1703e0 	mov	x0, x23
    8a28:	97ffff4e 	bl	8760 <mpi_is_odd>
    8a2c:	72001c1f 	tst	w0, #0xff
    8a30:	54fffea1 	b.ne	8a04 <mpi_egcd+0x25c>  // b.any
    8a34:	aa1803e0 	mov	x0, x24
    8a38:	d2800021 	mov	x1, #0x1                   	// #1
    8a3c:	94000aea 	bl	b5e4 <mbedtls_mpi_shift_r>
    8a40:	2a0003e2 	mov	w2, w0
    8a44:	34000160 	cbz	w0, 8a70 <mpi_egcd+0x2c8>
    8a48:	52805201 	mov	w1, #0x290                 	// #656
    8a4c:	17ffff81 	b	8850 <mpi_egcd+0xa8>
    8a50:	aa1a03e2 	mov	x2, x26
    8a54:	aa1703e1 	mov	x1, x23
    8a58:	aa1703e0 	mov	x0, x23
    8a5c:	94000c50 	bl	bb9c <mbedtls_mpi_sub_mpi>
    8a60:	2a0003e2 	mov	w2, w0
    8a64:	34fffe80 	cbz	w0, 8a34 <mpi_egcd+0x28c>
    8a68:	528051c1 	mov	w1, #0x28e                 	// #654
    8a6c:	17ffff79 	b	8850 <mpi_egcd+0xa8>
    8a70:	aa1703e0 	mov	x0, x23
    8a74:	d2800021 	mov	x1, #0x1                   	// #1
    8a78:	94000adb 	bl	b5e4 <mbedtls_mpi_shift_r>
    8a7c:	2a0003e2 	mov	w2, w0
    8a80:	34000060 	cbz	w0, 8a8c <mpi_egcd+0x2e4>
    8a84:	52805221 	mov	w1, #0x291                 	// #657
    8a88:	17ffff72 	b	8850 <mpi_egcd+0xa8>
    8a8c:	aa1603e0 	mov	x0, x22
    8a90:	97ffff34 	bl	8760 <mpi_is_odd>
    8a94:	72001c1f 	tst	w0, #0xff
    8a98:	54fffa00 	b.eq	89d8 <mpi_egcd+0x230>  // b.none
    8a9c:	aa1503e0 	mov	x0, x21
    8aa0:	97ffff30 	bl	8760 <mpi_is_odd>
    8aa4:	72001c1f 	tst	w0, #0xff
    8aa8:	540001a0 	b.eq	8adc <mpi_egcd+0x334>  // b.none
    8aac:	aa1503e1 	mov	x1, x21
    8ab0:	aa1603e0 	mov	x0, x22
    8ab4:	94000b23 	bl	b740 <mbedtls_mpi_cmp_mpi>
    8ab8:	37f808c0 	tbnz	w0, #31, 8bd0 <mpi_egcd+0x428>
    8abc:	aa1503e2 	mov	x2, x21
    8ac0:	aa1603e1 	mov	x1, x22
    8ac4:	aa1603e0 	mov	x0, x22
    8ac8:	94000c35 	bl	bb9c <mbedtls_mpi_sub_mpi>
    8acc:	2a0003e2 	mov	w2, w0
    8ad0:	34000600 	cbz	w0, 8b90 <mpi_egcd+0x3e8>
    8ad4:	52805401 	mov	w1, #0x2a0                 	// #672
    8ad8:	17ffff5e 	b	8850 <mpi_egcd+0xa8>
    8adc:	aa1503e0 	mov	x0, x21
    8ae0:	d2800021 	mov	x1, #0x1                   	// #1
    8ae4:	94000ac0 	bl	b5e4 <mbedtls_mpi_shift_r>
    8ae8:	2a0003e2 	mov	w2, w0
    8aec:	34000060 	cbz	w0, 8af8 <mpi_egcd+0x350>
    8af0:	528052a1 	mov	w1, #0x295                 	// #661
    8af4:	17ffff57 	b	8850 <mpi_egcd+0xa8>
    8af8:	aa1403e0 	mov	x0, x20
    8afc:	97ffff19 	bl	8760 <mpi_is_odd>
    8b00:	72001c1f 	tst	w0, #0xff
    8b04:	54000120 	b.eq	8b28 <mpi_egcd+0x380>  // b.none
    8b08:	aa1903e2 	mov	x2, x25
    8b0c:	aa1403e1 	mov	x1, x20
    8b10:	aa1403e0 	mov	x0, x20
    8b14:	94000c00 	bl	bb14 <mbedtls_mpi_add_mpi>
    8b18:	2a0003e2 	mov	w2, w0
    8b1c:	340001c0 	cbz	w0, 8b54 <mpi_egcd+0x3ac>
    8b20:	528052e1 	mov	w1, #0x297                 	// #663
    8b24:	17ffff4b 	b	8850 <mpi_egcd+0xa8>
    8b28:	aa1303e0 	mov	x0, x19
    8b2c:	97ffff0d 	bl	8760 <mpi_is_odd>
    8b30:	72001c1f 	tst	w0, #0xff
    8b34:	54fffea1 	b.ne	8b08 <mpi_egcd+0x360>  // b.any
    8b38:	aa1403e0 	mov	x0, x20
    8b3c:	d2800021 	mov	x1, #0x1                   	// #1
    8b40:	94000aa9 	bl	b5e4 <mbedtls_mpi_shift_r>
    8b44:	2a0003e2 	mov	w2, w0
    8b48:	34000160 	cbz	w0, 8b74 <mpi_egcd+0x3cc>
    8b4c:	52805341 	mov	w1, #0x29a                 	// #666
    8b50:	17ffff40 	b	8850 <mpi_egcd+0xa8>
    8b54:	aa1a03e2 	mov	x2, x26
    8b58:	aa1303e1 	mov	x1, x19
    8b5c:	aa1303e0 	mov	x0, x19
    8b60:	94000c0f 	bl	bb9c <mbedtls_mpi_sub_mpi>
    8b64:	2a0003e2 	mov	w2, w0
    8b68:	34fffe80 	cbz	w0, 8b38 <mpi_egcd+0x390>
    8b6c:	52805301 	mov	w1, #0x298                 	// #664
    8b70:	17ffff38 	b	8850 <mpi_egcd+0xa8>
    8b74:	aa1303e0 	mov	x0, x19
    8b78:	d2800021 	mov	x1, #0x1                   	// #1
    8b7c:	94000a9a 	bl	b5e4 <mbedtls_mpi_shift_r>
    8b80:	2a0003e2 	mov	w2, w0
    8b84:	34fff8c0 	cbz	w0, 8a9c <mpi_egcd+0x2f4>
    8b88:	52805361 	mov	w1, #0x29b                 	// #667
    8b8c:	17ffff31 	b	8850 <mpi_egcd+0xa8>
    8b90:	aa1403e2 	mov	x2, x20
    8b94:	aa1803e1 	mov	x1, x24
    8b98:	aa1803e0 	mov	x0, x24
    8b9c:	94000c00 	bl	bb9c <mbedtls_mpi_sub_mpi>
    8ba0:	2a0003e2 	mov	w2, w0
    8ba4:	34000060 	cbz	w0, 8bb0 <mpi_egcd+0x408>
    8ba8:	52805421 	mov	w1, #0x2a1                 	// #673
    8bac:	17ffff29 	b	8850 <mpi_egcd+0xa8>
    8bb0:	aa1303e2 	mov	x2, x19
    8bb4:	aa1703e1 	mov	x1, x23
    8bb8:	aa1703e0 	mov	x0, x23
    8bbc:	94000bf8 	bl	bb9c <mbedtls_mpi_sub_mpi>
    8bc0:	2a0003e2 	mov	w2, w0
    8bc4:	34000360 	cbz	w0, 8c30 <mpi_egcd+0x488>
    8bc8:	52805441 	mov	w1, #0x2a2                 	// #674
    8bcc:	17ffff21 	b	8850 <mpi_egcd+0xa8>
    8bd0:	aa1603e2 	mov	x2, x22
    8bd4:	aa1503e1 	mov	x1, x21
    8bd8:	aa1503e0 	mov	x0, x21
    8bdc:	94000bf0 	bl	bb9c <mbedtls_mpi_sub_mpi>
    8be0:	2a0003e2 	mov	w2, w0
    8be4:	34000060 	cbz	w0, 8bf0 <mpi_egcd+0x448>
    8be8:	52805481 	mov	w1, #0x2a4                 	// #676
    8bec:	17ffff19 	b	8850 <mpi_egcd+0xa8>
    8bf0:	aa1803e2 	mov	x2, x24
    8bf4:	aa1403e1 	mov	x1, x20
    8bf8:	aa1403e0 	mov	x0, x20
    8bfc:	94000be8 	bl	bb9c <mbedtls_mpi_sub_mpi>
    8c00:	2a0003e2 	mov	w2, w0
    8c04:	34000060 	cbz	w0, 8c10 <mpi_egcd+0x468>
    8c08:	528054a1 	mov	w1, #0x2a5                 	// #677
    8c0c:	17ffff11 	b	8850 <mpi_egcd+0xa8>
    8c10:	aa1703e2 	mov	x2, x23
    8c14:	aa1303e1 	mov	x1, x19
    8c18:	aa1303e0 	mov	x0, x19
    8c1c:	94000be0 	bl	bb9c <mbedtls_mpi_sub_mpi>
    8c20:	2a0003e2 	mov	w2, w0
    8c24:	34000060 	cbz	w0, 8c30 <mpi_egcd+0x488>
    8c28:	528054c1 	mov	w1, #0x2a6                 	// #678
    8c2c:	17ffff09 	b	8850 <mpi_egcd+0xa8>
    8c30:	aa1603e0 	mov	x0, x22
    8c34:	52800001 	mov	w1, #0x0                   	// #0
    8c38:	94000b2a 	bl	b8e0 <mbedtls_mpi_cmp_int>
    8c3c:	35fff280 	cbnz	w0, 8a8c <mpi_egcd+0x2e4>
    8c40:	aa1403e1 	mov	x1, x20
    8c44:	aa1b03e0 	mov	x0, x27
    8c48:	94000841 	bl	ad4c <mbedtls_mpi_copy>
    8c4c:	2a0003e2 	mov	w2, w0
    8c50:	34000060 	cbz	w0, 8c5c <mpi_egcd+0x4b4>
    8c54:	52805541 	mov	w1, #0x2aa                 	// #682
    8c58:	17fffefe 	b	8850 <mpi_egcd+0xa8>
    8c5c:	f94033e0 	ldr	x0, [sp, #96]
    8c60:	aa1303e1 	mov	x1, x19
    8c64:	9400083a 	bl	ad4c <mbedtls_mpi_copy>
    8c68:	2a0003e2 	mov	w2, w0
    8c6c:	34000060 	cbz	w0, 8c78 <mpi_egcd+0x4d0>
    8c70:	52805561 	mov	w1, #0x2ab                 	// #683
    8c74:	17fffef7 	b	8850 <mpi_egcd+0xa8>
    8c78:	2a1c03e1 	mov	w1, w28
    8c7c:	aa1503e0 	mov	x0, x21
    8c80:	94000a15 	bl	b4d4 <mbedtls_mpi_shift_l>
    8c84:	2a0003e2 	mov	w2, w0
    8c88:	34000060 	cbz	w0, 8c94 <mpi_egcd+0x4ec>
    8c8c:	52805581 	mov	w1, #0x2ac                 	// #684
    8c90:	17fffef0 	b	8850 <mpi_egcd+0xa8>
    8c94:	aa1803e0 	mov	x0, x24
    8c98:	94000790 	bl	aad8 <mbedtls_mpi_free>
    8c9c:	aa1703e0 	mov	x0, x23
    8ca0:	9400078e 	bl	aad8 <mbedtls_mpi_free>
    8ca4:	aa1403e0 	mov	x0, x20
    8ca8:	9400078c 	bl	aad8 <mbedtls_mpi_free>
    8cac:	aa1303e0 	mov	x0, x19
    8cb0:	9400078a 	bl	aad8 <mbedtls_mpi_free>
    8cb4:	aa1a03e0 	mov	x0, x26
    8cb8:	94000788 	bl	aad8 <mbedtls_mpi_free>
    8cbc:	aa1903e0 	mov	x0, x25
    8cc0:	94000786 	bl	aad8 <mbedtls_mpi_free>
    8cc4:	aa1603e0 	mov	x0, x22
    8cc8:	94000784 	bl	aad8 <mbedtls_mpi_free>
    8ccc:	a94153f3 	ldp	x19, x20, [sp, #16]
    8cd0:	a9425bf5 	ldp	x21, x22, [sp, #32]
    8cd4:	a94363f7 	ldp	x23, x24, [sp, #48]
    8cd8:	a9446bf9 	ldp	x25, x26, [sp, #64]
    8cdc:	a94573fb 	ldp	x27, x28, [sp, #80]
    8ce0:	a8d27bfd 	ldp	x29, x30, [sp], #288
    8ce4:	d65f03c0 	ret

0000000000008ce8 <_TEE_MathAPI_Init>:
    8ce8:	a9bf7bfd 	stp	x29, x30, [sp, #-16]!
    8cec:	d2860001 	mov	x1, #0x3000                	// #12288
    8cf0:	d2800002 	mov	x2, #0x0                   	// #0
    8cf4:	910003fd 	mov	x29, sp
    8cf8:	f0000040 	adrp	x0, 13000 <_DYNAMIC>
    8cfc:	91200000 	add	x0, x0, #0x800
    8d00:	9400173c 	bl	e9f0 <mempool_alloc_pool>
    8d04:	f0000041 	adrp	x1, 13000 <_DYNAMIC>
    8d08:	f940d821 	ldr	x1, [x1, #432]
    8d0c:	f9000020 	str	x0, [x1]
    8d10:	b5000100 	cbnz	x0, 8d30 <_TEE_MathAPI_Init+0x48>
    8d14:	b0000040 	adrp	x0, 11000 <errmsgstr+0x177>
    8d18:	9129f800 	add	x0, x0, #0xa7e
    8d1c:	b0000042 	adrp	x2, 11000 <errmsgstr+0x177>
    8d20:	91007c00 	add	x0, x0, #0x1f
    8d24:	91283042 	add	x2, x2, #0xa0c
    8d28:	52800621 	mov	w1, #0x31                  	// #49
    8d2c:	97fffdf0 	bl	84ec <api_panic>
    8d30:	a8c17bfd 	ldp	x29, x30, [sp], #16
    8d34:	d65f03c0 	ret

0000000000008d38 <TEE_BigIntInit>:
    8d38:	a9be7bfd 	stp	x29, x30, [sp, #-32]!
    8d3c:	910003fd 	mov	x29, sp
    8d40:	a90153f3 	stp	x19, x20, [sp, #16]
    8d44:	2a0103f3 	mov	w19, w1
    8d48:	aa0003f4 	mov	x20, x0
    8d4c:	d37e7e62 	ubfiz	x2, x19, #2, #32
    8d50:	52800001 	mov	w1, #0x0                   	// #0
    8d54:	97ffef2e 	bl	4a0c <memset>
    8d58:	51000a73 	sub	w19, w19, #0x2
    8d5c:	52800020 	mov	w0, #0x1                   	// #1
    8d60:	b9000280 	str	w0, [x20]
    8d64:	5284e200 	mov	w0, #0x2710                	// #10000
    8d68:	6b00027f 	cmp	w19, w0
    8d6c:	54000109 	b.ls	8d8c <TEE_BigIntInit+0x54>  // b.plast
    8d70:	b0000040 	adrp	x0, 11000 <errmsgstr+0x177>
    8d74:	9129f800 	add	x0, x0, #0xa7e
    8d78:	b0000042 	adrp	x2, 11000 <errmsgstr+0x177>
    8d7c:	9100c400 	add	x0, x0, #0x31
    8d80:	9128b442 	add	x2, x2, #0xa2d
    8d84:	52800fa1 	mov	w1, #0x7d                  	// #125
    8d88:	97fffdd9 	bl	84ec <api_panic>
    8d8c:	79000a93 	strh	w19, [x20, #4]
    8d90:	a94153f3 	ldp	x19, x20, [sp, #16]
    8d94:	a8c27bfd 	ldp	x29, x30, [sp], #32
    8d98:	d65f03c0 	ret

0000000000008d9c <TEE_BigIntConvertFromOctetString>:
    8d9c:	a9ba7bfd 	stp	x29, x30, [sp, #-96]!
    8da0:	910003fd 	mov	x29, sp
    8da4:	a90153f3 	stp	x19, x20, [sp, #16]
    8da8:	910123f4 	add	x20, sp, #0x48
    8dac:	2a0303f3 	mov	w19, w3
    8db0:	a9025bf5 	stp	x21, x22, [sp, #32]
    8db4:	aa0103f6 	mov	x22, x1
    8db8:	aa0003f5 	mov	x21, x0
    8dbc:	aa1403e0 	mov	x0, x20
    8dc0:	f9001bf7 	str	x23, [sp, #48]
    8dc4:	2a0203f7 	mov	w23, w2
    8dc8:	9400073a 	bl	aab0 <mbedtls_mpi_init_mempool>
    8dcc:	2a1703e2 	mov	w2, w23
    8dd0:	aa1603e1 	mov	x1, x22
    8dd4:	aa1403e0 	mov	x0, x20
    8dd8:	9400092e 	bl	b290 <mbedtls_mpi_read_binary>
    8ddc:	35000200 	cbnz	w0, 8e1c <TEE_BigIntConvertFromOctetString+0x80>
    8de0:	36f80073 	tbz	w19, #31, 8dec <TEE_BigIntConvertFromOctetString+0x50>
    8de4:	12800000 	mov	w0, #0xffffffff            	// #-1
    8de8:	790093e0 	strh	w0, [sp, #72]
    8dec:	aa1503e1 	mov	x1, x21
    8df0:	aa1403e0 	mov	x0, x20
    8df4:	97fffdfc 	bl	85e4 <copy_mpi_to_bigint>
    8df8:	2a0003f3 	mov	w19, w0
    8dfc:	aa1403e0 	mov	x0, x20
    8e00:	94000736 	bl	aad8 <mbedtls_mpi_free>
    8e04:	2a1303e0 	mov	w0, w19
    8e08:	a94153f3 	ldp	x19, x20, [sp, #16]
    8e0c:	a9425bf5 	ldp	x21, x22, [sp, #32]
    8e10:	f9401bf7 	ldr	x23, [sp, #48]
    8e14:	a8c67bfd 	ldp	x29, x30, [sp], #96
    8e18:	d65f03c0 	ret
    8e1c:	36f80073 	tbz	w19, #31, 8e28 <TEE_BigIntConvertFromOctetString+0x8c>
    8e20:	12800000 	mov	w0, #0xffffffff            	// #-1
    8e24:	790093e0 	strh	w0, [sp, #72]
    8e28:	1299fe13 	mov	w19, #0xffff300f            	// #-53233
    8e2c:	17fffff4 	b	8dfc <TEE_BigIntConvertFromOctetString+0x60>

0000000000008e30 <TEE_BigIntConvertToOctetString>:
    8e30:	a9bb7bfd 	stp	x29, x30, [sp, #-80]!
    8e34:	910003fd 	mov	x29, sp
    8e38:	a9025bf5 	stp	x21, x22, [sp, #32]
    8e3c:	aa0103f5 	mov	x21, x1
    8e40:	aa0203e1 	mov	x1, x2
    8e44:	a90153f3 	stp	x19, x20, [sp, #16]
    8e48:	9100e3f4 	add	x20, sp, #0x38
    8e4c:	aa0003f6 	mov	x22, x0
    8e50:	aa1403e0 	mov	x0, x20
    8e54:	97fffdbe 	bl	854c <get_mpi>
    8e58:	aa1403e0 	mov	x0, x20
    8e5c:	940008dd 	bl	b1d0 <mbedtls_mpi_size>
    8e60:	aa0003f3 	mov	x19, x0
    8e64:	b94002a0 	ldr	w0, [x21]
    8e68:	eb13001f 	cmp	x0, x19
    8e6c:	540001a3 	b.cc	8ea0 <TEE_BigIntConvertToOctetString+0x70>  // b.lo, b.ul, b.last
    8e70:	aa1303e2 	mov	x2, x19
    8e74:	aa1603e1 	mov	x1, x22
    8e78:	aa1403e0 	mov	x0, x20
    8e7c:	52800016 	mov	w22, #0x0                   	// #0
    8e80:	94000964 	bl	b410 <mbedtls_mpi_write_binary>
    8e84:	2a0003e2 	mov	w2, w0
    8e88:	340000e0 	cbz	w0, 8ea4 <TEE_BigIntConvertToOctetString+0x74>
    8e8c:	b0000040 	adrp	x0, 11000 <errmsgstr+0x177>
    8e90:	9129f800 	add	x0, x0, #0xa7e
    8e94:	91010000 	add	x0, x0, #0x40
    8e98:	528014a1 	mov	w1, #0xa5                  	// #165
    8e9c:	97fffda0 	bl	851c <mpi_panic>
    8ea0:	129ffdf6 	mov	w22, #0xffff0010            	// #-65520
    8ea4:	b90002b3 	str	w19, [x21]
    8ea8:	aa1403e0 	mov	x0, x20
    8eac:	9400070b 	bl	aad8 <mbedtls_mpi_free>
    8eb0:	2a1603e0 	mov	w0, w22
    8eb4:	a94153f3 	ldp	x19, x20, [sp, #16]
    8eb8:	a9425bf5 	ldp	x21, x22, [sp, #32]
    8ebc:	a8c57bfd 	ldp	x29, x30, [sp], #80
    8ec0:	d65f03c0 	ret

0000000000008ec4 <TEE_BigIntConvertFromS32>:
    8ec4:	a9bb7bfd 	stp	x29, x30, [sp, #-80]!
    8ec8:	910003fd 	mov	x29, sp
    8ecc:	a90153f3 	stp	x19, x20, [sp, #16]
    8ed0:	9100e3f3 	add	x19, sp, #0x38
    8ed4:	aa0003f4 	mov	x20, x0
    8ed8:	f90013f5 	str	x21, [sp, #32]
    8edc:	2a0103f5 	mov	w21, w1
    8ee0:	aa0003e1 	mov	x1, x0
    8ee4:	aa1303e0 	mov	x0, x19
    8ee8:	97fffd99 	bl	854c <get_mpi>
    8eec:	2a1503e1 	mov	w1, w21
    8ef0:	aa1303e0 	mov	x0, x19
    8ef4:	94000843 	bl	b000 <mbedtls_mpi_lset>
    8ef8:	340000e0 	cbz	w0, 8f14 <TEE_BigIntConvertFromS32+0x50>
    8efc:	2a0003e2 	mov	w2, w0
    8f00:	528016c1 	mov	w1, #0xb6                  	// #182
    8f04:	b0000040 	adrp	x0, 11000 <errmsgstr+0x177>
    8f08:	9129f800 	add	x0, x0, #0xa7e
    8f0c:	91017c00 	add	x0, x0, #0x5f
    8f10:	97fffd83 	bl	851c <mpi_panic>
    8f14:	aa1403e1 	mov	x1, x20
    8f18:	aa1303e0 	mov	x0, x19
    8f1c:	97fffdb2 	bl	85e4 <copy_mpi_to_bigint>
    8f20:	2a0003e2 	mov	w2, w0
    8f24:	34000060 	cbz	w0, 8f30 <TEE_BigIntConvertFromS32+0x6c>
    8f28:	52801701 	mov	w1, #0xb8                  	// #184
    8f2c:	17fffff6 	b	8f04 <TEE_BigIntConvertFromS32+0x40>
    8f30:	aa1303e0 	mov	x0, x19
    8f34:	940006e9 	bl	aad8 <mbedtls_mpi_free>
    8f38:	a94153f3 	ldp	x19, x20, [sp, #16]
    8f3c:	f94013f5 	ldr	x21, [sp, #32]
    8f40:	a8c57bfd 	ldp	x29, x30, [sp], #80
    8f44:	d65f03c0 	ret

0000000000008f48 <TEE_BigIntConvertToS32>:
    8f48:	a9bc7bfd 	stp	x29, x30, [sp, #-64]!
    8f4c:	910003fd 	mov	x29, sp
    8f50:	a90153f3 	stp	x19, x20, [sp, #16]
    8f54:	9100a3f4 	add	x20, sp, #0x28
    8f58:	aa0003f3 	mov	x19, x0
    8f5c:	aa1403e0 	mov	x0, x20
    8f60:	97fffd7b 	bl	854c <get_mpi>
    8f64:	910093e1 	add	x1, sp, #0x24
    8f68:	aa1403e0 	mov	x0, x20
    8f6c:	d2800082 	mov	x2, #0x4                   	// #4
    8f70:	94000928 	bl	b410 <mbedtls_mpi_write_binary>
    8f74:	34000100 	cbz	w0, 8f94 <TEE_BigIntConvertToS32+0x4c>
    8f78:	1299fe13 	mov	w19, #0xffff300f            	// #-53233
    8f7c:	aa1403e0 	mov	x0, x20
    8f80:	940006d6 	bl	aad8 <mbedtls_mpi_free>
    8f84:	2a1303e0 	mov	w0, w19
    8f88:	a94153f3 	ldp	x19, x20, [sp, #16]
    8f8c:	a8c47bfd 	ldp	x29, x30, [sp], #64
    8f90:	d65f03c0 	ret
    8f94:	b94027e1 	ldr	w1, [sp, #36]
    8f98:	79c053e2 	ldrsh	w2, [sp, #40]
    8f9c:	5ac00820 	rev	w0, w1
    8fa0:	5ac00821 	rev	w1, w1
    8fa4:	7100005f 	cmp	w2, #0x0
    8fa8:	540000cd 	b.le	8fc0 <TEE_BigIntConvertToS32+0x78>
    8fac:	eb20c03f 	cmp	x1, w0, sxtw
    8fb0:	b9000260 	str	w0, [x19]
    8fb4:	54fffe21 	b.ne	8f78 <TEE_BigIntConvertToS32+0x30>  // b.any
    8fb8:	52800013 	mov	w19, #0x0                   	// #0
    8fbc:	17fffff0 	b	8f7c <TEE_BigIntConvertToS32+0x34>
    8fc0:	cb0103e1 	neg	x1, x1
    8fc4:	b9000261 	str	w1, [x19]
    8fc8:	eb21c03f 	cmp	x1, w1, sxtw
    8fcc:	17fffffa 	b	8fb4 <TEE_BigIntConvertToS32+0x6c>

0000000000008fd0 <TEE_BigIntCmp>:
    8fd0:	a9ba7bfd 	stp	x29, x30, [sp, #-96]!
    8fd4:	910003fd 	mov	x29, sp
    8fd8:	a90153f3 	stp	x19, x20, [sp, #16]
    8fdc:	9100c3f4 	add	x20, sp, #0x30
    8fe0:	910123f3 	add	x19, sp, #0x48
    8fe4:	f90013f5 	str	x21, [sp, #32]
    8fe8:	aa0103f5 	mov	x21, x1
    8fec:	aa0003e1 	mov	x1, x0
    8ff0:	aa1403e0 	mov	x0, x20
    8ff4:	97fffd56 	bl	854c <get_mpi>
    8ff8:	aa1503e1 	mov	x1, x21
    8ffc:	aa1303e0 	mov	x0, x19
    9000:	97fffd53 	bl	854c <get_mpi>
    9004:	aa1303e1 	mov	x1, x19
    9008:	aa1403e0 	mov	x0, x20
    900c:	940009cd 	bl	b740 <mbedtls_mpi_cmp_mpi>
    9010:	2a0003f5 	mov	w21, w0
    9014:	aa1403e0 	mov	x0, x20
    9018:	940006b0 	bl	aad8 <mbedtls_mpi_free>
    901c:	aa1303e0 	mov	x0, x19
    9020:	940006ae 	bl	aad8 <mbedtls_mpi_free>
    9024:	2a1503e0 	mov	w0, w21
    9028:	a94153f3 	ldp	x19, x20, [sp, #16]
    902c:	f94013f5 	ldr	x21, [sp, #32]
    9030:	a8c67bfd 	ldp	x29, x30, [sp], #96
    9034:	d65f03c0 	ret

0000000000009038 <TEE_BigIntCmpS32>:
    9038:	a9bc7bfd 	stp	x29, x30, [sp, #-64]!
    903c:	910003fd 	mov	x29, sp
    9040:	a90153f3 	stp	x19, x20, [sp, #16]
    9044:	9100a3f3 	add	x19, sp, #0x28
    9048:	2a0103f4 	mov	w20, w1
    904c:	aa0003e1 	mov	x1, x0
    9050:	aa1303e0 	mov	x0, x19
    9054:	97fffd3e 	bl	854c <get_mpi>
    9058:	2a1403e1 	mov	w1, w20
    905c:	aa1303e0 	mov	x0, x19
    9060:	94000a20 	bl	b8e0 <mbedtls_mpi_cmp_int>
    9064:	2a0003f4 	mov	w20, w0
    9068:	aa1303e0 	mov	x0, x19
    906c:	9400069b 	bl	aad8 <mbedtls_mpi_free>
    9070:	2a1403e0 	mov	w0, w20
    9074:	a94153f3 	ldp	x19, x20, [sp, #16]
    9078:	a8c47bfd 	ldp	x29, x30, [sp], #64
    907c:	d65f03c0 	ret

0000000000009080 <bigint_binary_mod>:
    9080:	a9b27bfd 	stp	x29, x30, [sp, #-224]!
    9084:	910003fd 	mov	x29, sp
    9088:	a90153f3 	stp	x19, x20, [sp, #16]
    908c:	aa0003f4 	mov	x20, x0
    9090:	aa0303e0 	mov	x0, x3
    9094:	a9025bf5 	stp	x21, x22, [sp, #32]
    9098:	aa0203f5 	mov	x21, x2
    909c:	aa0303f6 	mov	x22, x3
    90a0:	a90363f7 	stp	x23, x24, [sp, #48]
    90a4:	aa0103f7 	mov	x23, x1
    90a8:	52800041 	mov	w1, #0x2                   	// #2
    90ac:	a9046bf9 	stp	x25, x26, [sp, #64]
    90b0:	f9002bfb 	str	x27, [sp, #80]
    90b4:	aa0403fb 	mov	x27, x4
    90b8:	97ffffe0 	bl	9038 <TEE_BigIntCmpS32>
    90bc:	36f80100 	tbz	w0, #31, 90dc <bigint_binary_mod+0x5c>
    90c0:	90000040 	adrp	x0, 11000 <errmsgstr+0x177>
    90c4:	9129f800 	add	x0, x0, #0xa7e
    90c8:	90000042 	adrp	x2, 11000 <errmsgstr+0x177>
    90cc:	9101e000 	add	x0, x0, #0x78
    90d0:	9128f842 	add	x2, x2, #0xa3e
    90d4:	52802c81 	mov	w1, #0x164                 	// #356
    90d8:	97fffd05 	bl	84ec <api_panic>
    90dc:	9101a3f3 	add	x19, sp, #0x68
    90e0:	aa1403e1 	mov	x1, x20
    90e4:	aa1303e0 	mov	x0, x19
    90e8:	9102c3f8 	add	x24, sp, #0xb0
    90ec:	97fffd18 	bl	854c <get_mpi>
    90f0:	910203fa 	add	x26, sp, #0x80
    90f4:	aa1603e1 	mov	x1, x22
    90f8:	aa1803e0 	mov	x0, x24
    90fc:	97fffd14 	bl	854c <get_mpi>
    9100:	eb17029f 	cmp	x20, x23
    9104:	54000380 	b.eq	9174 <bigint_binary_mod+0xf4>  // b.none
    9108:	aa1a03f6 	mov	x22, x26
    910c:	aa1703e1 	mov	x1, x23
    9110:	aa1a03e0 	mov	x0, x26
    9114:	97fffd0e 	bl	854c <get_mpi>
    9118:	eb15029f 	cmp	x20, x21
    911c:	910263f9 	add	x25, sp, #0x98
    9120:	540002e0 	b.eq	917c <bigint_binary_mod+0xfc>  // b.none
    9124:	eb1502ff 	cmp	x23, x21
    9128:	540002e0 	b.eq	9184 <bigint_binary_mod+0x104>  // b.none
    912c:	aa1503e1 	mov	x1, x21
    9130:	aa1903f5 	mov	x21, x25
    9134:	aa1903e0 	mov	x0, x25
    9138:	97fffd05 	bl	854c <get_mpi>
    913c:	910323f7 	add	x23, sp, #0xc8
    9140:	aa1703e0 	mov	x0, x23
    9144:	9400065b 	bl	aab0 <mbedtls_mpi_init_mempool>
    9148:	aa1503e2 	mov	x2, x21
    914c:	aa1603e1 	mov	x1, x22
    9150:	aa1703e0 	mov	x0, x23
    9154:	d63f0360 	blr	x27
    9158:	2a0003e2 	mov	w2, w0
    915c:	34000180 	cbz	w0, 918c <bigint_binary_mod+0x10c>
    9160:	52802fe1 	mov	w1, #0x17f                 	// #383
    9164:	90000040 	adrp	x0, 11000 <errmsgstr+0x177>
    9168:	9129f800 	add	x0, x0, #0xa7e
    916c:	9101e000 	add	x0, x0, #0x78
    9170:	97fffceb 	bl	851c <mpi_panic>
    9174:	aa1303f6 	mov	x22, x19
    9178:	17ffffe8 	b	9118 <bigint_binary_mod+0x98>
    917c:	aa1303f5 	mov	x21, x19
    9180:	17ffffef 	b	913c <bigint_binary_mod+0xbc>
    9184:	aa1603f5 	mov	x21, x22
    9188:	17ffffed 	b	913c <bigint_binary_mod+0xbc>
    918c:	aa1803e2 	mov	x2, x24
    9190:	aa1703e1 	mov	x1, x23
    9194:	aa1303e0 	mov	x0, x19
    9198:	94000ced 	bl	c54c <mbedtls_mpi_mod_mpi>
    919c:	2a0003e2 	mov	w2, w0
    91a0:	34000060 	cbz	w0, 91ac <bigint_binary_mod+0x12c>
    91a4:	52803001 	mov	w1, #0x180                 	// #384
    91a8:	17ffffef 	b	9164 <bigint_binary_mod+0xe4>
    91ac:	aa1403e1 	mov	x1, x20
    91b0:	aa1303e0 	mov	x0, x19
    91b4:	97fffd0c 	bl	85e4 <copy_mpi_to_bigint>
    91b8:	2a0003e2 	mov	w2, w0
    91bc:	34000060 	cbz	w0, 91c8 <bigint_binary_mod+0x148>
    91c0:	52803041 	mov	w1, #0x182                 	// #386
    91c4:	17ffffe8 	b	9164 <bigint_binary_mod+0xe4>
    91c8:	aa1303e0 	mov	x0, x19
    91cc:	94000643 	bl	aad8 <mbedtls_mpi_free>
    91d0:	eb1a02df 	cmp	x22, x26
    91d4:	54000061 	b.ne	91e0 <bigint_binary_mod+0x160>  // b.any
    91d8:	aa1603e0 	mov	x0, x22
    91dc:	9400063f 	bl	aad8 <mbedtls_mpi_free>
    91e0:	eb1902bf 	cmp	x21, x25
    91e4:	54000061 	b.ne	91f0 <bigint_binary_mod+0x170>  // b.any
    91e8:	aa1503e0 	mov	x0, x21
    91ec:	9400063b 	bl	aad8 <mbedtls_mpi_free>
    91f0:	aa1703e0 	mov	x0, x23
    91f4:	94000639 	bl	aad8 <mbedtls_mpi_free>
    91f8:	aa1803e0 	mov	x0, x24
    91fc:	94000637 	bl	aad8 <mbedtls_mpi_free>
    9200:	a94153f3 	ldp	x19, x20, [sp, #16]
    9204:	a9425bf5 	ldp	x21, x22, [sp, #32]
    9208:	a94363f7 	ldp	x23, x24, [sp, #48]
    920c:	a9446bf9 	ldp	x25, x26, [sp, #64]
    9210:	f9402bfb 	ldr	x27, [sp, #80]
    9214:	a8ce7bfd 	ldp	x29, x30, [sp], #224
    9218:	d65f03c0 	ret

000000000000921c <TEE_BigIntShiftRight>:
    921c:	a9b77bfd 	stp	x29, x30, [sp, #-144]!
    9220:	910003fd 	mov	x29, sp
    9224:	a90153f3 	stp	x19, x20, [sp, #16]
    9228:	910123f3 	add	x19, sp, #0x48
    922c:	aa0003f4 	mov	x20, x0
    9230:	a9025bf5 	stp	x21, x22, [sp, #32]
    9234:	aa0103f6 	mov	x22, x1
    9238:	aa0003e1 	mov	x1, x0
    923c:	aa1303e0 	mov	x0, x19
    9240:	f9001bf7 	str	x23, [sp, #48]
    9244:	aa0203f7 	mov	x23, x2
    9248:	97fffcc1 	bl	854c <get_mpi>
    924c:	eb16029f 	cmp	x20, x22
    9250:	54000161 	b.ne	927c <TEE_BigIntShiftRight+0x60>  // b.any
    9254:	aa1703e1 	mov	x1, x23
    9258:	aa1303e0 	mov	x0, x19
    925c:	940008e2 	bl	b5e4 <mbedtls_mpi_shift_r>
    9260:	2a0003e2 	mov	w2, w0
    9264:	34000760 	cbz	w0, 9350 <TEE_BigIntShiftRight+0x134>
    9268:	52801fc1 	mov	w1, #0xfe                  	// #254
    926c:	90000040 	adrp	x0, 11000 <errmsgstr+0x177>
    9270:	9129f800 	add	x0, x0, #0xa7e
    9274:	91022800 	add	x0, x0, #0x8a
    9278:	97fffca9 	bl	851c <mpi_panic>
    927c:	aa1603e1 	mov	x1, x22
    9280:	910183f5 	add	x21, sp, #0x60
    9284:	aa1503e0 	mov	x0, x21
    9288:	97fffcb1 	bl	854c <get_mpi>
    928c:	aa1303e0 	mov	x0, x19
    9290:	940007d0 	bl	b1d0 <mbedtls_mpi_size>
    9294:	aa0003f6 	mov	x22, x0
    9298:	aa1503e0 	mov	x0, x21
    929c:	940007cd 	bl	b1d0 <mbedtls_mpi_size>
    92a0:	eb0002df 	cmp	x22, x0
    92a4:	540001e3 	b.cc	92e0 <TEE_BigIntShiftRight+0xc4>  // b.lo, b.ul, b.last
    92a8:	aa1503e1 	mov	x1, x21
    92ac:	aa1303e0 	mov	x0, x19
    92b0:	940006a7 	bl	ad4c <mbedtls_mpi_copy>
    92b4:	2a0003e2 	mov	w2, w0
    92b8:	34000060 	cbz	w0, 92c4 <TEE_BigIntShiftRight+0xa8>
    92bc:	528020a1 	mov	w1, #0x105                 	// #261
    92c0:	17ffffeb 	b	926c <TEE_BigIntShiftRight+0x50>
    92c4:	aa1703e1 	mov	x1, x23
    92c8:	aa1303e0 	mov	x0, x19
    92cc:	940008c6 	bl	b5e4 <mbedtls_mpi_shift_r>
    92d0:	2a0003e2 	mov	w2, w0
    92d4:	340003a0 	cbz	w0, 9348 <TEE_BigIntShiftRight+0x12c>
    92d8:	528020c1 	mov	w1, #0x106                 	// #262
    92dc:	17ffffe4 	b	926c <TEE_BigIntShiftRight+0x50>
    92e0:	9101e3f6 	add	x22, sp, #0x78
    92e4:	aa1603e0 	mov	x0, x22
    92e8:	940005f2 	bl	aab0 <mbedtls_mpi_init_mempool>
    92ec:	aa1503e1 	mov	x1, x21
    92f0:	aa1603e0 	mov	x0, x22
    92f4:	94000696 	bl	ad4c <mbedtls_mpi_copy>
    92f8:	2a0003e2 	mov	w2, w0
    92fc:	34000060 	cbz	w0, 9308 <TEE_BigIntShiftRight+0xec>
    9300:	52802221 	mov	w1, #0x111                 	// #273
    9304:	17ffffda 	b	926c <TEE_BigIntShiftRight+0x50>
    9308:	aa1703e1 	mov	x1, x23
    930c:	aa1603e0 	mov	x0, x22
    9310:	940008b5 	bl	b5e4 <mbedtls_mpi_shift_r>
    9314:	2a0003e2 	mov	w2, w0
    9318:	34000060 	cbz	w0, 9324 <TEE_BigIntShiftRight+0x108>
    931c:	52802241 	mov	w1, #0x112                 	// #274
    9320:	17ffffd3 	b	926c <TEE_BigIntShiftRight+0x50>
    9324:	aa1603e1 	mov	x1, x22
    9328:	aa1303e0 	mov	x0, x19
    932c:	94000688 	bl	ad4c <mbedtls_mpi_copy>
    9330:	2a0003e2 	mov	w2, w0
    9334:	34000060 	cbz	w0, 9340 <TEE_BigIntShiftRight+0x124>
    9338:	52802261 	mov	w1, #0x113                 	// #275
    933c:	17ffffcc 	b	926c <TEE_BigIntShiftRight+0x50>
    9340:	aa1603e0 	mov	x0, x22
    9344:	940005e5 	bl	aad8 <mbedtls_mpi_free>
    9348:	aa1503e0 	mov	x0, x21
    934c:	940005e3 	bl	aad8 <mbedtls_mpi_free>
    9350:	aa1403e1 	mov	x1, x20
    9354:	aa1303e0 	mov	x0, x19
    9358:	97fffca3 	bl	85e4 <copy_mpi_to_bigint>
    935c:	2a0003e2 	mov	w2, w0
    9360:	34000060 	cbz	w0, 936c <TEE_BigIntShiftRight+0x150>
    9364:	52802361 	mov	w1, #0x11b                 	// #283
    9368:	17ffffc1 	b	926c <TEE_BigIntShiftRight+0x50>
    936c:	aa1303e0 	mov	x0, x19
    9370:	940005da 	bl	aad8 <mbedtls_mpi_free>
    9374:	a94153f3 	ldp	x19, x20, [sp, #16]
    9378:	a9425bf5 	ldp	x21, x22, [sp, #32]
    937c:	f9401bf7 	ldr	x23, [sp, #48]
    9380:	a8c97bfd 	ldp	x29, x30, [sp], #144
    9384:	d65f03c0 	ret

0000000000009388 <TEE_BigIntGetBit>:
    9388:	a9bc7bfd 	stp	x29, x30, [sp, #-64]!
    938c:	910003fd 	mov	x29, sp
    9390:	a90153f3 	stp	x19, x20, [sp, #16]
    9394:	9100a3f3 	add	x19, sp, #0x28
    9398:	2a0103f4 	mov	w20, w1
    939c:	aa0003e1 	mov	x1, x0
    93a0:	aa1303e0 	mov	x0, x19
    93a4:	97fffc6a 	bl	854c <get_mpi>
    93a8:	2a1403e1 	mov	w1, w20
    93ac:	aa1303e0 	mov	x0, x19
    93b0:	9400072e 	bl	b068 <mbedtls_mpi_get_bit>
    93b4:	2a0003f4 	mov	w20, w0
    93b8:	aa1303e0 	mov	x0, x19
    93bc:	940005c7 	bl	aad8 <mbedtls_mpi_free>
    93c0:	7100029f 	cmp	w20, #0x0
    93c4:	1a9f07e0 	cset	w0, ne  // ne = any
    93c8:	a94153f3 	ldp	x19, x20, [sp, #16]
    93cc:	a8c47bfd 	ldp	x29, x30, [sp], #64
    93d0:	d65f03c0 	ret

00000000000093d4 <TEE_BigIntGetBitCount>:
    93d4:	a9bc7bfd 	stp	x29, x30, [sp, #-64]!
    93d8:	aa0003e1 	mov	x1, x0
    93dc:	910003fd 	mov	x29, sp
    93e0:	a90153f3 	stp	x19, x20, [sp, #16]
    93e4:	9100a3f3 	add	x19, sp, #0x28
    93e8:	aa1303e0 	mov	x0, x19
    93ec:	97fffc58 	bl	854c <get_mpi>
    93f0:	aa1303e0 	mov	x0, x19
    93f4:	94000760 	bl	b174 <mbedtls_mpi_bitlen>
    93f8:	aa0003f4 	mov	x20, x0
    93fc:	aa1303e0 	mov	x0, x19
    9400:	940005b6 	bl	aad8 <mbedtls_mpi_free>
    9404:	2a1403e0 	mov	w0, w20
    9408:	a94153f3 	ldp	x19, x20, [sp, #16]
    940c:	a8c47bfd 	ldp	x29, x30, [sp], #64
    9410:	d65f03c0 	ret

0000000000009414 <TEE_BigIntAdd>:
    9414:	d0000043 	adrp	x3, 13000 <_DYNAMIC>
    9418:	f940b063 	ldr	x3, [x3, #352]
    941c:	17fffc8b 	b	8648 <bigint_binary>

0000000000009420 <TEE_BigIntSub>:
    9420:	d0000043 	adrp	x3, 13000 <_DYNAMIC>
    9424:	f940b863 	ldr	x3, [x3, #368]
    9428:	17fffc88 	b	8648 <bigint_binary>

000000000000942c <TEE_BigIntNeg>:
    942c:	a9ba7bfd 	stp	x29, x30, [sp, #-96]!
    9430:	910003fd 	mov	x29, sp
    9434:	a90153f3 	stp	x19, x20, [sp, #16]
    9438:	9100c3f4 	add	x20, sp, #0x30
    943c:	aa0003f3 	mov	x19, x0
    9440:	a9025bf5 	stp	x21, x22, [sp, #32]
    9444:	aa0103f5 	mov	x21, x1
    9448:	aa0003e1 	mov	x1, x0
    944c:	aa1403e0 	mov	x0, x20
    9450:	97fffc3f 	bl	854c <get_mpi>
    9454:	eb15027f 	cmp	x19, x21
    9458:	54000220 	b.eq	949c <TEE_BigIntNeg+0x70>  // b.none
    945c:	910123f6 	add	x22, sp, #0x48
    9460:	aa1503e1 	mov	x1, x21
    9464:	aa1603e0 	mov	x0, x22
    9468:	97fffc39 	bl	854c <get_mpi>
    946c:	aa1603e1 	mov	x1, x22
    9470:	aa1403e0 	mov	x0, x20
    9474:	94000636 	bl	ad4c <mbedtls_mpi_copy>
    9478:	2a0003e2 	mov	w2, w0
    947c:	340000c0 	cbz	w0, 9494 <TEE_BigIntNeg+0x68>
    9480:	52803461 	mov	w1, #0x1a3                 	// #419
    9484:	90000040 	adrp	x0, 11000 <errmsgstr+0x177>
    9488:	9129f800 	add	x0, x0, #0xa7e
    948c:	91027c00 	add	x0, x0, #0x9f
    9490:	97fffc23 	bl	851c <mpi_panic>
    9494:	aa1603e0 	mov	x0, x22
    9498:	94000590 	bl	aad8 <mbedtls_mpi_free>
    949c:	794063e0 	ldrh	w0, [sp, #48]
    94a0:	aa1303e1 	mov	x1, x19
    94a4:	4b0003e0 	neg	w0, w0
    94a8:	790063e0 	strh	w0, [sp, #48]
    94ac:	aa1403e0 	mov	x0, x20
    94b0:	97fffc4d 	bl	85e4 <copy_mpi_to_bigint>
    94b4:	2a0003e2 	mov	w2, w0
    94b8:	34000060 	cbz	w0, 94c4 <TEE_BigIntNeg+0x98>
    94bc:	52803541 	mov	w1, #0x1aa                 	// #426
    94c0:	17fffff1 	b	9484 <TEE_BigIntNeg+0x58>
    94c4:	aa1403e0 	mov	x0, x20
    94c8:	94000584 	bl	aad8 <mbedtls_mpi_free>
    94cc:	a94153f3 	ldp	x19, x20, [sp, #16]
    94d0:	a9425bf5 	ldp	x21, x22, [sp, #32]
    94d4:	a8c67bfd 	ldp	x29, x30, [sp], #96
    94d8:	d65f03c0 	ret

00000000000094dc <TEE_BigIntMul>:
    94dc:	a9ba7bfd 	stp	x29, x30, [sp, #-96]!
    94e0:	910003fd 	mov	x29, sp
    94e4:	a90153f3 	stp	x19, x20, [sp, #16]
    94e8:	a9025bf5 	stp	x21, x22, [sp, #32]
    94ec:	aa0203f6 	mov	x22, x2
    94f0:	aa0103f5 	mov	x21, x1
    94f4:	a90363f7 	stp	x23, x24, [sp, #48]
    94f8:	aa0003f7 	mov	x23, x0
    94fc:	aa0103e0 	mov	x0, x1
    9500:	f90023f9 	str	x25, [sp, #64]
    9504:	97ffffb4 	bl	93d4 <TEE_BigIntGetBitCount>
    9508:	2a0003f3 	mov	w19, w0
    950c:	aa1603e0 	mov	x0, x22
    9510:	97ffffb1 	bl	93d4 <TEE_BigIntGetBitCount>
    9514:	2a0003e0 	mov	w0, w0
    9518:	91007c00 	add	x0, x0, #0x1f
    951c:	d0000059 	adrp	x25, 13000 <_DYNAMIC>
    9520:	91007e73 	add	x19, x19, #0x1f
    9524:	aa1903f8 	mov	x24, x25
    9528:	d345fc00 	lsr	x0, x0, #5
    952c:	f9002bff 	str	xzr, [sp, #80]
    9530:	8b531413 	add	x19, x0, x19, lsr #5
    9534:	b9005bff 	str	wzr, [sp, #88]
    9538:	f940db20 	ldr	x0, [x25, #432]
    953c:	91001273 	add	x19, x19, #0x4
    9540:	d37ef661 	lsl	x1, x19, #2
    9544:	f9400000 	ldr	x0, [x0]
    9548:	9400152b 	bl	e9f4 <mempool_alloc>
    954c:	aa0003f4 	mov	x20, x0
    9550:	b5000060 	cbnz	x0, 955c <TEE_BigIntMul+0x80>
    9554:	129ffe60 	mov	w0, #0xffff000c            	// #-65524
    9558:	9400023d 	bl	9e4c <TEE_Panic>
    955c:	2a1303e1 	mov	w1, w19
    9560:	aa1403e0 	mov	x0, x20
    9564:	910143f3 	add	x19, sp, #0x50
    9568:	97fffdf4 	bl	8d38 <TEE_BigIntInit>
    956c:	aa1303e0 	mov	x0, x19
    9570:	52800061 	mov	w1, #0x3                   	// #3
    9574:	97fffdf1 	bl	8d38 <TEE_BigIntInit>
    9578:	f940af03 	ldr	x3, [x24, #344]
    957c:	aa1603e2 	mov	x2, x22
    9580:	aa1503e1 	mov	x1, x21
    9584:	aa1403e0 	mov	x0, x20
    9588:	97fffc30 	bl	8648 <bigint_binary>
    958c:	aa1303e2 	mov	x2, x19
    9590:	aa1403e1 	mov	x1, x20
    9594:	aa1703e0 	mov	x0, x23
    9598:	97ffff9f 	bl	9414 <TEE_BigIntAdd>
    959c:	f940db18 	ldr	x24, [x24, #432]
    95a0:	aa1403e1 	mov	x1, x20
    95a4:	f9400300 	ldr	x0, [x24]
    95a8:	94001515 	bl	e9fc <mempool_free>
    95ac:	a94153f3 	ldp	x19, x20, [sp, #16]
    95b0:	a9425bf5 	ldp	x21, x22, [sp, #32]
    95b4:	a94363f7 	ldp	x23, x24, [sp, #48]
    95b8:	f94023f9 	ldr	x25, [sp, #64]
    95bc:	a8c67bfd 	ldp	x29, x30, [sp], #96
    95c0:	d65f03c0 	ret

00000000000095c4 <TEE_BigIntSquare>:
    95c4:	aa0103e2 	mov	x2, x1
    95c8:	17ffffc5 	b	94dc <TEE_BigIntMul>

00000000000095cc <TEE_BigIntDiv>:
    95cc:	a9b47bfd 	stp	x29, x30, [sp, #-192]!
    95d0:	910003fd 	mov	x29, sp
    95d4:	a90363f7 	stp	x23, x24, [sp, #48]
    95d8:	910183f8 	add	x24, sp, #0x60
    95dc:	9101e3f7 	add	x23, sp, #0x78
    95e0:	a90153f3 	stp	x19, x20, [sp, #16]
    95e4:	aa0003f4 	mov	x20, x0
    95e8:	aa0103f3 	mov	x19, x1
    95ec:	aa0003e1 	mov	x1, x0
    95f0:	aa1803e0 	mov	x0, x24
    95f4:	a9025bf5 	stp	x21, x22, [sp, #32]
    95f8:	aa0303f5 	mov	x21, x3
    95fc:	a9046bf9 	stp	x25, x26, [sp, #64]
    9600:	aa0203f9 	mov	x25, x2
    9604:	f9002bfb 	str	x27, [sp, #80]
    9608:	97fffbd1 	bl	854c <get_mpi>
    960c:	aa1303e1 	mov	x1, x19
    9610:	aa1703e0 	mov	x0, x23
    9614:	97fffbce 	bl	854c <get_mpi>
    9618:	910243fb 	add	x27, sp, #0x90
    961c:	eb19029f 	cmp	x20, x25
    9620:	540003c0 	b.eq	9698 <TEE_BigIntDiv+0xcc>  // b.none
    9624:	eb19027f 	cmp	x19, x25
    9628:	540003c0 	b.eq	96a0 <TEE_BigIntDiv+0xd4>  // b.none
    962c:	aa1b03f6 	mov	x22, x27
    9630:	aa1903e1 	mov	x1, x25
    9634:	aa1b03e0 	mov	x0, x27
    9638:	97fffbc5 	bl	854c <get_mpi>
    963c:	eb15029f 	cmp	x20, x21
    9640:	9102a3fa 	add	x26, sp, #0xa8
    9644:	54000320 	b.eq	96a8 <TEE_BigIntDiv+0xdc>  // b.none
    9648:	eb15027f 	cmp	x19, x21
    964c:	54000320 	b.eq	96b0 <TEE_BigIntDiv+0xe4>  // b.none
    9650:	eb15033f 	cmp	x25, x21
    9654:	54000320 	b.eq	96b8 <TEE_BigIntDiv+0xec>  // b.none
    9658:	aa1503e1 	mov	x1, x21
    965c:	aa1a03f5 	mov	x21, x26
    9660:	aa1a03e0 	mov	x0, x26
    9664:	97fffbba 	bl	854c <get_mpi>
    9668:	aa1603e2 	mov	x2, x22
    966c:	aa1503e3 	mov	x3, x21
    9670:	aa1703e1 	mov	x1, x23
    9674:	aa1803e0 	mov	x0, x24
    9678:	94000a65 	bl	c00c <mbedtls_mpi_div_mpi>
    967c:	2a0003e2 	mov	w2, w0
    9680:	34000200 	cbz	w0, 96c0 <TEE_BigIntDiv+0xf4>
    9684:	52803ce1 	mov	w1, #0x1e7                 	// #487
    9688:	90000040 	adrp	x0, 11000 <errmsgstr+0x177>
    968c:	9129f800 	add	x0, x0, #0xa7e
    9690:	9102b400 	add	x0, x0, #0xad
    9694:	97fffba2 	bl	851c <mpi_panic>
    9698:	aa1803f6 	mov	x22, x24
    969c:	17ffffe8 	b	963c <TEE_BigIntDiv+0x70>
    96a0:	aa1703f6 	mov	x22, x23
    96a4:	17ffffe6 	b	963c <TEE_BigIntDiv+0x70>
    96a8:	aa1803f5 	mov	x21, x24
    96ac:	17ffffef 	b	9668 <TEE_BigIntDiv+0x9c>
    96b0:	aa1703f5 	mov	x21, x23
    96b4:	17ffffed 	b	9668 <TEE_BigIntDiv+0x9c>
    96b8:	aa1603f5 	mov	x21, x22
    96bc:	17ffffeb 	b	9668 <TEE_BigIntDiv+0x9c>
    96c0:	b4000114 	cbz	x20, 96e0 <TEE_BigIntDiv+0x114>
    96c4:	aa1403e1 	mov	x1, x20
    96c8:	aa1803e0 	mov	x0, x24
    96cc:	97fffbc6 	bl	85e4 <copy_mpi_to_bigint>
    96d0:	2a0003e2 	mov	w2, w0
    96d4:	34000060 	cbz	w0, 96e0 <TEE_BigIntDiv+0x114>
    96d8:	52803d41 	mov	w1, #0x1ea                 	// #490
    96dc:	17ffffeb 	b	9688 <TEE_BigIntDiv+0xbc>
    96e0:	b4000113 	cbz	x19, 9700 <TEE_BigIntDiv+0x134>
    96e4:	aa1303e1 	mov	x1, x19
    96e8:	aa1703e0 	mov	x0, x23
    96ec:	97fffbbe 	bl	85e4 <copy_mpi_to_bigint>
    96f0:	2a0003e2 	mov	w2, w0
    96f4:	34000060 	cbz	w0, 9700 <TEE_BigIntDiv+0x134>
    96f8:	52803d81 	mov	w1, #0x1ec                 	// #492
    96fc:	17ffffe3 	b	9688 <TEE_BigIntDiv+0xbc>
    9700:	aa1803e0 	mov	x0, x24
    9704:	940004f5 	bl	aad8 <mbedtls_mpi_free>
    9708:	aa1703e0 	mov	x0, x23
    970c:	940004f3 	bl	aad8 <mbedtls_mpi_free>
    9710:	eb1b02df 	cmp	x22, x27
    9714:	54000061 	b.ne	9720 <TEE_BigIntDiv+0x154>  // b.any
    9718:	aa1603e0 	mov	x0, x22
    971c:	940004ef 	bl	aad8 <mbedtls_mpi_free>
    9720:	eb1a02bf 	cmp	x21, x26
    9724:	54000061 	b.ne	9730 <TEE_BigIntDiv+0x164>  // b.any
    9728:	aa1503e0 	mov	x0, x21
    972c:	940004eb 	bl	aad8 <mbedtls_mpi_free>
    9730:	a94153f3 	ldp	x19, x20, [sp, #16]
    9734:	a9425bf5 	ldp	x21, x22, [sp, #32]
    9738:	a94363f7 	ldp	x23, x24, [sp, #48]
    973c:	a9446bf9 	ldp	x25, x26, [sp, #64]
    9740:	f9402bfb 	ldr	x27, [sp, #80]
    9744:	a8cc7bfd 	ldp	x29, x30, [sp], #192
    9748:	d65f03c0 	ret

000000000000974c <TEE_BigIntMod>:
    974c:	a9bd7bfd 	stp	x29, x30, [sp, #-48]!
    9750:	910003fd 	mov	x29, sp
    9754:	a90153f3 	stp	x19, x20, [sp, #16]
    9758:	aa0003f4 	mov	x20, x0
    975c:	aa0203f3 	mov	x19, x2
    9760:	aa0203e0 	mov	x0, x2
    9764:	f90013f5 	str	x21, [sp, #32]
    9768:	aa0103f5 	mov	x21, x1
    976c:	52800041 	mov	w1, #0x2                   	// #2
    9770:	97fffe32 	bl	9038 <TEE_BigIntCmpS32>
    9774:	36f80100 	tbz	w0, #31, 9794 <TEE_BigIntMod+0x48>
    9778:	90000040 	adrp	x0, 11000 <errmsgstr+0x177>
    977c:	9129f800 	add	x0, x0, #0xa7e
    9780:	90000042 	adrp	x2, 11000 <errmsgstr+0x177>
    9784:	9102ec00 	add	x0, x0, #0xbb
    9788:	9128f842 	add	x2, x2, #0xa3e
    978c:	52803f01 	mov	w1, #0x1f8                 	// #504
    9790:	97fffb57 	bl	84ec <api_panic>
    9794:	aa1303e2 	mov	x2, x19
    9798:	aa1503e1 	mov	x1, x21
    979c:	aa1403e0 	mov	x0, x20
    97a0:	d0000043 	adrp	x3, 13000 <_DYNAMIC>
    97a4:	a94153f3 	ldp	x19, x20, [sp, #16]
    97a8:	f94013f5 	ldr	x21, [sp, #32]
    97ac:	a8c37bfd 	ldp	x29, x30, [sp], #48
    97b0:	f940c063 	ldr	x3, [x3, #384]
    97b4:	17fffba5 	b	8648 <bigint_binary>

00000000000097b8 <TEE_BigIntAddMod>:
    97b8:	d0000044 	adrp	x4, 13000 <_DYNAMIC>
    97bc:	f940b084 	ldr	x4, [x4, #352]
    97c0:	17fffe30 	b	9080 <bigint_binary_mod>

00000000000097c4 <TEE_BigIntSubMod>:
    97c4:	d0000044 	adrp	x4, 13000 <_DYNAMIC>
    97c8:	f940b884 	ldr	x4, [x4, #368]
    97cc:	17fffe2d 	b	9080 <bigint_binary_mod>

00000000000097d0 <TEE_BigIntMulMod>:
    97d0:	d0000044 	adrp	x4, 13000 <_DYNAMIC>
    97d4:	f940ac84 	ldr	x4, [x4, #344]
    97d8:	17fffe2a 	b	9080 <bigint_binary_mod>

00000000000097dc <TEE_BigIntSquareMod>:
    97dc:	aa0203e3 	mov	x3, x2
    97e0:	aa0103e2 	mov	x2, x1
    97e4:	17fffffb 	b	97d0 <TEE_BigIntMulMod>

00000000000097e8 <TEE_BigIntInvMod>:
    97e8:	a9b77bfd 	stp	x29, x30, [sp, #-144]!
    97ec:	910003fd 	mov	x29, sp
    97f0:	a90153f3 	stp	x19, x20, [sp, #16]
    97f4:	aa0003f4 	mov	x20, x0
    97f8:	aa0203e0 	mov	x0, x2
    97fc:	a9025bf5 	stp	x21, x22, [sp, #32]
    9800:	aa0103f5 	mov	x21, x1
    9804:	aa0203f6 	mov	x22, x2
    9808:	52800041 	mov	w1, #0x2                   	// #2
    980c:	f9001bf7 	str	x23, [sp, #48]
    9810:	97fffe0a 	bl	9038 <TEE_BigIntCmpS32>
    9814:	36f80100 	tbz	w0, #31, 9834 <TEE_BigIntInvMod+0x4c>
    9818:	90000040 	adrp	x0, 11000 <errmsgstr+0x177>
    981c:	9129f800 	add	x0, x0, #0xa7e
    9820:	90000042 	adrp	x2, 11000 <errmsgstr+0x177>
    9824:	91032400 	add	x0, x0, #0xc9
    9828:	91294c42 	add	x2, x2, #0xa53
    982c:	52804321 	mov	w1, #0x219                 	// #537
    9830:	97fffb2f 	bl	84ec <api_panic>
    9834:	aa1503e0 	mov	x0, x21
    9838:	52800001 	mov	w1, #0x0                   	// #0
    983c:	97fffdff 	bl	9038 <TEE_BigIntCmpS32>
    9840:	34fffec0 	cbz	w0, 9818 <TEE_BigIntInvMod+0x30>
    9844:	910123f3 	add	x19, sp, #0x48
    9848:	aa1403e1 	mov	x1, x20
    984c:	aa1303e0 	mov	x0, x19
    9850:	9101e3f7 	add	x23, sp, #0x78
    9854:	97fffb3e 	bl	854c <get_mpi>
    9858:	aa1603e1 	mov	x1, x22
    985c:	aa1703e0 	mov	x0, x23
    9860:	97fffb3b 	bl	854c <get_mpi>
    9864:	910183f6 	add	x22, sp, #0x60
    9868:	eb1402bf 	cmp	x21, x20
    986c:	54000200 	b.eq	98ac <TEE_BigIntInvMod+0xc4>  // b.none
    9870:	aa1503e1 	mov	x1, x21
    9874:	aa1603f5 	mov	x21, x22
    9878:	aa1603e0 	mov	x0, x22
    987c:	97fffb34 	bl	854c <get_mpi>
    9880:	aa1703e2 	mov	x2, x23
    9884:	aa1503e1 	mov	x1, x21
    9888:	aa1303e0 	mov	x0, x19
    988c:	94000f7b 	bl	d678 <mbedtls_mpi_inv_mod>
    9890:	2a0003e2 	mov	w2, w0
    9894:	34000100 	cbz	w0, 98b4 <TEE_BigIntInvMod+0xcc>
    9898:	52804501 	mov	w1, #0x228                 	// #552
    989c:	90000040 	adrp	x0, 11000 <errmsgstr+0x177>
    98a0:	9129f800 	add	x0, x0, #0xa7e
    98a4:	91032400 	add	x0, x0, #0xc9
    98a8:	97fffb1d 	bl	851c <mpi_panic>
    98ac:	aa1303f5 	mov	x21, x19
    98b0:	17fffff4 	b	9880 <TEE_BigIntInvMod+0x98>
    98b4:	aa1403e1 	mov	x1, x20
    98b8:	aa1303e0 	mov	x0, x19
    98bc:	97fffb4a 	bl	85e4 <copy_mpi_to_bigint>
    98c0:	2a0003e2 	mov	w2, w0
    98c4:	34000060 	cbz	w0, 98d0 <TEE_BigIntInvMod+0xe8>
    98c8:	52804541 	mov	w1, #0x22a                 	// #554
    98cc:	17fffff4 	b	989c <TEE_BigIntInvMod+0xb4>
    98d0:	aa1303e0 	mov	x0, x19
    98d4:	94000481 	bl	aad8 <mbedtls_mpi_free>
    98d8:	aa1703e0 	mov	x0, x23
    98dc:	9400047f 	bl	aad8 <mbedtls_mpi_free>
    98e0:	eb1602bf 	cmp	x21, x22
    98e4:	54000061 	b.ne	98f0 <TEE_BigIntInvMod+0x108>  // b.any
    98e8:	aa1503e0 	mov	x0, x21
    98ec:	9400047b 	bl	aad8 <mbedtls_mpi_free>
    98f0:	a94153f3 	ldp	x19, x20, [sp, #16]
    98f4:	a9425bf5 	ldp	x21, x22, [sp, #32]
    98f8:	f9401bf7 	ldr	x23, [sp, #48]
    98fc:	a8c97bfd 	ldp	x29, x30, [sp], #144
    9900:	d65f03c0 	ret

0000000000009904 <TEE_BigIntRelativePrime>:
    9904:	a9b77bfd 	stp	x29, x30, [sp, #-144]!
    9908:	910003fd 	mov	x29, sp
    990c:	a90153f3 	stp	x19, x20, [sp, #16]
    9910:	910123f4 	add	x20, sp, #0x48
    9914:	aa0003f3 	mov	x19, x0
    9918:	a9025bf5 	stp	x21, x22, [sp, #32]
    991c:	aa0103f5 	mov	x21, x1
    9920:	aa0003e1 	mov	x1, x0
    9924:	aa1403e0 	mov	x0, x20
    9928:	f9001bf7 	str	x23, [sp, #48]
    992c:	97fffb08 	bl	854c <get_mpi>
    9930:	eb15027f 	cmp	x19, x21
    9934:	910183f3 	add	x19, sp, #0x60
    9938:	54000260 	b.eq	9984 <TEE_BigIntRelativePrime+0x80>  // b.none
    993c:	aa1303f6 	mov	x22, x19
    9940:	aa1503e1 	mov	x1, x21
    9944:	aa1303e0 	mov	x0, x19
    9948:	97fffb01 	bl	854c <get_mpi>
    994c:	9101e3f5 	add	x21, sp, #0x78
    9950:	aa1503e0 	mov	x0, x21
    9954:	94000457 	bl	aab0 <mbedtls_mpi_init_mempool>
    9958:	aa1303e2 	mov	x2, x19
    995c:	aa1403e1 	mov	x1, x20
    9960:	aa1503e0 	mov	x0, x21
    9964:	94000e10 	bl	d1a4 <mbedtls_mpi_gcd>
    9968:	2a0003e2 	mov	w2, w0
    996c:	34000100 	cbz	w0, 998c <TEE_BigIntRelativePrime+0x88>
    9970:	90000040 	adrp	x0, 11000 <errmsgstr+0x177>
    9974:	9129f800 	add	x0, x0, #0xa7e
    9978:	91036800 	add	x0, x0, #0xda
    997c:	52804841 	mov	w1, #0x242                 	// #578
    9980:	97fffae7 	bl	851c <mpi_panic>
    9984:	aa1403f6 	mov	x22, x20
    9988:	17fffff1 	b	994c <TEE_BigIntRelativePrime+0x48>
    998c:	52800021 	mov	w1, #0x1                   	// #1
    9990:	aa1503e0 	mov	x0, x21
    9994:	940007d3 	bl	b8e0 <mbedtls_mpi_cmp_int>
    9998:	7100001f 	cmp	w0, #0x0
    999c:	1a9f17f7 	cset	w23, eq  // eq = none
    99a0:	aa1503e0 	mov	x0, x21
    99a4:	9400044d 	bl	aad8 <mbedtls_mpi_free>
    99a8:	aa1403e0 	mov	x0, x20
    99ac:	9400044b 	bl	aad8 <mbedtls_mpi_free>
    99b0:	eb1302df 	cmp	x22, x19
    99b4:	54000061 	b.ne	99c0 <TEE_BigIntRelativePrime+0xbc>  // b.any
    99b8:	aa1603e0 	mov	x0, x22
    99bc:	94000447 	bl	aad8 <mbedtls_mpi_free>
    99c0:	2a1703e0 	mov	w0, w23
    99c4:	a94153f3 	ldp	x19, x20, [sp, #16]
    99c8:	a9425bf5 	ldp	x21, x22, [sp, #32]
    99cc:	f9401bf7 	ldr	x23, [sp, #48]
    99d0:	a8c97bfd 	ldp	x29, x30, [sp], #144
    99d4:	d65f03c0 	ret

00000000000099d8 <TEE_BigIntComputeExtendedGcd>:
    99d8:	a9b17bfd 	stp	x29, x30, [sp, #-240]!
    99dc:	910003fd 	mov	x29, sp
    99e0:	a9025bf5 	stp	x21, x22, [sp, #32]
    99e4:	9101e3f5 	add	x21, sp, #0x78
    99e8:	aa0303f6 	mov	x22, x3
    99ec:	a90153f3 	stp	x19, x20, [sp, #16]
    99f0:	aa0403f3 	mov	x19, x4
    99f4:	910243f4 	add	x20, sp, #0x90
    99f8:	a90363f7 	stp	x23, x24, [sp, #48]
    99fc:	aa0203f8 	mov	x24, x2
    9a00:	a9046bf9 	stp	x25, x26, [sp, #64]
    9a04:	aa0003fa 	mov	x26, x0
    9a08:	aa0103f9 	mov	x25, x1
    9a0c:	aa0003e1 	mov	x1, x0
    9a10:	aa1503e0 	mov	x0, x21
    9a14:	a90573fb 	stp	x27, x28, [sp, #80]
    9a18:	97fffacd 	bl	854c <get_mpi>
    9a1c:	aa1603e1 	mov	x1, x22
    9a20:	aa1403e0 	mov	x0, x20
    9a24:	97fffaca 	bl	854c <get_mpi>
    9a28:	eb1302df 	cmp	x22, x19
    9a2c:	9102a3fb 	add	x27, sp, #0xa8
    9a30:	54000240 	b.eq	9a78 <TEE_BigIntComputeExtendedGcd+0xa0>  // b.none
    9a34:	aa1303e1 	mov	x1, x19
    9a38:	aa1b03f3 	mov	x19, x27
    9a3c:	aa1b03e0 	mov	x0, x27
    9a40:	97fffac3 	bl	854c <get_mpi>
    9a44:	aa180320 	orr	x0, x25, x24
    9a48:	b50001c0 	cbnz	x0, 9a80 <TEE_BigIntComputeExtendedGcd+0xa8>
    9a4c:	aa1303e2 	mov	x2, x19
    9a50:	aa1403e1 	mov	x1, x20
    9a54:	aa1503e0 	mov	x0, x21
    9a58:	94000dd3 	bl	d1a4 <mbedtls_mpi_gcd>
    9a5c:	2a0003e2 	mov	w2, w0
    9a60:	34000aa0 	cbz	w0, 9bb4 <TEE_BigIntComputeExtendedGcd+0x1dc>
    9a64:	52805941 	mov	w1, #0x2ca                 	// #714
    9a68:	90000040 	adrp	x0, 11000 <errmsgstr+0x177>
    9a6c:	9129f800 	add	x0, x0, #0xa7e
    9a70:	9103c800 	add	x0, x0, #0xf2
    9a74:	97fffaaa 	bl	851c <mpi_panic>
    9a78:	aa1403f3 	mov	x19, x20
    9a7c:	17fffff2 	b	9a44 <TEE_BigIntComputeExtendedGcd+0x6c>
    9a80:	39c00260 	ldrsb	w0, [x19]
    9a84:	910303f7 	add	x23, sp, #0xc0
    9a88:	39c243fc 	ldrsb	w28, [sp, #144]
    9a8c:	aa1903e1 	mov	x1, x25
    9a90:	b9006fe0 	str	w0, [sp, #108]
    9a94:	52800020 	mov	w0, #0x1                   	// #1
    9a98:	790123e0 	strh	w0, [sp, #144]
    9a9c:	910363f6 	add	x22, sp, #0xd8
    9aa0:	79000260 	strh	w0, [x19]
    9aa4:	aa1703e0 	mov	x0, x23
    9aa8:	97fffaa9 	bl	854c <get_mpi>
    9aac:	aa1803e1 	mov	x1, x24
    9ab0:	aa1603e0 	mov	x0, x22
    9ab4:	97fffaa6 	bl	854c <get_mpi>
    9ab8:	aa1303e1 	mov	x1, x19
    9abc:	aa1403e0 	mov	x0, x20
    9ac0:	940006f9 	bl	b6a4 <mbedtls_mpi_cmp_abs>
    9ac4:	7100001f 	cmp	w0, #0x0
    9ac8:	350002c0 	cbnz	w0, 9b20 <TEE_BigIntComputeExtendedGcd+0x148>
    9acc:	aa1403e1 	mov	x1, x20
    9ad0:	aa1503e0 	mov	x0, x21
    9ad4:	9400049e 	bl	ad4c <mbedtls_mpi_copy>
    9ad8:	2a0003e2 	mov	w2, w0
    9adc:	34000060 	cbz	w0, 9ae8 <TEE_BigIntComputeExtendedGcd+0x110>
    9ae0:	52805b41 	mov	w1, #0x2da                 	// #730
    9ae4:	17ffffe1 	b	9a68 <TEE_BigIntComputeExtendedGcd+0x90>
    9ae8:	aa1703e0 	mov	x0, x23
    9aec:	52800021 	mov	w1, #0x1                   	// #1
    9af0:	94000544 	bl	b000 <mbedtls_mpi_lset>
    9af4:	2a0003e2 	mov	w2, w0
    9af8:	34000060 	cbz	w0, 9b04 <TEE_BigIntComputeExtendedGcd+0x12c>
    9afc:	52805b61 	mov	w1, #0x2db                 	// #731
    9b00:	17ffffda 	b	9a68 <TEE_BigIntComputeExtendedGcd+0x90>
    9b04:	aa1603e0 	mov	x0, x22
    9b08:	52800001 	mov	w1, #0x0                   	// #0
    9b0c:	9400053d 	bl	b000 <mbedtls_mpi_lset>
    9b10:	2a0003e2 	mov	w2, w0
    9b14:	34000140 	cbz	w0, 9b3c <TEE_BigIntComputeExtendedGcd+0x164>
    9b18:	52805b81 	mov	w1, #0x2dc                 	// #732
    9b1c:	17ffffd3 	b	9a68 <TEE_BigIntComputeExtendedGcd+0x90>
    9b20:	540002ad 	b.le	9b74 <TEE_BigIntComputeExtendedGcd+0x19c>
    9b24:	aa1303e4 	mov	x4, x19
    9b28:	aa1403e3 	mov	x3, x20
    9b2c:	aa1603e2 	mov	x2, x22
    9b30:	aa1703e1 	mov	x1, x23
    9b34:	aa1503e0 	mov	x0, x21
    9b38:	97fffb1c 	bl	87a8 <mpi_egcd>
    9b3c:	794183e0 	ldrh	w0, [sp, #192]
    9b40:	b9406fe1 	ldr	w1, [sp, #108]
    9b44:	1b007f9c 	mul	w28, w28, w0
    9b48:	7941b3e0 	ldrh	w0, [sp, #216]
    9b4c:	790183fc 	strh	w28, [sp, #192]
    9b50:	1b007c20 	mul	w0, w1, w0
    9b54:	aa1903e1 	mov	x1, x25
    9b58:	7901b3e0 	strh	w0, [sp, #216]
    9b5c:	aa1703e0 	mov	x0, x23
    9b60:	97fffaa1 	bl	85e4 <copy_mpi_to_bigint>
    9b64:	2a0003e2 	mov	w2, w0
    9b68:	34000100 	cbz	w0, 9b88 <TEE_BigIntComputeExtendedGcd+0x1b0>
    9b6c:	52805cc1 	mov	w1, #0x2e6                 	// #742
    9b70:	17ffffbe 	b	9a68 <TEE_BigIntComputeExtendedGcd+0x90>
    9b74:	aa1403e4 	mov	x4, x20
    9b78:	aa1303e3 	mov	x3, x19
    9b7c:	aa1703e2 	mov	x2, x23
    9b80:	aa1603e1 	mov	x1, x22
    9b84:	17ffffec 	b	9b34 <TEE_BigIntComputeExtendedGcd+0x15c>
    9b88:	aa1803e1 	mov	x1, x24
    9b8c:	aa1603e0 	mov	x0, x22
    9b90:	97fffa95 	bl	85e4 <copy_mpi_to_bigint>
    9b94:	2a0003e2 	mov	w2, w0
    9b98:	34000060 	cbz	w0, 9ba4 <TEE_BigIntComputeExtendedGcd+0x1cc>
    9b9c:	52805ce1 	mov	w1, #0x2e7                 	// #743
    9ba0:	17ffffb2 	b	9a68 <TEE_BigIntComputeExtendedGcd+0x90>
    9ba4:	aa1703e0 	mov	x0, x23
    9ba8:	940003cc 	bl	aad8 <mbedtls_mpi_free>
    9bac:	aa1603e0 	mov	x0, x22
    9bb0:	940003ca 	bl	aad8 <mbedtls_mpi_free>
    9bb4:	aa1a03e1 	mov	x1, x26
    9bb8:	aa1503e0 	mov	x0, x21
    9bbc:	97fffa8a 	bl	85e4 <copy_mpi_to_bigint>
    9bc0:	2a0003e2 	mov	w2, w0
    9bc4:	34000060 	cbz	w0, 9bd0 <TEE_BigIntComputeExtendedGcd+0x1f8>
    9bc8:	52805d81 	mov	w1, #0x2ec                 	// #748
    9bcc:	17ffffa7 	b	9a68 <TEE_BigIntComputeExtendedGcd+0x90>
    9bd0:	aa1503e0 	mov	x0, x21
    9bd4:	940003c1 	bl	aad8 <mbedtls_mpi_free>
    9bd8:	aa1403e0 	mov	x0, x20
    9bdc:	940003bf 	bl	aad8 <mbedtls_mpi_free>
    9be0:	eb1b027f 	cmp	x19, x27
    9be4:	54000061 	b.ne	9bf0 <TEE_BigIntComputeExtendedGcd+0x218>  // b.any
    9be8:	aa1303e0 	mov	x0, x19
    9bec:	940003bb 	bl	aad8 <mbedtls_mpi_free>
    9bf0:	a94153f3 	ldp	x19, x20, [sp, #16]
    9bf4:	a9425bf5 	ldp	x21, x22, [sp, #32]
    9bf8:	a94363f7 	ldp	x23, x24, [sp, #48]
    9bfc:	a9446bf9 	ldp	x25, x26, [sp, #64]
    9c00:	a94573fb 	ldp	x27, x28, [sp, #80]
    9c04:	a8cf7bfd 	ldp	x29, x30, [sp], #240
    9c08:	d65f03c0 	ret

0000000000009c0c <TEE_BigIntIsProbablePrime>:
    9c0c:	a9bc7bfd 	stp	x29, x30, [sp, #-64]!
    9c10:	aa0003e1 	mov	x1, x0
    9c14:	910003fd 	mov	x29, sp
    9c18:	a90153f3 	stp	x19, x20, [sp, #16]
    9c1c:	9100a3f3 	add	x19, sp, #0x28
    9c20:	aa1303e0 	mov	x0, x19
    9c24:	97fffa4a 	bl	854c <get_mpi>
    9c28:	f0ffffe1 	adrp	x1, 8000 <copy_param+0xf8>
    9c2c:	911e0021 	add	x1, x1, #0x780
    9c30:	d2800002 	mov	x2, #0x0                   	// #0
    9c34:	aa1303e0 	mov	x0, x19
    9c38:	94000fc3 	bl	db44 <mbedtls_mpi_is_prime>
    9c3c:	2a0003f4 	mov	w20, w0
    9c40:	aa1303e0 	mov	x0, x19
    9c44:	940003a5 	bl	aad8 <mbedtls_mpi_free>
    9c48:	7100029f 	cmp	w20, #0x0
    9c4c:	1a9f17e0 	cset	w0, eq  // eq = none
    9c50:	a94153f3 	ldp	x19, x20, [sp, #16]
    9c54:	a8c47bfd 	ldp	x29, x30, [sp], #64
    9c58:	d65f03c0 	ret

0000000000009c5c <TEE_BigIntInitFMM>:
    9c5c:	17fffc37 	b	8d38 <TEE_BigIntInit>

0000000000009c60 <TEE_BigIntInitFMMContext>:
    9c60:	d65f03c0 	ret

0000000000009c64 <TEE_BigIntFMMSizeInU32>:
    9c64:	11007c00 	add	w0, w0, #0x1f
    9c68:	53057c00 	lsr	w0, w0, #5
    9c6c:	11000800 	add	w0, w0, #0x2
    9c70:	d65f03c0 	ret

0000000000009c74 <TEE_BigIntFMMContextSizeInU32>:
    9c74:	52800020 	mov	w0, #0x1                   	// #1
    9c78:	d65f03c0 	ret

0000000000009c7c <TEE_BigIntConvertToFMM>:
    9c7c:	17fffeb4 	b	974c <TEE_BigIntMod>

0000000000009c80 <TEE_BigIntConvertFromFMM>:
    9c80:	a9ba7bfd 	stp	x29, x30, [sp, #-96]!
    9c84:	910003fd 	mov	x29, sp
    9c88:	a90153f3 	stp	x19, x20, [sp, #16]
    9c8c:	9100c3f3 	add	x19, sp, #0x30
    9c90:	aa0003f4 	mov	x20, x0
    9c94:	a9025bf5 	stp	x21, x22, [sp, #32]
    9c98:	aa0103f6 	mov	x22, x1
    9c9c:	910123f5 	add	x21, sp, #0x48
    9ca0:	aa0003e1 	mov	x1, x0
    9ca4:	aa1303e0 	mov	x0, x19
    9ca8:	97fffa29 	bl	854c <get_mpi>
    9cac:	aa1603e1 	mov	x1, x22
    9cb0:	aa1503e0 	mov	x0, x21
    9cb4:	97fffa26 	bl	854c <get_mpi>
    9cb8:	aa1503e1 	mov	x1, x21
    9cbc:	aa1303e0 	mov	x0, x19
    9cc0:	94000423 	bl	ad4c <mbedtls_mpi_copy>
    9cc4:	340000e0 	cbz	w0, 9ce0 <TEE_BigIntConvertFromFMM+0x60>
    9cc8:	2a0003e2 	mov	w2, w0
    9ccc:	52806761 	mov	w1, #0x33b                 	// #827
    9cd0:	90000040 	adrp	x0, 11000 <errmsgstr+0x177>
    9cd4:	9129f800 	add	x0, x0, #0xa7e
    9cd8:	91043c00 	add	x0, x0, #0x10f
    9cdc:	97fffa10 	bl	851c <mpi_panic>
    9ce0:	aa1403e1 	mov	x1, x20
    9ce4:	aa1303e0 	mov	x0, x19
    9ce8:	97fffa3f 	bl	85e4 <copy_mpi_to_bigint>
    9cec:	2a0003e2 	mov	w2, w0
    9cf0:	34000060 	cbz	w0, 9cfc <TEE_BigIntConvertFromFMM+0x7c>
    9cf4:	528067a1 	mov	w1, #0x33d                 	// #829
    9cf8:	17fffff6 	b	9cd0 <TEE_BigIntConvertFromFMM+0x50>
    9cfc:	aa1303e0 	mov	x0, x19
    9d00:	94000376 	bl	aad8 <mbedtls_mpi_free>
    9d04:	aa1503e0 	mov	x0, x21
    9d08:	94000374 	bl	aad8 <mbedtls_mpi_free>
    9d0c:	a94153f3 	ldp	x19, x20, [sp, #16]
    9d10:	a9425bf5 	ldp	x21, x22, [sp, #32]
    9d14:	a8c67bfd 	ldp	x29, x30, [sp], #96
    9d18:	d65f03c0 	ret

0000000000009d1c <TEE_BigIntComputeFMM>:
    9d1c:	a9b47bfd 	stp	x29, x30, [sp, #-192]!
    9d20:	910003fd 	mov	x29, sp
    9d24:	a90153f3 	stp	x19, x20, [sp, #16]
    9d28:	910123f3 	add	x19, sp, #0x48
    9d2c:	aa0003f4 	mov	x20, x0
    9d30:	a9025bf5 	stp	x21, x22, [sp, #32]
    9d34:	aa0303f5 	mov	x21, x3
    9d38:	910183f6 	add	x22, sp, #0x60
    9d3c:	a90363f7 	stp	x23, x24, [sp, #48]
    9d40:	aa0203f8 	mov	x24, x2
    9d44:	aa0103f7 	mov	x23, x1
    9d48:	aa0003e1 	mov	x1, x0
    9d4c:	aa1303e0 	mov	x0, x19
    9d50:	97fff9ff 	bl	854c <get_mpi>
    9d54:	aa1703e1 	mov	x1, x23
    9d58:	aa1603e0 	mov	x0, x22
    9d5c:	9101e3f7 	add	x23, sp, #0x78
    9d60:	97fff9fb 	bl	854c <get_mpi>
    9d64:	aa1803e1 	mov	x1, x24
    9d68:	aa1703e0 	mov	x0, x23
    9d6c:	97fff9f8 	bl	854c <get_mpi>
    9d70:	910243f8 	add	x24, sp, #0x90
    9d74:	aa1503e1 	mov	x1, x21
    9d78:	aa1803e0 	mov	x0, x24
    9d7c:	9102a3f5 	add	x21, sp, #0xa8
    9d80:	97fff9f3 	bl	854c <get_mpi>
    9d84:	aa1503e0 	mov	x0, x21
    9d88:	9400034a 	bl	aab0 <mbedtls_mpi_init_mempool>
    9d8c:	aa1703e2 	mov	x2, x23
    9d90:	aa1603e1 	mov	x1, x22
    9d94:	aa1503e0 	mov	x0, x21
    9d98:	940007c4 	bl	bca8 <mbedtls_mpi_mul_mpi>
    9d9c:	340000e0 	cbz	w0, 9db8 <TEE_BigIntComputeFMM+0x9c>
    9da0:	2a0003e2 	mov	w2, w0
    9da4:	52806a41 	mov	w1, #0x352                 	// #850
    9da8:	90000040 	adrp	x0, 11000 <errmsgstr+0x177>
    9dac:	9129f800 	add	x0, x0, #0xa7e
    9db0:	9104a000 	add	x0, x0, #0x128
    9db4:	97fff9da 	bl	851c <mpi_panic>
    9db8:	aa1803e2 	mov	x2, x24
    9dbc:	aa1503e1 	mov	x1, x21
    9dc0:	aa1303e0 	mov	x0, x19
    9dc4:	940009e2 	bl	c54c <mbedtls_mpi_mod_mpi>
    9dc8:	2a0003e2 	mov	w2, w0
    9dcc:	34000060 	cbz	w0, 9dd8 <TEE_BigIntComputeFMM+0xbc>
    9dd0:	52806a61 	mov	w1, #0x353                 	// #851
    9dd4:	17fffff5 	b	9da8 <TEE_BigIntComputeFMM+0x8c>
    9dd8:	aa1503e0 	mov	x0, x21
    9ddc:	9400033f 	bl	aad8 <mbedtls_mpi_free>
    9de0:	aa1803e0 	mov	x0, x24
    9de4:	9400033d 	bl	aad8 <mbedtls_mpi_free>
    9de8:	aa1703e0 	mov	x0, x23
    9dec:	9400033b 	bl	aad8 <mbedtls_mpi_free>
    9df0:	aa1603e0 	mov	x0, x22
    9df4:	94000339 	bl	aad8 <mbedtls_mpi_free>
    9df8:	aa1403e1 	mov	x1, x20
    9dfc:	aa1303e0 	mov	x0, x19
    9e00:	97fff9f9 	bl	85e4 <copy_mpi_to_bigint>
    9e04:	2a0003e2 	mov	w2, w0
    9e08:	34000060 	cbz	w0, 9e14 <TEE_BigIntComputeFMM+0xf8>
    9e0c:	52806b21 	mov	w1, #0x359                 	// #857
    9e10:	17ffffe6 	b	9da8 <TEE_BigIntComputeFMM+0x8c>
    9e14:	aa1303e0 	mov	x0, x19
    9e18:	94000330 	bl	aad8 <mbedtls_mpi_free>
    9e1c:	a94153f3 	ldp	x19, x20, [sp, #16]
    9e20:	a9425bf5 	ldp	x21, x22, [sp, #32]
    9e24:	a94363f7 	ldp	x23, x24, [sp, #48]
    9e28:	a8cc7bfd 	ldp	x29, x30, [sp], #192
    9e2c:	d65f03c0 	ret

0000000000009e30 <check_access>:
    9e30:	b4000062 	cbz	x2, 9e3c <check_access+0xc>
    9e34:	b4000081 	cbz	x1, 9e44 <check_access+0x14>
    9e38:	17fff82f 	b	7ef4 <TEE_CheckMemoryAccessRights>
    9e3c:	52800000 	mov	w0, #0x0                   	// #0
    9e40:	d65f03c0 	ret
    9e44:	129ffe00 	mov	w0, #0xffff000f            	// #-65521
    9e48:	17fffffe 	b	9e40 <check_access+0x10>

0000000000009e4c <TEE_Panic>:
    9e4c:	2a0003e0 	mov	w0, w0
    9e50:	17fff57d 	b	7444 <_utee_panic>

0000000000009e54 <check_res.isra.0>:
    9e54:	34000060 	cbz	w0, 9e60 <check_res.isra.0+0xc>
    9e58:	52800000 	mov	w0, #0x0                   	// #0
    9e5c:	17fffffc 	b	9e4c <TEE_Panic>
    9e60:	d65f03c0 	ret

0000000000009e64 <__utee_check_outbuf_annotation>:
    9e64:	a9be7bfd 	stp	x29, x30, [sp, #-32]!
    9e68:	910003fd 	mov	x29, sp
    9e6c:	a90153f3 	stp	x19, x20, [sp, #16]
    9e70:	aa0003f4 	mov	x20, x0
    9e74:	aa0103f3 	mov	x19, x1
    9e78:	b4000181 	cbz	x1, 9ea8 <__utee_check_outbuf_annotation+0x44>
    9e7c:	52800082 	mov	w2, #0x4                   	// #4
    9e80:	52800060 	mov	w0, #0x3                   	// #3
    9e84:	97fff81c 	bl	7ef4 <TEE_CheckMemoryAccessRights>
    9e88:	97fffff3 	bl	9e54 <check_res.isra.0>
    9e8c:	b9400262 	ldr	w2, [x19]
    9e90:	aa1403e1 	mov	x1, x20
    9e94:	528000c0 	mov	w0, #0x6                   	// #6
    9e98:	97ffffe6 	bl	9e30 <check_access>
    9e9c:	a94153f3 	ldp	x19, x20, [sp, #16]
    9ea0:	a8c27bfd 	ldp	x29, x30, [sp], #32
    9ea4:	17ffffec 	b	9e54 <check_res.isra.0>
    9ea8:	129ffe00 	mov	w0, #0xffff000f            	// #-65521
    9eac:	17fffff7 	b	9e88 <__utee_check_outbuf_annotation+0x24>

0000000000009eb0 <__utee_check_instring_annotation>:
    9eb0:	a9be7bfd 	stp	x29, x30, [sp, #-32]!
    9eb4:	910003fd 	mov	x29, sp
    9eb8:	f9000bf3 	str	x19, [sp, #16]
    9ebc:	aa0003f3 	mov	x19, x0
    9ec0:	97ffeb36 	bl	4b98 <strlen>
    9ec4:	91000402 	add	x2, x0, #0x1
    9ec8:	aa1303e1 	mov	x1, x19
    9ecc:	52800020 	mov	w0, #0x1                   	// #1
    9ed0:	97ffffd8 	bl	9e30 <check_access>
    9ed4:	f9400bf3 	ldr	x19, [sp, #16]
    9ed8:	a8c27bfd 	ldp	x29, x30, [sp], #32
    9edc:	17ffffde 	b	9e54 <check_res.isra.0>

0000000000009ee0 <__utee_check_outstring_annotation>:
    9ee0:	a9be7bfd 	stp	x29, x30, [sp, #-32]!
    9ee4:	910003fd 	mov	x29, sp
    9ee8:	a90153f3 	stp	x19, x20, [sp, #16]
    9eec:	aa0003f4 	mov	x20, x0
    9ef0:	aa0103f3 	mov	x19, x1
    9ef4:	b4000181 	cbz	x1, 9f24 <__utee_check_outstring_annotation+0x44>
    9ef8:	52800082 	mov	w2, #0x4                   	// #4
    9efc:	52800060 	mov	w0, #0x3                   	// #3
    9f00:	97fff7fd 	bl	7ef4 <TEE_CheckMemoryAccessRights>
    9f04:	97ffffd4 	bl	9e54 <check_res.isra.0>
    9f08:	b9400262 	ldr	w2, [x19]
    9f0c:	aa1403e1 	mov	x1, x20
    9f10:	528000c0 	mov	w0, #0x6                   	// #6
    9f14:	97ffffc7 	bl	9e30 <check_access>
    9f18:	a94153f3 	ldp	x19, x20, [sp, #16]
    9f1c:	a8c27bfd 	ldp	x29, x30, [sp], #32
    9f20:	17ffffcd 	b	9e54 <check_res.isra.0>
    9f24:	129ffe00 	mov	w0, #0xffff000f            	// #-65521
    9f28:	17fffff7 	b	9f04 <__utee_check_outstring_annotation+0x24>

0000000000009f2c <__utee_check_out_annotation>:
    9f2c:	a9bf7bfd 	stp	x29, x30, [sp, #-16]!
    9f30:	aa0103e2 	mov	x2, x1
    9f34:	aa0003e1 	mov	x1, x0
    9f38:	910003fd 	mov	x29, sp
    9f3c:	52800040 	mov	w0, #0x2                   	// #2
    9f40:	97ffffbc 	bl	9e30 <check_access>
    9f44:	a8c17bfd 	ldp	x29, x30, [sp], #16
    9f48:	17ffffc3 	b	9e54 <check_res.isra.0>

0000000000009f4c <__utee_check_attr_in_annotation>:
    9f4c:	d2800302 	mov	x2, #0x18                  	// #24
    9f50:	a9bf7bfd 	stp	x29, x30, [sp, #-16]!
    9f54:	9b027c22 	mul	x2, x1, x2
    9f58:	910003fd 	mov	x29, sp
    9f5c:	aa0003e1 	mov	x1, x0
    9f60:	52800020 	mov	w0, #0x1                   	// #1
    9f64:	97ffffb3 	bl	9e30 <check_access>
    9f68:	a8c17bfd 	ldp	x29, x30, [sp], #16
    9f6c:	17ffffba 	b	9e54 <check_res.isra.0>

0000000000009f70 <__utee_check_inout_annotation>:
    9f70:	a9bf7bfd 	stp	x29, x30, [sp, #-16]!
    9f74:	aa0103e2 	mov	x2, x1
    9f78:	aa0003e1 	mov	x1, x0
    9f7c:	910003fd 	mov	x29, sp
    9f80:	52800060 	mov	w0, #0x3                   	// #3
    9f84:	97ffffab 	bl	9e30 <check_access>
    9f88:	a8c17bfd 	ldp	x29, x30, [sp], #16
    9f8c:	17ffffb2 	b	9e54 <check_res.isra.0>

0000000000009f90 <invoke_system_pta>:
    9f90:	a9bd7bfd 	stp	x29, x30, [sp, #-48]!
    9f94:	b0000063 	adrp	x3, 16000 <data.4829+0x2800>
    9f98:	910003fd 	mov	x29, sp
    9f9c:	a90153f3 	stp	x19, x20, [sp, #16]
    9fa0:	2a0003f4 	mov	w20, w0
    9fa4:	aa0303f3 	mov	x19, x3
    9fa8:	f9440060 	ldr	x0, [x3, #2048]
    9fac:	a9025bf5 	stp	x21, x22, [sp, #32]
    9fb0:	2a0103f5 	mov	w21, w1
    9fb4:	aa0203f6 	mov	x22, x2
    9fb8:	b4000160 	cbz	x0, 9fe4 <invoke_system_pta+0x54>
    9fbc:	f9440260 	ldr	x0, [x19, #2048]
    9fc0:	aa1603e4 	mov	x4, x22
    9fc4:	2a1503e3 	mov	w3, w21
    9fc8:	2a1403e2 	mov	w2, w20
    9fcc:	a94153f3 	ldp	x19, x20, [sp, #16]
    9fd0:	d2800005 	mov	x5, #0x0                   	// #0
    9fd4:	a9425bf5 	ldp	x21, x22, [sp, #32]
    9fd8:	12800001 	mov	w1, #0xffffffff            	// #-1
    9fdc:	a8c37bfd 	ldp	x29, x30, [sp], #48
    9fe0:	17fff87c 	b	81d0 <TEE_InvokeTACommand>
    9fe4:	91200064 	add	x4, x3, #0x800
    9fe8:	f0000020 	adrp	x0, 10000 <__text_end+0x1600>
    9fec:	d2800005 	mov	x5, #0x0                   	// #0
    9ff0:	91186000 	add	x0, x0, #0x618
    9ff4:	d2800003 	mov	x3, #0x0                   	// #0
    9ff8:	52800002 	mov	w2, #0x0                   	// #0
    9ffc:	12800001 	mov	w1, #0xffffffff            	// #-1
    a000:	97fff836 	bl	80d8 <TEE_OpenTASession>
    a004:	34fffdc0 	cbz	w0, 9fbc <invoke_system_pta+0x2c>
    a008:	a94153f3 	ldp	x19, x20, [sp, #16]
    a00c:	a9425bf5 	ldp	x21, x22, [sp, #32]
    a010:	a8c37bfd 	ldp	x29, x30, [sp], #48
    a014:	d65f03c0 	ret

000000000000a018 <tee_map_zi>:
    a018:	a9bb7bfd 	stp	x29, x30, [sp, #-80]!
    a01c:	f2607c1f 	tst	x0, #0xffffffff00000000
    a020:	910003fd 	mov	x29, sp
    a024:	a9017fff 	stp	xzr, xzr, [sp, #16]
    a028:	b90013e0 	str	w0, [sp, #16]
    a02c:	a9027fff 	stp	xzr, xzr, [sp, #32]
    a030:	a9037fff 	stp	xzr, xzr, [sp, #48]
    a034:	a9047fff 	stp	xzr, xzr, [sp, #64]
    a038:	54000060 	b.eq	a044 <tee_map_zi+0x2c>  // b.none
    a03c:	d2800000 	mov	x0, #0x0                   	// #0
    a040:	1400000d 	b	a074 <tee_map_zi+0x5c>
    a044:	340000a1 	cbz	w1, a058 <tee_map_zi+0x40>
    a048:	7100103f 	cmp	w1, #0x4
    a04c:	54ffff81 	b.ne	a03c <tee_map_zi+0x24>  // b.any
    a050:	52800020 	mov	w0, #0x1                   	// #1
    a054:	b90017e0 	str	w0, [sp, #20]
    a058:	910043e2 	add	x2, sp, #0x10
    a05c:	52802621 	mov	w1, #0x131                 	// #305
    a060:	52800040 	mov	w0, #0x2                   	// #2
    a064:	97ffffcb 	bl	9f90 <invoke_system_pta>
    a068:	35fffea0 	cbnz	w0, a03c <tee_map_zi+0x24>
    a06c:	294407e0 	ldp	w0, w1, [sp, #32]
    a070:	aa008020 	orr	x0, x1, x0, lsl #32
    a074:	a8c57bfd 	ldp	x29, x30, [sp], #80
    a078:	d65f03c0 	ret

000000000000a07c <tee_unmap>:
    a07c:	a9b97bfd 	stp	x29, x30, [sp, #-112]!
    a080:	910003fd 	mov	x29, sp
    a084:	a90153f3 	stp	x19, x20, [sp, #16]
    a088:	aa0003f3 	mov	x19, x0
    a08c:	d360fc00 	lsr	x0, x0, #32
    a090:	a9037fff 	stp	xzr, xzr, [sp, #48]
    a094:	9100c3e2 	add	x2, sp, #0x30
    a098:	a9047fff 	stp	xzr, xzr, [sp, #64]
    a09c:	f90013f5 	str	x21, [sp, #32]
    a0a0:	aa0103f5 	mov	x21, x1
    a0a4:	b90033e1 	str	w1, [sp, #48]
    a0a8:	52800221 	mov	w1, #0x11                  	// #17
    a0ac:	29084fe0 	stp	w0, w19, [sp, #64]
    a0b0:	52800060 	mov	w0, #0x3                   	// #3
    a0b4:	a9057fff 	stp	xzr, xzr, [sp, #80]
    a0b8:	a9067fff 	stp	xzr, xzr, [sp, #96]
    a0bc:	97ffffb5 	bl	9f90 <invoke_system_pta>
    a0c0:	2a0003f4 	mov	w20, w0
    a0c4:	34000180 	cbz	w0, a0f4 <tee_unmap+0x78>
    a0c8:	d0000020 	adrp	x0, 10000 <__text_end+0x1600>
    a0cc:	91186000 	add	x0, x0, #0x618
    a0d0:	f0000024 	adrp	x4, 11000 <errmsgstr+0x177>
    a0d4:	aa1503e6 	mov	x6, x21
    a0d8:	aa1303e5 	mov	x5, x19
    a0dc:	912eec84 	add	x4, x4, #0xbbb
    a0e0:	91004000 	add	x0, x0, #0x10
    a0e4:	52800023 	mov	w3, #0x1                   	// #1
    a0e8:	52800022 	mov	w2, #0x1                   	// #1
    a0ec:	52800981 	mov	w1, #0x4c                  	// #76
    a0f0:	97ffeb80 	bl	4ef0 <trace_printf>
    a0f4:	2a1403e0 	mov	w0, w20
    a0f8:	a94153f3 	ldp	x19, x20, [sp, #16]
    a0fc:	f94013f5 	ldr	x21, [sp, #32]
    a100:	a8c77bfd 	ldp	x29, x30, [sp], #112
    a104:	d65f03c0 	ret

000000000000a108 <tee_invoke_supp_plugin>:
    a108:	a9ba7bfd 	stp	x29, x30, [sp, #-96]!
    a10c:	910003fd 	mov	x29, sp
    a110:	a90153f3 	stp	x19, x20, [sp, #16]
    a114:	a9027fff 	stp	xzr, xzr, [sp, #32]
    a118:	a9037fff 	stp	xzr, xzr, [sp, #48]
    a11c:	a9047fff 	stp	xzr, xzr, [sp, #64]
    a120:	a9057fff 	stp	xzr, xzr, [sp, #80]
    a124:	b40004a0 	cbz	x0, a1b8 <tee_invoke_supp_plugin+0xb0>
    a128:	f100009f 	cmp	x4, #0x0
    a12c:	fa401860 	ccmp	x3, #0x0, #0x0, ne  // ne = any
    a130:	54000440 	b.eq	a1b8 <tee_invoke_supp_plugin+0xb0>  // b.none
    a134:	f100009f 	cmp	x4, #0x0
    a138:	fa400864 	ccmp	x3, #0x0, #0x4, eq  // eq = none
    a13c:	540003e1 	b.ne	a1b8 <tee_invoke_supp_plugin+0xb0>  // b.any
    a140:	f90013e0 	str	x0, [sp, #32]
    a144:	52800200 	mov	w0, #0x10                  	// #16
    a148:	aa0503f4 	mov	x20, x5
    a14c:	b9002be0 	str	w0, [sp, #40]
    a150:	528001a0 	mov	w0, #0xd                   	// #13
    a154:	29060be1 	stp	w1, w2, [sp, #48]
    a158:	910083e2 	add	x2, sp, #0x20
    a15c:	5284e2a1 	mov	w1, #0x2715                	// #10005
    a160:	f90023e3 	str	x3, [sp, #64]
    a164:	b9004be4 	str	w4, [sp, #72]
    a168:	97ffff8a 	bl	9f90 <invoke_system_pta>
    a16c:	2a0003f3 	mov	w19, w0
    a170:	34000160 	cbz	w0, a19c <tee_invoke_supp_plugin+0x94>
    a174:	2a0003e5 	mov	w5, w0
    a178:	d0000020 	adrp	x0, 10000 <__text_end+0x1600>
    a17c:	91186000 	add	x0, x0, #0x618
    a180:	f0000024 	adrp	x4, 11000 <errmsgstr+0x177>
    a184:	91006800 	add	x0, x0, #0x1a
    a188:	912f9484 	add	x4, x4, #0xbe5
    a18c:	52800023 	mov	w3, #0x1                   	// #1
    a190:	52800022 	mov	w2, #0x1                   	// #1
    a194:	52800d21 	mov	w1, #0x69                  	// #105
    a198:	97ffeb56 	bl	4ef0 <trace_printf>
    a19c:	b4000074 	cbz	x20, a1a8 <tee_invoke_supp_plugin+0xa0>
    a1a0:	b94053e0 	ldr	w0, [sp, #80]
    a1a4:	f9000280 	str	x0, [x20]
    a1a8:	2a1303e0 	mov	w0, w19
    a1ac:	a94153f3 	ldp	x19, x20, [sp, #16]
    a1b0:	a8c67bfd 	ldp	x29, x30, [sp], #96
    a1b4:	d65f03c0 	ret
    a1b8:	129fff33 	mov	w19, #0xffff0006            	// #-65530
    a1bc:	17fffffb 	b	a1a8 <tee_invoke_supp_plugin+0xa0>

000000000000a1c0 <__utee_tcb_init>:
    a1c0:	a9b87bfd 	stp	x29, x30, [sp, #-128]!
    a1c4:	b0000041 	adrp	x1, 13000 <_DYNAMIC>
    a1c8:	d2800003 	mov	x3, #0x0                   	// #0
    a1cc:	910003fd 	mov	x29, sp
    a1d0:	f940cc20 	ldr	x0, [x1, #408]
    a1d4:	a90363f7 	stp	x23, x24, [sp, #48]
    a1d8:	aa0103f7 	mov	x23, x1
    a1dc:	d2800706 	mov	x6, #0x38                  	// #56
    a1e0:	a90153f3 	stp	x19, x20, [sp, #16]
    a1e4:	79400805 	ldrh	w5, [x0, #4]
    a1e8:	f9400400 	ldr	x0, [x0, #8]
    a1ec:	a9025bf5 	stp	x21, x22, [sp, #32]
    a1f0:	91004000 	add	x0, x0, #0x10
    a1f4:	a9046bf9 	stp	x25, x26, [sp, #64]
    a1f8:	d2800019 	mov	x25, #0x0                   	// #0
    a1fc:	a90573fb 	stp	x27, x28, [sp, #80]
    a200:	eb0300bf 	cmp	x5, x3
    a204:	540001e8 	b.hi	a240 <__utee_tcb_init+0x80>  // b.pmore
    a208:	90000076 	adrp	x22, 16000 <data.4829+0x2800>
    a20c:	912022d5 	add	x21, x22, #0x808
    a210:	f94406d8 	ldr	x24, [x22, #2056]
    a214:	eb19031f 	cmp	x24, x25
    a218:	54000369 	b.ls	a284 <__utee_tcb_init+0xc4>  // b.plast
    a21c:	f0000023 	adrp	x3, 11000 <errmsgstr+0x177>
    a220:	f0000021 	adrp	x1, 11000 <errmsgstr+0x177>
    a224:	91329863 	add	x3, x3, #0xca6
    a228:	91304021 	add	x1, x1, #0xc10
    a22c:	f0000020 	adrp	x0, 11000 <errmsgstr+0x177>
    a230:	9130ac00 	add	x0, x0, #0xc2b
    a234:	52800e22 	mov	w2, #0x71                  	// #113
    a238:	940000b5 	bl	a50c <_assert_log>
    a23c:	940000c5 	bl	a550 <_assert_break>
    a240:	79401007 	ldrh	w7, [x0, #8]
    a244:	d2800001 	mov	x1, #0x0                   	// #0
    a248:	eb0100ff 	cmp	x7, x1
    a24c:	54000129 	b.ls	a270 <__utee_tcb_init+0xb0>  // b.plast
    a250:	9b067c22 	mul	x2, x1, x6
    a254:	f9400004 	ldr	x4, [x0]
    a258:	8b020088 	add	x8, x4, x2
    a25c:	b8626882 	ldr	w2, [x4, x2]
    a260:	71001c5f 	cmp	w2, #0x7
    a264:	540000c1 	b.ne	a27c <__utee_tcb_init+0xbc>  // b.any
    a268:	f9401501 	ldr	x1, [x8, #40]
    a26c:	8b010339 	add	x25, x25, x1
    a270:	91000463 	add	x3, x3, #0x1
    a274:	91010000 	add	x0, x0, #0x40
    a278:	17ffffe2 	b	a200 <__utee_tcb_init+0x40>
    a27c:	91000421 	add	x1, x1, #0x1
    a280:	17fffff2 	b	a248 <__utee_tcb_init+0x88>
    a284:	f94006a0 	ldr	x0, [x21, #8]
    a288:	91006334 	add	x20, x25, #0x18
    a28c:	aa1403e1 	mov	x1, x20
    a290:	940010e9 	bl	e634 <realloc>
    a294:	f90006a0 	str	x0, [x21, #8]
    a298:	aa0003f3 	mov	x19, x0
    a29c:	b5000160 	cbnz	x0, a2c8 <__utee_tcb_init+0x108>
    a2a0:	f0000024 	adrp	x4, 11000 <errmsgstr+0x177>
    a2a4:	aa1403e5 	mov	x5, x20
    a2a8:	91310c84 	add	x4, x4, #0xc43
    a2ac:	52800023 	mov	w3, #0x1                   	// #1
    a2b0:	52800022 	mov	w2, #0x1                   	// #1
    a2b4:	52800f41 	mov	w1, #0x7a                  	// #122
    a2b8:	f0000020 	adrp	x0, 11000 <errmsgstr+0x177>
    a2bc:	91329800 	add	x0, x0, #0xca6
    a2c0:	97ffeb0c 	bl	4ef0 <trace_printf>
    a2c4:	97fff320 	bl	6f44 <abort>
    a2c8:	f940cee0 	ldr	x0, [x23, #408]
    a2cc:	79400814 	ldrh	w20, [x0, #4]
    a2d0:	f9400660 	ldr	x0, [x19, #8]
    a2d4:	91000a94 	add	x20, x20, #0x2
    a2d8:	d37df294 	lsl	x20, x20, #3
    a2dc:	aa1403e1 	mov	x1, x20
    a2e0:	940010d5 	bl	e634 <realloc>
    a2e4:	f9000660 	str	x0, [x19, #8]
    a2e8:	b5000820 	cbnz	x0, a3ec <__utee_tcb_init+0x22c>
    a2ec:	f0000024 	adrp	x4, 11000 <errmsgstr+0x177>
    a2f0:	aa1403e5 	mov	x5, x20
    a2f4:	91319484 	add	x4, x4, #0xc65
    a2f8:	52800023 	mov	w3, #0x1                   	// #1
    a2fc:	52800022 	mov	w2, #0x1                   	// #1
    a300:	52801041 	mov	w1, #0x82                  	// #130
    a304:	17ffffed 	b	a2b8 <__utee_tcb_init+0xf8>
    a308:	f940043c 	ldr	x28, [x1, #8]
    a30c:	91000414 	add	x20, x0, #0x1
    a310:	d2800003 	mov	x3, #0x0                   	// #0
    a314:	d37df285 	lsl	x5, x20, #3
    a318:	8b001b9c 	add	x28, x28, x0, lsl #6
    a31c:	79403380 	ldrh	w0, [x28, #24]
    a320:	eb03001f 	cmp	x0, x3
    a324:	54000248 	b.hi	a36c <__utee_tcb_init+0x1ac>  // b.pmore
    a328:	aa1403e0 	mov	x0, x20
    a32c:	f940cee1 	ldr	x1, [x23, #408]
    a330:	79400822 	ldrh	w2, [x1, #4]
    a334:	eb02001f 	cmp	x0, x2
    a338:	54fffe83 	b.cc	a308 <__utee_tcb_init+0x148>  // b.lo, b.ul, b.last
    a33c:	f9400661 	ldr	x1, [x19, #8]
    a340:	f90406d9 	str	x25, [x22, #2056]
    a344:	f9000020 	str	x0, [x1]
    a348:	d51bd053 	msr	tpidr_el0, x19
    a34c:	aa1303e0 	mov	x0, x19
    a350:	a94153f3 	ldp	x19, x20, [sp, #16]
    a354:	a9425bf5 	ldp	x21, x22, [sp, #32]
    a358:	a94363f7 	ldp	x23, x24, [sp, #48]
    a35c:	a9446bf9 	ldp	x25, x26, [sp, #64]
    a360:	a94573fb 	ldp	x27, x28, [sp, #80]
    a364:	a8c87bfd 	ldp	x29, x30, [sp], #128
    a368:	14000fe5 	b	e2fc <set_pthread_stub>
    a36c:	9b047c60 	mul	x0, x3, x4
    a370:	f9400b81 	ldr	x1, [x28, #16]
    a374:	8b000035 	add	x21, x1, x0
    a378:	b8606820 	ldr	w0, [x1, x0]
    a37c:	71001c1f 	cmp	w0, #0x7
    a380:	54000321 	b.ne	a3e4 <__utee_tcb_init+0x224>  // b.any
    a384:	f94016a0 	ldr	x0, [x21, #40]
    a388:	f9003fe3 	str	x3, [sp, #120]
    a38c:	8b000340 	add	x0, x26, x0
    a390:	eb00031f 	cmp	x24, x0
    a394:	54fffca2 	b.cs	a328 <__utee_tcb_init+0x168>  // b.hs, b.nlast
    a398:	f9400661 	ldr	x1, [x19, #8]
    a39c:	8b1a0360 	add	x0, x27, x26
    a3a0:	f9400386 	ldr	x6, [x28]
    a3a4:	a90693e5 	stp	x5, x4, [sp, #104]
    a3a8:	f94012a2 	ldr	x2, [x21, #32]
    a3ac:	f8256820 	str	x0, [x1, x5]
    a3b0:	f9400aa1 	ldr	x1, [x21, #16]
    a3b4:	8b0100c1 	add	x1, x6, x1
    a3b8:	97ffe8ac 	bl	4668 <memcpy>
    a3bc:	a9420aa1 	ldp	x1, x2, [x21, #32]
    a3c0:	8b1a0020 	add	x0, x1, x26
    a3c4:	cb010042 	sub	x2, x2, x1
    a3c8:	8b000360 	add	x0, x27, x0
    a3cc:	52800001 	mov	w1, #0x0                   	// #0
    a3d0:	97ffe98f 	bl	4a0c <memset>
    a3d4:	f94016a0 	ldr	x0, [x21, #40]
    a3d8:	a94693e5 	ldp	x5, x4, [sp, #104]
    a3dc:	8b00035a 	add	x26, x26, x0
    a3e0:	f9403fe3 	ldr	x3, [sp, #120]
    a3e4:	91000463 	add	x3, x3, #0x1
    a3e8:	17ffffcd 	b	a31c <__utee_tcb_init+0x15c>
    a3ec:	9100627b 	add	x27, x19, #0x18
    a3f0:	d2800000 	mov	x0, #0x0                   	// #0
    a3f4:	d280001a 	mov	x26, #0x0                   	// #0
    a3f8:	d2800704 	mov	x4, #0x38                  	// #56
    a3fc:	17ffffcc 	b	a32c <__utee_tcb_init+0x16c>

000000000000a400 <__tls_get_addr>:
    a400:	90000061 	adrp	x1, 16000 <data.4829+0x2800>
    a404:	a9400002 	ldp	x2, x0, [x0]
    a408:	f9440821 	ldr	x1, [x1, #2064]
    a40c:	f9400421 	ldr	x1, [x1, #8]
    a410:	f8627821 	ldr	x1, [x1, x2, lsl #3]
    a414:	8b000020 	add	x0, x1, x0
    a418:	d65f03c0 	ret

000000000000a41c <dl_iterate_phdr>:
    a41c:	a9bb7bfd 	stp	x29, x30, [sp, #-80]!
    a420:	910003fd 	mov	x29, sp
    a424:	a90153f3 	stp	x19, x20, [sp, #16]
    a428:	a9025bf5 	stp	x21, x22, [sp, #32]
    a42c:	a90363f7 	stp	x23, x24, [sp, #48]
    a430:	aa0003f7 	mov	x23, x0
    a434:	aa0103f8 	mov	x24, x1
    a438:	d2800020 	mov	x0, #0x1                   	// #1
    a43c:	d2800801 	mov	x1, #0x40                  	// #64
    a440:	f90023f9 	str	x25, [sp, #64]
    a444:	9400104c 	bl	e574 <calloc>
    a448:	b5000520 	cbnz	x0, a4ec <dl_iterate_phdr+0xd0>
    a44c:	f0000020 	adrp	x0, 11000 <errmsgstr+0x177>
    a450:	91329800 	add	x0, x0, #0xca6
    a454:	91004000 	add	x0, x0, #0x10
    a458:	f0000024 	adrp	x4, 11000 <errmsgstr+0x177>
    a45c:	91321c84 	add	x4, x4, #0xc87
    a460:	52800023 	mov	w3, #0x1                   	// #1
    a464:	52800022 	mov	w2, #0x1                   	// #1
    a468:	528018e1 	mov	w1, #0xc7                  	// #199
    a46c:	97ffeaa1 	bl	4ef0 <trace_printf>
    a470:	97fff2b5 	bl	6f44 <abort>
    a474:	f94006c1 	ldr	x1, [x22, #8]
    a478:	aa1303e0 	mov	x0, x19
    a47c:	d2800802 	mov	x2, #0x40                  	// #64
    a480:	8b151821 	add	x1, x1, x21, lsl #6
    a484:	97ffe879 	bl	4668 <memcpy>
    a488:	f9401a60 	ldr	x0, [x19, #48]
    a48c:	f9001e7f 	str	xzr, [x19, #56]
    a490:	b40000a0 	cbz	x0, a4a4 <dl_iterate_phdr+0x88>
    a494:	f9400721 	ldr	x1, [x25, #8]
    a498:	f9400421 	ldr	x1, [x1, #8]
    a49c:	f8607820 	ldr	x0, [x1, x0, lsl #3]
    a4a0:	f9001e60 	str	x0, [x19, #56]
    a4a4:	aa1803e2 	mov	x2, x24
    a4a8:	aa1303e0 	mov	x0, x19
    a4ac:	d2800801 	mov	x1, #0x40                  	// #64
    a4b0:	910006b5 	add	x21, x21, #0x1
    a4b4:	d63f02e0 	blr	x23
    a4b8:	2a0003f4 	mov	w20, w0
    a4bc:	79400ac0 	ldrh	w0, [x22, #4]
    a4c0:	eb15001f 	cmp	x0, x21
    a4c4:	54fffd88 	b.hi	a474 <dl_iterate_phdr+0x58>  // b.pmore
    a4c8:	aa1303e0 	mov	x0, x19
    a4cc:	97ffeacb 	bl	4ff8 <free>
    a4d0:	2a1403e0 	mov	w0, w20
    a4d4:	a94153f3 	ldp	x19, x20, [sp, #16]
    a4d8:	a9425bf5 	ldp	x21, x22, [sp, #32]
    a4dc:	a94363f7 	ldp	x23, x24, [sp, #48]
    a4e0:	f94023f9 	ldr	x25, [sp, #64]
    a4e4:	a8c57bfd 	ldp	x29, x30, [sp], #80
    a4e8:	d65f03c0 	ret
    a4ec:	b0000056 	adrp	x22, 13000 <_DYNAMIC>
    a4f0:	90000079 	adrp	x25, 16000 <data.4829+0x2800>
    a4f4:	aa0003f3 	mov	x19, x0
    a4f8:	91202339 	add	x25, x25, #0x808
    a4fc:	f940ced6 	ldr	x22, [x22, #408]
    a500:	52800014 	mov	w20, #0x0                   	// #0
    a504:	d2800015 	mov	x21, #0x0                   	// #0
    a508:	17ffffed 	b	a4bc <dl_iterate_phdr+0xa0>

000000000000a50c <_assert_log>:
    a50c:	d10083ff 	sub	sp, sp, #0x20
    a510:	2a0203e7 	mov	w7, w2
    a514:	aa0103e6 	mov	x6, x1
    a518:	aa0003e5 	mov	x5, x0
    a51c:	52800022 	mov	w2, #0x1                   	// #1
    a520:	52800001 	mov	w1, #0x0                   	// #0
    a524:	a9017bfd 	stp	x29, x30, [sp, #16]
    a528:	910043fd 	add	x29, sp, #0x10
    a52c:	d2800000 	mov	x0, #0x0                   	// #0
    a530:	f0000024 	adrp	x4, 11000 <errmsgstr+0x177>
    a534:	f90003e3 	str	x3, [sp]
    a538:	91331884 	add	x4, x4, #0xcc6
    a53c:	52800023 	mov	w3, #0x1                   	// #1
    a540:	97ffea6c 	bl	4ef0 <trace_printf>
    a544:	a9417bfd 	ldp	x29, x30, [sp, #16]
    a548:	910083ff 	add	sp, sp, #0x20
    a54c:	d65f03c0 	ret

000000000000a550 <_assert_break>:
    a550:	a9bf7bfd 	stp	x29, x30, [sp, #-16]!
    a554:	d2bfffe0 	mov	x0, #0xffff0000            	// #4294901760
    a558:	910003fd 	mov	x29, sp
    a55c:	97fff3ba 	bl	7444 <_utee_panic>
    a560:	14000000 	b	a560 <_assert_break+0x10>

000000000000a564 <mpi_get_digit>:
    a564:	12001c42 	and	w2, w2, #0xff
    a568:	5100c043 	sub	w3, w2, #0x30
    a56c:	12001c64 	and	w4, w3, #0xff
    a570:	7100249f 	cmp	w4, #0x9
    a574:	540000e8 	b.hi	a590 <mpi_get_digit+0x2c>  // b.pmore
    a578:	b9000003 	str	w3, [x0]
    a57c:	b9400000 	ldr	w0, [x0]
    a580:	6b01001f 	cmp	w0, w1
    a584:	128000a0 	mov	w0, #0xfffffffa            	// #-6
    a588:	1a9f2000 	csel	w0, w0, wzr, cs  // cs = hs, nlast
    a58c:	d65f03c0 	ret
    a590:	51010443 	sub	w3, w2, #0x41
    a594:	12001c63 	and	w3, w3, #0xff
    a598:	7100147f 	cmp	w3, #0x5
    a59c:	54000088 	b.hi	a5ac <mpi_get_digit+0x48>  // b.pmore
    a5a0:	5100dc42 	sub	w2, w2, #0x37
    a5a4:	b9000002 	str	w2, [x0]
    a5a8:	17fffff5 	b	a57c <mpi_get_digit+0x18>
    a5ac:	51018443 	sub	w3, w2, #0x61
    a5b0:	51015c42 	sub	w2, w2, #0x57
    a5b4:	12001c63 	and	w3, w3, #0xff
    a5b8:	7100187f 	cmp	w3, #0x6
    a5bc:	52801fe3 	mov	w3, #0xff                  	// #255
    a5c0:	1a833042 	csel	w2, w2, w3, cc  // cc = lo, ul, last
    a5c4:	17fffff8 	b	a5a4 <mpi_get_digit+0x40>

000000000000a5c8 <mpi_sub_hlp>:
    a5c8:	52800005 	mov	w5, #0x0                   	// #0
    a5cc:	d2800003 	mov	x3, #0x0                   	// #0
    a5d0:	eb00007f 	cmp	x3, x0
    a5d4:	54000081 	b.ne	a5e4 <mpi_sub_hlp+0x1c>  // b.any
    a5d8:	8b030843 	add	x3, x2, x3, lsl #2
    a5dc:	350001c5 	cbnz	w5, a614 <mpi_sub_hlp+0x4c>
    a5e0:	d65f03c0 	ret
    a5e4:	b8637844 	ldr	w4, [x2, x3, lsl #2]
    a5e8:	6b05009f 	cmp	w4, w5
    a5ec:	4b050084 	sub	w4, w4, w5
    a5f0:	b8237844 	str	w4, [x2, x3, lsl #2]
    a5f4:	1a9f27e7 	cset	w7, cc  // cc = lo, ul, last
    a5f8:	b8637826 	ldr	w6, [x1, x3, lsl #2]
    a5fc:	6b06009f 	cmp	w4, w6
    a600:	4b060084 	sub	w4, w4, w6
    a604:	1a8724e5 	cinc	w5, w7, cc  // cc = lo, ul, last
    a608:	b8237844 	str	w4, [x2, x3, lsl #2]
    a60c:	91000463 	add	x3, x3, #0x1
    a610:	17fffff0 	b	a5d0 <mpi_sub_hlp+0x8>
    a614:	b9400060 	ldr	w0, [x3]
    a618:	6b050005 	subs	w5, w0, w5
    a61c:	b8004465 	str	w5, [x3], #4
    a620:	1a9f27e5 	cset	w5, cc  // cc = lo, ul, last
    a624:	17ffffee 	b	a5dc <mpi_sub_hlp+0x14>

000000000000a628 <mpi_mul_hlp>:
    a628:	aa0203e4 	mov	x4, x2
    a62c:	aa0103e6 	mov	x6, x1
    a630:	aa0003e9 	mov	x9, x0
    a634:	52800005 	mov	w5, #0x0                   	// #0
    a638:	b940008a 	ldr	w10, [x4]
    a63c:	f1003d3f 	cmp	x9, #0xf
    a640:	54000bc8 	b.hi	a7b8 <mpi_mul_hlp+0x190>  // b.pmore
    a644:	d344fc04 	lsr	x4, x0, #4
    a648:	928001e6 	mov	x6, #0xfffffffffffffff0    	// #-16
    a64c:	d37ae488 	lsl	x8, x4, #6
    a650:	9b060080 	madd	x0, x4, x6, x0
    a654:	8b041826 	add	x6, x1, x4, lsl #6
    a658:	8b041844 	add	x4, x2, x4, lsl #6
    a65c:	f1001c1f 	cmp	x0, #0x7
    a660:	54000969 	b.ls	a78c <mpi_mul_hlp+0x164>  // b.plast
    a664:	b8686827 	ldr	w7, [x1, x8]
    a668:	d1002000 	sub	x0, x0, #0x8
    a66c:	910080c6 	add	x6, x6, #0x20
    a670:	91008084 	add	x4, x4, #0x20
    a674:	9ba77c67 	umull	x7, w3, w7
    a678:	d360fce1 	lsr	x1, x7, #32
    a67c:	2b0700a7 	adds	w7, w5, w7
    a680:	1a813421 	cinc	w1, w1, cs  // cs = hs, nlast
    a684:	2b070145 	adds	w5, w10, w7
    a688:	b8286845 	str	w5, [x2, x8]
    a68c:	1a813421 	cinc	w1, w1, cs  // cs = hs, nlast
    a690:	b85e40c5 	ldur	w5, [x6, #-28]
    a694:	9ba57c65 	umull	x5, w3, w5
    a698:	2b050021 	adds	w1, w1, w5
    a69c:	d360fca2 	lsr	x2, x5, #32
    a6a0:	b85e4085 	ldur	w5, [x4, #-28]
    a6a4:	1a823442 	cinc	w2, w2, cs  // cs = hs, nlast
    a6a8:	2b050021 	adds	w1, w1, w5
    a6ac:	b81e4081 	stur	w1, [x4, #-28]
    a6b0:	1a823442 	cinc	w2, w2, cs  // cs = hs, nlast
    a6b4:	b85e80c5 	ldur	w5, [x6, #-24]
    a6b8:	9ba57c65 	umull	x5, w3, w5
    a6bc:	2b050042 	adds	w2, w2, w5
    a6c0:	d360fca1 	lsr	x1, x5, #32
    a6c4:	b85e8085 	ldur	w5, [x4, #-24]
    a6c8:	1a813421 	cinc	w1, w1, cs  // cs = hs, nlast
    a6cc:	2b050042 	adds	w2, w2, w5
    a6d0:	b81e8082 	stur	w2, [x4, #-24]
    a6d4:	1a813421 	cinc	w1, w1, cs  // cs = hs, nlast
    a6d8:	b85ec0c5 	ldur	w5, [x6, #-20]
    a6dc:	9ba57c65 	umull	x5, w3, w5
    a6e0:	2b050021 	adds	w1, w1, w5
    a6e4:	d360fca2 	lsr	x2, x5, #32
    a6e8:	b85ec085 	ldur	w5, [x4, #-20]
    a6ec:	1a823442 	cinc	w2, w2, cs  // cs = hs, nlast
    a6f0:	2b050021 	adds	w1, w1, w5
    a6f4:	b81ec081 	stur	w1, [x4, #-20]
    a6f8:	1a823442 	cinc	w2, w2, cs  // cs = hs, nlast
    a6fc:	b85f00c5 	ldur	w5, [x6, #-16]
    a700:	9ba57c65 	umull	x5, w3, w5
    a704:	2b050042 	adds	w2, w2, w5
    a708:	d360fca1 	lsr	x1, x5, #32
    a70c:	b85f0085 	ldur	w5, [x4, #-16]
    a710:	1a813421 	cinc	w1, w1, cs  // cs = hs, nlast
    a714:	2b050042 	adds	w2, w2, w5
    a718:	b81f0082 	stur	w2, [x4, #-16]
    a71c:	1a813421 	cinc	w1, w1, cs  // cs = hs, nlast
    a720:	b85f40c5 	ldur	w5, [x6, #-12]
    a724:	9ba57c65 	umull	x5, w3, w5
    a728:	2b050021 	adds	w1, w1, w5
    a72c:	d360fca2 	lsr	x2, x5, #32
    a730:	b85f4085 	ldur	w5, [x4, #-12]
    a734:	1a823442 	cinc	w2, w2, cs  // cs = hs, nlast
    a738:	2b050021 	adds	w1, w1, w5
    a73c:	b81f4081 	stur	w1, [x4, #-12]
    a740:	1a823442 	cinc	w2, w2, cs  // cs = hs, nlast
    a744:	b85f80c5 	ldur	w5, [x6, #-8]
    a748:	9ba57c65 	umull	x5, w3, w5
    a74c:	2b050042 	adds	w2, w2, w5
    a750:	d360fca1 	lsr	x1, x5, #32
    a754:	b85f8085 	ldur	w5, [x4, #-8]
    a758:	1a813421 	cinc	w1, w1, cs  // cs = hs, nlast
    a75c:	2b050042 	adds	w2, w2, w5
    a760:	b81f8082 	stur	w2, [x4, #-8]
    a764:	1a813421 	cinc	w1, w1, cs  // cs = hs, nlast
    a768:	b85fc0c2 	ldur	w2, [x6, #-4]
    a76c:	9ba27c62 	umull	x2, w3, w2
    a770:	2b020021 	adds	w1, w1, w2
    a774:	d360fc45 	lsr	x5, x2, #32
    a778:	b85fc082 	ldur	w2, [x4, #-4]
    a77c:	1a8534a5 	cinc	w5, w5, cs  // cs = hs, nlast
    a780:	2b020021 	adds	w1, w1, w2
    a784:	b81fc081 	stur	w1, [x4, #-4]
    a788:	1a8534a5 	cinc	w5, w5, cs  // cs = hs, nlast
    a78c:	d2800001 	mov	x1, #0x0                   	// #0
    a790:	b8617887 	ldr	w7, [x4, x1, lsl #2]
    a794:	eb00003f 	cmp	x1, x0
    a798:	54001361 	b.ne	aa04 <mpi_mul_hlp+0x3dc>  // b.any
    a79c:	8b010884 	add	x4, x4, x1, lsl #2
    a7a0:	b9400080 	ldr	w0, [x4]
    a7a4:	2b050005 	adds	w5, w0, w5
    a7a8:	b8004485 	str	w5, [x4], #4
    a7ac:	52800025 	mov	w5, #0x1                   	// #1
    a7b0:	54ffff82 	b.cs	a7a0 <mpi_mul_hlp+0x178>  // b.hs, b.nlast
    a7b4:	d65f03c0 	ret
    a7b8:	b94000c7 	ldr	w7, [x6]
    a7bc:	910100c6 	add	x6, x6, #0x40
    a7c0:	91010084 	add	x4, x4, #0x40
    a7c4:	d1004129 	sub	x9, x9, #0x10
    a7c8:	9ba77c67 	umull	x7, w3, w7
    a7cc:	2b0700a5 	adds	w5, w5, w7
    a7d0:	d360fce8 	lsr	x8, x7, #32
    a7d4:	1a883508 	cinc	w8, w8, cs  // cs = hs, nlast
    a7d8:	2b0a00a5 	adds	w5, w5, w10
    a7dc:	b81c0085 	stur	w5, [x4, #-64]
    a7e0:	b85c40c7 	ldur	w7, [x6, #-60]
    a7e4:	9ba77c6a 	umull	x10, w3, w7
    a7e8:	1a883507 	cinc	w7, w8, cs  // cs = hs, nlast
    a7ec:	2b0a00e7 	adds	w7, w7, w10
    a7f0:	d360fd45 	lsr	x5, x10, #32
    a7f4:	1a8534a8 	cinc	w8, w5, cs  // cs = hs, nlast
    a7f8:	b85c4085 	ldur	w5, [x4, #-60]
    a7fc:	2b0700a7 	adds	w7, w5, w7
    a800:	b81c4087 	stur	w7, [x4, #-60]
    a804:	b85c80c5 	ldur	w5, [x6, #-56]
    a808:	9ba57c6a 	umull	x10, w3, w5
    a80c:	1a883505 	cinc	w5, w8, cs  // cs = hs, nlast
    a810:	2b0a00a5 	adds	w5, w5, w10
    a814:	d360fd47 	lsr	x7, x10, #32
    a818:	1a8734e8 	cinc	w8, w7, cs  // cs = hs, nlast
    a81c:	b85c8087 	ldur	w7, [x4, #-56]
    a820:	2b0500e5 	adds	w5, w7, w5
    a824:	b81c8085 	stur	w5, [x4, #-56]
    a828:	b85cc0c7 	ldur	w7, [x6, #-52]
    a82c:	9ba77c6a 	umull	x10, w3, w7
    a830:	1a883507 	cinc	w7, w8, cs  // cs = hs, nlast
    a834:	2b0a00e7 	adds	w7, w7, w10
    a838:	d360fd45 	lsr	x5, x10, #32
    a83c:	1a8534a8 	cinc	w8, w5, cs  // cs = hs, nlast
    a840:	b85cc085 	ldur	w5, [x4, #-52]
    a844:	2b0700a7 	adds	w7, w5, w7
    a848:	b81cc087 	stur	w7, [x4, #-52]
    a84c:	b85d00c5 	ldur	w5, [x6, #-48]
    a850:	9ba57c6a 	umull	x10, w3, w5
    a854:	1a883505 	cinc	w5, w8, cs  // cs = hs, nlast
    a858:	2b0a00a5 	adds	w5, w5, w10
    a85c:	d360fd47 	lsr	x7, x10, #32
    a860:	1a8734e8 	cinc	w8, w7, cs  // cs = hs, nlast
    a864:	b85d0087 	ldur	w7, [x4, #-48]
    a868:	2b0500e5 	adds	w5, w7, w5
    a86c:	b81d0085 	stur	w5, [x4, #-48]
    a870:	b85d40c7 	ldur	w7, [x6, #-44]
    a874:	9ba77c6a 	umull	x10, w3, w7
    a878:	1a883507 	cinc	w7, w8, cs  // cs = hs, nlast
    a87c:	2b0a00e7 	adds	w7, w7, w10
    a880:	d360fd45 	lsr	x5, x10, #32
    a884:	1a8534a8 	cinc	w8, w5, cs  // cs = hs, nlast
    a888:	b85d4085 	ldur	w5, [x4, #-44]
    a88c:	2b0700a7 	adds	w7, w5, w7
    a890:	b81d4087 	stur	w7, [x4, #-44]
    a894:	b85d80c5 	ldur	w5, [x6, #-40]
    a898:	9ba57c6a 	umull	x10, w3, w5
    a89c:	1a883505 	cinc	w5, w8, cs  // cs = hs, nlast
    a8a0:	2b0a00a5 	adds	w5, w5, w10
    a8a4:	d360fd47 	lsr	x7, x10, #32
    a8a8:	1a8734e8 	cinc	w8, w7, cs  // cs = hs, nlast
    a8ac:	b85d8087 	ldur	w7, [x4, #-40]
    a8b0:	2b0500e5 	adds	w5, w7, w5
    a8b4:	b81d8085 	stur	w5, [x4, #-40]
    a8b8:	b85dc0c7 	ldur	w7, [x6, #-36]
    a8bc:	9ba77c6a 	umull	x10, w3, w7
    a8c0:	1a883507 	cinc	w7, w8, cs  // cs = hs, nlast
    a8c4:	2b0a00e7 	adds	w7, w7, w10
    a8c8:	d360fd45 	lsr	x5, x10, #32
    a8cc:	1a8534a8 	cinc	w8, w5, cs  // cs = hs, nlast
    a8d0:	b85dc085 	ldur	w5, [x4, #-36]
    a8d4:	2b0700a7 	adds	w7, w5, w7
    a8d8:	b81dc087 	stur	w7, [x4, #-36]
    a8dc:	b85e00c5 	ldur	w5, [x6, #-32]
    a8e0:	9ba57c6a 	umull	x10, w3, w5
    a8e4:	1a883505 	cinc	w5, w8, cs  // cs = hs, nlast
    a8e8:	2b0a00a5 	adds	w5, w5, w10
    a8ec:	d360fd47 	lsr	x7, x10, #32
    a8f0:	1a8734e8 	cinc	w8, w7, cs  // cs = hs, nlast
    a8f4:	b85e0087 	ldur	w7, [x4, #-32]
    a8f8:	2b0500e5 	adds	w5, w7, w5
    a8fc:	b81e0085 	stur	w5, [x4, #-32]
    a900:	b85e40c7 	ldur	w7, [x6, #-28]
    a904:	9ba77c6a 	umull	x10, w3, w7
    a908:	1a883507 	cinc	w7, w8, cs  // cs = hs, nlast
    a90c:	2b0a00e7 	adds	w7, w7, w10
    a910:	d360fd45 	lsr	x5, x10, #32
    a914:	1a8534a8 	cinc	w8, w5, cs  // cs = hs, nlast
    a918:	b85e4085 	ldur	w5, [x4, #-28]
    a91c:	2b0700a7 	adds	w7, w5, w7
    a920:	b81e4087 	stur	w7, [x4, #-28]
    a924:	b85e80c5 	ldur	w5, [x6, #-24]
    a928:	9ba57c6a 	umull	x10, w3, w5
    a92c:	1a883505 	cinc	w5, w8, cs  // cs = hs, nlast
    a930:	2b0a00a5 	adds	w5, w5, w10
    a934:	d360fd47 	lsr	x7, x10, #32
    a938:	1a8734e8 	cinc	w8, w7, cs  // cs = hs, nlast
    a93c:	b85e8087 	ldur	w7, [x4, #-24]
    a940:	2b0500e5 	adds	w5, w7, w5
    a944:	b81e8085 	stur	w5, [x4, #-24]
    a948:	b85ec0c7 	ldur	w7, [x6, #-20]
    a94c:	9ba77c6a 	umull	x10, w3, w7
    a950:	1a883507 	cinc	w7, w8, cs  // cs = hs, nlast
    a954:	2b0a00e7 	adds	w7, w7, w10
    a958:	d360fd45 	lsr	x5, x10, #32
    a95c:	1a8534a8 	cinc	w8, w5, cs  // cs = hs, nlast
    a960:	b85ec085 	ldur	w5, [x4, #-20]
    a964:	2b0700a7 	adds	w7, w5, w7
    a968:	b81ec087 	stur	w7, [x4, #-20]
    a96c:	b85f00c5 	ldur	w5, [x6, #-16]
    a970:	9ba57c6a 	umull	x10, w3, w5
    a974:	1a883505 	cinc	w5, w8, cs  // cs = hs, nlast
    a978:	2b0a00a5 	adds	w5, w5, w10
    a97c:	d360fd47 	lsr	x7, x10, #32
    a980:	1a8734e8 	cinc	w8, w7, cs  // cs = hs, nlast
    a984:	b85f0087 	ldur	w7, [x4, #-16]
    a988:	2b0500e5 	adds	w5, w7, w5
    a98c:	b81f0085 	stur	w5, [x4, #-16]
    a990:	b85f40c7 	ldur	w7, [x6, #-12]
    a994:	9ba77c6a 	umull	x10, w3, w7
    a998:	1a883507 	cinc	w7, w8, cs  // cs = hs, nlast
    a99c:	2b0a00e7 	adds	w7, w7, w10
    a9a0:	d360fd45 	lsr	x5, x10, #32
    a9a4:	1a8534a8 	cinc	w8, w5, cs  // cs = hs, nlast
    a9a8:	b85f4085 	ldur	w5, [x4, #-12]
    a9ac:	2b0700a7 	adds	w7, w5, w7
    a9b0:	b81f4087 	stur	w7, [x4, #-12]
    a9b4:	b85f80c5 	ldur	w5, [x6, #-8]
    a9b8:	9ba57c6a 	umull	x10, w3, w5
    a9bc:	1a883505 	cinc	w5, w8, cs  // cs = hs, nlast
    a9c0:	2b0a00a5 	adds	w5, w5, w10
    a9c4:	d360fd47 	lsr	x7, x10, #32
    a9c8:	1a8734e8 	cinc	w8, w7, cs  // cs = hs, nlast
    a9cc:	b85f8087 	ldur	w7, [x4, #-8]
    a9d0:	2b0500e5 	adds	w5, w7, w5
    a9d4:	b81f8085 	stur	w5, [x4, #-8]
    a9d8:	b85fc0c7 	ldur	w7, [x6, #-4]
    a9dc:	9ba77c6a 	umull	x10, w3, w7
    a9e0:	1a883507 	cinc	w7, w8, cs  // cs = hs, nlast
    a9e4:	b85fc088 	ldur	w8, [x4, #-4]
    a9e8:	2b0a00e7 	adds	w7, w7, w10
    a9ec:	d360fd45 	lsr	x5, x10, #32
    a9f0:	1a8534a5 	cinc	w5, w5, cs  // cs = hs, nlast
    a9f4:	2b070107 	adds	w7, w8, w7
    a9f8:	1a8534a5 	cinc	w5, w5, cs  // cs = hs, nlast
    a9fc:	b81fc087 	stur	w7, [x4, #-4]
    aa00:	17ffff0e 	b	a638 <mpi_mul_hlp+0x10>
    aa04:	b86178c2 	ldr	w2, [x6, x1, lsl #2]
    aa08:	9ba27c62 	umull	x2, w3, w2
    aa0c:	d360fc48 	lsr	x8, x2, #32
    aa10:	2b0200a2 	adds	w2, w5, w2
    aa14:	1a883505 	cinc	w5, w8, cs  // cs = hs, nlast
    aa18:	2b0200e2 	adds	w2, w7, w2
    aa1c:	1a8534a5 	cinc	w5, w5, cs  // cs = hs, nlast
    aa20:	b8217882 	str	w2, [x4, x1, lsl #2]
    aa24:	91000421 	add	x1, x1, #0x1
    aa28:	17ffff5a 	b	a790 <mpi_mul_hlp+0x168>

000000000000aa2c <mpi_bigendian_to_host.part.0>:
    aa2c:	d10043ff 	sub	sp, sp, #0x10
    aa30:	8b010801 	add	x1, x0, x1, lsl #2
    aa34:	d1001021 	sub	x1, x1, #0x4
    aa38:	910033e5 	add	x5, sp, #0xc
    aa3c:	eb01001f 	cmp	x0, x1
    aa40:	54000069 	b.ls	aa4c <mpi_bigendian_to_host.part.0+0x20>  // b.plast
    aa44:	910043ff 	add	sp, sp, #0x10
    aa48:	d65f03c0 	ret
    aa4c:	b9400002 	ldr	w2, [x0]
    aa50:	52800003 	mov	w3, #0x0                   	// #0
    aa54:	b9000fe2 	str	w2, [sp, #12]
    aa58:	d2800002 	mov	x2, #0x0                   	// #0
    aa5c:	38656844 	ldrb	w4, [x2, x5]
    aa60:	91000442 	add	x2, x2, #0x1
    aa64:	f100105f 	cmp	x2, #0x4
    aa68:	2a032083 	orr	w3, w4, w3, lsl #8
    aa6c:	54ffff81 	b.ne	aa5c <mpi_bigendian_to_host.part.0+0x30>  // b.any
    aa70:	b9400022 	ldr	w2, [x1]
    aa74:	52800004 	mov	w4, #0x0                   	// #0
    aa78:	b9000fe2 	str	w2, [sp, #12]
    aa7c:	d2800002 	mov	x2, #0x0                   	// #0
    aa80:	386268a6 	ldrb	w6, [x5, x2]
    aa84:	91000442 	add	x2, x2, #0x1
    aa88:	f100105f 	cmp	x2, #0x4
    aa8c:	2a0420c4 	orr	w4, w6, w4, lsl #8
    aa90:	54ffff81 	b.ne	aa80 <mpi_bigendian_to_host.part.0+0x54>  // b.any
    aa94:	b8004404 	str	w4, [x0], #4
    aa98:	b81fc423 	str	w3, [x1], #-4
    aa9c:	17ffffe8 	b	aa3c <mpi_bigendian_to_host.part.0+0x10>

000000000000aaa0 <mbedtls_mpi_init>:
    aaa0:	52800021 	mov	w1, #0x1                   	// #1
    aaa4:	b9000001 	str	w1, [x0]
    aaa8:	a900fc1f 	stp	xzr, xzr, [x0, #8]
    aaac:	d65f03c0 	ret

000000000000aab0 <mbedtls_mpi_init_mempool>:
    aab0:	b0000041 	adrp	x1, 13000 <_DYNAMIC>
    aab4:	52800022 	mov	w2, #0x1                   	// #1
    aab8:	a900fc1f 	stp	xzr, xzr, [x0, #8]
    aabc:	f940d821 	ldr	x1, [x1, #432]
    aac0:	f9400021 	ldr	x1, [x1]
    aac4:	79000002 	strh	w2, [x0]
    aac8:	f100003f 	cmp	x1, #0x0
    aacc:	1a9f07e1 	cset	w1, ne  // ne = any
    aad0:	79000401 	strh	w1, [x0, #2]
    aad4:	d65f03c0 	ret

000000000000aad8 <mbedtls_mpi_free>:
    aad8:	b4000340 	cbz	x0, ab40 <mbedtls_mpi_free+0x68>
    aadc:	a9be7bfd 	stp	x29, x30, [sp, #-32]!
    aae0:	910003fd 	mov	x29, sp
    aae4:	f9000bf3 	str	x19, [sp, #16]
    aae8:	aa0003f3 	mov	x19, x0
    aaec:	f9400800 	ldr	x0, [x0, #16]
    aaf0:	b4000160 	cbz	x0, ab1c <mbedtls_mpi_free+0x44>
    aaf4:	f9400661 	ldr	x1, [x19, #8]
    aaf8:	d37ef421 	lsl	x1, x1, #2
    aafc:	94000dd9 	bl	e260 <mbedtls_platform_zeroize>
    ab00:	79c00660 	ldrsh	w0, [x19, #2]
    ab04:	34000180 	cbz	w0, ab34 <mbedtls_mpi_free+0x5c>
    ab08:	b0000040 	adrp	x0, 13000 <_DYNAMIC>
    ab0c:	f9400a61 	ldr	x1, [x19, #16]
    ab10:	f940d800 	ldr	x0, [x0, #432]
    ab14:	f9400000 	ldr	x0, [x0]
    ab18:	94000fb9 	bl	e9fc <mempool_free>
    ab1c:	52800020 	mov	w0, #0x1                   	// #1
    ab20:	79000260 	strh	w0, [x19]
    ab24:	a900fe7f 	stp	xzr, xzr, [x19, #8]
    ab28:	f9400bf3 	ldr	x19, [sp, #16]
    ab2c:	a8c27bfd 	ldp	x29, x30, [sp], #32
    ab30:	d65f03c0 	ret
    ab34:	f9400a60 	ldr	x0, [x19, #16]
    ab38:	97ffe930 	bl	4ff8 <free>
    ab3c:	17fffff8 	b	ab1c <mbedtls_mpi_free+0x44>
    ab40:	d65f03c0 	ret

000000000000ab44 <mbedtls_mpi_grow>:
    ab44:	a9bd7bfd 	stp	x29, x30, [sp, #-48]!
    ab48:	910003fd 	mov	x29, sp
    ab4c:	a90153f3 	stp	x19, x20, [sp, #16]
    ab50:	aa0003f3 	mov	x19, x0
    ab54:	d284e200 	mov	x0, #0x2710                	// #10000
    ab58:	a9025bf5 	stp	x21, x22, [sp, #32]
    ab5c:	eb00003f 	cmp	x1, x0
    ab60:	540000c9 	b.ls	ab78 <mbedtls_mpi_grow+0x34>  // b.plast
    ab64:	128001e0 	mov	w0, #0xfffffff0            	// #-16
    ab68:	a94153f3 	ldp	x19, x20, [sp, #16]
    ab6c:	a9425bf5 	ldp	x21, x22, [sp, #32]
    ab70:	a8c37bfd 	ldp	x29, x30, [sp], #48
    ab74:	d65f03c0 	ret
    ab78:	f9400660 	ldr	x0, [x19, #8]
    ab7c:	aa0103f5 	mov	x21, x1
    ab80:	eb01001f 	cmp	x0, x1
    ab84:	540003e2 	b.cs	ac00 <mbedtls_mpi_grow+0xbc>  // b.hs, b.nlast
    ab88:	79c00660 	ldrsh	w0, [x19, #2]
    ab8c:	340003e0 	cbz	w0, ac08 <mbedtls_mpi_grow+0xc4>
    ab90:	b0000040 	adrp	x0, 13000 <_DYNAMIC>
    ab94:	d37ef436 	lsl	x22, x1, #2
    ab98:	aa1603e1 	mov	x1, x22
    ab9c:	f940d800 	ldr	x0, [x0, #432]
    aba0:	f9400000 	ldr	x0, [x0]
    aba4:	94000f94 	bl	e9f4 <mempool_alloc>
    aba8:	aa0003f4 	mov	x20, x0
    abac:	b4fffdc0 	cbz	x0, ab64 <mbedtls_mpi_grow+0x20>
    abb0:	aa1603e2 	mov	x2, x22
    abb4:	52800001 	mov	w1, #0x0                   	// #0
    abb8:	97ffe795 	bl	4a0c <memset>
    abbc:	f9400a61 	ldr	x1, [x19, #16]
    abc0:	b40001e1 	cbz	x1, abfc <mbedtls_mpi_grow+0xb8>
    abc4:	f9400662 	ldr	x2, [x19, #8]
    abc8:	aa1403e0 	mov	x0, x20
    abcc:	d37ef442 	lsl	x2, x2, #2
    abd0:	97ffe6a6 	bl	4668 <memcpy>
    abd4:	a9408261 	ldp	x1, x0, [x19, #8]
    abd8:	d37ef421 	lsl	x1, x1, #2
    abdc:	94000da1 	bl	e260 <mbedtls_platform_zeroize>
    abe0:	79c00660 	ldrsh	w0, [x19, #2]
    abe4:	340001e0 	cbz	w0, ac20 <mbedtls_mpi_grow+0xdc>
    abe8:	b0000040 	adrp	x0, 13000 <_DYNAMIC>
    abec:	f9400a61 	ldr	x1, [x19, #16]
    abf0:	f940d800 	ldr	x0, [x0, #432]
    abf4:	f9400000 	ldr	x0, [x0]
    abf8:	94000f81 	bl	e9fc <mempool_free>
    abfc:	a900d275 	stp	x21, x20, [x19, #8]
    ac00:	52800000 	mov	w0, #0x0                   	// #0
    ac04:	17ffffd9 	b	ab68 <mbedtls_mpi_grow+0x24>
    ac08:	aa1503e0 	mov	x0, x21
    ac0c:	d2800081 	mov	x1, #0x4                   	// #4
    ac10:	94000e59 	bl	e574 <calloc>
    ac14:	aa0003f4 	mov	x20, x0
    ac18:	b5fffd20 	cbnz	x0, abbc <mbedtls_mpi_grow+0x78>
    ac1c:	17ffffd2 	b	ab64 <mbedtls_mpi_grow+0x20>
    ac20:	f9400a60 	ldr	x0, [x19, #16]
    ac24:	97ffe8f5 	bl	4ff8 <free>
    ac28:	17fffff5 	b	abfc <mbedtls_mpi_grow+0xb8>

000000000000ac2c <mbedtls_mpi_shrink>:
    ac2c:	d284e202 	mov	x2, #0x2710                	// #10000
    ac30:	eb02003f 	cmp	x1, x2
    ac34:	54000069 	b.ls	ac40 <mbedtls_mpi_shrink+0x14>  // b.plast
    ac38:	128001e0 	mov	w0, #0xfffffff0            	// #-16
    ac3c:	d65f03c0 	ret
    ac40:	a9bd7bfd 	stp	x29, x30, [sp, #-48]!
    ac44:	910003fd 	mov	x29, sp
    ac48:	f9400402 	ldr	x2, [x0, #8]
    ac4c:	a90153f3 	stp	x19, x20, [sp, #16]
    ac50:	aa0003f3 	mov	x19, x0
    ac54:	a9025bf5 	stp	x21, x22, [sp, #32]
    ac58:	aa0103f4 	mov	x20, x1
    ac5c:	eb01005f 	cmp	x2, x1
    ac60:	540000a8 	b.hi	ac74 <mbedtls_mpi_shrink+0x48>  // b.pmore
    ac64:	a94153f3 	ldp	x19, x20, [sp, #16]
    ac68:	a9425bf5 	ldp	x21, x22, [sp, #32]
    ac6c:	a8c37bfd 	ldp	x29, x30, [sp], #48
    ac70:	17ffffb5 	b	ab44 <mbedtls_mpi_grow>
    ac74:	d1000440 	sub	x0, x2, #0x1
    ac78:	b5000460 	cbnz	x0, ad04 <mbedtls_mpi_shrink+0xd8>
    ac7c:	91000400 	add	x0, x0, #0x1
    ac80:	eb00029f 	cmp	x20, x0
    ac84:	9a802294 	csel	x20, x20, x0, cs  // cs = hs, nlast
    ac88:	79c00660 	ldrsh	w0, [x19, #2]
    ac8c:	34000460 	cbz	w0, ad18 <mbedtls_mpi_shrink+0xec>
    ac90:	b0000040 	adrp	x0, 13000 <_DYNAMIC>
    ac94:	d37ef696 	lsl	x22, x20, #2
    ac98:	aa1603e1 	mov	x1, x22
    ac9c:	f940d800 	ldr	x0, [x0, #432]
    aca0:	f9400000 	ldr	x0, [x0]
    aca4:	94000f54 	bl	e9f4 <mempool_alloc>
    aca8:	aa0003f5 	mov	x21, x0
    acac:	b4000400 	cbz	x0, ad2c <mbedtls_mpi_shrink+0x100>
    acb0:	aa1603e2 	mov	x2, x22
    acb4:	52800001 	mov	w1, #0x0                   	// #0
    acb8:	97ffe755 	bl	4a0c <memset>
    acbc:	f9400a61 	ldr	x1, [x19, #16]
    acc0:	b40001c1 	cbz	x1, acf8 <mbedtls_mpi_shrink+0xcc>
    acc4:	d37ef682 	lsl	x2, x20, #2
    acc8:	aa1503e0 	mov	x0, x21
    accc:	97ffe667 	bl	4668 <memcpy>
    acd0:	a9408261 	ldp	x1, x0, [x19, #8]
    acd4:	d37ef421 	lsl	x1, x1, #2
    acd8:	94000d62 	bl	e260 <mbedtls_platform_zeroize>
    acdc:	79c00660 	ldrsh	w0, [x19, #2]
    ace0:	34000300 	cbz	w0, ad40 <mbedtls_mpi_shrink+0x114>
    ace4:	b0000040 	adrp	x0, 13000 <_DYNAMIC>
    ace8:	f9400a61 	ldr	x1, [x19, #16]
    acec:	f940d800 	ldr	x0, [x0, #432]
    acf0:	f9400000 	ldr	x0, [x0]
    acf4:	94000f42 	bl	e9fc <mempool_free>
    acf8:	52800000 	mov	w0, #0x0                   	// #0
    acfc:	a900d674 	stp	x20, x21, [x19, #8]
    ad00:	1400000c 	b	ad30 <mbedtls_mpi_shrink+0x104>
    ad04:	f9400a61 	ldr	x1, [x19, #16]
    ad08:	b8607821 	ldr	w1, [x1, x0, lsl #2]
    ad0c:	35fffb81 	cbnz	w1, ac7c <mbedtls_mpi_shrink+0x50>
    ad10:	d1000400 	sub	x0, x0, #0x1
    ad14:	17ffffd9 	b	ac78 <mbedtls_mpi_shrink+0x4c>
    ad18:	aa1403e0 	mov	x0, x20
    ad1c:	d2800081 	mov	x1, #0x4                   	// #4
    ad20:	94000e15 	bl	e574 <calloc>
    ad24:	aa0003f5 	mov	x21, x0
    ad28:	b5fffca0 	cbnz	x0, acbc <mbedtls_mpi_shrink+0x90>
    ad2c:	128001e0 	mov	w0, #0xfffffff0            	// #-16
    ad30:	a94153f3 	ldp	x19, x20, [sp, #16]
    ad34:	a9425bf5 	ldp	x21, x22, [sp, #32]
    ad38:	a8c37bfd 	ldp	x29, x30, [sp], #48
    ad3c:	d65f03c0 	ret
    ad40:	f9400a60 	ldr	x0, [x19, #16]
    ad44:	97ffe8ad 	bl	4ff8 <free>
    ad48:	17ffffec 	b	acf8 <mbedtls_mpi_shrink+0xcc>

000000000000ad4c <mbedtls_mpi_copy>:
    ad4c:	eb01001f 	cmp	x0, x1
    ad50:	54000540 	b.eq	adf8 <mbedtls_mpi_copy+0xac>  // b.none
    ad54:	a9bd7bfd 	stp	x29, x30, [sp, #-48]!
    ad58:	910003fd 	mov	x29, sp
    ad5c:	a90153f3 	stp	x19, x20, [sp, #16]
    ad60:	f9400433 	ldr	x19, [x1, #8]
    ad64:	f90013f5 	str	x21, [sp, #32]
    ad68:	aa0103f5 	mov	x21, x1
    ad6c:	b5000093 	cbnz	x19, ad7c <mbedtls_mpi_copy+0x30>
    ad70:	97ffff5a 	bl	aad8 <mbedtls_mpi_free>
    ad74:	52800000 	mov	w0, #0x0                   	// #0
    ad78:	14000011 	b	adbc <mbedtls_mpi_copy+0x70>
    ad7c:	aa0003f4 	mov	x20, x0
    ad80:	d1000673 	sub	x19, x19, #0x1
    ad84:	b4000093 	cbz	x19, ad94 <mbedtls_mpi_copy+0x48>
    ad88:	f9400aa0 	ldr	x0, [x21, #16]
    ad8c:	b8737800 	ldr	w0, [x0, x19, lsl #2]
    ad90:	34ffff80 	cbz	w0, ad80 <mbedtls_mpi_copy+0x34>
    ad94:	79c002a0 	ldrsh	w0, [x21]
    ad98:	91000673 	add	x19, x19, #0x1
    ad9c:	f9400682 	ldr	x2, [x20, #8]
    ada0:	79000280 	strh	w0, [x20]
    ada4:	eb13005f 	cmp	x2, x19
    ada8:	54000122 	b.cs	adcc <mbedtls_mpi_copy+0x80>  // b.hs, b.nlast
    adac:	aa1303e1 	mov	x1, x19
    adb0:	aa1403e0 	mov	x0, x20
    adb4:	97ffff64 	bl	ab44 <mbedtls_mpi_grow>
    adb8:	34000160 	cbz	w0, ade4 <mbedtls_mpi_copy+0x98>
    adbc:	a94153f3 	ldp	x19, x20, [sp, #16]
    adc0:	f94013f5 	ldr	x21, [sp, #32]
    adc4:	a8c37bfd 	ldp	x29, x30, [sp], #48
    adc8:	d65f03c0 	ret
    adcc:	f9400a80 	ldr	x0, [x20, #16]
    add0:	cb130042 	sub	x2, x2, x19
    add4:	52800001 	mov	w1, #0x0                   	// #0
    add8:	d37ef442 	lsl	x2, x2, #2
    addc:	8b130800 	add	x0, x0, x19, lsl #2
    ade0:	97ffe70b 	bl	4a0c <memset>
    ade4:	f9400a80 	ldr	x0, [x20, #16]
    ade8:	d37ef662 	lsl	x2, x19, #2
    adec:	f9400aa1 	ldr	x1, [x21, #16]
    adf0:	97ffe61e 	bl	4668 <memcpy>
    adf4:	17ffffe0 	b	ad74 <mbedtls_mpi_copy+0x28>
    adf8:	52800000 	mov	w0, #0x0                   	// #0
    adfc:	d65f03c0 	ret

000000000000ae00 <mbedtls_mpi_swap>:
    ae00:	a9bb7bfd 	stp	x29, x30, [sp, #-80]!
    ae04:	910003fd 	mov	x29, sp
    ae08:	a90153f3 	stp	x19, x20, [sp, #16]
    ae0c:	9100e3f4 	add	x20, sp, #0x38
    ae10:	aa0103f3 	mov	x19, x1
    ae14:	aa0003e1 	mov	x1, x0
    ae18:	a9025bf5 	stp	x21, x22, [sp, #32]
    ae1c:	d2800316 	mov	x22, #0x18                  	// #24
    ae20:	aa0003f5 	mov	x21, x0
    ae24:	aa1603e2 	mov	x2, x22
    ae28:	aa1403e0 	mov	x0, x20
    ae2c:	97ffe60f 	bl	4668 <memcpy>
    ae30:	aa1603e2 	mov	x2, x22
    ae34:	aa1303e1 	mov	x1, x19
    ae38:	aa1503e0 	mov	x0, x21
    ae3c:	97ffe60b 	bl	4668 <memcpy>
    ae40:	aa1603e2 	mov	x2, x22
    ae44:	aa1403e1 	mov	x1, x20
    ae48:	aa1303e0 	mov	x0, x19
    ae4c:	97ffe607 	bl	4668 <memcpy>
    ae50:	a94153f3 	ldp	x19, x20, [sp, #16]
    ae54:	a9425bf5 	ldp	x21, x22, [sp, #32]
    ae58:	a8c57bfd 	ldp	x29, x30, [sp], #80
    ae5c:	d65f03c0 	ret

000000000000ae60 <mbedtls_mpi_safe_cond_assign>:
    ae60:	a9bd7bfd 	stp	x29, x30, [sp, #-48]!
    ae64:	910003fd 	mov	x29, sp
    ae68:	f90013f5 	str	x21, [sp, #32]
    ae6c:	aa0103f5 	mov	x21, x1
    ae70:	f9400421 	ldr	x1, [x1, #8]
    ae74:	a90153f3 	stp	x19, x20, [sp, #16]
    ae78:	aa0003f4 	mov	x20, x0
    ae7c:	12001c53 	and	w19, w2, #0xff
    ae80:	97ffff31 	bl	ab44 <mbedtls_mpi_grow>
    ae84:	35000240 	cbnz	w0, aecc <mbedtls_mpi_safe_cond_assign+0x6c>
    ae88:	4b1303e2 	neg	w2, w19
    ae8c:	794002a4 	ldrh	w4, [x21]
    ae90:	2a020262 	orr	w2, w19, w2
    ae94:	79400283 	ldrh	w3, [x20]
    ae98:	52800021 	mov	w1, #0x1                   	// #1
    ae9c:	d3471c42 	ubfx	x2, x2, #7, #1
    aea0:	4b020021 	sub	w1, w1, w2
    aea4:	f94006a8 	ldr	x8, [x21, #8]
    aea8:	1b047c44 	mul	w4, w2, w4
    aeac:	1b031023 	madd	w3, w1, w3, w4
    aeb0:	79000283 	strh	w3, [x20]
    aeb4:	d2800003 	mov	x3, #0x0                   	// #0
    aeb8:	eb03011f 	cmp	x8, x3
    aebc:	54000101 	b.ne	aedc <mbedtls_mpi_safe_cond_assign+0x7c>  // b.any
    aec0:	f9400686 	ldr	x6, [x20, #8]
    aec4:	eb0300df 	cmp	x6, x3
    aec8:	540001e8 	b.hi	af04 <mbedtls_mpi_safe_cond_assign+0xa4>  // b.pmore
    aecc:	a94153f3 	ldp	x19, x20, [sp, #16]
    aed0:	f94013f5 	ldr	x21, [sp, #32]
    aed4:	a8c37bfd 	ldp	x29, x30, [sp], #48
    aed8:	d65f03c0 	ret
    aedc:	f9400a87 	ldr	x7, [x20, #16]
    aee0:	d37ef464 	lsl	x4, x3, #2
    aee4:	f9400aa5 	ldr	x5, [x21, #16]
    aee8:	91000463 	add	x3, x3, #0x1
    aeec:	b86468e6 	ldr	w6, [x7, x4]
    aef0:	b86468a5 	ldr	w5, [x5, x4]
    aef4:	1b067c26 	mul	w6, w1, w6
    aef8:	1b051845 	madd	w5, w2, w5, w6
    aefc:	b82468e5 	str	w5, [x7, x4]
    af00:	17ffffee 	b	aeb8 <mbedtls_mpi_safe_cond_assign+0x58>
    af04:	f9400a85 	ldr	x5, [x20, #16]
    af08:	d37ef464 	lsl	x4, x3, #2
    af0c:	91000463 	add	x3, x3, #0x1
    af10:	b86468a2 	ldr	w2, [x5, x4]
    af14:	1b017c42 	mul	w2, w2, w1
    af18:	b82468a2 	str	w2, [x5, x4]
    af1c:	17ffffea 	b	aec4 <mbedtls_mpi_safe_cond_assign+0x64>

000000000000af20 <mbedtls_mpi_safe_cond_swap>:
    af20:	eb01001f 	cmp	x0, x1
    af24:	54000061 	b.ne	af30 <mbedtls_mpi_safe_cond_swap+0x10>  // b.any
    af28:	52800000 	mov	w0, #0x0                   	// #0
    af2c:	d65f03c0 	ret
    af30:	a9bd7bfd 	stp	x29, x30, [sp, #-48]!
    af34:	910003fd 	mov	x29, sp
    af38:	a90153f3 	stp	x19, x20, [sp, #16]
    af3c:	aa0103f4 	mov	x20, x1
    af40:	12001c53 	and	w19, w2, #0xff
    af44:	f9400421 	ldr	x1, [x1, #8]
    af48:	f90013f5 	str	x21, [sp, #32]
    af4c:	aa0003f5 	mov	x21, x0
    af50:	97fffefd 	bl	ab44 <mbedtls_mpi_grow>
    af54:	35000320 	cbnz	w0, afb8 <mbedtls_mpi_safe_cond_swap+0x98>
    af58:	f94006a1 	ldr	x1, [x21, #8]
    af5c:	aa1403e0 	mov	x0, x20
    af60:	97fffef9 	bl	ab44 <mbedtls_mpi_grow>
    af64:	350002a0 	cbnz	w0, afb8 <mbedtls_mpi_safe_cond_swap+0x98>
    af68:	4b1303e2 	neg	w2, w19
    af6c:	794002a3 	ldrh	w3, [x21]
    af70:	2a020262 	orr	w2, w19, w2
    af74:	52800020 	mov	w0, #0x1                   	// #1
    af78:	79400284 	ldrh	w4, [x20]
    af7c:	d3471c42 	ubfx	x2, x2, #7, #1
    af80:	4b020000 	sub	w0, w0, w2
    af84:	12003c01 	and	w1, w0, #0xffff
    af88:	f94006a8 	ldr	x8, [x21, #8]
    af8c:	1b017c65 	mul	w5, w3, w1
    af90:	1b041444 	madd	w4, w2, w4, w5
    af94:	790002a4 	strh	w4, [x21]
    af98:	1b027c63 	mul	w3, w3, w2
    af9c:	79400284 	ldrh	w4, [x20]
    afa0:	1b040c21 	madd	w1, w1, w4, w3
    afa4:	d2800003 	mov	x3, #0x0                   	// #0
    afa8:	79000281 	strh	w1, [x20]
    afac:	eb03011f 	cmp	x8, x3
    afb0:	540000c1 	b.ne	afc8 <mbedtls_mpi_safe_cond_swap+0xa8>  // b.any
    afb4:	52800000 	mov	w0, #0x0                   	// #0
    afb8:	a94153f3 	ldp	x19, x20, [sp, #16]
    afbc:	f94013f5 	ldr	x21, [sp, #32]
    afc0:	a8c37bfd 	ldp	x29, x30, [sp], #48
    afc4:	d65f03c0 	ret
    afc8:	f9400aa7 	ldr	x7, [x21, #16]
    afcc:	d37ef461 	lsl	x1, x3, #2
    afd0:	f9400a85 	ldr	x5, [x20, #16]
    afd4:	91000463 	add	x3, x3, #0x1
    afd8:	b86168e4 	ldr	w4, [x7, x1]
    afdc:	b86168a6 	ldr	w6, [x5, x1]
    afe0:	1b047c09 	mul	w9, w0, w4
    afe4:	1b047c44 	mul	w4, w2, w4
    afe8:	1b062446 	madd	w6, w2, w6, w9
    afec:	b82168e6 	str	w6, [x7, x1]
    aff0:	b86168a6 	ldr	w6, [x5, x1]
    aff4:	1b061004 	madd	w4, w0, w6, w4
    aff8:	b82168a4 	str	w4, [x5, x1]
    affc:	17ffffec 	b	afac <mbedtls_mpi_safe_cond_swap+0x8c>

000000000000b000 <mbedtls_mpi_lset>:
    b000:	a9bd7bfd 	stp	x29, x30, [sp, #-48]!
    b004:	910003fd 	mov	x29, sp
    b008:	a90153f3 	stp	x19, x20, [sp, #16]
    b00c:	aa0003f3 	mov	x19, x0
    b010:	2a0103f4 	mov	w20, w1
    b014:	d2800021 	mov	x1, #0x1                   	// #1
    b018:	f90013f5 	str	x21, [sp, #32]
    b01c:	97fffeca 	bl	ab44 <mbedtls_mpi_grow>
    b020:	2a0003f5 	mov	w21, w0
    b024:	35000180 	cbnz	w0, b054 <mbedtls_mpi_lset+0x54>
    b028:	a9408262 	ldp	x2, x0, [x19, #8]
    b02c:	52800001 	mov	w1, #0x0                   	// #0
    b030:	d37ef442 	lsl	x2, x2, #2
    b034:	97ffe676 	bl	4a0c <memset>
    b038:	f9400a60 	ldr	x0, [x19, #16]
    b03c:	7100029f 	cmp	w20, #0x0
    b040:	5a94a681 	cneg	w1, w20, lt  // lt = tstop
    b044:	b9000001 	str	w1, [x0]
    b048:	52800020 	mov	w0, #0x1                   	// #1
    b04c:	5a80a400 	cneg	w0, w0, lt  // lt = tstop
    b050:	79000260 	strh	w0, [x19]
    b054:	2a1503e0 	mov	w0, w21
    b058:	a94153f3 	ldp	x19, x20, [sp, #16]
    b05c:	f94013f5 	ldr	x21, [sp, #32]
    b060:	a8c37bfd 	ldp	x29, x30, [sp], #48
    b064:	d65f03c0 	ret

000000000000b068 <mbedtls_mpi_get_bit>:
    b068:	f9400402 	ldr	x2, [x0, #8]
    b06c:	eb02143f 	cmp	x1, x2, lsl #5
    b070:	540000e2 	b.cs	b08c <mbedtls_mpi_get_bit+0x24>  // b.hs, b.nlast
    b074:	f9400800 	ldr	x0, [x0, #16]
    b078:	d345fc22 	lsr	x2, x1, #5
    b07c:	b8627800 	ldr	w0, [x0, x2, lsl #2]
    b080:	1ac12400 	lsr	w0, w0, w1
    b084:	12000000 	and	w0, w0, #0x1
    b088:	d65f03c0 	ret
    b08c:	52800000 	mov	w0, #0x0                   	// #0
    b090:	17fffffe 	b	b088 <mbedtls_mpi_get_bit+0x20>

000000000000b094 <mbedtls_mpi_set_bit>:
    b094:	a9bd7bfd 	stp	x29, x30, [sp, #-48]!
    b098:	910003fd 	mov	x29, sp
    b09c:	a90153f3 	stp	x19, x20, [sp, #16]
    b0a0:	a9025bf5 	stp	x21, x22, [sp, #32]
    b0a4:	12001c55 	and	w21, w2, #0xff
    b0a8:	710006bf 	cmp	w21, #0x1
    b0ac:	54000368 	b.hi	b118 <mbedtls_mpi_set_bit+0x84>  // b.pmore
    b0b0:	aa0103f3 	mov	x19, x1
    b0b4:	d345fc34 	lsr	x20, x1, #5
    b0b8:	f9400401 	ldr	x1, [x0, #8]
    b0bc:	aa0003f6 	mov	x22, x0
    b0c0:	eb01167f 	cmp	x19, x1, lsl #5
    b0c4:	540001a2 	b.cs	b0f8 <mbedtls_mpi_set_bit+0x64>  // b.hs, b.nlast
    b0c8:	f9400ac1 	ldr	x1, [x22, #16]
    b0cc:	d37ef694 	lsl	x20, x20, #2
    b0d0:	92401273 	and	x19, x19, #0x1f
    b0d4:	52800020 	mov	w0, #0x1                   	// #1
    b0d8:	b8746822 	ldr	w2, [x1, x20]
    b0dc:	1ad32000 	lsl	w0, w0, w19
    b0e0:	1ad322b3 	lsl	w19, w21, w19
    b0e4:	0a200040 	bic	w0, w2, w0
    b0e8:	2a130000 	orr	w0, w0, w19
    b0ec:	b8346820 	str	w0, [x1, x20]
    b0f0:	52800000 	mov	w0, #0x0                   	// #0
    b0f4:	14000005 	b	b108 <mbedtls_mpi_set_bit+0x74>
    b0f8:	34ffffd5 	cbz	w21, b0f0 <mbedtls_mpi_set_bit+0x5c>
    b0fc:	91000681 	add	x1, x20, #0x1
    b100:	97fffe91 	bl	ab44 <mbedtls_mpi_grow>
    b104:	34fffe20 	cbz	w0, b0c8 <mbedtls_mpi_set_bit+0x34>
    b108:	a94153f3 	ldp	x19, x20, [sp, #16]
    b10c:	a9425bf5 	ldp	x21, x22, [sp, #32]
    b110:	a8c37bfd 	ldp	x29, x30, [sp], #48
    b114:	d65f03c0 	ret
    b118:	12800060 	mov	w0, #0xfffffffc            	// #-4
    b11c:	17fffffb 	b	b108 <mbedtls_mpi_set_bit+0x74>

000000000000b120 <mbedtls_mpi_lsb>:
    b120:	f9400405 	ldr	x5, [x0, #8]
    b124:	aa0003e3 	mov	x3, x0
    b128:	d2800004 	mov	x4, #0x0                   	// #0
    b12c:	d2800002 	mov	x2, #0x0                   	// #0
    b130:	eb0200bf 	cmp	x5, x2
    b134:	54000061 	b.ne	b140 <mbedtls_mpi_lsb+0x20>  // b.any
    b138:	d2800000 	mov	x0, #0x0                   	// #0
    b13c:	d65f03c0 	ret
    b140:	f9400860 	ldr	x0, [x3, #16]
    b144:	d2800001 	mov	x1, #0x0                   	// #0
    b148:	b8627806 	ldr	w6, [x0, x2, lsl #2]
    b14c:	8b010080 	add	x0, x4, x1
    b150:	1ac124c7 	lsr	w7, w6, w1
    b154:	3707ff47 	tbnz	w7, #0, b13c <mbedtls_mpi_lsb+0x1c>
    b158:	91000421 	add	x1, x1, #0x1
    b15c:	8b010080 	add	x0, x4, x1
    b160:	f100803f 	cmp	x1, #0x20
    b164:	54ffff41 	b.ne	b14c <mbedtls_mpi_lsb+0x2c>  // b.any
    b168:	91000442 	add	x2, x2, #0x1
    b16c:	aa0003e4 	mov	x4, x0
    b170:	17fffff0 	b	b130 <mbedtls_mpi_lsb+0x10>

000000000000b174 <mbedtls_mpi_bitlen>:
    b174:	aa0003e2 	mov	x2, x0
    b178:	f9400400 	ldr	x0, [x0, #8]
    b17c:	b4000200 	cbz	x0, b1bc <mbedtls_mpi_bitlen+0x48>
    b180:	d1000401 	sub	x1, x0, #0x1
    b184:	f9400840 	ldr	x0, [x2, #16]
    b188:	b50001c1 	cbnz	x1, b1c0 <mbedtls_mpi_bitlen+0x4c>
    b18c:	b8617803 	ldr	w3, [x0, x1, lsl #2]
    b190:	52b00002 	mov	w2, #0x80000000            	// #-2147483648
    b194:	d2800000 	mov	x0, #0x0                   	// #0
    b198:	6a02007f 	tst	w3, w2
    b19c:	540000a1 	b.ne	b1b0 <mbedtls_mpi_bitlen+0x3c>  // b.any
    b1a0:	91000400 	add	x0, x0, #0x1
    b1a4:	53017c42 	lsr	w2, w2, #1
    b1a8:	f100801f 	cmp	x0, #0x20
    b1ac:	54ffff61 	b.ne	b198 <mbedtls_mpi_bitlen+0x24>  // b.any
    b1b0:	91000421 	add	x1, x1, #0x1
    b1b4:	d37be821 	lsl	x1, x1, #5
    b1b8:	cb000020 	sub	x0, x1, x0
    b1bc:	d65f03c0 	ret
    b1c0:	b8617802 	ldr	w2, [x0, x1, lsl #2]
    b1c4:	35fffe42 	cbnz	w2, b18c <mbedtls_mpi_bitlen+0x18>
    b1c8:	d1000421 	sub	x1, x1, #0x1
    b1cc:	17ffffef 	b	b188 <mbedtls_mpi_bitlen+0x14>

000000000000b1d0 <mbedtls_mpi_size>:
    b1d0:	a9bf7bfd 	stp	x29, x30, [sp, #-16]!
    b1d4:	910003fd 	mov	x29, sp
    b1d8:	97ffffe7 	bl	b174 <mbedtls_mpi_bitlen>
    b1dc:	91001c00 	add	x0, x0, #0x7
    b1e0:	a8c17bfd 	ldp	x29, x30, [sp], #16
    b1e4:	d343fc00 	lsr	x0, x0, #3
    b1e8:	d65f03c0 	ret

000000000000b1ec <mbedtls_mpi_read_binary_le>:
    b1ec:	a9bd7bfd 	stp	x29, x30, [sp, #-48]!
    b1f0:	f240045f 	tst	x2, #0x3
    b1f4:	910003fd 	mov	x29, sp
    b1f8:	a9025bf5 	stp	x21, x22, [sp, #32]
    b1fc:	aa0103f6 	mov	x22, x1
    b200:	d342fc55 	lsr	x21, x2, #2
    b204:	f9400401 	ldr	x1, [x0, #8]
    b208:	a90153f3 	stp	x19, x20, [sp, #16]
    b20c:	9a9506b5 	cinc	x21, x21, ne  // ne = any
    b210:	aa0003f3 	mov	x19, x0
    b214:	aa0203f4 	mov	x20, x2
    b218:	eb15003f 	cmp	x1, x21
    b21c:	54000241 	b.ne	b264 <mbedtls_mpi_read_binary_le+0x78>  // b.any
    b220:	aa1303e0 	mov	x0, x19
    b224:	52800001 	mov	w1, #0x0                   	// #0
    b228:	97ffff76 	bl	b000 <mbedtls_mpi_lset>
    b22c:	350002a0 	cbnz	w0, b280 <mbedtls_mpi_read_binary_le+0x94>
    b230:	d2800003 	mov	x3, #0x0                   	// #0
    b234:	eb14007f 	cmp	x3, x20
    b238:	54000240 	b.eq	b280 <mbedtls_mpi_read_binary_le+0x94>  // b.none
    b23c:	f9400a65 	ldr	x5, [x19, #16]
    b240:	927ef464 	and	x4, x3, #0xfffffffffffffffc
    b244:	38636ac1 	ldrb	w1, [x22, x3]
    b248:	531d0462 	ubfiz	w2, w3, #3, #2
    b24c:	91000463 	add	x3, x3, #0x1
    b250:	1ac22022 	lsl	w2, w1, w2
    b254:	b86468a1 	ldr	w1, [x5, x4]
    b258:	2a020021 	orr	w1, w1, w2
    b25c:	b82468a1 	str	w1, [x5, x4]
    b260:	17fffff5 	b	b234 <mbedtls_mpi_read_binary_le+0x48>
    b264:	97fffe1d 	bl	aad8 <mbedtls_mpi_free>
    b268:	aa1303e0 	mov	x0, x19
    b26c:	97fffe0d 	bl	aaa0 <mbedtls_mpi_init>
    b270:	aa1503e1 	mov	x1, x21
    b274:	aa1303e0 	mov	x0, x19
    b278:	97fffe33 	bl	ab44 <mbedtls_mpi_grow>
    b27c:	34fffd20 	cbz	w0, b220 <mbedtls_mpi_read_binary_le+0x34>
    b280:	a94153f3 	ldp	x19, x20, [sp, #16]
    b284:	a9425bf5 	ldp	x21, x22, [sp, #32]
    b288:	a8c37bfd 	ldp	x29, x30, [sp], #48
    b28c:	d65f03c0 	ret

000000000000b290 <mbedtls_mpi_read_binary>:
    b290:	a9bc7bfd 	stp	x29, x30, [sp, #-64]!
    b294:	f240045f 	tst	x2, #0x3
    b298:	910003fd 	mov	x29, sp
    b29c:	f9001bf7 	str	x23, [sp, #48]
    b2a0:	aa0103f7 	mov	x23, x1
    b2a4:	f9400401 	ldr	x1, [x0, #8]
    b2a8:	a90153f3 	stp	x19, x20, [sp, #16]
    b2ac:	aa0003f3 	mov	x19, x0
    b2b0:	a9025bf5 	stp	x21, x22, [sp, #32]
    b2b4:	d342fc55 	lsr	x21, x2, #2
    b2b8:	9a9506b5 	cinc	x21, x21, ne  // ne = any
    b2bc:	aa0203f6 	mov	x22, x2
    b2c0:	eb15003f 	cmp	x1, x21
    b2c4:	54000181 	b.ne	b2f4 <mbedtls_mpi_read_binary+0x64>  // b.any
    b2c8:	aa1303e0 	mov	x0, x19
    b2cc:	52800001 	mov	w1, #0x0                   	// #0
    b2d0:	97ffff4c 	bl	b000 <mbedtls_mpi_lset>
    b2d4:	2a0003f4 	mov	w20, w0
    b2d8:	34000260 	cbz	w0, b324 <mbedtls_mpi_read_binary+0x94>
    b2dc:	2a1403e0 	mov	w0, w20
    b2e0:	a94153f3 	ldp	x19, x20, [sp, #16]
    b2e4:	a9425bf5 	ldp	x21, x22, [sp, #32]
    b2e8:	f9401bf7 	ldr	x23, [sp, #48]
    b2ec:	a8c47bfd 	ldp	x29, x30, [sp], #64
    b2f0:	d65f03c0 	ret
    b2f4:	79c00414 	ldrsh	w20, [x0, #2]
    b2f8:	97fffdf8 	bl	aad8 <mbedtls_mpi_free>
    b2fc:	52800020 	mov	w0, #0x1                   	// #1
    b300:	79000260 	strh	w0, [x19]
    b304:	79000674 	strh	w20, [x19, #2]
    b308:	aa1503e1 	mov	x1, x21
    b30c:	a900fe7f 	stp	xzr, xzr, [x19, #8]
    b310:	aa1303e0 	mov	x0, x19
    b314:	97fffe0c 	bl	ab44 <mbedtls_mpi_grow>
    b318:	2a0003f4 	mov	w20, w0
    b31c:	34fffd60 	cbz	w0, b2c8 <mbedtls_mpi_read_binary+0x38>
    b320:	17ffffef 	b	b2dc <mbedtls_mpi_read_binary+0x4c>
    b324:	b4fffdd7 	cbz	x23, b2dc <mbedtls_mpi_read_binary+0x4c>
    b328:	f9400a63 	ldr	x3, [x19, #16]
    b32c:	d37ef6a0 	lsl	x0, x21, #2
    b330:	cb160000 	sub	x0, x0, x22
    b334:	aa1603e2 	mov	x2, x22
    b338:	aa1703e1 	mov	x1, x23
    b33c:	8b000060 	add	x0, x3, x0
    b340:	97ffe4ca 	bl	4668 <memcpy>
    b344:	b4fffcd5 	cbz	x21, b2dc <mbedtls_mpi_read_binary+0x4c>
    b348:	f9400a60 	ldr	x0, [x19, #16]
    b34c:	aa1503e1 	mov	x1, x21
    b350:	97fffdb7 	bl	aa2c <mpi_bigendian_to_host.part.0>
    b354:	17ffffe2 	b	b2dc <mbedtls_mpi_read_binary+0x4c>

000000000000b358 <mbedtls_mpi_write_binary_le>:
    b358:	aa0103e5 	mov	x5, x1
    b35c:	f9400401 	ldr	x1, [x0, #8]
    b360:	d37ef424 	lsl	x4, x1, #2
    b364:	eb01085f 	cmp	x2, x1, lsl #2
    b368:	54000388 	b.hi	b3d8 <mbedtls_mpi_write_binary_le+0x80>  // b.pmore
    b36c:	aa0203e3 	mov	x3, x2
    b370:	eb04007f 	cmp	x3, x4
    b374:	54000201 	b.ne	b3b4 <mbedtls_mpi_write_binary_le+0x5c>  // b.any
    b378:	aa0203e6 	mov	x6, x2
    b37c:	d2800003 	mov	x3, #0x0                   	// #0
    b380:	eb0300df 	cmp	x6, x3
    b384:	540002e1 	b.ne	b3e0 <mbedtls_mpi_write_binary_le+0x88>  // b.any
    b388:	eb02009f 	cmp	x4, x2
    b38c:	540003e2 	b.cs	b408 <mbedtls_mpi_write_binary_le+0xb0>  // b.hs, b.nlast
    b390:	a9bf7bfd 	stp	x29, x30, [sp, #-16]!
    b394:	cb040042 	sub	x2, x2, x4
    b398:	8b0400a0 	add	x0, x5, x4
    b39c:	910003fd 	mov	x29, sp
    b3a0:	52800001 	mov	w1, #0x0                   	// #0
    b3a4:	97ffe59a 	bl	4a0c <memset>
    b3a8:	52800000 	mov	w0, #0x0                   	// #0
    b3ac:	a8c17bfd 	ldp	x29, x30, [sp], #16
    b3b0:	d65f03c0 	ret
    b3b4:	f9400807 	ldr	x7, [x0, #16]
    b3b8:	927ef466 	and	x6, x3, #0xfffffffffffffffc
    b3bc:	531d0461 	ubfiz	w1, w3, #3, #2
    b3c0:	b86668e6 	ldr	w6, [x7, x6]
    b3c4:	1ac124c1 	lsr	w1, w6, w1
    b3c8:	72001c3f 	tst	w1, #0xff
    b3cc:	540001a1 	b.ne	b400 <mbedtls_mpi_write_binary_le+0xa8>  // b.any
    b3d0:	91000463 	add	x3, x3, #0x1
    b3d4:	17ffffe7 	b	b370 <mbedtls_mpi_write_binary_le+0x18>
    b3d8:	aa0403e6 	mov	x6, x4
    b3dc:	17ffffe8 	b	b37c <mbedtls_mpi_write_binary_le+0x24>
    b3e0:	f9400808 	ldr	x8, [x0, #16]
    b3e4:	927ef461 	and	x1, x3, #0xfffffffffffffffc
    b3e8:	531d0467 	ubfiz	w7, w3, #3, #2
    b3ec:	b8616901 	ldr	w1, [x8, x1]
    b3f0:	1ac72421 	lsr	w1, w1, w7
    b3f4:	382368a1 	strb	w1, [x5, x3]
    b3f8:	91000463 	add	x3, x3, #0x1
    b3fc:	17ffffe1 	b	b380 <mbedtls_mpi_write_binary_le+0x28>
    b400:	128000e0 	mov	w0, #0xfffffff8            	// #-8
    b404:	d65f03c0 	ret
    b408:	52800000 	mov	w0, #0x0                   	// #0
    b40c:	d65f03c0 	ret

000000000000b410 <mbedtls_mpi_write_binary>:
    b410:	a9bd7bfd 	stp	x29, x30, [sp, #-48]!
    b414:	910003fd 	mov	x29, sp
    b418:	a90153f3 	stp	x19, x20, [sp, #16]
    b41c:	aa0003f3 	mov	x19, x0
    b420:	aa0103e0 	mov	x0, x1
    b424:	f9400661 	ldr	x1, [x19, #8]
    b428:	f90013f5 	str	x21, [sp, #32]
    b42c:	d37ef434 	lsl	x20, x1, #2
    b430:	eb01085f 	cmp	x2, x1, lsl #2
    b434:	54000389 	b.ls	b4a4 <mbedtls_mpi_write_binary+0x94>  // b.plast
    b438:	cb140042 	sub	x2, x2, x20
    b43c:	52800001 	mov	w1, #0x0                   	// #0
    b440:	8b020015 	add	x21, x0, x2
    b444:	97ffe572 	bl	4a0c <memset>
    b448:	aa1503e0 	mov	x0, x21
    b44c:	aa1403e2 	mov	x2, x20
    b450:	8b020001 	add	x1, x0, x2
    b454:	d2800003 	mov	x3, #0x0                   	// #0
    b458:	d1000421 	sub	x1, x1, #0x1
    b45c:	eb03005f 	cmp	x2, x3
    b460:	54000261 	b.ne	b4ac <mbedtls_mpi_write_binary+0x9c>  // b.any
    b464:	52800000 	mov	w0, #0x0                   	// #0
    b468:	a94153f3 	ldp	x19, x20, [sp, #16]
    b46c:	f94013f5 	ldr	x21, [sp, #32]
    b470:	a8c37bfd 	ldp	x29, x30, [sp], #48
    b474:	d65f03c0 	ret
    b478:	f9400a65 	ldr	x5, [x19, #16]
    b47c:	927ef424 	and	x4, x1, #0xfffffffffffffffc
    b480:	531d0423 	ubfiz	w3, w1, #3, #2
    b484:	b86468a4 	ldr	w4, [x5, x4]
    b488:	1ac32483 	lsr	w3, w4, w3
    b48c:	72001c7f 	tst	w3, #0xff
    b490:	540001e1 	b.ne	b4cc <mbedtls_mpi_write_binary+0xbc>  // b.any
    b494:	91000421 	add	x1, x1, #0x1
    b498:	eb14003f 	cmp	x1, x20
    b49c:	54fffee1 	b.ne	b478 <mbedtls_mpi_write_binary+0x68>  // b.any
    b4a0:	17ffffec 	b	b450 <mbedtls_mpi_write_binary+0x40>
    b4a4:	aa0203e1 	mov	x1, x2
    b4a8:	17fffffc 	b	b498 <mbedtls_mpi_write_binary+0x88>
    b4ac:	f9400a65 	ldr	x5, [x19, #16]
    b4b0:	927ef460 	and	x0, x3, #0xfffffffffffffffc
    b4b4:	531d0464 	ubfiz	w4, w3, #3, #2
    b4b8:	91000463 	add	x3, x3, #0x1
    b4bc:	b86068a0 	ldr	w0, [x5, x0]
    b4c0:	1ac42400 	lsr	w0, w0, w4
    b4c4:	39000020 	strb	w0, [x1]
    b4c8:	17ffffe4 	b	b458 <mbedtls_mpi_write_binary+0x48>
    b4cc:	128000e0 	mov	w0, #0xfffffff8            	// #-8
    b4d0:	17ffffe6 	b	b468 <mbedtls_mpi_write_binary+0x58>

000000000000b4d4 <mbedtls_mpi_shift_l>:
    b4d4:	a9bd7bfd 	stp	x29, x30, [sp, #-48]!
    b4d8:	910003fd 	mov	x29, sp
    b4dc:	a90153f3 	stp	x19, x20, [sp, #16]
    b4e0:	aa0003f3 	mov	x19, x0
    b4e4:	d345fc34 	lsr	x20, x1, #5
    b4e8:	a9025bf5 	stp	x21, x22, [sp, #32]
    b4ec:	aa0103f5 	mov	x21, x1
    b4f0:	92401036 	and	x22, x1, #0x1f
    b4f4:	97ffff20 	bl	b174 <mbedtls_mpi_bitlen>
    b4f8:	8b150000 	add	x0, x0, x21
    b4fc:	f9400661 	ldr	x1, [x19, #8]
    b500:	eb01141f 	cmp	x0, x1, lsl #5
    b504:	540000c8 	b.hi	b51c <mbedtls_mpi_shift_l+0x48>  // b.pmore
    b508:	f1007ebf 	cmp	x21, #0x1f
    b50c:	540001c8 	b.hi	b544 <mbedtls_mpi_shift_l+0x70>  // b.pmore
    b510:	b50004d6 	cbnz	x22, b5a8 <mbedtls_mpi_shift_l+0xd4>
    b514:	52800000 	mov	w0, #0x0                   	// #0
    b518:	14000007 	b	b534 <mbedtls_mpi_shift_l+0x60>
    b51c:	f240101f 	tst	x0, #0x1f
    b520:	d345fc00 	lsr	x0, x0, #5
    b524:	9a800401 	cinc	x1, x0, ne  // ne = any
    b528:	aa1303e0 	mov	x0, x19
    b52c:	97fffd86 	bl	ab44 <mbedtls_mpi_grow>
    b530:	34fffec0 	cbz	w0, b508 <mbedtls_mpi_shift_l+0x34>
    b534:	a94153f3 	ldp	x19, x20, [sp, #16]
    b538:	a9425bf5 	ldp	x21, x22, [sp, #32]
    b53c:	a8c37bfd 	ldp	x29, x30, [sp], #48
    b540:	d65f03c0 	ret
    b544:	f9400661 	ldr	x1, [x19, #8]
    b548:	92800063 	mov	x3, #0xfffffffffffffffc    	// #-4
    b54c:	9b037e83 	mul	x3, x20, x3
    b550:	aa0103e2 	mov	x2, x1
    b554:	d37ef420 	lsl	x0, x1, #2
    b558:	d1001000 	sub	x0, x0, #0x4
    b55c:	eb14005f 	cmp	x2, x20
    b560:	54000168 	b.hi	b58c <mbedtls_mpi_shift_l+0xb8>  // b.pmore
    b564:	eb010280 	subs	x0, x20, x1
    b568:	9a9f9000 	csel	x0, x0, xzr, ls  // ls = plast
    b56c:	8b000021 	add	x1, x1, x0
    b570:	d37ef421 	lsl	x1, x1, #2
    b574:	d1001021 	sub	x1, x1, #0x4
    b578:	b100103f 	cmn	x1, #0x4
    b57c:	54fffca0 	b.eq	b510 <mbedtls_mpi_shift_l+0x3c>  // b.none
    b580:	f9400a60 	ldr	x0, [x19, #16]
    b584:	b821681f 	str	wzr, [x0, x1]
    b588:	17fffffb 	b	b574 <mbedtls_mpi_shift_l+0xa0>
    b58c:	f9400a64 	ldr	x4, [x19, #16]
    b590:	d1000442 	sub	x2, x2, #0x1
    b594:	8b030085 	add	x5, x4, x3
    b598:	b86068a5 	ldr	w5, [x5, x0]
    b59c:	b8206885 	str	w5, [x4, x0]
    b5a0:	d1001000 	sub	x0, x0, #0x4
    b5a4:	17ffffee 	b	b55c <mbedtls_mpi_shift_l+0x88>
    b5a8:	f9400666 	ldr	x6, [x19, #8]
    b5ac:	52800400 	mov	w0, #0x20                  	// #32
    b5b0:	4b160000 	sub	w0, w0, w22
    b5b4:	52800002 	mov	w2, #0x0                   	// #0
    b5b8:	eb1400df 	cmp	x6, x20
    b5bc:	54fffac9 	b.ls	b514 <mbedtls_mpi_shift_l+0x40>  // b.plast
    b5c0:	f9400a65 	ldr	x5, [x19, #16]
    b5c4:	d37ef684 	lsl	x4, x20, #2
    b5c8:	91000694 	add	x20, x20, #0x1
    b5cc:	b86468a3 	ldr	w3, [x5, x4]
    b5d0:	1ad62061 	lsl	w1, w3, w22
    b5d4:	2a020021 	orr	w1, w1, w2
    b5d8:	1ac02462 	lsr	w2, w3, w0
    b5dc:	b82468a1 	str	w1, [x5, x4]
    b5e0:	17fffff6 	b	b5b8 <mbedtls_mpi_shift_l+0xe4>

000000000000b5e4 <mbedtls_mpi_shift_r>:
    b5e4:	f9400402 	ldr	x2, [x0, #8]
    b5e8:	d345fc26 	lsr	x6, x1, #5
    b5ec:	92401024 	and	x4, x1, #0x1f
    b5f0:	eb06005f 	cmp	x2, x6
    b5f4:	54000063 	b.cc	b600 <mbedtls_mpi_shift_r+0x1c>  // b.lo, b.ul, b.last
    b5f8:	54000081 	b.ne	b608 <mbedtls_mpi_shift_r+0x24>  // b.any
    b5fc:	b40004a4 	cbz	x4, b690 <mbedtls_mpi_shift_r+0xac>
    b600:	52800001 	mov	w1, #0x0                   	// #0
    b604:	17fffe7f 	b	b000 <mbedtls_mpi_lset>
    b608:	f1007c3f 	cmp	x1, #0x1f
    b60c:	54000468 	b.hi	b698 <mbedtls_mpi_shift_r+0xb4>  // b.pmore
    b610:	b5000384 	cbnz	x4, b680 <mbedtls_mpi_shift_r+0x9c>
    b614:	52800000 	mov	w0, #0x0                   	// #0
    b618:	d65f03c0 	ret
    b61c:	f9400801 	ldr	x1, [x0, #16]
    b620:	b8656827 	ldr	w7, [x1, x5]
    b624:	910010a5 	add	x5, x5, #0x4
    b628:	b8237827 	str	w7, [x1, x3, lsl #2]
    b62c:	91000463 	add	x3, x3, #0x1
    b630:	cb060041 	sub	x1, x2, x6
    b634:	eb03003f 	cmp	x1, x3
    b638:	54ffff28 	b.hi	b61c <mbedtls_mpi_shift_r+0x38>  // b.pmore
    b63c:	eb01005f 	cmp	x2, x1
    b640:	54fffe89 	b.ls	b610 <mbedtls_mpi_shift_r+0x2c>  // b.plast
    b644:	f9400803 	ldr	x3, [x0, #16]
    b648:	b821787f 	str	wzr, [x3, x1, lsl #2]
    b64c:	91000421 	add	x1, x1, #0x1
    b650:	17fffffb 	b	b63c <mbedtls_mpi_shift_r+0x58>
    b654:	f9400808 	ldr	x8, [x0, #16]
    b658:	d37ef441 	lsl	x1, x2, #2
    b65c:	b8616907 	ldr	w7, [x8, x1]
    b660:	1ac424e5 	lsr	w5, w7, w4
    b664:	2a0600a5 	orr	w5, w5, w6
    b668:	1ac320e6 	lsl	w6, w7, w3
    b66c:	b8216905 	str	w5, [x8, x1]
    b670:	d1000442 	sub	x2, x2, #0x1
    b674:	b100045f 	cmn	x2, #0x1
    b678:	54fffee1 	b.ne	b654 <mbedtls_mpi_shift_r+0x70>  // b.any
    b67c:	17ffffe6 	b	b614 <mbedtls_mpi_shift_r+0x30>
    b680:	52800403 	mov	w3, #0x20                  	// #32
    b684:	52800006 	mov	w6, #0x0                   	// #0
    b688:	4b040063 	sub	w3, w3, w4
    b68c:	17fffff9 	b	b670 <mbedtls_mpi_shift_r+0x8c>
    b690:	f1007c3f 	cmp	x1, #0x1f
    b694:	54fffc09 	b.ls	b614 <mbedtls_mpi_shift_r+0x30>  // b.plast
    b698:	d37ef4c5 	lsl	x5, x6, #2
    b69c:	d2800003 	mov	x3, #0x0                   	// #0
    b6a0:	17ffffe4 	b	b630 <mbedtls_mpi_shift_r+0x4c>

000000000000b6a4 <mbedtls_mpi_cmp_abs>:
    b6a4:	f9400402 	ldr	x2, [x0, #8]
    b6a8:	b50000c2 	cbnz	x2, b6c0 <mbedtls_mpi_cmp_abs+0x1c>
    b6ac:	f9400423 	ldr	x3, [x1, #8]
    b6b0:	b5000143 	cbnz	x3, b6d8 <mbedtls_mpi_cmp_abs+0x34>
    b6b4:	f100005f 	cmp	x2, #0x0
    b6b8:	1a9f07e0 	cset	w0, ne  // ne = any
    b6bc:	d65f03c0 	ret
    b6c0:	f9400803 	ldr	x3, [x0, #16]
    b6c4:	8b020863 	add	x3, x3, x2, lsl #2
    b6c8:	b85fc063 	ldur	w3, [x3, #-4]
    b6cc:	35ffff03 	cbnz	w3, b6ac <mbedtls_mpi_cmp_abs+0x8>
    b6d0:	d1000442 	sub	x2, x2, #0x1
    b6d4:	17fffff5 	b	b6a8 <mbedtls_mpi_cmp_abs+0x4>
    b6d8:	f9400824 	ldr	x4, [x1, #16]
    b6dc:	8b030885 	add	x5, x4, x3, lsl #2
    b6e0:	b85fc0a5 	ldur	w5, [x5, #-4]
    b6e4:	340000a5 	cbz	w5, b6f8 <mbedtls_mpi_cmp_abs+0x54>
    b6e8:	eb03005f 	cmp	x2, x3
    b6ec:	540000a9 	b.ls	b700 <mbedtls_mpi_cmp_abs+0x5c>  // b.plast
    b6f0:	52800020 	mov	w0, #0x1                   	// #1
    b6f4:	17fffff2 	b	b6bc <mbedtls_mpi_cmp_abs+0x18>
    b6f8:	d1000463 	sub	x3, x3, #0x1
    b6fc:	17ffffed 	b	b6b0 <mbedtls_mpi_cmp_abs+0xc>
    b700:	540001c3 	b.cc	b738 <mbedtls_mpi_cmp_abs+0x94>  // b.lo, b.ul, b.last
    b704:	d1000442 	sub	x2, x2, #0x1
    b708:	b100045f 	cmn	x2, #0x1
    b70c:	54000061 	b.ne	b718 <mbedtls_mpi_cmp_abs+0x74>  // b.any
    b710:	52800000 	mov	w0, #0x0                   	// #0
    b714:	17ffffea 	b	b6bc <mbedtls_mpi_cmp_abs+0x18>
    b718:	f9400803 	ldr	x3, [x0, #16]
    b71c:	d37ef441 	lsl	x1, x2, #2
    b720:	b8616863 	ldr	w3, [x3, x1]
    b724:	b8616881 	ldr	w1, [x4, x1]
    b728:	6b01007f 	cmp	w3, w1
    b72c:	54fffe28 	b.hi	b6f0 <mbedtls_mpi_cmp_abs+0x4c>  // b.pmore
    b730:	d1000442 	sub	x2, x2, #0x1
    b734:	54fffea2 	b.cs	b708 <mbedtls_mpi_cmp_abs+0x64>  // b.hs, b.nlast
    b738:	12800000 	mov	w0, #0xffffffff            	// #-1
    b73c:	17ffffe0 	b	b6bc <mbedtls_mpi_cmp_abs+0x18>

000000000000b740 <mbedtls_mpi_cmp_mpi>:
    b740:	f9400402 	ldr	x2, [x0, #8]
    b744:	aa0003e3 	mov	x3, x0
    b748:	b5000102 	cbnz	x2, b768 <mbedtls_mpi_cmp_mpi+0x28>
    b74c:	f9400420 	ldr	x0, [x1, #8]
    b750:	b5000180 	cbnz	x0, b780 <mbedtls_mpi_cmp_mpi+0x40>
    b754:	b40005c2 	cbz	x2, b80c <mbedtls_mpi_cmp_mpi+0xcc>
    b758:	eb00005f 	cmp	x2, x0
    b75c:	540001e9 	b.ls	b798 <mbedtls_mpi_cmp_mpi+0x58>  // b.plast
    b760:	79c00060 	ldrsh	w0, [x3]
    b764:	d65f03c0 	ret
    b768:	f9400860 	ldr	x0, [x3, #16]
    b76c:	8b020800 	add	x0, x0, x2, lsl #2
    b770:	b85fc000 	ldur	w0, [x0, #-4]
    b774:	35fffec0 	cbnz	w0, b74c <mbedtls_mpi_cmp_mpi+0xc>
    b778:	d1000442 	sub	x2, x2, #0x1
    b77c:	17fffff3 	b	b748 <mbedtls_mpi_cmp_mpi+0x8>
    b780:	f9400824 	ldr	x4, [x1, #16]
    b784:	8b000884 	add	x4, x4, x0, lsl #2
    b788:	b85fc084 	ldur	w4, [x4, #-4]
    b78c:	35fffe64 	cbnz	w4, b758 <mbedtls_mpi_cmp_mpi+0x18>
    b790:	d1000400 	sub	x0, x0, #0x1
    b794:	17ffffef 	b	b750 <mbedtls_mpi_cmp_mpi+0x10>
    b798:	79c00024 	ldrsh	w4, [x1]
    b79c:	54000062 	b.cs	b7a8 <mbedtls_mpi_cmp_mpi+0x68>  // b.hs, b.nlast
    b7a0:	4b0403e0 	neg	w0, w4
    b7a4:	17fffff0 	b	b764 <mbedtls_mpi_cmp_mpi+0x24>
    b7a8:	79c00060 	ldrsh	w0, [x3]
    b7ac:	7100001f 	cmp	w0, #0x0
    b7b0:	5400008d 	b.le	b7c0 <mbedtls_mpi_cmp_mpi+0x80>
    b7b4:	36f80264 	tbz	w4, #31, b800 <mbedtls_mpi_cmp_mpi+0xc0>
    b7b8:	52800020 	mov	w0, #0x1                   	// #1
    b7bc:	17ffffea 	b	b764 <mbedtls_mpi_cmp_mpi+0x24>
    b7c0:	7100009f 	cmp	w4, #0x0
    b7c4:	540001ed 	b.le	b800 <mbedtls_mpi_cmp_mpi+0xc0>
    b7c8:	340001c0 	cbz	w0, b800 <mbedtls_mpi_cmp_mpi+0xc0>
    b7cc:	12800000 	mov	w0, #0xffffffff            	// #-1
    b7d0:	17ffffe5 	b	b764 <mbedtls_mpi_cmp_mpi+0x24>
    b7d4:	f9400826 	ldr	x6, [x1, #16]
    b7d8:	d37ef444 	lsl	x4, x2, #2
    b7dc:	f9400865 	ldr	x5, [x3, #16]
    b7e0:	b86468a5 	ldr	w5, [x5, x4]
    b7e4:	b86468c4 	ldr	w4, [x6, x4]
    b7e8:	6b0400bf 	cmp	w5, w4
    b7ec:	54fffbc8 	b.hi	b764 <mbedtls_mpi_cmp_mpi+0x24>  // b.pmore
    b7f0:	d1000442 	sub	x2, x2, #0x1
    b7f4:	54000082 	b.cs	b804 <mbedtls_mpi_cmp_mpi+0xc4>  // b.hs, b.nlast
    b7f8:	4b0003e0 	neg	w0, w0
    b7fc:	17ffffda 	b	b764 <mbedtls_mpi_cmp_mpi+0x24>
    b800:	d1000442 	sub	x2, x2, #0x1
    b804:	b100045f 	cmn	x2, #0x1
    b808:	54fffe61 	b.ne	b7d4 <mbedtls_mpi_cmp_mpi+0x94>  // b.any
    b80c:	52800000 	mov	w0, #0x0                   	// #0
    b810:	17ffffd5 	b	b764 <mbedtls_mpi_cmp_mpi+0x24>

000000000000b814 <mbedtls_mpi_lt_mpi_ct>:
    b814:	f9400407 	ldr	x7, [x0, #8]
    b818:	f9400423 	ldr	x3, [x1, #8]
    b81c:	eb0300ff 	cmp	x7, x3
    b820:	540005c1 	b.ne	b8d8 <mbedtls_mpi_lt_mpi_ct+0xc4>  // b.any
    b824:	79400005 	ldrh	w5, [x0]
    b828:	5280002a 	mov	w10, #0x1                   	// #1
    b82c:	79400023 	ldrh	w3, [x1]
    b830:	d34104a9 	ubfx	x9, x5, #1, #1
    b834:	ca0300a5 	eor	x5, x5, x3
    b838:	4b09014c 	sub	w12, w10, w9
    b83c:	d34104a3 	ubfx	x3, x5, #1, #1
    b840:	0a450525 	and	w5, w9, w5, lsr #1
    b844:	b9000045 	str	w5, [x2]
    b848:	d10004e7 	sub	x7, x7, #0x1
    b84c:	b10004ff 	cmn	x7, #0x1
    b850:	54000061 	b.ne	b85c <mbedtls_mpi_lt_mpi_ct+0x48>  // b.any
    b854:	52800000 	mov	w0, #0x0                   	// #0
    b858:	d65f03c0 	ret
    b85c:	f940080d 	ldr	x13, [x0, #16]
    b860:	d37ef4e8 	lsl	x8, x7, #2
    b864:	f940082b 	ldr	x11, [x1, #16]
    b868:	b86869a4 	ldr	w4, [x13, x8]
    b86c:	b8686965 	ldr	w5, [x11, x8]
    b870:	4b0400a6 	sub	w6, w5, w4
    b874:	4a0400a5 	eor	w5, w5, w4
    b878:	4a060084 	eor	w4, w4, w6
    b87c:	0a0400a4 	and	w4, w5, w4
    b880:	4a060084 	eor	w4, w4, w6
    b884:	4b030146 	sub	w6, w10, w3
    b888:	0a447d25 	and	w5, w9, w4, lsr #31
    b88c:	0a0500c6 	and	w6, w6, w5
    b890:	b9400045 	ldr	w5, [x2]
    b894:	2a0500c6 	orr	w6, w6, w5
    b898:	b9000046 	str	w6, [x2]
    b89c:	2a447c65 	orr	w5, w3, w4, lsr #31
    b8a0:	b8686963 	ldr	w3, [x11, x8]
    b8a4:	b86869a4 	ldr	w4, [x13, x8]
    b8a8:	4b030088 	sub	w8, w4, w3
    b8ac:	4a030084 	eor	w4, w4, w3
    b8b0:	4a080063 	eor	w3, w3, w8
    b8b4:	0a030083 	and	w3, w4, w3
    b8b8:	4a080063 	eor	w3, w3, w8
    b8bc:	4b050148 	sub	w8, w10, w5
    b8c0:	0a437d84 	and	w4, w12, w3, lsr #31
    b8c4:	2a437ca3 	orr	w3, w5, w3, lsr #31
    b8c8:	0a080084 	and	w4, w4, w8
    b8cc:	2a060086 	orr	w6, w4, w6
    b8d0:	b9000046 	str	w6, [x2]
    b8d4:	17ffffdd 	b	b848 <mbedtls_mpi_lt_mpi_ct+0x34>
    b8d8:	12800060 	mov	w0, #0xfffffffc            	// #-4
    b8dc:	17ffffdf 	b	b858 <mbedtls_mpi_lt_mpi_ct+0x44>

000000000000b8e0 <mbedtls_mpi_cmp_int>:
    b8e0:	a9bd7bfd 	stp	x29, x30, [sp, #-48]!
    b8e4:	7100003f 	cmp	w1, #0x0
    b8e8:	5a81a422 	cneg	w2, w1, lt  // lt = tstop
    b8ec:	910003fd 	mov	x29, sp
    b8f0:	b90013e2 	str	w2, [sp, #16]
    b8f4:	52800022 	mov	w2, #0x1                   	// #1
    b8f8:	5a82a442 	cneg	w2, w2, lt  // lt = tstop
    b8fc:	d2800021 	mov	x1, #0x1                   	// #1
    b900:	f90013e1 	str	x1, [sp, #32]
    b904:	910043e1 	add	x1, sp, #0x10
    b908:	790033e2 	strh	w2, [sp, #24]
    b90c:	f90017e1 	str	x1, [sp, #40]
    b910:	910063e1 	add	x1, sp, #0x18
    b914:	97ffff8b 	bl	b740 <mbedtls_mpi_cmp_mpi>
    b918:	a8c37bfd 	ldp	x29, x30, [sp], #48
    b91c:	d65f03c0 	ret

000000000000b920 <mbedtls_mpi_add_abs>:
    b920:	a9bc7bfd 	stp	x29, x30, [sp, #-64]!
    b924:	eb02001f 	cmp	x0, x2
    b928:	910003fd 	mov	x29, sp
    b92c:	a90153f3 	stp	x19, x20, [sp, #16]
    b930:	aa0003f4 	mov	x20, x0
    b934:	a9025bf5 	stp	x21, x22, [sp, #32]
    b938:	aa0103f6 	mov	x22, x1
    b93c:	f9001bf7 	str	x23, [sp, #48]
    b940:	540000a0 	b.eq	b954 <mbedtls_mpi_add_abs+0x34>  // b.none
    b944:	aa0203f3 	mov	x19, x2
    b948:	eb01001f 	cmp	x0, x1
    b94c:	54000461 	b.ne	b9d8 <mbedtls_mpi_add_abs+0xb8>  // b.any
    b950:	aa1303f6 	mov	x22, x19
    b954:	f94006d3 	ldr	x19, [x22, #8]
    b958:	52800020 	mov	w0, #0x1                   	// #1
    b95c:	79000280 	strh	w0, [x20]
    b960:	b50004f3 	cbnz	x19, b9fc <mbedtls_mpi_add_abs+0xdc>
    b964:	aa1303e1 	mov	x1, x19
    b968:	aa1403e0 	mov	x0, x20
    b96c:	97fffc76 	bl	ab44 <mbedtls_mpi_grow>
    b970:	2a0003f5 	mov	w21, w0
    b974:	35000380 	cbnz	w0, b9e4 <mbedtls_mpi_add_abs+0xc4>
    b978:	f9400a82 	ldr	x2, [x20, #16]
    b97c:	d2800001 	mov	x1, #0x0                   	// #0
    b980:	f9400ac4 	ldr	x4, [x22, #16]
    b984:	52800016 	mov	w22, #0x0                   	// #0
    b988:	eb01027f 	cmp	x19, x1
    b98c:	54000441 	b.ne	ba14 <mbedtls_mpi_add_abs+0xf4>  // b.any
    b990:	8b130842 	add	x2, x2, x19, lsl #2
    b994:	34000296 	cbz	w22, b9e4 <mbedtls_mpi_add_abs+0xc4>
    b998:	f9400680 	ldr	x0, [x20, #8]
    b99c:	91000677 	add	x23, x19, #0x1
    b9a0:	eb13001f 	cmp	x0, x19
    b9a4:	540000e8 	b.hi	b9c0 <mbedtls_mpi_add_abs+0xa0>  // b.pmore
    b9a8:	aa1703e1 	mov	x1, x23
    b9ac:	aa1403e0 	mov	x0, x20
    b9b0:	97fffc65 	bl	ab44 <mbedtls_mpi_grow>
    b9b4:	35000420 	cbnz	w0, ba38 <mbedtls_mpi_add_abs+0x118>
    b9b8:	f9400a82 	ldr	x2, [x20, #16]
    b9bc:	8b130842 	add	x2, x2, x19, lsl #2
    b9c0:	b9400040 	ldr	w0, [x2]
    b9c4:	aa1703f3 	mov	x19, x23
    b9c8:	2b160016 	adds	w22, w0, w22
    b9cc:	b8004456 	str	w22, [x2], #4
    b9d0:	1a9f37f6 	cset	w22, cs  // cs = hs, nlast
    b9d4:	17fffff0 	b	b994 <mbedtls_mpi_add_abs+0x74>
    b9d8:	97fffcdd 	bl	ad4c <mbedtls_mpi_copy>
    b9dc:	2a0003f5 	mov	w21, w0
    b9e0:	34fffb80 	cbz	w0, b950 <mbedtls_mpi_add_abs+0x30>
    b9e4:	2a1503e0 	mov	w0, w21
    b9e8:	a94153f3 	ldp	x19, x20, [sp, #16]
    b9ec:	a9425bf5 	ldp	x21, x22, [sp, #32]
    b9f0:	f9401bf7 	ldr	x23, [sp, #48]
    b9f4:	a8c47bfd 	ldp	x29, x30, [sp], #64
    b9f8:	d65f03c0 	ret
    b9fc:	f9400ac0 	ldr	x0, [x22, #16]
    ba00:	8b130800 	add	x0, x0, x19, lsl #2
    ba04:	b85fc000 	ldur	w0, [x0, #-4]
    ba08:	35fffae0 	cbnz	w0, b964 <mbedtls_mpi_add_abs+0x44>
    ba0c:	d1000673 	sub	x19, x19, #0x1
    ba10:	17ffffd4 	b	b960 <mbedtls_mpi_add_abs+0x40>
    ba14:	b8617840 	ldr	w0, [x2, x1, lsl #2]
    ba18:	b8617883 	ldr	w3, [x4, x1, lsl #2]
    ba1c:	2b160000 	adds	w0, w0, w22
    ba20:	1a9f37f6 	cset	w22, cs  // cs = hs, nlast
    ba24:	2b030000 	adds	w0, w0, w3
    ba28:	1a9636d6 	cinc	w22, w22, cs  // cs = hs, nlast
    ba2c:	b8217840 	str	w0, [x2, x1, lsl #2]
    ba30:	91000421 	add	x1, x1, #0x1
    ba34:	17ffffd5 	b	b988 <mbedtls_mpi_add_abs+0x68>
    ba38:	2a0003f5 	mov	w21, w0
    ba3c:	17ffffea 	b	b9e4 <mbedtls_mpi_add_abs+0xc4>

000000000000ba40 <mbedtls_mpi_sub_abs>:
    ba40:	a9ba7bfd 	stp	x29, x30, [sp, #-96]!
    ba44:	910003fd 	mov	x29, sp
    ba48:	a9025bf5 	stp	x21, x22, [sp, #32]
    ba4c:	aa0103f6 	mov	x22, x1
    ba50:	aa0003f5 	mov	x21, x0
    ba54:	aa0203e1 	mov	x1, x2
    ba58:	aa1603e0 	mov	x0, x22
    ba5c:	a90153f3 	stp	x19, x20, [sp, #16]
    ba60:	aa0203f4 	mov	x20, x2
    ba64:	f9001bf7 	str	x23, [sp, #48]
    ba68:	97ffff0f 	bl	b6a4 <mbedtls_mpi_cmp_abs>
    ba6c:	37f80500 	tbnz	w0, #31, bb0c <mbedtls_mpi_sub_abs+0xcc>
    ba70:	910123f7 	add	x23, sp, #0x48
    ba74:	aa1703e0 	mov	x0, x23
    ba78:	97fffc0e 	bl	aab0 <mbedtls_mpi_init_mempool>
    ba7c:	eb15029f 	cmp	x20, x21
    ba80:	540000e1 	b.ne	ba9c <mbedtls_mpi_sub_abs+0x5c>  // b.any
    ba84:	aa1403e1 	mov	x1, x20
    ba88:	aa1703e0 	mov	x0, x23
    ba8c:	97fffcb0 	bl	ad4c <mbedtls_mpi_copy>
    ba90:	2a0003f3 	mov	w19, w0
    ba94:	35000220 	cbnz	w0, bad8 <mbedtls_mpi_sub_abs+0x98>
    ba98:	aa1703f4 	mov	x20, x23
    ba9c:	eb1502df 	cmp	x22, x21
    baa0:	54000121 	b.ne	bac4 <mbedtls_mpi_sub_abs+0x84>  // b.any
    baa4:	52800020 	mov	w0, #0x1                   	// #1
    baa8:	790002a0 	strh	w0, [x21]
    baac:	a9408680 	ldp	x0, x1, [x20, #8]
    bab0:	b5000240 	cbnz	x0, baf8 <mbedtls_mpi_sub_abs+0xb8>
    bab4:	f9400aa2 	ldr	x2, [x21, #16]
    bab8:	52800013 	mov	w19, #0x0                   	// #0
    babc:	97fffac3 	bl	a5c8 <mpi_sub_hlp>
    bac0:	14000006 	b	bad8 <mbedtls_mpi_sub_abs+0x98>
    bac4:	aa1603e1 	mov	x1, x22
    bac8:	aa1503e0 	mov	x0, x21
    bacc:	97fffca0 	bl	ad4c <mbedtls_mpi_copy>
    bad0:	2a0003f3 	mov	w19, w0
    bad4:	34fffe80 	cbz	w0, baa4 <mbedtls_mpi_sub_abs+0x64>
    bad8:	aa1703e0 	mov	x0, x23
    badc:	97fffbff 	bl	aad8 <mbedtls_mpi_free>
    bae0:	2a1303e0 	mov	w0, w19
    bae4:	a94153f3 	ldp	x19, x20, [sp, #16]
    bae8:	a9425bf5 	ldp	x21, x22, [sp, #32]
    baec:	f9401bf7 	ldr	x23, [sp, #48]
    baf0:	a8c67bfd 	ldp	x29, x30, [sp], #96
    baf4:	d65f03c0 	ret
    baf8:	8b000822 	add	x2, x1, x0, lsl #2
    bafc:	b85fc042 	ldur	w2, [x2, #-4]
    bb00:	35fffda2 	cbnz	w2, bab4 <mbedtls_mpi_sub_abs+0x74>
    bb04:	d1000400 	sub	x0, x0, #0x1
    bb08:	17ffffea 	b	bab0 <mbedtls_mpi_sub_abs+0x70>
    bb0c:	12800133 	mov	w19, #0xfffffff6            	// #-10
    bb10:	17fffff4 	b	bae0 <mbedtls_mpi_sub_abs+0xa0>

000000000000bb14 <mbedtls_mpi_add_mpi>:
    bb14:	a9bd7bfd 	stp	x29, x30, [sp, #-48]!
    bb18:	910003fd 	mov	x29, sp
    bb1c:	79c00043 	ldrsh	w3, [x2]
    bb20:	a90153f3 	stp	x19, x20, [sp, #16]
    bb24:	aa0003f3 	mov	x19, x0
    bb28:	79c00034 	ldrsh	w20, [x1]
    bb2c:	a9025bf5 	stp	x21, x22, [sp, #32]
    bb30:	1b147c63 	mul	w3, w3, w20
    bb34:	36f80303 	tbz	w3, #31, bb94 <mbedtls_mpi_add_mpi+0x80>
    bb38:	aa0103f6 	mov	x22, x1
    bb3c:	aa0203f5 	mov	x21, x2
    bb40:	aa0203e1 	mov	x1, x2
    bb44:	aa1603e0 	mov	x0, x22
    bb48:	97fffed7 	bl	b6a4 <mbedtls_mpi_cmp_abs>
    bb4c:	37f80140 	tbnz	w0, #31, bb74 <mbedtls_mpi_add_mpi+0x60>
    bb50:	aa1503e2 	mov	x2, x21
    bb54:	aa1603e1 	mov	x1, x22
    bb58:	aa1303e0 	mov	x0, x19
    bb5c:	97ffffb9 	bl	ba40 <mbedtls_mpi_sub_abs>
    bb60:	34000160 	cbz	w0, bb8c <mbedtls_mpi_add_mpi+0x78>
    bb64:	a94153f3 	ldp	x19, x20, [sp, #16]
    bb68:	a9425bf5 	ldp	x21, x22, [sp, #32]
    bb6c:	a8c37bfd 	ldp	x29, x30, [sp], #48
    bb70:	d65f03c0 	ret
    bb74:	aa1603e2 	mov	x2, x22
    bb78:	aa1503e1 	mov	x1, x21
    bb7c:	aa1303e0 	mov	x0, x19
    bb80:	97ffffb0 	bl	ba40 <mbedtls_mpi_sub_abs>
    bb84:	35ffff00 	cbnz	w0, bb64 <mbedtls_mpi_add_mpi+0x50>
    bb88:	4b1403f4 	neg	w20, w20
    bb8c:	79000274 	strh	w20, [x19]
    bb90:	17fffff5 	b	bb64 <mbedtls_mpi_add_mpi+0x50>
    bb94:	97ffff63 	bl	b920 <mbedtls_mpi_add_abs>
    bb98:	17fffff2 	b	bb60 <mbedtls_mpi_add_mpi+0x4c>

000000000000bb9c <mbedtls_mpi_sub_mpi>:
    bb9c:	a9bd7bfd 	stp	x29, x30, [sp, #-48]!
    bba0:	910003fd 	mov	x29, sp
    bba4:	79c00043 	ldrsh	w3, [x2]
    bba8:	a90153f3 	stp	x19, x20, [sp, #16]
    bbac:	aa0003f3 	mov	x19, x0
    bbb0:	79c00034 	ldrsh	w20, [x1]
    bbb4:	a9025bf5 	stp	x21, x22, [sp, #32]
    bbb8:	1b147c63 	mul	w3, w3, w20
    bbbc:	7100007f 	cmp	w3, #0x0
    bbc0:	5400030d 	b.le	bc20 <mbedtls_mpi_sub_mpi+0x84>
    bbc4:	aa0103f6 	mov	x22, x1
    bbc8:	aa0203f5 	mov	x21, x2
    bbcc:	aa0203e1 	mov	x1, x2
    bbd0:	aa1603e0 	mov	x0, x22
    bbd4:	97fffeb4 	bl	b6a4 <mbedtls_mpi_cmp_abs>
    bbd8:	37f80140 	tbnz	w0, #31, bc00 <mbedtls_mpi_sub_mpi+0x64>
    bbdc:	aa1503e2 	mov	x2, x21
    bbe0:	aa1603e1 	mov	x1, x22
    bbe4:	aa1303e0 	mov	x0, x19
    bbe8:	97ffff96 	bl	ba40 <mbedtls_mpi_sub_abs>
    bbec:	34000160 	cbz	w0, bc18 <mbedtls_mpi_sub_mpi+0x7c>
    bbf0:	a94153f3 	ldp	x19, x20, [sp, #16]
    bbf4:	a9425bf5 	ldp	x21, x22, [sp, #32]
    bbf8:	a8c37bfd 	ldp	x29, x30, [sp], #48
    bbfc:	d65f03c0 	ret
    bc00:	aa1603e2 	mov	x2, x22
    bc04:	aa1503e1 	mov	x1, x21
    bc08:	aa1303e0 	mov	x0, x19
    bc0c:	97ffff8d 	bl	ba40 <mbedtls_mpi_sub_abs>
    bc10:	35ffff00 	cbnz	w0, bbf0 <mbedtls_mpi_sub_mpi+0x54>
    bc14:	4b1403f4 	neg	w20, w20
    bc18:	79000274 	strh	w20, [x19]
    bc1c:	17fffff5 	b	bbf0 <mbedtls_mpi_sub_mpi+0x54>
    bc20:	97ffff40 	bl	b920 <mbedtls_mpi_add_abs>
    bc24:	17fffff2 	b	bbec <mbedtls_mpi_sub_mpi+0x50>

000000000000bc28 <mbedtls_mpi_add_int>:
    bc28:	a9bd7bfd 	stp	x29, x30, [sp, #-48]!
    bc2c:	7100005f 	cmp	w2, #0x0
    bc30:	5a82a443 	cneg	w3, w2, lt  // lt = tstop
    bc34:	910003fd 	mov	x29, sp
    bc38:	b90013e3 	str	w3, [sp, #16]
    bc3c:	52800023 	mov	w3, #0x1                   	// #1
    bc40:	5a83a463 	cneg	w3, w3, lt  // lt = tstop
    bc44:	d2800022 	mov	x2, #0x1                   	// #1
    bc48:	f90013e2 	str	x2, [sp, #32]
    bc4c:	910043e2 	add	x2, sp, #0x10
    bc50:	790033e3 	strh	w3, [sp, #24]
    bc54:	f90017e2 	str	x2, [sp, #40]
    bc58:	910063e2 	add	x2, sp, #0x18
    bc5c:	97ffffae 	bl	bb14 <mbedtls_mpi_add_mpi>
    bc60:	a8c37bfd 	ldp	x29, x30, [sp], #48
    bc64:	d65f03c0 	ret

000000000000bc68 <mbedtls_mpi_sub_int>:
    bc68:	a9bd7bfd 	stp	x29, x30, [sp, #-48]!
    bc6c:	7100005f 	cmp	w2, #0x0
    bc70:	5a82a443 	cneg	w3, w2, lt  // lt = tstop
    bc74:	910003fd 	mov	x29, sp
    bc78:	b90013e3 	str	w3, [sp, #16]
    bc7c:	52800023 	mov	w3, #0x1                   	// #1
    bc80:	5a83a463 	cneg	w3, w3, lt  // lt = tstop
    bc84:	d2800022 	mov	x2, #0x1                   	// #1
    bc88:	f90013e2 	str	x2, [sp, #32]
    bc8c:	910043e2 	add	x2, sp, #0x10
    bc90:	790033e3 	strh	w3, [sp, #24]
    bc94:	f90017e2 	str	x2, [sp, #40]
    bc98:	910063e2 	add	x2, sp, #0x18
    bc9c:	97ffffc0 	bl	bb9c <mbedtls_mpi_sub_mpi>
    bca0:	a8c37bfd 	ldp	x29, x30, [sp], #48
    bca4:	d65f03c0 	ret

000000000000bca8 <mbedtls_mpi_mul_mpi>:
    bca8:	a9b87bfd 	stp	x29, x30, [sp, #-128]!
    bcac:	910003fd 	mov	x29, sp
    bcb0:	a90363f7 	stp	x23, x24, [sp, #48]
    bcb4:	910143f7 	add	x23, sp, #0x50
    bcb8:	9101a3f8 	add	x24, sp, #0x68
    bcbc:	a90153f3 	stp	x19, x20, [sp, #16]
    bcc0:	aa0003f4 	mov	x20, x0
    bcc4:	aa1703e0 	mov	x0, x23
    bcc8:	a9025bf5 	stp	x21, x22, [sp, #32]
    bccc:	aa0203f6 	mov	x22, x2
    bcd0:	a9046bf9 	stp	x25, x26, [sp, #64]
    bcd4:	aa0103f9 	mov	x25, x1
    bcd8:	97fffb76 	bl	aab0 <mbedtls_mpi_init_mempool>
    bcdc:	aa1803e0 	mov	x0, x24
    bce0:	97fffb74 	bl	aab0 <mbedtls_mpi_init_mempool>
    bce4:	eb19029f 	cmp	x20, x25
    bce8:	540000e1 	b.ne	bd04 <mbedtls_mpi_mul_mpi+0x5c>  // b.any
    bcec:	aa1403e1 	mov	x1, x20
    bcf0:	aa1703e0 	mov	x0, x23
    bcf4:	97fffc16 	bl	ad4c <mbedtls_mpi_copy>
    bcf8:	2a0003f3 	mov	w19, w0
    bcfc:	35000300 	cbnz	w0, bd5c <mbedtls_mpi_mul_mpi+0xb4>
    bd00:	aa1703f9 	mov	x25, x23
    bd04:	eb16029f 	cmp	x20, x22
    bd08:	540000e1 	b.ne	bd24 <mbedtls_mpi_mul_mpi+0x7c>  // b.any
    bd0c:	aa1403e1 	mov	x1, x20
    bd10:	aa1803e0 	mov	x0, x24
    bd14:	97fffc0e 	bl	ad4c <mbedtls_mpi_copy>
    bd18:	2a0003f3 	mov	w19, w0
    bd1c:	35000200 	cbnz	w0, bd5c <mbedtls_mpi_mul_mpi+0xb4>
    bd20:	aa1803f6 	mov	x22, x24
    bd24:	f940073a 	ldr	x26, [x25, #8]
    bd28:	b500031a 	cbnz	x26, bd88 <mbedtls_mpi_mul_mpi+0xe0>
    bd2c:	f94006d5 	ldr	x21, [x22, #8]
    bd30:	b5000395 	cbnz	x21, bda0 <mbedtls_mpi_mul_mpi+0xf8>
    bd34:	8b150341 	add	x1, x26, x21
    bd38:	aa1403e0 	mov	x0, x20
    bd3c:	97fffb82 	bl	ab44 <mbedtls_mpi_grow>
    bd40:	2a0003f3 	mov	w19, w0
    bd44:	350000c0 	cbnz	w0, bd5c <mbedtls_mpi_mul_mpi+0xb4>
    bd48:	aa1403e0 	mov	x0, x20
    bd4c:	52800001 	mov	w1, #0x0                   	// #0
    bd50:	97fffcac 	bl	b000 <mbedtls_mpi_lset>
    bd54:	2a0003f3 	mov	w19, w0
    bd58:	340003e0 	cbz	w0, bdd4 <mbedtls_mpi_mul_mpi+0x12c>
    bd5c:	aa1803e0 	mov	x0, x24
    bd60:	97fffb5e 	bl	aad8 <mbedtls_mpi_free>
    bd64:	aa1703e0 	mov	x0, x23
    bd68:	97fffb5c 	bl	aad8 <mbedtls_mpi_free>
    bd6c:	2a1303e0 	mov	w0, w19
    bd70:	a94153f3 	ldp	x19, x20, [sp, #16]
    bd74:	a9425bf5 	ldp	x21, x22, [sp, #32]
    bd78:	a94363f7 	ldp	x23, x24, [sp, #48]
    bd7c:	a9446bf9 	ldp	x25, x26, [sp, #64]
    bd80:	a8c87bfd 	ldp	x29, x30, [sp], #128
    bd84:	d65f03c0 	ret
    bd88:	f9400b20 	ldr	x0, [x25, #16]
    bd8c:	8b1a0800 	add	x0, x0, x26, lsl #2
    bd90:	b85fc000 	ldur	w0, [x0, #-4]
    bd94:	35fffcc0 	cbnz	w0, bd2c <mbedtls_mpi_mul_mpi+0x84>
    bd98:	d100075a 	sub	x26, x26, #0x1
    bd9c:	17ffffe3 	b	bd28 <mbedtls_mpi_mul_mpi+0x80>
    bda0:	f9400ac0 	ldr	x0, [x22, #16]
    bda4:	8b150800 	add	x0, x0, x21, lsl #2
    bda8:	b85fc000 	ldur	w0, [x0, #-4]
    bdac:	35fffc40 	cbnz	w0, bd34 <mbedtls_mpi_mul_mpi+0x8c>
    bdb0:	d10006b5 	sub	x21, x21, #0x1
    bdb4:	17ffffdf 	b	bd30 <mbedtls_mpi_mul_mpi+0x88>
    bdb8:	f9400ac0 	ldr	x0, [x22, #16]
    bdbc:	f9400a82 	ldr	x2, [x20, #16]
    bdc0:	b8757803 	ldr	w3, [x0, x21, lsl #2]
    bdc4:	aa1a03e0 	mov	x0, x26
    bdc8:	f9400b21 	ldr	x1, [x25, #16]
    bdcc:	8b150842 	add	x2, x2, x21, lsl #2
    bdd0:	97fffa16 	bl	a628 <mpi_mul_hlp>
    bdd4:	d10006b5 	sub	x21, x21, #0x1
    bdd8:	b10006bf 	cmn	x21, #0x1
    bddc:	54fffee1 	b.ne	bdb8 <mbedtls_mpi_mul_mpi+0x110>  // b.any
    bde0:	79400320 	ldrh	w0, [x25]
    bde4:	794002c1 	ldrh	w1, [x22]
    bde8:	1b017c00 	mul	w0, w0, w1
    bdec:	79000280 	strh	w0, [x20]
    bdf0:	17ffffdb 	b	bd5c <mbedtls_mpi_mul_mpi+0xb4>

000000000000bdf4 <mbedtls_mpi_mul_int>:
    bdf4:	a9bd7bfd 	stp	x29, x30, [sp, #-48]!
    bdf8:	52800023 	mov	w3, #0x1                   	// #1
    bdfc:	910003fd 	mov	x29, sp
    be00:	790033e3 	strh	w3, [sp, #24]
    be04:	d2800023 	mov	x3, #0x1                   	// #1
    be08:	f90013e3 	str	x3, [sp, #32]
    be0c:	910043e3 	add	x3, sp, #0x10
    be10:	b90013e2 	str	w2, [sp, #16]
    be14:	910063e2 	add	x2, sp, #0x18
    be18:	f90017e3 	str	x3, [sp, #40]
    be1c:	97ffffa3 	bl	bca8 <mbedtls_mpi_mul_mpi>
    be20:	a8c37bfd 	ldp	x29, x30, [sp], #48
    be24:	d65f03c0 	ret

000000000000be28 <mbedtls_mpi_read_string>:
    be28:	a9b87bfd 	stp	x29, x30, [sp, #-128]!
    be2c:	910003fd 	mov	x29, sp
    be30:	a90153f3 	stp	x19, x20, [sp, #16]
    be34:	aa0003f4 	mov	x20, x0
    be38:	51000820 	sub	w0, w1, #0x2
    be3c:	a9025bf5 	stp	x21, x22, [sp, #32]
    be40:	7100381f 	cmp	w0, #0xe
    be44:	a90363f7 	stp	x23, x24, [sp, #48]
    be48:	a9046bf9 	stp	x25, x26, [sp, #64]
    be4c:	f9002bfb 	str	x27, [sp, #80]
    be50:	54000149 	b.ls	be78 <mbedtls_mpi_read_string+0x50>  // b.plast
    be54:	12800073 	mov	w19, #0xfffffffc            	// #-4
    be58:	2a1303e0 	mov	w0, w19
    be5c:	a94153f3 	ldp	x19, x20, [sp, #16]
    be60:	a9425bf5 	ldp	x21, x22, [sp, #32]
    be64:	a94363f7 	ldp	x23, x24, [sp, #48]
    be68:	a9446bf9 	ldp	x25, x26, [sp, #64]
    be6c:	f9402bfb 	ldr	x27, [sp, #80]
    be70:	a8c87bfd 	ldp	x29, x30, [sp], #128
    be74:	d65f03c0 	ret
    be78:	9101a3f8 	add	x24, sp, #0x68
    be7c:	2a0103f7 	mov	w23, w1
    be80:	aa0203f6 	mov	x22, x2
    be84:	aa1803e0 	mov	x0, x24
    be88:	97fffb0a 	bl	aab0 <mbedtls_mpi_init_mempool>
    be8c:	aa1603e0 	mov	x0, x22
    be90:	97ffe342 	bl	4b98 <strlen>
    be94:	710042ff 	cmp	w23, #0x10
    be98:	aa0003f5 	mov	x21, x0
    be9c:	54000621 	b.ne	bf60 <mbedtls_mpi_read_string+0x138>  // b.any
    bea0:	92f80000 	mov	x0, #0x3fffffffffffffff    	// #4611686018427387903
    bea4:	eb0002bf 	cmp	x21, x0
    bea8:	54fffd68 	b.hi	be54 <mbedtls_mpi_read_string+0x2c>  // b.pmore
    beac:	d37e0aa0 	ubfiz	x0, x21, #2, #3
    beb0:	d343f6a1 	ubfx	x1, x21, #3, #59
    beb4:	f100001f 	cmp	x0, #0x0
    beb8:	aa1403e0 	mov	x0, x20
    bebc:	9a810421 	cinc	x1, x1, ne  // ne = any
    bec0:	97fffb21 	bl	ab44 <mbedtls_mpi_grow>
    bec4:	2a0003f3 	mov	w19, w0
    bec8:	35000240 	cbnz	w0, bf10 <mbedtls_mpi_read_string+0xe8>
    becc:	aa1403e0 	mov	x0, x20
    bed0:	52800001 	mov	w1, #0x0                   	// #0
    bed4:	97fffc4b 	bl	b000 <mbedtls_mpi_lset>
    bed8:	2a0003f3 	mov	w19, w0
    bedc:	350001a0 	cbnz	w0, bf10 <mbedtls_mpi_read_string+0xe8>
    bee0:	910193e6 	add	x6, sp, #0x64
    bee4:	d2800005 	mov	x5, #0x0                   	// #0
    bee8:	b5000075 	cbnz	x21, bef4 <mbedtls_mpi_read_string+0xcc>
    beec:	52800013 	mov	w19, #0x0                   	// #0
    bef0:	14000008 	b	bf10 <mbedtls_mpi_read_string+0xe8>
    bef4:	f10006bf 	cmp	x21, #0x1
    bef8:	54000121 	b.ne	bf1c <mbedtls_mpi_read_string+0xf4>  // b.any
    befc:	394002c0 	ldrb	w0, [x22]
    bf00:	7100b41f 	cmp	w0, #0x2d
    bf04:	540000c1 	b.ne	bf1c <mbedtls_mpi_read_string+0xf4>  // b.any
    bf08:	12800000 	mov	w0, #0xffffffff            	// #-1
    bf0c:	79000280 	strh	w0, [x20]
    bf10:	aa1803e0 	mov	x0, x24
    bf14:	97fffaf1 	bl	aad8 <mbedtls_mpi_free>
    bf18:	17ffffd0 	b	be58 <mbedtls_mpi_read_string+0x30>
    bf1c:	d10006b5 	sub	x21, x21, #0x1
    bf20:	aa0603e0 	mov	x0, x6
    bf24:	52800201 	mov	w1, #0x10                  	// #16
    bf28:	38756ac2 	ldrb	w2, [x22, x21]
    bf2c:	97fff98e 	bl	a564 <mpi_get_digit>
    bf30:	350006a0 	cbnz	w0, c004 <mbedtls_mpi_read_string+0x1dc>
    bf34:	d343fca0 	lsr	x0, x5, #3
    bf38:	b94067e1 	ldr	w1, [sp, #100]
    bf3c:	f9400a83 	ldr	x3, [x20, #16]
    bf40:	d37ef400 	lsl	x0, x0, #2
    bf44:	531e08a2 	ubfiz	w2, w5, #2, #3
    bf48:	910004a5 	add	x5, x5, #0x1
    bf4c:	1ac22022 	lsl	w2, w1, w2
    bf50:	b8606861 	ldr	w1, [x3, x0]
    bf54:	2a020021 	orr	w1, w1, w2
    bf58:	b8206861 	str	w1, [x3, x0]
    bf5c:	17ffffe3 	b	bee8 <mbedtls_mpi_read_string+0xc0>
    bf60:	aa1403e0 	mov	x0, x20
    bf64:	52800001 	mov	w1, #0x0                   	// #0
    bf68:	97fffc26 	bl	b000 <mbedtls_mpi_lset>
    bf6c:	2a0003f3 	mov	w19, w0
    bf70:	35fffd00 	cbnz	w0, bf10 <mbedtls_mpi_read_string+0xe8>
    bf74:	910193fa 	add	x26, sp, #0x64
    bf78:	d2800019 	mov	x25, #0x0                   	// #0
    bf7c:	1280001b 	mov	w27, #0xffffffff            	// #-1
    bf80:	eb15033f 	cmp	x25, x21
    bf84:	54fffb40 	b.eq	beec <mbedtls_mpi_read_string+0xc4>  // b.none
    bf88:	b50000f9 	cbnz	x25, bfa4 <mbedtls_mpi_read_string+0x17c>
    bf8c:	394002c0 	ldrb	w0, [x22]
    bf90:	7100b41f 	cmp	w0, #0x2d
    bf94:	54000081 	b.ne	bfa4 <mbedtls_mpi_read_string+0x17c>  // b.any
    bf98:	7900029b 	strh	w27, [x20]
    bf9c:	91000739 	add	x25, x25, #0x1
    bfa0:	17fffff8 	b	bf80 <mbedtls_mpi_read_string+0x158>
    bfa4:	38796ac2 	ldrb	w2, [x22, x25]
    bfa8:	2a1703e1 	mov	w1, w23
    bfac:	aa1a03e0 	mov	x0, x26
    bfb0:	97fff96d 	bl	a564 <mpi_get_digit>
    bfb4:	2a0003f3 	mov	w19, w0
    bfb8:	35fffac0 	cbnz	w0, bf10 <mbedtls_mpi_read_string+0xe8>
    bfbc:	2a1703e2 	mov	w2, w23
    bfc0:	aa1403e1 	mov	x1, x20
    bfc4:	aa1803e0 	mov	x0, x24
    bfc8:	97ffff8b 	bl	bdf4 <mbedtls_mpi_mul_int>
    bfcc:	2a0003f3 	mov	w19, w0
    bfd0:	35fffa00 	cbnz	w0, bf10 <mbedtls_mpi_read_string+0xe8>
    bfd4:	79c00280 	ldrsh	w0, [x20]
    bfd8:	aa1803e1 	mov	x1, x24
    bfdc:	b94067e2 	ldr	w2, [sp, #100]
    bfe0:	7100041f 	cmp	w0, #0x1
    bfe4:	aa1403e0 	mov	x0, x20
    bfe8:	540000a1 	b.ne	bffc <mbedtls_mpi_read_string+0x1d4>  // b.any
    bfec:	97ffff0f 	bl	bc28 <mbedtls_mpi_add_int>
    bff0:	2a0003f3 	mov	w19, w0
    bff4:	34fffd40 	cbz	w0, bf9c <mbedtls_mpi_read_string+0x174>
    bff8:	17ffffc6 	b	bf10 <mbedtls_mpi_read_string+0xe8>
    bffc:	97ffff1b 	bl	bc68 <mbedtls_mpi_sub_int>
    c000:	17fffffc 	b	bff0 <mbedtls_mpi_read_string+0x1c8>
    c004:	2a0003f3 	mov	w19, w0
    c008:	17ffffc2 	b	bf10 <mbedtls_mpi_read_string+0xe8>

000000000000c00c <mbedtls_mpi_div_mpi>:
    c00c:	a9ad7bfd 	stp	x29, x30, [sp, #-304]!
    c010:	910003fd 	mov	x29, sp
    c014:	a90153f3 	stp	x19, x20, [sp, #16]
    c018:	a9025bf5 	stp	x21, x22, [sp, #32]
    c01c:	a90363f7 	stp	x23, x24, [sp, #48]
    c020:	aa0103f7 	mov	x23, x1
    c024:	aa0203f8 	mov	x24, x2
    c028:	52800001 	mov	w1, #0x0                   	// #0
    c02c:	a9046bf9 	stp	x25, x26, [sp, #64]
    c030:	aa0003f9 	mov	x25, x0
    c034:	aa0303e0 	mov	x0, x3
    c038:	a90573fb 	stp	x27, x28, [sp, #80]
    c03c:	f9003be3 	str	x3, [sp, #112]
    c040:	97fffe28 	bl	b8e0 <mbedtls_mpi_cmp_int>
    c044:	34002600 	cbz	w0, c504 <mbedtls_mpi_div_mpi+0x4f8>
    c048:	9102e3f4 	add	x20, sp, #0xb8
    c04c:	910343f6 	add	x22, sp, #0xd0
    c050:	aa1403e0 	mov	x0, x20
    c054:	97fffa97 	bl	aab0 <mbedtls_mpi_init_mempool>
    c058:	aa1603e0 	mov	x0, x22
    c05c:	9103a3fc 	add	x28, sp, #0xe8
    c060:	97fffa94 	bl	aab0 <mbedtls_mpi_init_mempool>
    c064:	910403f5 	add	x21, sp, #0x100
    c068:	aa1c03e0 	mov	x0, x28
    c06c:	97fffa91 	bl	aab0 <mbedtls_mpi_init_mempool>
    c070:	aa1503e0 	mov	x0, x21
    c074:	97fffa8f 	bl	aab0 <mbedtls_mpi_init_mempool>
    c078:	f9403be1 	ldr	x1, [sp, #112]
    c07c:	d2800060 	mov	x0, #0x3                   	// #3
    c080:	f90093e0 	str	x0, [sp, #288]
    c084:	9102a3e0 	add	x0, sp, #0xa8
    c088:	52800033 	mov	w19, #0x1                   	// #1
    c08c:	f90047e0 	str	x0, [sp, #136]
    c090:	790233f3 	strh	w19, [sp, #280]
    c094:	f90097e0 	str	x0, [sp, #296]
    c098:	aa1803e0 	mov	x0, x24
    c09c:	97fffd82 	bl	b6a4 <mbedtls_mpi_cmp_abs>
    c0a0:	36f80460 	tbz	w0, #31, c12c <mbedtls_mpi_div_mpi+0x120>
    c0a4:	b5000179 	cbnz	x25, c0d0 <mbedtls_mpi_div_mpi+0xc4>
    c0a8:	b5000377 	cbnz	x23, c114 <mbedtls_mpi_div_mpi+0x108>
    c0ac:	5280001b 	mov	w27, #0x0                   	// #0
    c0b0:	2a1b03e0 	mov	w0, w27
    c0b4:	a94153f3 	ldp	x19, x20, [sp, #16]
    c0b8:	a9425bf5 	ldp	x21, x22, [sp, #32]
    c0bc:	a94363f7 	ldp	x23, x24, [sp, #48]
    c0c0:	a9446bf9 	ldp	x25, x26, [sp, #64]
    c0c4:	a94573fb 	ldp	x27, x28, [sp, #80]
    c0c8:	a8d37bfd 	ldp	x29, x30, [sp], #304
    c0cc:	d65f03c0 	ret
    c0d0:	aa1903e0 	mov	x0, x25
    c0d4:	52800001 	mov	w1, #0x0                   	// #0
    c0d8:	97fffbca 	bl	b000 <mbedtls_mpi_lset>
    c0dc:	2a0003fb 	mov	w27, w0
    c0e0:	34fffe40 	cbz	w0, c0a8 <mbedtls_mpi_div_mpi+0x9c>
    c0e4:	aa1403e0 	mov	x0, x20
    c0e8:	97fffa7c 	bl	aad8 <mbedtls_mpi_free>
    c0ec:	aa1603e0 	mov	x0, x22
    c0f0:	97fffa7a 	bl	aad8 <mbedtls_mpi_free>
    c0f4:	aa1c03e0 	mov	x0, x28
    c0f8:	97fffa78 	bl	aad8 <mbedtls_mpi_free>
    c0fc:	aa1503e0 	mov	x0, x21
    c100:	97fffa76 	bl	aad8 <mbedtls_mpi_free>
    c104:	f94047e0 	ldr	x0, [sp, #136]
    c108:	d2800181 	mov	x1, #0xc                   	// #12
    c10c:	94000855 	bl	e260 <mbedtls_platform_zeroize>
    c110:	17ffffe8 	b	c0b0 <mbedtls_mpi_div_mpi+0xa4>
    c114:	aa1803e1 	mov	x1, x24
    c118:	aa1703e0 	mov	x0, x23
    c11c:	97fffb0c 	bl	ad4c <mbedtls_mpi_copy>
    c120:	2a0003fb 	mov	w27, w0
    c124:	35fffe00 	cbnz	w0, c0e4 <mbedtls_mpi_div_mpi+0xd8>
    c128:	17ffffe1 	b	c0ac <mbedtls_mpi_div_mpi+0xa0>
    c12c:	aa1803e1 	mov	x1, x24
    c130:	aa1403e0 	mov	x0, x20
    c134:	97fffb06 	bl	ad4c <mbedtls_mpi_copy>
    c138:	2a0003fb 	mov	w27, w0
    c13c:	35fffd40 	cbnz	w0, c0e4 <mbedtls_mpi_div_mpi+0xd8>
    c140:	f9403be1 	ldr	x1, [sp, #112]
    c144:	aa1603e0 	mov	x0, x22
    c148:	97fffb01 	bl	ad4c <mbedtls_mpi_copy>
    c14c:	2a0003fb 	mov	w27, w0
    c150:	35fffca0 	cbnz	w0, c0e4 <mbedtls_mpi_div_mpi+0xd8>
    c154:	f9400701 	ldr	x1, [x24, #8]
    c158:	aa1c03e0 	mov	x0, x28
    c15c:	790173f3 	strh	w19, [sp, #184]
    c160:	91000821 	add	x1, x1, #0x2
    c164:	7901a3f3 	strh	w19, [sp, #208]
    c168:	97fffa77 	bl	ab44 <mbedtls_mpi_grow>
    c16c:	2a0003fb 	mov	w27, w0
    c170:	35fffba0 	cbnz	w0, c0e4 <mbedtls_mpi_div_mpi+0xd8>
    c174:	aa1c03e0 	mov	x0, x28
    c178:	52800001 	mov	w1, #0x0                   	// #0
    c17c:	97fffba1 	bl	b000 <mbedtls_mpi_lset>
    c180:	2a0003fb 	mov	w27, w0
    c184:	35fffb00 	cbnz	w0, c0e4 <mbedtls_mpi_div_mpi+0xd8>
    c188:	aa1503e0 	mov	x0, x21
    c18c:	d2800041 	mov	x1, #0x2                   	// #2
    c190:	97fffa6d 	bl	ab44 <mbedtls_mpi_grow>
    c194:	2a0003fb 	mov	w27, w0
    c198:	35fffa60 	cbnz	w0, c0e4 <mbedtls_mpi_div_mpi+0xd8>
    c19c:	aa1603e0 	mov	x0, x22
    c1a0:	97fffbf5 	bl	b174 <mbedtls_mpi_bitlen>
    c1a4:	92401000 	and	x0, x0, #0x1f
    c1a8:	f1007c1f 	cmp	x0, #0x1f
    c1ac:	54000a20 	b.eq	c2f0 <mbedtls_mpi_div_mpi+0x2e4>  // b.none
    c1b0:	d28003fa 	mov	x26, #0x1f                  	// #31
    c1b4:	cb00035a 	sub	x26, x26, x0
    c1b8:	aa1a03e1 	mov	x1, x26
    c1bc:	aa1403e0 	mov	x0, x20
    c1c0:	97fffcc5 	bl	b4d4 <mbedtls_mpi_shift_l>
    c1c4:	2a0003fb 	mov	w27, w0
    c1c8:	35fff8e0 	cbnz	w0, c0e4 <mbedtls_mpi_div_mpi+0xd8>
    c1cc:	aa1a03e1 	mov	x1, x26
    c1d0:	aa1603e0 	mov	x0, x22
    c1d4:	97fffcc0 	bl	b4d4 <mbedtls_mpi_shift_l>
    c1d8:	2a0003fb 	mov	w27, w0
    c1dc:	35fff840 	cbnz	w0, c0e4 <mbedtls_mpi_div_mpi+0xd8>
    c1e0:	f94063e0 	ldr	x0, [sp, #192]
    c1e4:	f90037e0 	str	x0, [sp, #104]
    c1e8:	f9406fe0 	ldr	x0, [sp, #216]
    c1ec:	f9003fe0 	str	x0, [sp, #120]
    c1f0:	f94037e0 	ldr	x0, [sp, #104]
    c1f4:	f9403fe1 	ldr	x1, [sp, #120]
    c1f8:	cb010013 	sub	x19, x0, x1
    c1fc:	d37bea60 	lsl	x0, x19, #5
    c200:	f90043e0 	str	x0, [sp, #128]
    c204:	aa0003e1 	mov	x1, x0
    c208:	aa1603e0 	mov	x0, x22
    c20c:	97fffcb2 	bl	b4d4 <mbedtls_mpi_shift_l>
    c210:	2a0003fb 	mov	w27, w0
    c214:	35fff680 	cbnz	w0, c0e4 <mbedtls_mpi_div_mpi+0xd8>
    c218:	d37ef673 	lsl	x19, x19, #2
    c21c:	aa1603e1 	mov	x1, x22
    c220:	aa1403e0 	mov	x0, x20
    c224:	97fffd47 	bl	b740 <mbedtls_mpi_cmp_mpi>
    c228:	36f80680 	tbz	w0, #31, c2f8 <mbedtls_mpi_div_mpi+0x2ec>
    c22c:	f94043e1 	ldr	x1, [sp, #128]
    c230:	aa1603e0 	mov	x0, x22
    c234:	97fffcec 	bl	b5e4 <mbedtls_mpi_shift_r>
    c238:	2a0003fb 	mov	w27, w0
    c23c:	35fff540 	cbnz	w0, c0e4 <mbedtls_mpi_div_mpi+0xd8>
    c240:	f94037e0 	ldr	x0, [sp, #104]
    c244:	d1001273 	sub	x19, x19, #0x4
    c248:	d1000400 	sub	x0, x0, #0x1
    c24c:	f90037e0 	str	x0, [sp, #104]
    c250:	f9403fe0 	ldr	x0, [sp, #120]
    c254:	d1000400 	sub	x0, x0, #0x1
    c258:	f90043e0 	str	x0, [sp, #128]
    c25c:	d37ef400 	lsl	x0, x0, #2
    c260:	f9003fe0 	str	x0, [sp, #120]
    c264:	910463e0 	add	x0, sp, #0x118
    c268:	f9004be0 	str	x0, [sp, #144]
    c26c:	f94037e0 	ldr	x0, [sp, #104]
    c270:	f94043e1 	ldr	x1, [sp, #128]
    c274:	eb01001f 	cmp	x0, x1
    c278:	54000568 	b.hi	c324 <mbedtls_mpi_div_mpi+0x318>  // b.pmore
    c27c:	b4000159 	cbz	x25, c2a4 <mbedtls_mpi_div_mpi+0x298>
    c280:	aa1c03e1 	mov	x1, x28
    c284:	aa1903e0 	mov	x0, x25
    c288:	97fffab1 	bl	ad4c <mbedtls_mpi_copy>
    c28c:	35001380 	cbnz	w0, c4fc <mbedtls_mpi_div_mpi+0x4f0>
    c290:	f9403be1 	ldr	x1, [sp, #112]
    c294:	79400300 	ldrh	w0, [x24]
    c298:	79400021 	ldrh	w1, [x1]
    c29c:	1b017c00 	mul	w0, w0, w1
    c2a0:	79000320 	strh	w0, [x25]
    c2a4:	b4fff217 	cbz	x23, c0e4 <mbedtls_mpi_div_mpi+0xd8>
    c2a8:	aa1a03e1 	mov	x1, x26
    c2ac:	aa1403e0 	mov	x0, x20
    c2b0:	97fffccd 	bl	b5e4 <mbedtls_mpi_shift_r>
    c2b4:	35001240 	cbnz	w0, c4fc <mbedtls_mpi_div_mpi+0x4f0>
    c2b8:	79400300 	ldrh	w0, [x24]
    c2bc:	aa1403e1 	mov	x1, x20
    c2c0:	790173e0 	strh	w0, [sp, #184]
    c2c4:	aa1703e0 	mov	x0, x23
    c2c8:	97fffaa1 	bl	ad4c <mbedtls_mpi_copy>
    c2cc:	35001180 	cbnz	w0, c4fc <mbedtls_mpi_div_mpi+0x4f0>
    c2d0:	aa1703e0 	mov	x0, x23
    c2d4:	52800001 	mov	w1, #0x0                   	// #0
    c2d8:	97fffd82 	bl	b8e0 <mbedtls_mpi_cmp_int>
    c2dc:	35fff040 	cbnz	w0, c0e4 <mbedtls_mpi_div_mpi+0xd8>
    c2e0:	52800020 	mov	w0, #0x1                   	// #1
    c2e4:	5280001b 	mov	w27, #0x0                   	// #0
    c2e8:	790002e0 	strh	w0, [x23]
    c2ec:	17ffff7e 	b	c0e4 <mbedtls_mpi_div_mpi+0xd8>
    c2f0:	d280001a 	mov	x26, #0x0                   	// #0
    c2f4:	17ffffbb 	b	c1e0 <mbedtls_mpi_div_mpi+0x1d4>
    c2f8:	f9407fe1 	ldr	x1, [sp, #248]
    c2fc:	aa1603e2 	mov	x2, x22
    c300:	b8736820 	ldr	w0, [x1, x19]
    c304:	11000400 	add	w0, w0, #0x1
    c308:	b8336820 	str	w0, [x1, x19]
    c30c:	aa1403e1 	mov	x1, x20
    c310:	aa1403e0 	mov	x0, x20
    c314:	97fffe22 	bl	bb9c <mbedtls_mpi_sub_mpi>
    c318:	2a0003fb 	mov	w27, w0
    c31c:	34fff800 	cbz	w0, c21c <mbedtls_mpi_div_mpi+0x210>
    c320:	17ffff71 	b	c0e4 <mbedtls_mpi_div_mpi+0xd8>
    c324:	f94037e0 	ldr	x0, [sp, #104]
    c328:	f94067e2 	ldr	x2, [sp, #200]
    c32c:	d37ef406 	lsl	x6, x0, #2
    c330:	f9403fe3 	ldr	x3, [sp, #120]
    c334:	8b000848 	add	x8, x2, x0, lsl #2
    c338:	f94073e0 	ldr	x0, [sp, #224]
    c33c:	d10010c7 	sub	x7, x6, #0x4
    c340:	b8666841 	ldr	w1, [x2, x6]
    c344:	b8636804 	ldr	w4, [x0, x3]
    c348:	f9407fe0 	ldr	x0, [sp, #248]
    c34c:	6b04003f 	cmp	w1, w4
    c350:	8b130005 	add	x5, x0, x19
    c354:	54000b23 	b.cc	c4b8 <mbedtls_mpi_div_mpi+0x4ac>  // b.lo, b.ul, b.last
    c358:	12800001 	mov	w1, #0xffffffff            	// #-1
    c35c:	b8336801 	str	w1, [x0, x19]
    c360:	f94037e0 	ldr	x0, [sp, #104]
    c364:	f100041f 	cmp	x0, #0x1
    c368:	54000c20 	b.eq	c4ec <mbedtls_mpi_div_mpi+0x4e0>  // b.none
    c36c:	b85f8101 	ldur	w1, [x8, #-8]
    c370:	f94097e0 	ldr	x0, [sp, #296]
    c374:	b9000001 	str	w1, [x0]
    c378:	b8676841 	ldr	w1, [x2, x7]
    c37c:	b9000401 	str	w1, [x0, #4]
    c380:	b8666841 	ldr	w1, [x2, x6]
    c384:	b9000801 	str	w1, [x0, #8]
    c388:	b94000a0 	ldr	w0, [x5]
    c38c:	11000400 	add	w0, w0, #0x1
    c390:	b90000a0 	str	w0, [x5]
    c394:	f9407fe1 	ldr	x1, [sp, #248]
    c398:	b8736820 	ldr	w0, [x1, x19]
    c39c:	51000400 	sub	w0, w0, #0x1
    c3a0:	b8336820 	str	w0, [x1, x19]
    c3a4:	aa1503e0 	mov	x0, x21
    c3a8:	52800001 	mov	w1, #0x0                   	// #0
    c3ac:	97fffb15 	bl	b000 <mbedtls_mpi_lset>
    c3b0:	35000a60 	cbnz	w0, c4fc <mbedtls_mpi_div_mpi+0x4f0>
    c3b4:	f94043e0 	ldr	x0, [sp, #128]
    c3b8:	f94073e1 	ldr	x1, [sp, #224]
    c3bc:	b40009c0 	cbz	x0, c4f4 <mbedtls_mpi_div_mpi+0x4e8>
    c3c0:	f9403fe0 	ldr	x0, [sp, #120]
    c3c4:	8b000020 	add	x0, x1, x0
    c3c8:	b85fc002 	ldur	w2, [x0, #-4]
    c3cc:	f9408be0 	ldr	x0, [sp, #272]
    c3d0:	b9000002 	str	w2, [x0]
    c3d4:	f9403fe2 	ldr	x2, [sp, #120]
    c3d8:	b8626821 	ldr	w1, [x1, x2]
    c3dc:	b9000401 	str	w1, [x0, #4]
    c3e0:	aa1503e1 	mov	x1, x21
    c3e4:	f9407fe0 	ldr	x0, [sp, #248]
    c3e8:	b8736802 	ldr	w2, [x0, x19]
    c3ec:	aa1503e0 	mov	x0, x21
    c3f0:	97fffe81 	bl	bdf4 <mbedtls_mpi_mul_int>
    c3f4:	35000840 	cbnz	w0, c4fc <mbedtls_mpi_div_mpi+0x4f0>
    c3f8:	f9404be1 	ldr	x1, [sp, #144]
    c3fc:	aa1503e0 	mov	x0, x21
    c400:	97fffcd0 	bl	b740 <mbedtls_mpi_cmp_mpi>
    c404:	7100001f 	cmp	w0, #0x0
    c408:	54fffc6c 	b.gt	c394 <mbedtls_mpi_div_mpi+0x388>
    c40c:	f9407fe0 	ldr	x0, [sp, #248]
    c410:	aa1603e1 	mov	x1, x22
    c414:	b8736802 	ldr	w2, [x0, x19]
    c418:	aa1503e0 	mov	x0, x21
    c41c:	97fffe76 	bl	bdf4 <mbedtls_mpi_mul_int>
    c420:	350006e0 	cbnz	w0, c4fc <mbedtls_mpi_div_mpi+0x4f0>
    c424:	d37df260 	lsl	x0, x19, #3
    c428:	f9004fe0 	str	x0, [sp, #152]
    c42c:	aa0003e1 	mov	x1, x0
    c430:	aa1503e0 	mov	x0, x21
    c434:	97fffc28 	bl	b4d4 <mbedtls_mpi_shift_l>
    c438:	35000620 	cbnz	w0, c4fc <mbedtls_mpi_div_mpi+0x4f0>
    c43c:	aa1503e2 	mov	x2, x21
    c440:	aa1403e1 	mov	x1, x20
    c444:	aa1403e0 	mov	x0, x20
    c448:	97fffdd5 	bl	bb9c <mbedtls_mpi_sub_mpi>
    c44c:	35000580 	cbnz	w0, c4fc <mbedtls_mpi_div_mpi+0x4f0>
    c450:	aa1403e0 	mov	x0, x20
    c454:	52800001 	mov	w1, #0x0                   	// #0
    c458:	97fffd22 	bl	b8e0 <mbedtls_mpi_cmp_int>
    c45c:	36f80240 	tbz	w0, #31, c4a4 <mbedtls_mpi_div_mpi+0x498>
    c460:	aa1603e1 	mov	x1, x22
    c464:	aa1503e0 	mov	x0, x21
    c468:	97fffa39 	bl	ad4c <mbedtls_mpi_copy>
    c46c:	35000480 	cbnz	w0, c4fc <mbedtls_mpi_div_mpi+0x4f0>
    c470:	d37df261 	lsl	x1, x19, #3
    c474:	aa1503e0 	mov	x0, x21
    c478:	97fffc17 	bl	b4d4 <mbedtls_mpi_shift_l>
    c47c:	35000400 	cbnz	w0, c4fc <mbedtls_mpi_div_mpi+0x4f0>
    c480:	aa1503e2 	mov	x2, x21
    c484:	aa1403e1 	mov	x1, x20
    c488:	aa1403e0 	mov	x0, x20
    c48c:	97fffda2 	bl	bb14 <mbedtls_mpi_add_mpi>
    c490:	35000360 	cbnz	w0, c4fc <mbedtls_mpi_div_mpi+0x4f0>
    c494:	f9407fe1 	ldr	x1, [sp, #248]
    c498:	b8736820 	ldr	w0, [x1, x19]
    c49c:	51000400 	sub	w0, w0, #0x1
    c4a0:	b8336820 	str	w0, [x1, x19]
    c4a4:	f94037e0 	ldr	x0, [sp, #104]
    c4a8:	d1001273 	sub	x19, x19, #0x4
    c4ac:	d1000400 	sub	x0, x0, #0x1
    c4b0:	f90037e0 	str	x0, [sp, #104]
    c4b4:	17ffff6e 	b	c26c <mbedtls_mpi_div_mpi+0x260>
    c4b8:	b8676840 	ldr	w0, [x2, x7]
    c4bc:	34000144 	cbz	w4, c4e4 <mbedtls_mpi_div_mpi+0x4d8>
    c4c0:	2a0003e0 	mov	w0, w0
    c4c4:	2a0403e4 	mov	w4, w4
    c4c8:	aa018000 	orr	x0, x0, x1, lsl #32
    c4cc:	b2407fe1 	mov	x1, #0xffffffff            	// #4294967295
    c4d0:	9ac40800 	udiv	x0, x0, x4
    c4d4:	eb01001f 	cmp	x0, x1
    c4d8:	9a819000 	csel	x0, x0, x1, ls  // ls = plast
    c4dc:	b90000a0 	str	w0, [x5]
    c4e0:	17ffffa0 	b	c360 <mbedtls_mpi_div_mpi+0x354>
    c4e4:	12800000 	mov	w0, #0xffffffff            	// #-1
    c4e8:	17fffffd 	b	c4dc <mbedtls_mpi_div_mpi+0x4d0>
    c4ec:	52800001 	mov	w1, #0x0                   	// #0
    c4f0:	17ffffa0 	b	c370 <mbedtls_mpi_div_mpi+0x364>
    c4f4:	52800002 	mov	w2, #0x0                   	// #0
    c4f8:	17ffffb5 	b	c3cc <mbedtls_mpi_div_mpi+0x3c0>
    c4fc:	2a0003fb 	mov	w27, w0
    c500:	17fffef9 	b	c0e4 <mbedtls_mpi_div_mpi+0xd8>
    c504:	1280017b 	mov	w27, #0xfffffff4            	// #-12
    c508:	17fffeea 	b	c0b0 <mbedtls_mpi_div_mpi+0xa4>

000000000000c50c <mbedtls_mpi_div_int>:
    c50c:	a9bd7bfd 	stp	x29, x30, [sp, #-48]!
    c510:	7100007f 	cmp	w3, #0x0
    c514:	5a83a464 	cneg	w4, w3, lt  // lt = tstop
    c518:	910003fd 	mov	x29, sp
    c51c:	b90013e4 	str	w4, [sp, #16]
    c520:	52800024 	mov	w4, #0x1                   	// #1
    c524:	5a84a484 	cneg	w4, w4, lt  // lt = tstop
    c528:	d2800023 	mov	x3, #0x1                   	// #1
    c52c:	f90013e3 	str	x3, [sp, #32]
    c530:	910043e3 	add	x3, sp, #0x10
    c534:	790033e4 	strh	w4, [sp, #24]
    c538:	f90017e3 	str	x3, [sp, #40]
    c53c:	910063e3 	add	x3, sp, #0x18
    c540:	97fffeb3 	bl	c00c <mbedtls_mpi_div_mpi>
    c544:	a8c37bfd 	ldp	x29, x30, [sp], #48
    c548:	d65f03c0 	ret

000000000000c54c <mbedtls_mpi_mod_mpi>:
    c54c:	a9bd7bfd 	stp	x29, x30, [sp, #-48]!
    c550:	910003fd 	mov	x29, sp
    c554:	a90153f3 	stp	x19, x20, [sp, #16]
    c558:	aa0003f3 	mov	x19, x0
    c55c:	aa0103f4 	mov	x20, x1
    c560:	aa0203e0 	mov	x0, x2
    c564:	52800001 	mov	w1, #0x0                   	// #0
    c568:	f90013f5 	str	x21, [sp, #32]
    c56c:	aa0203f5 	mov	x21, x2
    c570:	97fffcdc 	bl	b8e0 <mbedtls_mpi_cmp_int>
    c574:	37f80420 	tbnz	w0, #31, c5f8 <mbedtls_mpi_mod_mpi+0xac>
    c578:	aa1403e2 	mov	x2, x20
    c57c:	aa1503e3 	mov	x3, x21
    c580:	aa1303e1 	mov	x1, x19
    c584:	d2800000 	mov	x0, #0x0                   	// #0
    c588:	97fffea1 	bl	c00c <mbedtls_mpi_div_mpi>
    c58c:	2a0003f4 	mov	w20, w0
    c590:	34000160 	cbz	w0, c5bc <mbedtls_mpi_mod_mpi+0x70>
    c594:	2a1403e0 	mov	w0, w20
    c598:	a94153f3 	ldp	x19, x20, [sp, #16]
    c59c:	f94013f5 	ldr	x21, [sp, #32]
    c5a0:	a8c37bfd 	ldp	x29, x30, [sp], #48
    c5a4:	d65f03c0 	ret
    c5a8:	aa1503e2 	mov	x2, x21
    c5ac:	aa1303e1 	mov	x1, x19
    c5b0:	aa1303e0 	mov	x0, x19
    c5b4:	97fffd58 	bl	bb14 <mbedtls_mpi_add_mpi>
    c5b8:	350001c0 	cbnz	w0, c5f0 <mbedtls_mpi_mod_mpi+0xa4>
    c5bc:	aa1303e0 	mov	x0, x19
    c5c0:	52800001 	mov	w1, #0x0                   	// #0
    c5c4:	97fffcc7 	bl	b8e0 <mbedtls_mpi_cmp_int>
    c5c8:	37ffff00 	tbnz	w0, #31, c5a8 <mbedtls_mpi_mod_mpi+0x5c>
    c5cc:	aa1503e1 	mov	x1, x21
    c5d0:	aa1303e0 	mov	x0, x19
    c5d4:	97fffc5b 	bl	b740 <mbedtls_mpi_cmp_mpi>
    c5d8:	37fffde0 	tbnz	w0, #31, c594 <mbedtls_mpi_mod_mpi+0x48>
    c5dc:	aa1503e2 	mov	x2, x21
    c5e0:	aa1303e1 	mov	x1, x19
    c5e4:	aa1303e0 	mov	x0, x19
    c5e8:	97fffd6d 	bl	bb9c <mbedtls_mpi_sub_mpi>
    c5ec:	34ffff00 	cbz	w0, c5cc <mbedtls_mpi_mod_mpi+0x80>
    c5f0:	2a0003f4 	mov	w20, w0
    c5f4:	17ffffe8 	b	c594 <mbedtls_mpi_mod_mpi+0x48>
    c5f8:	12800134 	mov	w20, #0xfffffff6            	// #-10
    c5fc:	17ffffe6 	b	c594 <mbedtls_mpi_mod_mpi+0x48>

000000000000c600 <mbedtls_mpi_mod_int>:
    c600:	7100005f 	cmp	w2, #0x0
    c604:	34000462 	cbz	w2, c690 <mbedtls_mpi_mod_int+0x90>
    c608:	5400048b 	b.lt	c698 <mbedtls_mpi_mod_int+0x98>  // b.tstop
    c60c:	7100045f 	cmp	w2, #0x1
    c610:	54000081 	b.ne	c620 <mbedtls_mpi_mod_int+0x20>  // b.any
    c614:	b900001f 	str	wzr, [x0]
    c618:	52800000 	mov	w0, #0x0                   	// #0
    c61c:	d65f03c0 	ret
    c620:	7100085f 	cmp	w2, #0x2
    c624:	540000c1 	b.ne	c63c <mbedtls_mpi_mod_int+0x3c>  // b.any
    c628:	f9400821 	ldr	x1, [x1, #16]
    c62c:	b9400021 	ldr	w1, [x1]
    c630:	12000021 	and	w1, w1, #0x1
    c634:	b9000001 	str	w1, [x0]
    c638:	17fffff8 	b	c618 <mbedtls_mpi_mod_int+0x18>
    c63c:	f9400425 	ldr	x5, [x1, #8]
    c640:	52800003 	mov	w3, #0x0                   	// #0
    c644:	d10004a5 	sub	x5, x5, #0x1
    c648:	b10004bf 	cmn	x5, #0x1
    c64c:	540000e1 	b.ne	c668 <mbedtls_mpi_mod_int+0x68>  // b.any
    c650:	79c00021 	ldrsh	w1, [x1]
    c654:	36f80061 	tbz	w1, #31, c660 <mbedtls_mpi_mod_int+0x60>
    c658:	34000043 	cbz	w3, c660 <mbedtls_mpi_mod_int+0x60>
    c65c:	4b030043 	sub	w3, w2, w3
    c660:	b9000003 	str	w3, [x0]
    c664:	17ffffed 	b	c618 <mbedtls_mpi_mod_int+0x18>
    c668:	f9400824 	ldr	x4, [x1, #16]
    c66c:	b8657886 	ldr	w6, [x4, x5, lsl #2]
    c670:	13864063 	extr	w3, w3, w6, #16
    c674:	1ac20864 	udiv	w4, w3, w2
    c678:	1b028c83 	msub	w3, w4, w2, w3
    c67c:	12003cc4 	and	w4, w6, #0xffff
    c680:	2a034084 	orr	w4, w4, w3, lsl #16
    c684:	1ac20883 	udiv	w3, w4, w2
    c688:	1b029063 	msub	w3, w3, w2, w4
    c68c:	17ffffee 	b	c644 <mbedtls_mpi_mod_int+0x44>
    c690:	12800160 	mov	w0, #0xfffffff4            	// #-12
    c694:	17ffffe2 	b	c61c <mbedtls_mpi_mod_int+0x1c>
    c698:	12800120 	mov	w0, #0xfffffff6            	// #-10
    c69c:	17ffffe0 	b	c61c <mbedtls_mpi_mod_int+0x1c>

000000000000c6a0 <mbedtls_mpi_write_string>:
    c6a0:	a9b87bfd 	stp	x29, x30, [sp, #-128]!
    c6a4:	910003fd 	mov	x29, sp
    c6a8:	a90153f3 	stp	x19, x20, [sp, #16]
    c6ac:	a9025bf5 	stp	x21, x22, [sp, #32]
    c6b0:	2a0103f5 	mov	w21, w1
    c6b4:	51000821 	sub	w1, w1, #0x2
    c6b8:	a90363f7 	stp	x23, x24, [sp, #48]
    c6bc:	7100383f 	cmp	w1, #0xe
    c6c0:	a9046bf9 	stp	x25, x26, [sp, #64]
    c6c4:	a90573fb 	stp	x27, x28, [sp, #80]
    c6c8:	54001028 	b.hi	c8cc <mbedtls_mpi_write_string+0x22c>  // b.pmore
    c6cc:	aa0003f4 	mov	x20, x0
    c6d0:	aa0203f7 	mov	x23, x2
    c6d4:	aa0303f8 	mov	x24, x3
    c6d8:	aa0403f6 	mov	x22, x4
    c6dc:	97fffaa6 	bl	b174 <mbedtls_mpi_bitlen>
    c6e0:	71000ebf 	cmp	w21, #0x3
    c6e4:	5400004d 	b.le	c6ec <mbedtls_mpi_write_string+0x4c>
    c6e8:	d341fc00 	lsr	x0, x0, #1
    c6ec:	710042bf 	cmp	w21, #0x10
    c6f0:	54000041 	b.ne	c6f8 <mbedtls_mpi_write_string+0x58>  // b.any
    c6f4:	d341fc00 	lsr	x0, x0, #1
    c6f8:	91001001 	add	x1, x0, #0x4
    c6fc:	927ff821 	and	x1, x1, #0xfffffffffffffffe
    c700:	eb18003f 	cmp	x1, x24
    c704:	54000169 	b.ls	c730 <mbedtls_mpi_write_string+0x90>  // b.plast
    c708:	128000f4 	mov	w20, #0xfffffff8            	// #-8
    c70c:	f90002c1 	str	x1, [x22]
    c710:	2a1403e0 	mov	w0, w20
    c714:	a94153f3 	ldp	x19, x20, [sp, #16]
    c718:	a9425bf5 	ldp	x21, x22, [sp, #32]
    c71c:	a94363f7 	ldp	x23, x24, [sp, #48]
    c720:	a9446bf9 	ldp	x25, x26, [sp, #64]
    c724:	a94573fb 	ldp	x27, x28, [sp, #80]
    c728:	a8c87bfd 	ldp	x29, x30, [sp], #128
    c72c:	d65f03c0 	ret
    c730:	9101a3fb 	add	x27, sp, #0x68
    c734:	aa1703f3 	mov	x19, x23
    c738:	aa1b03e0 	mov	x0, x27
    c73c:	97fff8dd 	bl	aab0 <mbedtls_mpi_init_mempool>
    c740:	79c00280 	ldrsh	w0, [x20]
    c744:	3100041f 	cmn	w0, #0x1
    c748:	54000081 	b.ne	c758 <mbedtls_mpi_write_string+0xb8>  // b.any
    c74c:	d1000718 	sub	x24, x24, #0x1
    c750:	528005a0 	mov	w0, #0x2d                  	// #45
    c754:	38001660 	strb	w0, [x19], #1
    c758:	710042bf 	cmp	w21, #0x10
    c75c:	54000561 	b.ne	c808 <mbedtls_mpi_write_string+0x168>  // b.any
    c760:	f9400680 	ldr	x0, [x20, #8]
    c764:	b0000024 	adrp	x4, 11000 <errmsgstr+0x177>
    c768:	9133b484 	add	x4, x4, #0xced
    c76c:	d2800002 	mov	x2, #0x0                   	// #0
    c770:	b5000100 	cbnz	x0, c790 <mbedtls_mpi_write_string+0xf0>
    c774:	3800167f 	strb	wzr, [x19], #1
    c778:	52800014 	mov	w20, #0x0                   	// #0
    c77c:	cb170273 	sub	x19, x19, x23
    c780:	f90002d3 	str	x19, [x22]
    c784:	aa1b03e0 	mov	x0, x27
    c788:	97fff8d4 	bl	aad8 <mbedtls_mpi_free>
    c78c:	17ffffe1 	b	c710 <mbedtls_mpi_write_string+0x70>
    c790:	d37ef405 	lsl	x5, x0, #2
    c794:	d2800083 	mov	x3, #0x4                   	// #4
    c798:	d10010a5 	sub	x5, x5, #0x4
    c79c:	f9400a87 	ldr	x7, [x20, #16]
    c7a0:	531d7061 	lsl	w1, w3, #3
    c7a4:	51002026 	sub	w6, w1, #0x8
    c7a8:	52000042 	eor	w2, w2, #0x1
    c7ac:	b86568e1 	ldr	w1, [x7, x5]
    c7b0:	1ac62421 	lsr	w1, w1, w6
    c7b4:	72001c26 	ands	w6, w1, #0xff
    c7b8:	1a9f0042 	csel	w2, w2, wzr, eq  // eq = none
    c7bc:	34000082 	cbz	w2, c7cc <mbedtls_mpi_write_string+0x12c>
    c7c0:	8b030002 	add	x2, x0, x3
    c7c4:	f100085f 	cmp	x2, #0x2
    c7c8:	540001c1 	b.ne	c800 <mbedtls_mpi_write_string+0x160>  // b.any
    c7cc:	d3441cc2 	ubfx	x2, x6, #4, #4
    c7d0:	92400c21 	and	x1, x1, #0xf
    c7d4:	38626886 	ldrb	w6, [x4, x2]
    c7d8:	aa1303e2 	mov	x2, x19
    c7dc:	38616881 	ldrb	w1, [x4, x1]
    c7e0:	38002446 	strb	w6, [x2], #2
    c7e4:	39000661 	strb	w1, [x19, #1]
    c7e8:	aa0203f3 	mov	x19, x2
    c7ec:	d2800022 	mov	x2, #0x1                   	// #1
    c7f0:	f1000463 	subs	x3, x3, #0x1
    c7f4:	54fffd41 	b.ne	c79c <mbedtls_mpi_write_string+0xfc>  // b.any
    c7f8:	d1000400 	sub	x0, x0, #0x1
    c7fc:	17ffffdd 	b	c770 <mbedtls_mpi_write_string+0xd0>
    c800:	d2800002 	mov	x2, #0x0                   	// #0
    c804:	17fffffb 	b	c7f0 <mbedtls_mpi_write_string+0x150>
    c808:	aa1403e1 	mov	x1, x20
    c80c:	aa1b03e0 	mov	x0, x27
    c810:	97fff94f 	bl	ad4c <mbedtls_mpi_copy>
    c814:	2a0003f4 	mov	w20, w0
    c818:	35fffb60 	cbnz	w0, c784 <mbedtls_mpi_write_string+0xe4>
    c81c:	79c0d3e0 	ldrsh	w0, [sp, #104]
    c820:	3100041f 	cmn	w0, #0x1
    c824:	54000061 	b.ne	c830 <mbedtls_mpi_write_string+0x190>  // b.any
    c828:	52800020 	mov	w0, #0x1                   	// #1
    c82c:	7900d3e0 	strh	w0, [sp, #104]
    c830:	8b180279 	add	x25, x19, x24
    c834:	910193fa 	add	x26, sp, #0x64
    c838:	aa1903fc 	mov	x28, x25
    c83c:	cb1c0320 	sub	x0, x25, x28
    c840:	eb00031f 	cmp	x24, x0
    c844:	54000489 	b.ls	c8d4 <mbedtls_mpi_write_string+0x234>  // b.plast
    c848:	2a1503e2 	mov	w2, w21
    c84c:	aa1b03e1 	mov	x1, x27
    c850:	aa1a03e0 	mov	x0, x26
    c854:	97ffff6b 	bl	c600 <mbedtls_mpi_mod_int>
    c858:	2a0003f4 	mov	w20, w0
    c85c:	35fff940 	cbnz	w0, c784 <mbedtls_mpi_write_string+0xe4>
    c860:	2a1503e3 	mov	w3, w21
    c864:	aa1b03e2 	mov	x2, x27
    c868:	aa1b03e0 	mov	x0, x27
    c86c:	d2800001 	mov	x1, #0x0                   	// #0
    c870:	97ffff27 	bl	c50c <mbedtls_mpi_div_int>
    c874:	2a0003f4 	mov	w20, w0
    c878:	35fff860 	cbnz	w0, c784 <mbedtls_mpi_write_string+0xe4>
    c87c:	b94067e2 	ldr	w2, [sp, #100]
    c880:	12001c40 	and	w0, w2, #0xff
    c884:	7100245f 	cmp	w2, #0x9
    c888:	1100c001 	add	w1, w0, #0x30
    c88c:	1100dc00 	add	w0, w0, #0x37
    c890:	12001c21 	and	w1, w1, #0xff
    c894:	12001c00 	and	w0, w0, #0xff
    c898:	1a818000 	csel	w0, w0, w1, hi  // hi = pmore
    c89c:	381fff80 	strb	w0, [x28, #-1]!
    c8a0:	52800001 	mov	w1, #0x0                   	// #0
    c8a4:	aa1b03e0 	mov	x0, x27
    c8a8:	cb1c0334 	sub	x20, x25, x28
    c8ac:	97fffc0d 	bl	b8e0 <mbedtls_mpi_cmp_int>
    c8b0:	35fffc60 	cbnz	w0, c83c <mbedtls_mpi_write_string+0x19c>
    c8b4:	aa1303e0 	mov	x0, x19
    c8b8:	aa1403e2 	mov	x2, x20
    c8bc:	aa1c03e1 	mov	x1, x28
    c8c0:	8b140273 	add	x19, x19, x20
    c8c4:	940007e1 	bl	e848 <memmove>
    c8c8:	17ffffab 	b	c774 <mbedtls_mpi_write_string+0xd4>
    c8cc:	12800074 	mov	w20, #0xfffffffc            	// #-4
    c8d0:	17ffff90 	b	c710 <mbedtls_mpi_write_string+0x70>
    c8d4:	128000f4 	mov	w20, #0xfffffff8            	// #-8
    c8d8:	17ffffab 	b	c784 <mbedtls_mpi_write_string+0xe4>

000000000000c8dc <mpi_check_small_factors>:
    c8dc:	a9bc7bfd 	stp	x29, x30, [sp, #-64]!
    c8e0:	910003fd 	mov	x29, sp
    c8e4:	a90153f3 	stp	x19, x20, [sp, #16]
    c8e8:	aa0003f4 	mov	x20, x0
    c8ec:	f9400800 	ldr	x0, [x0, #16]
    c8f0:	a9025bf5 	stp	x21, x22, [sp, #32]
    c8f4:	b9400000 	ldr	w0, [x0]
    c8f8:	36000320 	tbz	w0, #0, c95c <mpi_check_small_factors+0x80>
    c8fc:	90000033 	adrp	x19, 10000 <__text_end+0x1600>
    c900:	9100f3f6 	add	x22, sp, #0x3c
    c904:	91193273 	add	x19, x19, #0x64c
    c908:	b9400275 	ldr	w21, [x19]
    c90c:	710002bf 	cmp	w21, #0x0
    c910:	540000cc 	b.gt	c928 <mpi_check_small_factors+0x4c>
    c914:	52800000 	mov	w0, #0x0                   	// #0
    c918:	a94153f3 	ldp	x19, x20, [sp, #16]
    c91c:	a9425bf5 	ldp	x21, x22, [sp, #32]
    c920:	a8c47bfd 	ldp	x29, x30, [sp], #64
    c924:	d65f03c0 	ret
    c928:	2a1503e1 	mov	w1, w21
    c92c:	aa1403e0 	mov	x0, x20
    c930:	97fffbec 	bl	b8e0 <mbedtls_mpi_cmp_int>
    c934:	7100001f 	cmp	w0, #0x0
    c938:	5400016d 	b.le	c964 <mpi_check_small_factors+0x88>
    c93c:	2a1503e2 	mov	w2, w21
    c940:	aa1403e1 	mov	x1, x20
    c944:	aa1603e0 	mov	x0, x22
    c948:	97ffff2e 	bl	c600 <mbedtls_mpi_mod_int>
    c94c:	35fffe60 	cbnz	w0, c918 <mpi_check_small_factors+0x3c>
    c950:	b9403fe0 	ldr	w0, [sp, #60]
    c954:	91001273 	add	x19, x19, #0x4
    c958:	35fffd80 	cbnz	w0, c908 <mpi_check_small_factors+0x2c>
    c95c:	128001a0 	mov	w0, #0xfffffff2            	// #-14
    c960:	17ffffee 	b	c918 <mpi_check_small_factors+0x3c>
    c964:	52800020 	mov	w0, #0x1                   	// #1
    c968:	17ffffec 	b	c918 <mpi_check_small_factors+0x3c>

000000000000c96c <mbedtls_mpi_montg_init>:
    c96c:	f9400821 	ldr	x1, [x1, #16]
    c970:	52800062 	mov	w2, #0x3                   	// #3
    c974:	52800045 	mov	w5, #0x2                   	// #2
    c978:	b9400023 	ldr	w3, [x1]
    c97c:	11000861 	add	w1, w3, #0x2
    c980:	531f7821 	lsl	w1, w1, #1
    c984:	121d0021 	and	w1, w1, #0x8
    c988:	0b030021 	add	w1, w1, w3
    c98c:	1b019464 	msub	w4, w3, w1, w5
    c990:	71000442 	subs	w2, w2, #0x1
    c994:	1b047c21 	mul	w1, w1, w4
    c998:	54ffffa1 	b.ne	c98c <mbedtls_mpi_montg_init+0x20>  // b.any
    c99c:	4b0103e1 	neg	w1, w1
    c9a0:	b9000001 	str	w1, [x0]
    c9a4:	d65f03c0 	ret

000000000000c9a8 <mbedtls_mpi_montmul>:
    c9a8:	a9bb7bfd 	stp	x29, x30, [sp, #-80]!
    c9ac:	910003fd 	mov	x29, sp
    c9b0:	a90153f3 	stp	x19, x20, [sp, #16]
    c9b4:	aa0203f3 	mov	x19, x2
    c9b8:	a9025bf5 	stp	x21, x22, [sp, #32]
    c9bc:	aa0003f5 	mov	x21, x0
    c9c0:	f9400660 	ldr	x0, [x19, #8]
    c9c4:	a90363f7 	stp	x23, x24, [sp, #48]
    c9c8:	f9400482 	ldr	x2, [x4, #8]
    c9cc:	f90023f9 	str	x25, [sp, #64]
    c9d0:	91000400 	add	x0, x0, #0x1
    c9d4:	eb00005f 	cmp	x2, x0
    c9d8:	540007c3 	b.cc	cad0 <mbedtls_mpi_montmul+0x128>  // b.lo, b.ul, b.last
    c9dc:	f9400880 	ldr	x0, [x4, #16]
    c9e0:	aa0403f6 	mov	x22, x4
    c9e4:	b4000760 	cbz	x0, cad0 <mbedtls_mpi_montmul+0x128>
    c9e8:	aa0103f8 	mov	x24, x1
    c9ec:	2a0303f7 	mov	w23, w3
    c9f0:	d37ef442 	lsl	x2, x2, #2
    c9f4:	52800001 	mov	w1, #0x0                   	// #0
    c9f8:	97ffe005 	bl	4a0c <memset>
    c9fc:	d2800014 	mov	x20, #0x0                   	// #0
    ca00:	f940066d 	ldr	x13, [x19, #8]
    ca04:	f9400700 	ldr	x0, [x24, #8]
    ca08:	910005ac 	add	x12, x13, #0x1
    ca0c:	f9400ad9 	ldr	x25, [x22, #16]
    ca10:	eb0d001f 	cmp	x0, x13
    ca14:	d37ef58c 	lsl	x12, x12, #2
    ca18:	9a8d900f 	csel	x15, x0, x13, ls  // ls = plast
    ca1c:	aa1903eb 	mov	x11, x25
    ca20:	eb0d029f 	cmp	x20, x13
    ca24:	f9400aa0 	ldr	x0, [x21, #16]
    ca28:	54000281 	b.ne	ca78 <mbedtls_mpi_montmul+0xd0>  // b.any
    ca2c:	aa0c03e2 	mov	x2, x12
    ca30:	d1001181 	sub	x1, x12, #0x4
    ca34:	8b010321 	add	x1, x25, x1
    ca38:	97ffdf0c 	bl	4668 <memcpy>
    ca3c:	aa1303e1 	mov	x1, x19
    ca40:	aa1503e0 	mov	x0, x21
    ca44:	97fffb18 	bl	b6a4 <mbedtls_mpi_cmp_abs>
    ca48:	37f803e0 	tbnz	w0, #31, cac4 <mbedtls_mpi_montmul+0x11c>
    ca4c:	f9400a61 	ldr	x1, [x19, #16]
    ca50:	f9400aa2 	ldr	x2, [x21, #16]
    ca54:	aa1403e0 	mov	x0, x20
    ca58:	97fff6dc 	bl	a5c8 <mpi_sub_hlp>
    ca5c:	52800000 	mov	w0, #0x0                   	// #0
    ca60:	a94153f3 	ldp	x19, x20, [sp, #16]
    ca64:	a9425bf5 	ldp	x21, x22, [sp, #32]
    ca68:	a94363f7 	ldp	x23, x24, [sp, #48]
    ca6c:	f94023f9 	ldr	x25, [sp, #64]
    ca70:	a8c57bfd 	ldp	x29, x30, [sp], #80
    ca74:	d65f03c0 	ret
    ca78:	f9400b01 	ldr	x1, [x24, #16]
    ca7c:	aa0b03e2 	mov	x2, x11
    ca80:	b8747812 	ldr	w18, [x0, x20, lsl #2]
    ca84:	91000694 	add	x20, x20, #0x1
    ca88:	b9400160 	ldr	w0, [x11]
    ca8c:	b940002e 	ldr	w14, [x1]
    ca90:	2a1203e3 	mov	w3, w18
    ca94:	1b0e024e 	madd	w14, w18, w14, w0
    ca98:	aa0f03e0 	mov	x0, x15
    ca9c:	1b177dce 	mul	w14, w14, w23
    caa0:	97fff6e2 	bl	a628 <mpi_mul_hlp>
    caa4:	aa0b03e2 	mov	x2, x11
    caa8:	f9400a61 	ldr	x1, [x19, #16]
    caac:	2a0e03e3 	mov	w3, w14
    cab0:	aa0d03e0 	mov	x0, x13
    cab4:	97fff6dd 	bl	a628 <mpi_mul_hlp>
    cab8:	b8004572 	str	w18, [x11], #4
    cabc:	b82c697f 	str	wzr, [x11, x12]
    cac0:	17ffffd8 	b	ca20 <mbedtls_mpi_montmul+0x78>
    cac4:	f9400aa1 	ldr	x1, [x21, #16]
    cac8:	f9400ac2 	ldr	x2, [x22, #16]
    cacc:	17ffffe2 	b	ca54 <mbedtls_mpi_montmul+0xac>
    cad0:	12800060 	mov	w0, #0xfffffffc            	// #-4
    cad4:	17ffffe3 	b	ca60 <mbedtls_mpi_montmul+0xb8>

000000000000cad8 <mbedtls_mpi_montred>:
    cad8:	a9bd7bfd 	stp	x29, x30, [sp, #-48]!
    cadc:	52800025 	mov	w5, #0x1                   	// #1
    cae0:	d2800024 	mov	x4, #0x1                   	// #1
    cae4:	910003fd 	mov	x29, sp
    cae8:	f90013e4 	str	x4, [sp, #32]
    caec:	910053e4 	add	x4, sp, #0x14
    caf0:	b90017e5 	str	w5, [sp, #20]
    caf4:	790033e5 	strh	w5, [sp, #24]
    caf8:	f90017e4 	str	x4, [sp, #40]
    cafc:	aa0303e4 	mov	x4, x3
    cb00:	2a0203e3 	mov	w3, w2
    cb04:	aa0103e2 	mov	x2, x1
    cb08:	910063e1 	add	x1, sp, #0x18
    cb0c:	97ffffa7 	bl	c9a8 <mbedtls_mpi_montmul>
    cb10:	a8c37bfd 	ldp	x29, x30, [sp], #48
    cb14:	d65f03c0 	ret

000000000000cb18 <mbedtls_mpi_exp_mod>:
    cb18:	a9b07bfd 	stp	x29, x30, [sp, #-256]!
    cb1c:	910003fd 	mov	x29, sp
    cb20:	a90153f3 	stp	x19, x20, [sp, #16]
    cb24:	aa0303f3 	mov	x19, x3
    cb28:	a9025bf5 	stp	x21, x22, [sp, #32]
    cb2c:	aa0003f5 	mov	x21, x0
    cb30:	aa0303e0 	mov	x0, x3
    cb34:	a90363f7 	stp	x23, x24, [sp, #48]
    cb38:	a9046bf9 	stp	x25, x26, [sp, #64]
    cb3c:	aa0203fa 	mov	x26, x2
    cb40:	aa0403f9 	mov	x25, x4
    cb44:	a90573fb 	stp	x27, x28, [sp, #80]
    cb48:	aa0103fb 	mov	x27, x1
    cb4c:	52800001 	mov	w1, #0x0                   	// #0
    cb50:	97fffb64 	bl	b8e0 <mbedtls_mpi_cmp_int>
    cb54:	7100001f 	cmp	w0, #0x0
    cb58:	5400014c 	b.gt	cb80 <mbedtls_mpi_exp_mod+0x68>
    cb5c:	12800062 	mov	w2, #0xfffffffc            	// #-4
    cb60:	2a0203e0 	mov	w0, w2
    cb64:	a94153f3 	ldp	x19, x20, [sp, #16]
    cb68:	a9425bf5 	ldp	x21, x22, [sp, #32]
    cb6c:	a94363f7 	ldp	x23, x24, [sp, #48]
    cb70:	a9446bf9 	ldp	x25, x26, [sp, #64]
    cb74:	a94573fb 	ldp	x27, x28, [sp, #80]
    cb78:	a8d07bfd 	ldp	x29, x30, [sp], #256
    cb7c:	d65f03c0 	ret
    cb80:	f9400a60 	ldr	x0, [x19, #16]
    cb84:	b9400000 	ldr	w0, [x0]
    cb88:	12000001 	and	w1, w0, #0x1
    cb8c:	b9008fe1 	str	w1, [sp, #140]
    cb90:	3607fe60 	tbz	w0, #0, cb5c <mbedtls_mpi_exp_mod+0x44>
    cb94:	aa1a03e0 	mov	x0, x26
    cb98:	52800001 	mov	w1, #0x0                   	// #0
    cb9c:	97fffb51 	bl	b8e0 <mbedtls_mpi_cmp_int>
    cba0:	37fffde0 	tbnz	w0, #31, cb5c <mbedtls_mpi_exp_mod+0x44>
    cba4:	aa1303e1 	mov	x1, x19
    cba8:	9102d3e0 	add	x0, sp, #0xb4
    cbac:	9102e3f8 	add	x24, sp, #0xb8
    cbb0:	97ffff6f 	bl	c96c <mbedtls_mpi_montg_init>
    cbb4:	aa1803e0 	mov	x0, x24
    cbb8:	910343f6 	add	x22, sp, #0xd0
    cbbc:	97fff7bd 	bl	aab0 <mbedtls_mpi_init_mempool>
    cbc0:	aa1603e0 	mov	x0, x22
    cbc4:	97fff7bb 	bl	aab0 <mbedtls_mpi_init_mempool>
    cbc8:	9103a3e0 	add	x0, sp, #0xe8
    cbcc:	f9003be0 	str	x0, [sp, #112]
    cbd0:	97fff7b8 	bl	aab0 <mbedtls_mpi_init_mempool>
    cbd4:	aa1a03e0 	mov	x0, x26
    cbd8:	97fff967 	bl	b174 <mbedtls_mpi_bitlen>
    cbdc:	f10a7c1f 	cmp	x0, #0x29f
    cbe0:	540012c8 	b.hi	ce38 <mbedtls_mpi_exp_mod+0x320>  // b.pmore
    cbe4:	f103bc1f 	cmp	x0, #0xef
    cbe8:	540012c8 	b.hi	ce40 <mbedtls_mpi_exp_mod+0x328>  // b.pmore
    cbec:	f1013c1f 	cmp	x0, #0x4f
    cbf0:	540012c8 	b.hi	ce48 <mbedtls_mpi_exp_mod+0x330>  // b.pmore
    cbf4:	f1005c1f 	cmp	x0, #0x17
    cbf8:	d2800077 	mov	x23, #0x3                   	// #3
    cbfc:	9a9f86f7 	csinc	x23, x23, xzr, hi  // hi = pmore
    cc00:	f9400660 	ldr	x0, [x19, #8]
    cc04:	91000400 	add	x0, x0, #0x1
    cc08:	f9003fe0 	str	x0, [sp, #120]
    cc0c:	aa0003e1 	mov	x1, x0
    cc10:	aa1503e0 	mov	x0, x21
    cc14:	97fff7cc 	bl	ab44 <mbedtls_mpi_grow>
    cc18:	2a0003e2 	mov	w2, w0
    cc1c:	f0000020 	adrp	x0, 13000 <_DYNAMIC>
    cc20:	f90053e0 	str	x0, [sp, #160]
    cc24:	35002b82 	cbnz	w2, d194 <mbedtls_mpi_exp_mod+0x67c>
    cc28:	f9403fe0 	ldr	x0, [sp, #120]
    cc2c:	d37ff801 	lsl	x1, x0, #1
    cc30:	aa1603e0 	mov	x0, x22
    cc34:	97fff7c4 	bl	ab44 <mbedtls_mpi_grow>
    cc38:	2a0003e2 	mov	w2, w0
    cc3c:	35002ac0 	cbnz	w0, d194 <mbedtls_mpi_exp_mod+0x67c>
    cc40:	79c00360 	ldrsh	w0, [x27]
    cc44:	b9008be0 	str	w0, [sp, #136]
    cc48:	3100041f 	cmn	w0, #0x1
    cc4c:	54000121 	b.ne	cc70 <mbedtls_mpi_exp_mod+0x158>  // b.any
    cc50:	f9403be0 	ldr	x0, [sp, #112]
    cc54:	aa1b03e1 	mov	x1, x27
    cc58:	97fff83d 	bl	ad4c <mbedtls_mpi_copy>
    cc5c:	2a0003e2 	mov	w2, w0
    cc60:	350029a0 	cbnz	w0, d194 <mbedtls_mpi_exp_mod+0x67c>
    cc64:	f9403bfb 	ldr	x27, [sp, #112]
    cc68:	52800020 	mov	w0, #0x1                   	// #1
    cc6c:	7901d3e0 	strh	w0, [sp, #232]
    cc70:	b4000079 	cbz	x25, cc7c <mbedtls_mpi_exp_mod+0x164>
    cc74:	f9400b20 	ldr	x0, [x25, #16]
    cc78:	b5000ec0 	cbnz	x0, ce50 <mbedtls_mpi_exp_mod+0x338>
    cc7c:	aa1803e0 	mov	x0, x24
    cc80:	52800021 	mov	w1, #0x1                   	// #1
    cc84:	97fff8df 	bl	b000 <mbedtls_mpi_lset>
    cc88:	2a0003e2 	mov	w2, w0
    cc8c:	35002840 	cbnz	w0, d194 <mbedtls_mpi_exp_mod+0x67c>
    cc90:	f9400661 	ldr	x1, [x19, #8]
    cc94:	aa1803e0 	mov	x0, x24
    cc98:	d37ae421 	lsl	x1, x1, #6
    cc9c:	97fffa0e 	bl	b4d4 <mbedtls_mpi_shift_l>
    cca0:	2a0003e2 	mov	w2, w0
    cca4:	35002780 	cbnz	w0, d194 <mbedtls_mpi_exp_mod+0x67c>
    cca8:	aa1303e2 	mov	x2, x19
    ccac:	aa1803e1 	mov	x1, x24
    ccb0:	aa1803e0 	mov	x0, x24
    ccb4:	97fffe26 	bl	c54c <mbedtls_mpi_mod_mpi>
    ccb8:	2a0003e2 	mov	w2, w0
    ccbc:	350026c0 	cbnz	w0, d194 <mbedtls_mpi_exp_mod+0x67c>
    ccc0:	b40000b9 	cbz	x25, ccd4 <mbedtls_mpi_exp_mod+0x1bc>
    ccc4:	aa1803e1 	mov	x1, x24
    ccc8:	aa1903e0 	mov	x0, x25
    cccc:	d2800302 	mov	x2, #0x18                  	// #24
    ccd0:	97ffde66 	bl	4668 <memcpy>
    ccd4:	f0000020 	adrp	x0, 13000 <_DYNAMIC>
    ccd8:	d2818001 	mov	x1, #0xc00                 	// #3072
    ccdc:	f940d800 	ldr	x0, [x0, #432]
    cce0:	f9400000 	ldr	x0, [x0]
    cce4:	94000744 	bl	e9f4 <mempool_alloc>
    cce8:	aa0003f4 	mov	x20, x0
    ccec:	b4002580 	cbz	x0, d19c <mbedtls_mpi_exp_mod+0x684>
    ccf0:	aa1403fc 	mov	x28, x20
    ccf4:	91300000 	add	x0, x0, #0xc00
    ccf8:	f90037f4 	str	x20, [sp, #104]
    ccfc:	f9004be0 	str	x0, [sp, #144]
    cd00:	aa1c03e0 	mov	x0, x28
    cd04:	97fff76b 	bl	aab0 <mbedtls_mpi_init_mempool>
    cd08:	f9404be0 	ldr	x0, [sp, #144]
    cd0c:	9100639c 	add	x28, x28, #0x18
    cd10:	eb00039f 	cmp	x28, x0
    cd14:	54ffff61 	b.ne	cd00 <mbedtls_mpi_exp_mod+0x1e8>  // b.any
    cd18:	f9403fe1 	ldr	x1, [sp, #120]
    cd1c:	9100629c 	add	x28, x20, #0x18
    cd20:	aa1c03e0 	mov	x0, x28
    cd24:	97fff788 	bl	ab44 <mbedtls_mpi_grow>
    cd28:	2a0003e2 	mov	w2, w0
    cd2c:	35001fa0 	cbnz	w0, d120 <mbedtls_mpi_exp_mod+0x608>
    cd30:	aa1303e1 	mov	x1, x19
    cd34:	aa1b03e0 	mov	x0, x27
    cd38:	97fffa82 	bl	b740 <mbedtls_mpi_cmp_mpi>
    cd3c:	37f80920 	tbnz	w0, #31, ce60 <mbedtls_mpi_exp_mod+0x348>
    cd40:	aa1303e2 	mov	x2, x19
    cd44:	aa1b03e1 	mov	x1, x27
    cd48:	aa1c03e0 	mov	x0, x28
    cd4c:	97fffe00 	bl	c54c <mbedtls_mpi_mod_mpi>
    cd50:	2a0003e2 	mov	w2, w0
    cd54:	35001e60 	cbnz	w0, d120 <mbedtls_mpi_exp_mod+0x608>
    cd58:	b940b7e3 	ldr	w3, [sp, #180]
    cd5c:	aa1303e2 	mov	x2, x19
    cd60:	aa1603e4 	mov	x4, x22
    cd64:	aa1803e1 	mov	x1, x24
    cd68:	aa1c03e0 	mov	x0, x28
    cd6c:	97ffff0f 	bl	c9a8 <mbedtls_mpi_montmul>
    cd70:	2a0003e2 	mov	w2, w0
    cd74:	35001d60 	cbnz	w0, d120 <mbedtls_mpi_exp_mod+0x608>
    cd78:	aa1803e1 	mov	x1, x24
    cd7c:	aa1503e0 	mov	x0, x21
    cd80:	97fff7f3 	bl	ad4c <mbedtls_mpi_copy>
    cd84:	2a0003e2 	mov	w2, w0
    cd88:	35001cc0 	cbnz	w0, d120 <mbedtls_mpi_exp_mod+0x608>
    cd8c:	b940b7e2 	ldr	w2, [sp, #180]
    cd90:	aa1603e3 	mov	x3, x22
    cd94:	aa1303e1 	mov	x1, x19
    cd98:	aa1503e0 	mov	x0, x21
    cd9c:	97ffff4f 	bl	cad8 <mbedtls_mpi_montred>
    cda0:	2a0003e2 	mov	w2, w0
    cda4:	35001be0 	cbnz	w0, d120 <mbedtls_mpi_exp_mod+0x608>
    cda8:	f10006ff 	cmp	x23, #0x1
    cdac:	54000621 	b.ne	ce70 <mbedtls_mpi_exp_mod+0x358>  // b.any
    cdb0:	f940075b 	ldr	x27, [x26, #8]
    cdb4:	52800002 	mov	w2, #0x0                   	// #0
    cdb8:	d2800005 	mov	x5, #0x0                   	// #0
    cdbc:	d2800007 	mov	x7, #0x0                   	// #0
    cdc0:	d2800006 	mov	x6, #0x0                   	// #0
    cdc4:	b5000fc7 	cbnz	x7, cfbc <mbedtls_mpi_exp_mod+0x4a4>
    cdc8:	b5000f7b 	cbnz	x27, cfb4 <mbedtls_mpi_exp_mod+0x49c>
    cdcc:	d2800020 	mov	x0, #0x1                   	// #1
    cdd0:	9ad72017 	lsl	x23, x0, x23
    cdd4:	b940b7e2 	ldr	w2, [sp, #180]
    cdd8:	eb05037f 	cmp	x27, x5
    cddc:	54001701 	b.ne	d0bc <mbedtls_mpi_exp_mod+0x5a4>  // b.any
    cde0:	aa1603e3 	mov	x3, x22
    cde4:	aa1303e1 	mov	x1, x19
    cde8:	aa1503e0 	mov	x0, x21
    cdec:	97ffff3b 	bl	cad8 <mbedtls_mpi_montred>
    cdf0:	2a0003e2 	mov	w2, w0
    cdf4:	35001960 	cbnz	w0, d120 <mbedtls_mpi_exp_mod+0x608>
    cdf8:	b9408be0 	ldr	w0, [sp, #136]
    cdfc:	3100041f 	cmn	w0, #0x1
    ce00:	54001901 	b.ne	d120 <mbedtls_mpi_exp_mod+0x608>  // b.any
    ce04:	f9400740 	ldr	x0, [x26, #8]
    ce08:	b40018c0 	cbz	x0, d120 <mbedtls_mpi_exp_mod+0x608>
    ce0c:	f9400b40 	ldr	x0, [x26, #16]
    ce10:	b9400000 	ldr	w0, [x0]
    ce14:	36001860 	tbz	w0, #0, d120 <mbedtls_mpi_exp_mod+0x608>
    ce18:	794113e0 	ldrh	w0, [sp, #136]
    ce1c:	aa1503e2 	mov	x2, x21
    ce20:	790002a0 	strh	w0, [x21]
    ce24:	aa1303e1 	mov	x1, x19
    ce28:	aa1503e0 	mov	x0, x21
    ce2c:	97fffb3a 	bl	bb14 <mbedtls_mpi_add_mpi>
    ce30:	2a0003e2 	mov	w2, w0
    ce34:	140000bb 	b	d120 <mbedtls_mpi_exp_mod+0x608>
    ce38:	d28000d7 	mov	x23, #0x6                   	// #6
    ce3c:	17ffff71 	b	cc00 <mbedtls_mpi_exp_mod+0xe8>
    ce40:	d28000b7 	mov	x23, #0x5                   	// #5
    ce44:	17ffff6f 	b	cc00 <mbedtls_mpi_exp_mod+0xe8>
    ce48:	d2800097 	mov	x23, #0x4                   	// #4
    ce4c:	17ffff6d 	b	cc00 <mbedtls_mpi_exp_mod+0xe8>
    ce50:	aa1903e1 	mov	x1, x25
    ce54:	aa1803e0 	mov	x0, x24
    ce58:	d2800302 	mov	x2, #0x18                  	// #24
    ce5c:	17ffff9d 	b	ccd0 <mbedtls_mpi_exp_mod+0x1b8>
    ce60:	aa1b03e1 	mov	x1, x27
    ce64:	aa1c03e0 	mov	x0, x28
    ce68:	97fff7b9 	bl	ad4c <mbedtls_mpi_copy>
    ce6c:	17ffffb9 	b	cd50 <mbedtls_mpi_exp_mod+0x238>
    ce70:	510006e0 	sub	w0, w23, #0x1
    ce74:	b9007be0 	str	w0, [sp, #120]
    ce78:	d2800305 	mov	x5, #0x18                  	// #24
    ce7c:	b9009bf7 	str	w23, [sp, #152]
    ce80:	3941e3e0 	ldrb	w0, [sp, #120]
    ce84:	f9400661 	ldr	x1, [x19, #8]
    ce88:	9ac020a5 	lsl	x5, x5, x0
    ce8c:	8b05029b 	add	x27, x20, x5
    ce90:	91000421 	add	x1, x1, #0x1
    ce94:	aa1b03e0 	mov	x0, x27
    ce98:	97fff72b 	bl	ab44 <mbedtls_mpi_grow>
    ce9c:	2a0003e2 	mov	w2, w0
    cea0:	35001400 	cbnz	w0, d120 <mbedtls_mpi_exp_mod+0x608>
    cea4:	aa1c03e1 	mov	x1, x28
    cea8:	aa1b03e0 	mov	x0, x27
    ceac:	97fff7a8 	bl	ad4c <mbedtls_mpi_copy>
    ceb0:	2a0003e2 	mov	w2, w0
    ceb4:	35001360 	cbnz	w0, d120 <mbedtls_mpi_exp_mod+0x608>
    ceb8:	d10006e7 	sub	x7, x23, #0x1
    cebc:	d2800006 	mov	x6, #0x0                   	// #0
    cec0:	b940b7e3 	ldr	w3, [sp, #180]
    cec4:	aa1303e2 	mov	x2, x19
    cec8:	aa1603e4 	mov	x4, x22
    cecc:	aa1b03e1 	mov	x1, x27
    ced0:	aa1b03e0 	mov	x0, x27
    ced4:	f90043e6 	str	x6, [sp, #128]
    ced8:	f90057e7 	str	x7, [sp, #168]
    cedc:	97fffeb3 	bl	c9a8 <mbedtls_mpi_montmul>
    cee0:	2a0003e2 	mov	w2, w0
    cee4:	350011e0 	cbnz	w0, d120 <mbedtls_mpi_exp_mod+0x608>
    cee8:	f94043e6 	ldr	x6, [sp, #128]
    ceec:	f94057e7 	ldr	x7, [sp, #168]
    cef0:	910004c6 	add	x6, x6, #0x1
    cef4:	eb0600ff 	cmp	x7, x6
    cef8:	54fffe48 	b.hi	cec0 <mbedtls_mpi_exp_mod+0x3a8>  // b.pmore
    cefc:	3941e3e1 	ldrb	w1, [sp, #120]
    cf00:	d2800020 	mov	x0, #0x1                   	// #1
    cf04:	9ac12001 	lsl	x1, x0, x1
    cf08:	8b000021 	add	x1, x1, x0
    cf0c:	f90043e1 	str	x1, [sp, #128]
    cf10:	394263e1 	ldrb	w1, [sp, #152]
    cf14:	9ac12000 	lsl	x0, x0, x1
    cf18:	3941e3e1 	ldrb	w1, [sp, #120]
    cf1c:	f9004fe0 	str	x0, [sp, #152]
    cf20:	d2800300 	mov	x0, #0x18                  	// #24
    cf24:	9ac1201b 	lsl	x27, x0, x1
    cf28:	8b1b0283 	add	x3, x20, x27
    cf2c:	f94043e1 	ldr	x1, [sp, #128]
    cf30:	f9404fe0 	ldr	x0, [sp, #152]
    cf34:	eb01001f 	cmp	x0, x1
    cf38:	54fff3c9 	b.ls	cdb0 <mbedtls_mpi_exp_mod+0x298>  // b.plast
    cf3c:	f9400661 	ldr	x1, [x19, #8]
    cf40:	9100607b 	add	x27, x3, #0x18
    cf44:	aa1b03e0 	mov	x0, x27
    cf48:	f9003fe3 	str	x3, [sp, #120]
    cf4c:	91000421 	add	x1, x1, #0x1
    cf50:	97fff6fd 	bl	ab44 <mbedtls_mpi_grow>
    cf54:	2a0003e2 	mov	w2, w0
    cf58:	35000e40 	cbnz	w0, d120 <mbedtls_mpi_exp_mod+0x608>
    cf5c:	f9403fe3 	ldr	x3, [sp, #120]
    cf60:	aa1b03e0 	mov	x0, x27
    cf64:	aa0303e1 	mov	x1, x3
    cf68:	97fff779 	bl	ad4c <mbedtls_mpi_copy>
    cf6c:	2a0003e2 	mov	w2, w0
    cf70:	35000d80 	cbnz	w0, d120 <mbedtls_mpi_exp_mod+0x608>
    cf74:	b940b7e3 	ldr	w3, [sp, #180]
    cf78:	aa1303e2 	mov	x2, x19
    cf7c:	aa1603e4 	mov	x4, x22
    cf80:	aa1c03e1 	mov	x1, x28
    cf84:	aa1b03e0 	mov	x0, x27
    cf88:	97fffe88 	bl	c9a8 <mbedtls_mpi_montmul>
    cf8c:	2a0003e2 	mov	w2, w0
    cf90:	35000c80 	cbnz	w0, d120 <mbedtls_mpi_exp_mod+0x608>
    cf94:	f94043e0 	ldr	x0, [sp, #128]
    cf98:	aa1b03e3 	mov	x3, x27
    cf9c:	91000400 	add	x0, x0, #0x1
    cfa0:	f90043e0 	str	x0, [sp, #128]
    cfa4:	17ffffe2 	b	cf2c <mbedtls_mpi_exp_mod+0x414>
    cfa8:	52800041 	mov	w1, #0x2                   	// #2
    cfac:	2a0103e2 	mov	w2, w1
    cfb0:	17ffff85 	b	cdc4 <mbedtls_mpi_exp_mod+0x2ac>
    cfb4:	d100077b 	sub	x27, x27, #0x1
    cfb8:	d2800407 	mov	x7, #0x20                  	// #32
    cfbc:	f9400b40 	ldr	x0, [x26, #16]
    cfc0:	d10004e7 	sub	x7, x7, #0x1
    cfc4:	b87b7800 	ldr	w0, [x0, x27, lsl #2]
    cfc8:	1ac72400 	lsr	w0, w0, w7
    cfcc:	12000000 	and	w0, w0, #0x1
    cfd0:	2a000041 	orr	w1, w2, w0
    cfd4:	34fffec1 	cbz	w1, cfac <mbedtls_mpi_exp_mod+0x494>
    cfd8:	52000001 	eor	w1, w0, #0x1
    cfdc:	7100045f 	cmp	w2, #0x1
    cfe0:	1a9f0021 	csel	w1, w1, wzr, eq  // eq = none
    cfe4:	340001e1 	cbz	w1, d020 <mbedtls_mpi_exp_mod+0x508>
    cfe8:	b940b7e3 	ldr	w3, [sp, #180]
    cfec:	aa1303e2 	mov	x2, x19
    cff0:	aa1603e4 	mov	x4, x22
    cff4:	aa1503e1 	mov	x1, x21
    cff8:	aa1503e0 	mov	x0, x21
    cffc:	a9079fe6 	stp	x6, x7, [sp, #120]
    d000:	f9004fe5 	str	x5, [sp, #152]
    d004:	97fffe69 	bl	c9a8 <mbedtls_mpi_montmul>
    d008:	2a0003e2 	mov	w2, w0
    d00c:	350008a0 	cbnz	w0, d120 <mbedtls_mpi_exp_mod+0x608>
    d010:	b9408fe1 	ldr	w1, [sp, #140]
    d014:	a9479fe6 	ldp	x6, x7, [sp, #120]
    d018:	f9404fe5 	ldr	x5, [sp, #152]
    d01c:	17ffffe4 	b	cfac <mbedtls_mpi_exp_mod+0x494>
    d020:	910004a5 	add	x5, x5, #0x1
    d024:	4b0502e1 	sub	w1, w23, w5
    d028:	eb0502ff 	cmp	x23, x5
    d02c:	1ac12000 	lsl	w0, w0, w1
    d030:	aa0000c6 	orr	x6, x6, x0
    d034:	54fffba1 	b.ne	cfa8 <mbedtls_mpi_exp_mod+0x490>  // b.any
    d038:	d2800008 	mov	x8, #0x0                   	// #0
    d03c:	b940b7e3 	ldr	w3, [sp, #180]
    d040:	aa1303e2 	mov	x2, x19
    d044:	aa1603e4 	mov	x4, x22
    d048:	aa1503e1 	mov	x1, x21
    d04c:	aa1503e0 	mov	x0, x21
    d050:	a9079fe6 	stp	x6, x7, [sp, #120]
    d054:	f9004fe5 	str	x5, [sp, #152]
    d058:	f90057e8 	str	x8, [sp, #168]
    d05c:	97fffe53 	bl	c9a8 <mbedtls_mpi_montmul>
    d060:	2a0003e2 	mov	w2, w0
    d064:	350005e0 	cbnz	w0, d120 <mbedtls_mpi_exp_mod+0x608>
    d068:	f94057e8 	ldr	x8, [sp, #168]
    d06c:	f9404fe5 	ldr	x5, [sp, #152]
    d070:	91000508 	add	x8, x8, #0x1
    d074:	a9479fe6 	ldp	x6, x7, [sp, #120]
    d078:	eb0800bf 	cmp	x5, x8
    d07c:	54fffe08 	b.hi	d03c <mbedtls_mpi_exp_mod+0x524>  // b.pmore
    d080:	d2800300 	mov	x0, #0x18                  	// #24
    d084:	b940b7e3 	ldr	w3, [sp, #180]
    d088:	aa1303e2 	mov	x2, x19
    d08c:	aa1603e4 	mov	x4, x22
    d090:	9b0050c1 	madd	x1, x6, x0, x20
    d094:	aa1503e0 	mov	x0, x21
    d098:	f9003fe7 	str	x7, [sp, #120]
    d09c:	97fffe43 	bl	c9a8 <mbedtls_mpi_montmul>
    d0a0:	2a0003e2 	mov	w2, w0
    d0a4:	350003e0 	cbnz	w0, d120 <mbedtls_mpi_exp_mod+0x608>
    d0a8:	b9408fe1 	ldr	w1, [sp, #140]
    d0ac:	d2800005 	mov	x5, #0x0                   	// #0
    d0b0:	d2800006 	mov	x6, #0x0                   	// #0
    d0b4:	f9403fe7 	ldr	x7, [sp, #120]
    d0b8:	17ffffbd 	b	cfac <mbedtls_mpi_exp_mod+0x494>
    d0bc:	2a0203e3 	mov	w3, w2
    d0c0:	aa1303e2 	mov	x2, x19
    d0c4:	aa1603e4 	mov	x4, x22
    d0c8:	aa1503e1 	mov	x1, x21
    d0cc:	aa1503e0 	mov	x0, x21
    d0d0:	a90797e6 	stp	x6, x5, [sp, #120]
    d0d4:	97fffe35 	bl	c9a8 <mbedtls_mpi_montmul>
    d0d8:	2a0003e2 	mov	w2, w0
    d0dc:	35000220 	cbnz	w0, d120 <mbedtls_mpi_exp_mod+0x608>
    d0e0:	a94797e6 	ldp	x6, x5, [sp, #120]
    d0e4:	d37ff8c6 	lsl	x6, x6, #1
    d0e8:	ea0602ff 	tst	x23, x6
    d0ec:	54000061 	b.ne	d0f8 <mbedtls_mpi_exp_mod+0x5e0>  // b.any
    d0f0:	9100077b 	add	x27, x27, #0x1
    d0f4:	17ffff38 	b	cdd4 <mbedtls_mpi_exp_mod+0x2bc>
    d0f8:	b940b7e3 	ldr	w3, [sp, #180]
    d0fc:	aa1303e2 	mov	x2, x19
    d100:	aa1603e4 	mov	x4, x22
    d104:	aa1c03e1 	mov	x1, x28
    d108:	aa1503e0 	mov	x0, x21
    d10c:	a90797e6 	stp	x6, x5, [sp, #120]
    d110:	97fffe26 	bl	c9a8 <mbedtls_mpi_montmul>
    d114:	2a0003e2 	mov	w2, w0
    d118:	a94797e6 	ldp	x6, x5, [sp, #120]
    d11c:	34fffea0 	cbz	w0, d0f0 <mbedtls_mpi_exp_mod+0x5d8>
    d120:	f94037e0 	ldr	x0, [sp, #104]
    d124:	b9008be2 	str	w2, [sp, #136]
    d128:	97fff66c 	bl	aad8 <mbedtls_mpi_free>
    d12c:	f94037e0 	ldr	x0, [sp, #104]
    d130:	f9404be1 	ldr	x1, [sp, #144]
    d134:	91006000 	add	x0, x0, #0x18
    d138:	f90037e0 	str	x0, [sp, #104]
    d13c:	b9408be2 	ldr	w2, [sp, #136]
    d140:	eb01001f 	cmp	x0, x1
    d144:	54fffee1 	b.ne	d120 <mbedtls_mpi_exp_mod+0x608>  // b.any
    d148:	f94053e0 	ldr	x0, [sp, #160]
    d14c:	aa1403e1 	mov	x1, x20
    d150:	b9006be2 	str	w2, [sp, #104]
    d154:	f940d800 	ldr	x0, [x0, #432]
    d158:	f9400000 	ldr	x0, [x0]
    d15c:	94000628 	bl	e9fc <mempool_free>
    d160:	aa1603e0 	mov	x0, x22
    d164:	97fff65d 	bl	aad8 <mbedtls_mpi_free>
    d168:	f9403be0 	ldr	x0, [sp, #112]
    d16c:	97fff65b 	bl	aad8 <mbedtls_mpi_free>
    d170:	b9406be2 	ldr	w2, [sp, #104]
    d174:	b4000079 	cbz	x25, d180 <mbedtls_mpi_exp_mod+0x668>
    d178:	f9400b20 	ldr	x0, [x25, #16]
    d17c:	b5ffcf20 	cbnz	x0, cb60 <mbedtls_mpi_exp_mod+0x48>
    d180:	aa1803e0 	mov	x0, x24
    d184:	b9006be2 	str	w2, [sp, #104]
    d188:	97fff654 	bl	aad8 <mbedtls_mpi_free>
    d18c:	b9406be2 	ldr	w2, [sp, #104]
    d190:	17fffe74 	b	cb60 <mbedtls_mpi_exp_mod+0x48>
    d194:	d2800014 	mov	x20, #0x0                   	// #0
    d198:	17ffffec 	b	d148 <mbedtls_mpi_exp_mod+0x630>
    d19c:	128001e2 	mov	w2, #0xfffffff0            	// #-16
    d1a0:	17ffffea 	b	d148 <mbedtls_mpi_exp_mod+0x630>

000000000000d1a4 <mbedtls_mpi_gcd>:
    d1a4:	a9b97bfd 	stp	x29, x30, [sp, #-112]!
    d1a8:	910003fd 	mov	x29, sp
    d1ac:	a9025bf5 	stp	x21, x22, [sp, #32]
    d1b0:	910103f5 	add	x21, sp, #0x40
    d1b4:	aa0003f6 	mov	x22, x0
    d1b8:	aa1503e0 	mov	x0, x21
    d1bc:	a90153f3 	stp	x19, x20, [sp, #16]
    d1c0:	aa0103f3 	mov	x19, x1
    d1c4:	910163f4 	add	x20, sp, #0x58
    d1c8:	f9001bf7 	str	x23, [sp, #48]
    d1cc:	aa0203f7 	mov	x23, x2
    d1d0:	97fff638 	bl	aab0 <mbedtls_mpi_init_mempool>
    d1d4:	aa1403e0 	mov	x0, x20
    d1d8:	97fff636 	bl	aab0 <mbedtls_mpi_init_mempool>
    d1dc:	aa1303e1 	mov	x1, x19
    d1e0:	aa1503e0 	mov	x0, x21
    d1e4:	97fff6da 	bl	ad4c <mbedtls_mpi_copy>
    d1e8:	2a0003f3 	mov	w19, w0
    d1ec:	350008a0 	cbnz	w0, d300 <mbedtls_mpi_gcd+0x15c>
    d1f0:	aa1703e1 	mov	x1, x23
    d1f4:	aa1403e0 	mov	x0, x20
    d1f8:	97fff6d5 	bl	ad4c <mbedtls_mpi_copy>
    d1fc:	2a0003f3 	mov	w19, w0
    d200:	35000800 	cbnz	w0, d300 <mbedtls_mpi_gcd+0x15c>
    d204:	aa1503e0 	mov	x0, x21
    d208:	97fff7c6 	bl	b120 <mbedtls_mpi_lsb>
    d20c:	aa0003f7 	mov	x23, x0
    d210:	aa1403e0 	mov	x0, x20
    d214:	97fff7c3 	bl	b120 <mbedtls_mpi_lsb>
    d218:	eb0002ff 	cmp	x23, x0
    d21c:	9a8092f7 	csel	x23, x23, x0, ls  // ls = plast
    d220:	aa1503e0 	mov	x0, x21
    d224:	aa1703e1 	mov	x1, x23
    d228:	97fff8ef 	bl	b5e4 <mbedtls_mpi_shift_r>
    d22c:	2a0003f3 	mov	w19, w0
    d230:	35000680 	cbnz	w0, d300 <mbedtls_mpi_gcd+0x15c>
    d234:	aa1703e1 	mov	x1, x23
    d238:	aa1403e0 	mov	x0, x20
    d23c:	97fff8ea 	bl	b5e4 <mbedtls_mpi_shift_r>
    d240:	2a0003f3 	mov	w19, w0
    d244:	350005e0 	cbnz	w0, d300 <mbedtls_mpi_gcd+0x15c>
    d248:	52800020 	mov	w0, #0x1                   	// #1
    d24c:	790083e0 	strh	w0, [sp, #64]
    d250:	7900b3e0 	strh	w0, [sp, #88]
    d254:	aa1503e0 	mov	x0, x21
    d258:	52800001 	mov	w1, #0x0                   	// #0
    d25c:	97fff9a1 	bl	b8e0 <mbedtls_mpi_cmp_int>
    d260:	35000160 	cbnz	w0, d28c <mbedtls_mpi_gcd+0xe8>
    d264:	aa1703e1 	mov	x1, x23
    d268:	aa1403e0 	mov	x0, x20
    d26c:	97fff89a 	bl	b4d4 <mbedtls_mpi_shift_l>
    d270:	2a0003f3 	mov	w19, w0
    d274:	35000460 	cbnz	w0, d300 <mbedtls_mpi_gcd+0x15c>
    d278:	aa1403e1 	mov	x1, x20
    d27c:	aa1603e0 	mov	x0, x22
    d280:	97fff6b3 	bl	ad4c <mbedtls_mpi_copy>
    d284:	2a0003f3 	mov	w19, w0
    d288:	1400001e 	b	d300 <mbedtls_mpi_gcd+0x15c>
    d28c:	aa1503e0 	mov	x0, x21
    d290:	97fff7a4 	bl	b120 <mbedtls_mpi_lsb>
    d294:	aa0003e1 	mov	x1, x0
    d298:	aa1503e0 	mov	x0, x21
    d29c:	97fff8d2 	bl	b5e4 <mbedtls_mpi_shift_r>
    d2a0:	2a0003f3 	mov	w19, w0
    d2a4:	350002e0 	cbnz	w0, d300 <mbedtls_mpi_gcd+0x15c>
    d2a8:	aa1403e0 	mov	x0, x20
    d2ac:	97fff79d 	bl	b120 <mbedtls_mpi_lsb>
    d2b0:	aa0003e1 	mov	x1, x0
    d2b4:	aa1403e0 	mov	x0, x20
    d2b8:	97fff8cb 	bl	b5e4 <mbedtls_mpi_shift_r>
    d2bc:	2a0003f3 	mov	w19, w0
    d2c0:	35000200 	cbnz	w0, d300 <mbedtls_mpi_gcd+0x15c>
    d2c4:	aa1403e1 	mov	x1, x20
    d2c8:	aa1503e0 	mov	x0, x21
    d2cc:	97fff91d 	bl	b740 <mbedtls_mpi_cmp_mpi>
    d2d0:	37f802c0 	tbnz	w0, #31, d328 <mbedtls_mpi_gcd+0x184>
    d2d4:	aa1403e2 	mov	x2, x20
    d2d8:	aa1503e1 	mov	x1, x21
    d2dc:	aa1503e0 	mov	x0, x21
    d2e0:	97fff9d8 	bl	ba40 <mbedtls_mpi_sub_abs>
    d2e4:	2a0003f3 	mov	w19, w0
    d2e8:	350000c0 	cbnz	w0, d300 <mbedtls_mpi_gcd+0x15c>
    d2ec:	aa1503e0 	mov	x0, x21
    d2f0:	d2800021 	mov	x1, #0x1                   	// #1
    d2f4:	97fff8bc 	bl	b5e4 <mbedtls_mpi_shift_r>
    d2f8:	2a0003f3 	mov	w19, w0
    d2fc:	34fffac0 	cbz	w0, d254 <mbedtls_mpi_gcd+0xb0>
    d300:	aa1503e0 	mov	x0, x21
    d304:	97fff5f5 	bl	aad8 <mbedtls_mpi_free>
    d308:	aa1403e0 	mov	x0, x20
    d30c:	97fff5f3 	bl	aad8 <mbedtls_mpi_free>
    d310:	2a1303e0 	mov	w0, w19
    d314:	a94153f3 	ldp	x19, x20, [sp, #16]
    d318:	a9425bf5 	ldp	x21, x22, [sp, #32]
    d31c:	f9401bf7 	ldr	x23, [sp, #48]
    d320:	a8c77bfd 	ldp	x29, x30, [sp], #112
    d324:	d65f03c0 	ret
    d328:	aa1503e2 	mov	x2, x21
    d32c:	aa1403e1 	mov	x1, x20
    d330:	aa1403e0 	mov	x0, x20
    d334:	97fff9c3 	bl	ba40 <mbedtls_mpi_sub_abs>
    d338:	2a0003f3 	mov	w19, w0
    d33c:	35fffe20 	cbnz	w0, d300 <mbedtls_mpi_gcd+0x15c>
    d340:	aa1403e0 	mov	x0, x20
    d344:	d2800021 	mov	x1, #0x1                   	// #1
    d348:	17ffffeb 	b	d2f4 <mbedtls_mpi_gcd+0x150>

000000000000d34c <mbedtls_mpi_fill_random>:
    d34c:	a9bc7bfd 	stp	x29, x30, [sp, #-64]!
    d350:	f240043f 	tst	x1, #0x3
    d354:	910003fd 	mov	x29, sp
    d358:	a9025bf5 	stp	x21, x22, [sp, #32]
    d35c:	d342fc35 	lsr	x21, x1, #2
    d360:	aa0103f6 	mov	x22, x1
    d364:	f9400401 	ldr	x1, [x0, #8]
    d368:	a90153f3 	stp	x19, x20, [sp, #16]
    d36c:	9a9506b5 	cinc	x21, x21, ne  // ne = any
    d370:	a90363f7 	stp	x23, x24, [sp, #48]
    d374:	aa0003f4 	mov	x20, x0
    d378:	aa0203f7 	mov	x23, x2
    d37c:	aa0303f8 	mov	x24, x3
    d380:	eb15003f 	cmp	x1, x21
    d384:	54000181 	b.ne	d3b4 <mbedtls_mpi_fill_random+0x68>  // b.any
    d388:	aa1403e0 	mov	x0, x20
    d38c:	52800001 	mov	w1, #0x0                   	// #0
    d390:	97fff71c 	bl	b000 <mbedtls_mpi_lset>
    d394:	2a0003f3 	mov	w19, w0
    d398:	34000200 	cbz	w0, d3d8 <mbedtls_mpi_fill_random+0x8c>
    d39c:	2a1303e0 	mov	w0, w19
    d3a0:	a94153f3 	ldp	x19, x20, [sp, #16]
    d3a4:	a9425bf5 	ldp	x21, x22, [sp, #32]
    d3a8:	a94363f7 	ldp	x23, x24, [sp, #48]
    d3ac:	a8c47bfd 	ldp	x29, x30, [sp], #64
    d3b0:	d65f03c0 	ret
    d3b4:	97fff5c9 	bl	aad8 <mbedtls_mpi_free>
    d3b8:	aa1403e0 	mov	x0, x20
    d3bc:	97fff5b9 	bl	aaa0 <mbedtls_mpi_init>
    d3c0:	aa1503e1 	mov	x1, x21
    d3c4:	aa1403e0 	mov	x0, x20
    d3c8:	97fff5df 	bl	ab44 <mbedtls_mpi_grow>
    d3cc:	2a0003f3 	mov	w19, w0
    d3d0:	34fffdc0 	cbz	w0, d388 <mbedtls_mpi_fill_random+0x3c>
    d3d4:	17fffff2 	b	d39c <mbedtls_mpi_fill_random+0x50>
    d3d8:	f9400a81 	ldr	x1, [x20, #16]
    d3dc:	d37ef6a0 	lsl	x0, x21, #2
    d3e0:	cb160000 	sub	x0, x0, x22
    d3e4:	aa1603e2 	mov	x2, x22
    d3e8:	8b000021 	add	x1, x1, x0
    d3ec:	aa1803e0 	mov	x0, x24
    d3f0:	d63f02e0 	blr	x23
    d3f4:	b4fffd55 	cbz	x21, d39c <mbedtls_mpi_fill_random+0x50>
    d3f8:	f9400a80 	ldr	x0, [x20, #16]
    d3fc:	aa1503e1 	mov	x1, x21
    d400:	97fff58b 	bl	aa2c <mpi_bigendian_to_host.part.0>
    d404:	17ffffe6 	b	d39c <mbedtls_mpi_fill_random+0x50>

000000000000d408 <mpi_miller_rabin>:
    d408:	a9b07bfd 	stp	x29, x30, [sp, #-256]!
    d40c:	910003fd 	mov	x29, sp
    d410:	a9025bf5 	stp	x21, x22, [sp, #32]
    d414:	910223f5 	add	x21, sp, #0x88
    d418:	aa0003f6 	mov	x22, x0
    d41c:	aa1503e0 	mov	x0, x21
    d420:	a90153f3 	stp	x19, x20, [sp, #16]
    d424:	910343f4 	add	x20, sp, #0xd0
    d428:	a90363f7 	stp	x23, x24, [sp, #48]
    d42c:	910283f7 	add	x23, sp, #0xa0
    d430:	9102e3f8 	add	x24, sp, #0xb8
    d434:	a9046bf9 	stp	x25, x26, [sp, #64]
    d438:	9103a3fa 	add	x26, sp, #0xe8
    d43c:	a90573fb 	stp	x27, x28, [sp, #80]
    d440:	a9060be1 	stp	x1, x2, [sp, #96]
    d444:	f9003be3 	str	x3, [sp, #112]
    d448:	97fff59a 	bl	aab0 <mbedtls_mpi_init_mempool>
    d44c:	aa1703e0 	mov	x0, x23
    d450:	97fff598 	bl	aab0 <mbedtls_mpi_init_mempool>
    d454:	aa1803e0 	mov	x0, x24
    d458:	97fff596 	bl	aab0 <mbedtls_mpi_init_mempool>
    d45c:	aa1403e0 	mov	x0, x20
    d460:	97fff594 	bl	aab0 <mbedtls_mpi_init_mempool>
    d464:	aa1a03e0 	mov	x0, x26
    d468:	97fff592 	bl	aab0 <mbedtls_mpi_init_mempool>
    d46c:	aa1603e1 	mov	x1, x22
    d470:	aa1503e0 	mov	x0, x21
    d474:	52800022 	mov	w2, #0x1                   	// #1
    d478:	97fff9fc 	bl	bc68 <mbedtls_mpi_sub_int>
    d47c:	2a0003f3 	mov	w19, w0
    d480:	35000600 	cbnz	w0, d540 <mpi_miller_rabin+0x138>
    d484:	aa1503e0 	mov	x0, x21
    d488:	97fff726 	bl	b120 <mbedtls_mpi_lsb>
    d48c:	aa1503e1 	mov	x1, x21
    d490:	aa0003f9 	mov	x25, x0
    d494:	aa1703e0 	mov	x0, x23
    d498:	97fff62d 	bl	ad4c <mbedtls_mpi_copy>
    d49c:	2a0003f3 	mov	w19, w0
    d4a0:	35000500 	cbnz	w0, d540 <mpi_miller_rabin+0x138>
    d4a4:	aa1903e1 	mov	x1, x25
    d4a8:	aa1703e0 	mov	x0, x23
    d4ac:	97fff84e 	bl	b5e4 <mbedtls_mpi_shift_r>
    d4b0:	2a0003f3 	mov	w19, w0
    d4b4:	35000460 	cbnz	w0, d540 <mpi_miller_rabin+0x138>
    d4b8:	d280001b 	mov	x27, #0x0                   	// #0
    d4bc:	f94033e0 	ldr	x0, [sp, #96]
    d4c0:	eb00037f 	cmp	x27, x0
    d4c4:	540003e0 	b.eq	d540 <mpi_miller_rabin+0x138>  // b.none
    d4c8:	528025dc 	mov	w28, #0x12e                 	// #302
    d4cc:	a9468fe2 	ldp	x2, x3, [sp, #104]
    d4d0:	aa1403e0 	mov	x0, x20
    d4d4:	f94006c1 	ldr	x1, [x22, #8]
    d4d8:	d37ef421 	lsl	x1, x1, #2
    d4dc:	97ffff9c 	bl	d34c <mbedtls_mpi_fill_random>
    d4e0:	35000c80 	cbnz	w0, d670 <mpi_miller_rabin+0x268>
    d4e4:	aa1403e0 	mov	x0, x20
    d4e8:	97fff723 	bl	b174 <mbedtls_mpi_bitlen>
    d4ec:	aa0003e1 	mov	x1, x0
    d4f0:	aa1503e0 	mov	x0, x21
    d4f4:	f9003fe1 	str	x1, [sp, #120]
    d4f8:	97fff71f 	bl	b174 <mbedtls_mpi_bitlen>
    d4fc:	f9403fe1 	ldr	x1, [sp, #120]
    d500:	eb00003f 	cmp	x1, x0
    d504:	54000189 	b.ls	d534 <mpi_miller_rabin+0x12c>  // b.plast
    d508:	a94d8fe1 	ldp	x1, x3, [sp, #216]
    d50c:	d37ef422 	lsl	x2, x1, #2
    d510:	d1000421 	sub	x1, x1, #0x1
    d514:	d1001042 	sub	x2, x2, #0x4
    d518:	2a2117e1 	mvn	w1, w1, lsl #5
    d51c:	0b000020 	add	w0, w1, w0
    d520:	12800001 	mov	w1, #0xffffffff            	// #-1
    d524:	1ac02020 	lsl	w0, w1, w0
    d528:	b8626861 	ldr	w1, [x3, x2]
    d52c:	0a200020 	bic	w0, w1, w0
    d530:	b8226860 	str	w0, [x3, x2]
    d534:	7100079c 	subs	w28, w28, #0x1
    d538:	54000281 	b.ne	d588 <mpi_miller_rabin+0x180>  // b.any
    d53c:	128001b3 	mov	w19, #0xfffffff2            	// #-14
    d540:	aa1503e0 	mov	x0, x21
    d544:	97fff565 	bl	aad8 <mbedtls_mpi_free>
    d548:	aa1703e0 	mov	x0, x23
    d54c:	97fff563 	bl	aad8 <mbedtls_mpi_free>
    d550:	aa1803e0 	mov	x0, x24
    d554:	97fff561 	bl	aad8 <mbedtls_mpi_free>
    d558:	aa1403e0 	mov	x0, x20
    d55c:	97fff55f 	bl	aad8 <mbedtls_mpi_free>
    d560:	aa1a03e0 	mov	x0, x26
    d564:	97fff55d 	bl	aad8 <mbedtls_mpi_free>
    d568:	2a1303e0 	mov	w0, w19
    d56c:	a94153f3 	ldp	x19, x20, [sp, #16]
    d570:	a9425bf5 	ldp	x21, x22, [sp, #32]
    d574:	a94363f7 	ldp	x23, x24, [sp, #48]
    d578:	a9446bf9 	ldp	x25, x26, [sp, #64]
    d57c:	a94573fb 	ldp	x27, x28, [sp, #80]
    d580:	a8d07bfd 	ldp	x29, x30, [sp], #256
    d584:	d65f03c0 	ret
    d588:	aa1503e1 	mov	x1, x21
    d58c:	aa1403e0 	mov	x0, x20
    d590:	97fff86c 	bl	b740 <mbedtls_mpi_cmp_mpi>
    d594:	36fff9c0 	tbz	w0, #31, d4cc <mpi_miller_rabin+0xc4>
    d598:	aa1403e0 	mov	x0, x20
    d59c:	52800021 	mov	w1, #0x1                   	// #1
    d5a0:	97fff8d0 	bl	b8e0 <mbedtls_mpi_cmp_int>
    d5a4:	7100001f 	cmp	w0, #0x0
    d5a8:	54fff92d 	b.le	d4cc <mpi_miller_rabin+0xc4>
    d5ac:	aa1a03e4 	mov	x4, x26
    d5b0:	aa1603e3 	mov	x3, x22
    d5b4:	aa1703e2 	mov	x2, x23
    d5b8:	aa1403e1 	mov	x1, x20
    d5bc:	aa1403e0 	mov	x0, x20
    d5c0:	97fffd56 	bl	cb18 <mbedtls_mpi_exp_mod>
    d5c4:	35000560 	cbnz	w0, d670 <mpi_miller_rabin+0x268>
    d5c8:	aa1503e1 	mov	x1, x21
    d5cc:	aa1403e0 	mov	x0, x20
    d5d0:	97fff85c 	bl	b740 <mbedtls_mpi_cmp_mpi>
    d5d4:	35000060 	cbnz	w0, d5e0 <mpi_miller_rabin+0x1d8>
    d5d8:	9100077b 	add	x27, x27, #0x1
    d5dc:	17ffffb8 	b	d4bc <mpi_miller_rabin+0xb4>
    d5e0:	aa1403e0 	mov	x0, x20
    d5e4:	52800021 	mov	w1, #0x1                   	// #1
    d5e8:	97fff8be 	bl	b8e0 <mbedtls_mpi_cmp_int>
    d5ec:	34ffff60 	cbz	w0, d5d8 <mpi_miller_rabin+0x1d0>
    d5f0:	d280003c 	mov	x28, #0x1                   	// #1
    d5f4:	eb19039f 	cmp	x28, x25
    d5f8:	54000262 	b.cs	d644 <mpi_miller_rabin+0x23c>  // b.hs, b.nlast
    d5fc:	aa1503e1 	mov	x1, x21
    d600:	aa1403e0 	mov	x0, x20
    d604:	97fff84f 	bl	b740 <mbedtls_mpi_cmp_mpi>
    d608:	340001e0 	cbz	w0, d644 <mpi_miller_rabin+0x23c>
    d60c:	aa1403e2 	mov	x2, x20
    d610:	aa1403e1 	mov	x1, x20
    d614:	aa1803e0 	mov	x0, x24
    d618:	97fff9a4 	bl	bca8 <mbedtls_mpi_mul_mpi>
    d61c:	350002a0 	cbnz	w0, d670 <mpi_miller_rabin+0x268>
    d620:	aa1603e2 	mov	x2, x22
    d624:	aa1803e1 	mov	x1, x24
    d628:	aa1403e0 	mov	x0, x20
    d62c:	97fffbc8 	bl	c54c <mbedtls_mpi_mod_mpi>
    d630:	35000200 	cbnz	w0, d670 <mpi_miller_rabin+0x268>
    d634:	aa1403e0 	mov	x0, x20
    d638:	52800021 	mov	w1, #0x1                   	// #1
    d63c:	97fff8a9 	bl	b8e0 <mbedtls_mpi_cmp_int>
    d640:	35000140 	cbnz	w0, d668 <mpi_miller_rabin+0x260>
    d644:	aa1503e1 	mov	x1, x21
    d648:	aa1403e0 	mov	x0, x20
    d64c:	97fff83d 	bl	b740 <mbedtls_mpi_cmp_mpi>
    d650:	35fff760 	cbnz	w0, d53c <mpi_miller_rabin+0x134>
    d654:	aa1403e0 	mov	x0, x20
    d658:	52800021 	mov	w1, #0x1                   	// #1
    d65c:	97fff8a1 	bl	b8e0 <mbedtls_mpi_cmp_int>
    d660:	35fffbc0 	cbnz	w0, d5d8 <mpi_miller_rabin+0x1d0>
    d664:	17ffffb6 	b	d53c <mpi_miller_rabin+0x134>
    d668:	9100079c 	add	x28, x28, #0x1
    d66c:	17ffffe2 	b	d5f4 <mpi_miller_rabin+0x1ec>
    d670:	2a0003f3 	mov	w19, w0
    d674:	17ffffb3 	b	d540 <mpi_miller_rabin+0x138>

000000000000d678 <mbedtls_mpi_inv_mod>:
    d678:	a9ab7bfd 	stp	x29, x30, [sp, #-336]!
    d67c:	910003fd 	mov	x29, sp
    d680:	a90153f3 	stp	x19, x20, [sp, #16]
    d684:	aa0203f4 	mov	x20, x2
    d688:	a9025bf5 	stp	x21, x22, [sp, #32]
    d68c:	a90363f7 	stp	x23, x24, [sp, #48]
    d690:	a9046bf9 	stp	x25, x26, [sp, #64]
    d694:	a90573fb 	stp	x27, x28, [sp, #80]
    d698:	a90603e1 	stp	x1, x0, [sp, #96]
    d69c:	aa0203e0 	mov	x0, x2
    d6a0:	52800021 	mov	w1, #0x1                   	// #1
    d6a4:	97fff88f 	bl	b8e0 <mbedtls_mpi_cmp_int>
    d6a8:	7100001f 	cmp	w0, #0x0
    d6ac:	54001f4d 	b.le	da94 <mbedtls_mpi_inv_mod+0x41c>
    d6b0:	910243fa 	add	x26, sp, #0x90
    d6b4:	9102a3f8 	add	x24, sp, #0xa8
    d6b8:	aa1a03e0 	mov	x0, x26
    d6bc:	97fff4fd 	bl	aab0 <mbedtls_mpi_init_mempool>
    d6c0:	aa1803e0 	mov	x0, x24
    d6c4:	910303f7 	add	x23, sp, #0xc0
    d6c8:	97fff4fa 	bl	aab0 <mbedtls_mpi_init_mempool>
    d6cc:	910363f6 	add	x22, sp, #0xd8
    d6d0:	aa1703e0 	mov	x0, x23
    d6d4:	97fff4f7 	bl	aab0 <mbedtls_mpi_init_mempool>
    d6d8:	aa1603e0 	mov	x0, x22
    d6dc:	9101e3fc 	add	x28, sp, #0x78
    d6e0:	97fff4f4 	bl	aab0 <mbedtls_mpi_init_mempool>
    d6e4:	9103c3fb 	add	x27, sp, #0xf0
    d6e8:	aa1c03e0 	mov	x0, x28
    d6ec:	97fff4f1 	bl	aab0 <mbedtls_mpi_init_mempool>
    d6f0:	aa1b03e0 	mov	x0, x27
    d6f4:	910423f9 	add	x25, sp, #0x108
    d6f8:	97fff4ee 	bl	aab0 <mbedtls_mpi_init_mempool>
    d6fc:	910483f3 	add	x19, sp, #0x120
    d700:	aa1903e0 	mov	x0, x25
    d704:	97fff4eb 	bl	aab0 <mbedtls_mpi_init_mempool>
    d708:	aa1303e0 	mov	x0, x19
    d70c:	9104e3f5 	add	x21, sp, #0x138
    d710:	97fff4e8 	bl	aab0 <mbedtls_mpi_init_mempool>
    d714:	aa1503e0 	mov	x0, x21
    d718:	97fff4e6 	bl	aab0 <mbedtls_mpi_init_mempool>
    d71c:	f94033e1 	ldr	x1, [sp, #96]
    d720:	aa1403e2 	mov	x2, x20
    d724:	aa1c03e0 	mov	x0, x28
    d728:	97fffe9f 	bl	d1a4 <mbedtls_mpi_gcd>
    d72c:	2a0003e1 	mov	w1, w0
    d730:	35000d20 	cbnz	w0, d8d4 <mbedtls_mpi_inv_mod+0x25c>
    d734:	aa1c03e0 	mov	x0, x28
    d738:	52800021 	mov	w1, #0x1                   	// #1
    d73c:	97fff869 	bl	b8e0 <mbedtls_mpi_cmp_int>
    d740:	35001a60 	cbnz	w0, da8c <mbedtls_mpi_inv_mod+0x414>
    d744:	f94033e1 	ldr	x1, [sp, #96]
    d748:	aa1403e2 	mov	x2, x20
    d74c:	aa1a03e0 	mov	x0, x26
    d750:	97fffb7f 	bl	c54c <mbedtls_mpi_mod_mpi>
    d754:	2a0003e1 	mov	w1, w0
    d758:	35000be0 	cbnz	w0, d8d4 <mbedtls_mpi_inv_mod+0x25c>
    d75c:	aa1a03e1 	mov	x1, x26
    d760:	aa1803e0 	mov	x0, x24
    d764:	97fff57a 	bl	ad4c <mbedtls_mpi_copy>
    d768:	2a0003e1 	mov	w1, w0
    d76c:	35000b40 	cbnz	w0, d8d4 <mbedtls_mpi_inv_mod+0x25c>
    d770:	aa1403e1 	mov	x1, x20
    d774:	aa1b03e0 	mov	x0, x27
    d778:	97fff575 	bl	ad4c <mbedtls_mpi_copy>
    d77c:	2a0003e1 	mov	w1, w0
    d780:	35000aa0 	cbnz	w0, d8d4 <mbedtls_mpi_inv_mod+0x25c>
    d784:	aa1403e1 	mov	x1, x20
    d788:	aa1903e0 	mov	x0, x25
    d78c:	97fff570 	bl	ad4c <mbedtls_mpi_copy>
    d790:	2a0003e1 	mov	w1, w0
    d794:	35000a00 	cbnz	w0, d8d4 <mbedtls_mpi_inv_mod+0x25c>
    d798:	52800021 	mov	w1, #0x1                   	// #1
    d79c:	aa1703e0 	mov	x0, x23
    d7a0:	97fff618 	bl	b000 <mbedtls_mpi_lset>
    d7a4:	2a0003e1 	mov	w1, w0
    d7a8:	35000960 	cbnz	w0, d8d4 <mbedtls_mpi_inv_mod+0x25c>
    d7ac:	aa1603e0 	mov	x0, x22
    d7b0:	97fff614 	bl	b000 <mbedtls_mpi_lset>
    d7b4:	2a0003e1 	mov	w1, w0
    d7b8:	350008e0 	cbnz	w0, d8d4 <mbedtls_mpi_inv_mod+0x25c>
    d7bc:	aa1303e0 	mov	x0, x19
    d7c0:	97fff610 	bl	b000 <mbedtls_mpi_lset>
    d7c4:	2a0003e1 	mov	w1, w0
    d7c8:	35000860 	cbnz	w0, d8d4 <mbedtls_mpi_inv_mod+0x25c>
    d7cc:	aa1503e0 	mov	x0, x21
    d7d0:	52800021 	mov	w1, #0x1                   	// #1
    d7d4:	97fff60b 	bl	b000 <mbedtls_mpi_lset>
    d7d8:	2a0003e1 	mov	w1, w0
    d7dc:	350007c0 	cbnz	w0, d8d4 <mbedtls_mpi_inv_mod+0x25c>
    d7e0:	f9405fe0 	ldr	x0, [sp, #184]
    d7e4:	b9400000 	ldr	w0, [x0]
    d7e8:	36000560 	tbz	w0, #0, d894 <mbedtls_mpi_inv_mod+0x21c>
    d7ec:	f9408fe0 	ldr	x0, [sp, #280]
    d7f0:	b9400000 	ldr	w0, [x0]
    d7f4:	36000ca0 	tbz	w0, #0, d988 <mbedtls_mpi_inv_mod+0x310>
    d7f8:	aa1903e1 	mov	x1, x25
    d7fc:	aa1803e0 	mov	x0, x24
    d800:	97fff7d0 	bl	b740 <mbedtls_mpi_cmp_mpi>
    d804:	37f81080 	tbnz	w0, #31, da14 <mbedtls_mpi_inv_mod+0x39c>
    d808:	aa1803e1 	mov	x1, x24
    d80c:	aa1903e2 	mov	x2, x25
    d810:	aa1803e0 	mov	x0, x24
    d814:	97fff8e2 	bl	bb9c <mbedtls_mpi_sub_mpi>
    d818:	2a0003e1 	mov	w1, w0
    d81c:	350005c0 	cbnz	w0, d8d4 <mbedtls_mpi_inv_mod+0x25c>
    d820:	aa1703e1 	mov	x1, x23
    d824:	aa1303e2 	mov	x2, x19
    d828:	aa1703e0 	mov	x0, x23
    d82c:	97fff8dc 	bl	bb9c <mbedtls_mpi_sub_mpi>
    d830:	2a0003e1 	mov	w1, w0
    d834:	35000500 	cbnz	w0, d8d4 <mbedtls_mpi_inv_mod+0x25c>
    d838:	aa1503e2 	mov	x2, x21
    d83c:	aa1603e1 	mov	x1, x22
    d840:	aa1603e0 	mov	x0, x22
    d844:	97fff8d6 	bl	bb9c <mbedtls_mpi_sub_mpi>
    d848:	2a0003e1 	mov	w1, w0
    d84c:	35000440 	cbnz	w0, d8d4 <mbedtls_mpi_inv_mod+0x25c>
    d850:	aa1803e0 	mov	x0, x24
    d854:	52800001 	mov	w1, #0x0                   	// #0
    d858:	97fff822 	bl	b8e0 <mbedtls_mpi_cmp_int>
    d85c:	35fffc20 	cbnz	w0, d7e0 <mbedtls_mpi_inv_mod+0x168>
    d860:	aa1303e0 	mov	x0, x19
    d864:	52800001 	mov	w1, #0x0                   	// #0
    d868:	97fff81e 	bl	b8e0 <mbedtls_mpi_cmp_int>
    d86c:	37f80f40 	tbnz	w0, #31, da54 <mbedtls_mpi_inv_mod+0x3dc>
    d870:	aa1403e1 	mov	x1, x20
    d874:	aa1303e0 	mov	x0, x19
    d878:	97fff7b2 	bl	b740 <mbedtls_mpi_cmp_mpi>
    d87c:	36f80fa0 	tbz	w0, #31, da70 <mbedtls_mpi_inv_mod+0x3f8>
    d880:	f94037e0 	ldr	x0, [sp, #104]
    d884:	aa1303e1 	mov	x1, x19
    d888:	97fff531 	bl	ad4c <mbedtls_mpi_copy>
    d88c:	2a0003e1 	mov	w1, w0
    d890:	14000011 	b	d8d4 <mbedtls_mpi_inv_mod+0x25c>
    d894:	d2800021 	mov	x1, #0x1                   	// #1
    d898:	aa1803e0 	mov	x0, x24
    d89c:	97fff752 	bl	b5e4 <mbedtls_mpi_shift_r>
    d8a0:	2a0003e1 	mov	w1, w0
    d8a4:	35000180 	cbnz	w0, d8d4 <mbedtls_mpi_inv_mod+0x25c>
    d8a8:	f9406be0 	ldr	x0, [sp, #208]
    d8ac:	b9400000 	ldr	w0, [x0]
    d8b0:	370004a0 	tbnz	w0, #0, d944 <mbedtls_mpi_inv_mod+0x2cc>
    d8b4:	f94077e0 	ldr	x0, [sp, #232]
    d8b8:	b9400000 	ldr	w0, [x0]
    d8bc:	37000440 	tbnz	w0, #0, d944 <mbedtls_mpi_inv_mod+0x2cc>
    d8c0:	d2800021 	mov	x1, #0x1                   	// #1
    d8c4:	aa1703e0 	mov	x0, x23
    d8c8:	97fff747 	bl	b5e4 <mbedtls_mpi_shift_r>
    d8cc:	2a0003e1 	mov	w1, w0
    d8d0:	34000540 	cbz	w0, d978 <mbedtls_mpi_inv_mod+0x300>
    d8d4:	aa1a03e0 	mov	x0, x26
    d8d8:	b90063e1 	str	w1, [sp, #96]
    d8dc:	97fff47f 	bl	aad8 <mbedtls_mpi_free>
    d8e0:	aa1803e0 	mov	x0, x24
    d8e4:	97fff47d 	bl	aad8 <mbedtls_mpi_free>
    d8e8:	aa1703e0 	mov	x0, x23
    d8ec:	97fff47b 	bl	aad8 <mbedtls_mpi_free>
    d8f0:	aa1603e0 	mov	x0, x22
    d8f4:	97fff479 	bl	aad8 <mbedtls_mpi_free>
    d8f8:	aa1c03e0 	mov	x0, x28
    d8fc:	97fff477 	bl	aad8 <mbedtls_mpi_free>
    d900:	aa1b03e0 	mov	x0, x27
    d904:	97fff475 	bl	aad8 <mbedtls_mpi_free>
    d908:	aa1903e0 	mov	x0, x25
    d90c:	97fff473 	bl	aad8 <mbedtls_mpi_free>
    d910:	aa1303e0 	mov	x0, x19
    d914:	97fff471 	bl	aad8 <mbedtls_mpi_free>
    d918:	aa1503e0 	mov	x0, x21
    d91c:	97fff46f 	bl	aad8 <mbedtls_mpi_free>
    d920:	b94063e1 	ldr	w1, [sp, #96]
    d924:	2a0103e0 	mov	w0, w1
    d928:	a94153f3 	ldp	x19, x20, [sp, #16]
    d92c:	a9425bf5 	ldp	x21, x22, [sp, #32]
    d930:	a94363f7 	ldp	x23, x24, [sp, #48]
    d934:	a9446bf9 	ldp	x25, x26, [sp, #64]
    d938:	a94573fb 	ldp	x27, x28, [sp, #80]
    d93c:	a8d57bfd 	ldp	x29, x30, [sp], #336
    d940:	d65f03c0 	ret
    d944:	aa1703e1 	mov	x1, x23
    d948:	aa1b03e2 	mov	x2, x27
    d94c:	aa1703e0 	mov	x0, x23
    d950:	97fff871 	bl	bb14 <mbedtls_mpi_add_mpi>
    d954:	2a0003e1 	mov	w1, w0
    d958:	35fffbe0 	cbnz	w0, d8d4 <mbedtls_mpi_inv_mod+0x25c>
    d95c:	aa1603e1 	mov	x1, x22
    d960:	aa1a03e2 	mov	x2, x26
    d964:	aa1603e0 	mov	x0, x22
    d968:	97fff88d 	bl	bb9c <mbedtls_mpi_sub_mpi>
    d96c:	2a0003e1 	mov	w1, w0
    d970:	34fffa80 	cbz	w0, d8c0 <mbedtls_mpi_inv_mod+0x248>
    d974:	17ffffd8 	b	d8d4 <mbedtls_mpi_inv_mod+0x25c>
    d978:	aa1603e0 	mov	x0, x22
    d97c:	d2800021 	mov	x1, #0x1                   	// #1
    d980:	97fff719 	bl	b5e4 <mbedtls_mpi_shift_r>
    d984:	17ffff95 	b	d7d8 <mbedtls_mpi_inv_mod+0x160>
    d988:	d2800021 	mov	x1, #0x1                   	// #1
    d98c:	aa1903e0 	mov	x0, x25
    d990:	97fff715 	bl	b5e4 <mbedtls_mpi_shift_r>
    d994:	2a0003e1 	mov	w1, w0
    d998:	35fff9e0 	cbnz	w0, d8d4 <mbedtls_mpi_inv_mod+0x25c>
    d99c:	f9409be0 	ldr	x0, [sp, #304]
    d9a0:	b9400000 	ldr	w0, [x0]
    d9a4:	370001e0 	tbnz	w0, #0, d9e0 <mbedtls_mpi_inv_mod+0x368>
    d9a8:	f940a7e0 	ldr	x0, [sp, #328]
    d9ac:	b9400000 	ldr	w0, [x0]
    d9b0:	37000180 	tbnz	w0, #0, d9e0 <mbedtls_mpi_inv_mod+0x368>
    d9b4:	d2800021 	mov	x1, #0x1                   	// #1
    d9b8:	aa1303e0 	mov	x0, x19
    d9bc:	97fff70a 	bl	b5e4 <mbedtls_mpi_shift_r>
    d9c0:	2a0003e1 	mov	w1, w0
    d9c4:	35fff880 	cbnz	w0, d8d4 <mbedtls_mpi_inv_mod+0x25c>
    d9c8:	d2800021 	mov	x1, #0x1                   	// #1
    d9cc:	aa1503e0 	mov	x0, x21
    d9d0:	97fff705 	bl	b5e4 <mbedtls_mpi_shift_r>
    d9d4:	2a0003e1 	mov	w1, w0
    d9d8:	34fff0a0 	cbz	w0, d7ec <mbedtls_mpi_inv_mod+0x174>
    d9dc:	17ffffbe 	b	d8d4 <mbedtls_mpi_inv_mod+0x25c>
    d9e0:	aa1303e1 	mov	x1, x19
    d9e4:	aa1b03e2 	mov	x2, x27
    d9e8:	aa1303e0 	mov	x0, x19
    d9ec:	97fff84a 	bl	bb14 <mbedtls_mpi_add_mpi>
    d9f0:	2a0003e1 	mov	w1, w0
    d9f4:	35fff700 	cbnz	w0, d8d4 <mbedtls_mpi_inv_mod+0x25c>
    d9f8:	aa1503e1 	mov	x1, x21
    d9fc:	aa1a03e2 	mov	x2, x26
    da00:	aa1503e0 	mov	x0, x21
    da04:	97fff866 	bl	bb9c <mbedtls_mpi_sub_mpi>
    da08:	2a0003e1 	mov	w1, w0
    da0c:	34fffd40 	cbz	w0, d9b4 <mbedtls_mpi_inv_mod+0x33c>
    da10:	17ffffb1 	b	d8d4 <mbedtls_mpi_inv_mod+0x25c>
    da14:	aa1903e1 	mov	x1, x25
    da18:	aa1803e2 	mov	x2, x24
    da1c:	aa1903e0 	mov	x0, x25
    da20:	97fff85f 	bl	bb9c <mbedtls_mpi_sub_mpi>
    da24:	2a0003e1 	mov	w1, w0
    da28:	35fff560 	cbnz	w0, d8d4 <mbedtls_mpi_inv_mod+0x25c>
    da2c:	aa1303e1 	mov	x1, x19
    da30:	aa1703e2 	mov	x2, x23
    da34:	aa1303e0 	mov	x0, x19
    da38:	97fff859 	bl	bb9c <mbedtls_mpi_sub_mpi>
    da3c:	2a0003e1 	mov	w1, w0
    da40:	35fff4a0 	cbnz	w0, d8d4 <mbedtls_mpi_inv_mod+0x25c>
    da44:	aa1603e2 	mov	x2, x22
    da48:	aa1503e1 	mov	x1, x21
    da4c:	aa1503e0 	mov	x0, x21
    da50:	17ffff7d 	b	d844 <mbedtls_mpi_inv_mod+0x1cc>
    da54:	aa1303e1 	mov	x1, x19
    da58:	aa1403e2 	mov	x2, x20
    da5c:	aa1303e0 	mov	x0, x19
    da60:	97fff82d 	bl	bb14 <mbedtls_mpi_add_mpi>
    da64:	2a0003e1 	mov	w1, w0
    da68:	34ffefc0 	cbz	w0, d860 <mbedtls_mpi_inv_mod+0x1e8>
    da6c:	17ffff9a 	b	d8d4 <mbedtls_mpi_inv_mod+0x25c>
    da70:	aa1303e1 	mov	x1, x19
    da74:	aa1403e2 	mov	x2, x20
    da78:	aa1303e0 	mov	x0, x19
    da7c:	97fff848 	bl	bb9c <mbedtls_mpi_sub_mpi>
    da80:	2a0003e1 	mov	w1, w0
    da84:	34ffef60 	cbz	w0, d870 <mbedtls_mpi_inv_mod+0x1f8>
    da88:	17ffff93 	b	d8d4 <mbedtls_mpi_inv_mod+0x25c>
    da8c:	128001a1 	mov	w1, #0xfffffff2            	// #-14
    da90:	17ffff91 	b	d8d4 <mbedtls_mpi_inv_mod+0x25c>
    da94:	12800061 	mov	w1, #0xfffffffc            	// #-4
    da98:	17ffffa3 	b	d924 <mbedtls_mpi_inv_mod+0x2ac>

000000000000da9c <mbedtls_mpi_is_prime_ext>:
    da9c:	a9bb7bfd 	stp	x29, x30, [sp, #-80]!
    daa0:	910003fd 	mov	x29, sp
    daa4:	a90153f3 	stp	x19, x20, [sp, #16]
    daa8:	2a0103f4 	mov	w20, w1
    daac:	52800021 	mov	w1, #0x1                   	// #1
    dab0:	790073e1 	strh	w1, [sp, #56]
    dab4:	9100e3f3 	add	x19, sp, #0x38
    dab8:	a9408001 	ldp	x1, x0, [x0, #8]
    dabc:	a9025bf5 	stp	x21, x22, [sp, #32]
    dac0:	aa0203f5 	mov	x21, x2
    dac4:	aa0303f6 	mov	x22, x3
    dac8:	a90403e1 	stp	x1, x0, [sp, #64]
    dacc:	aa1303e0 	mov	x0, x19
    dad0:	52800001 	mov	w1, #0x0                   	// #0
    dad4:	97fff783 	bl	b8e0 <mbedtls_mpi_cmp_int>
    dad8:	350000c0 	cbnz	w0, daf0 <mbedtls_mpi_is_prime_ext+0x54>
    dadc:	128001a0 	mov	w0, #0xfffffff2            	// #-14
    dae0:	a94153f3 	ldp	x19, x20, [sp, #16]
    dae4:	a9425bf5 	ldp	x21, x22, [sp, #32]
    dae8:	a8c57bfd 	ldp	x29, x30, [sp], #80
    daec:	d65f03c0 	ret
    daf0:	aa1303e0 	mov	x0, x19
    daf4:	52800021 	mov	w1, #0x1                   	// #1
    daf8:	97fff77a 	bl	b8e0 <mbedtls_mpi_cmp_int>
    dafc:	34ffff00 	cbz	w0, dadc <mbedtls_mpi_is_prime_ext+0x40>
    db00:	aa1303e0 	mov	x0, x19
    db04:	52800041 	mov	w1, #0x2                   	// #2
    db08:	97fff776 	bl	b8e0 <mbedtls_mpi_cmp_int>
    db0c:	340000c0 	cbz	w0, db24 <mbedtls_mpi_is_prime_ext+0x88>
    db10:	aa1303e0 	mov	x0, x19
    db14:	97fffb72 	bl	c8dc <mpi_check_small_factors>
    db18:	340000a0 	cbz	w0, db2c <mbedtls_mpi_is_prime_ext+0x90>
    db1c:	7100041f 	cmp	w0, #0x1
    db20:	54fffe01 	b.ne	dae0 <mbedtls_mpi_is_prime_ext+0x44>  // b.any
    db24:	52800000 	mov	w0, #0x0                   	// #0
    db28:	17ffffee 	b	dae0 <mbedtls_mpi_is_prime_ext+0x44>
    db2c:	aa1603e3 	mov	x3, x22
    db30:	aa1503e2 	mov	x2, x21
    db34:	93407e81 	sxtw	x1, w20
    db38:	aa1303e0 	mov	x0, x19
    db3c:	97fffe33 	bl	d408 <mpi_miller_rabin>
    db40:	17ffffe8 	b	dae0 <mbedtls_mpi_is_prime_ext+0x44>

000000000000db44 <mbedtls_mpi_is_prime>:
    db44:	aa0203e3 	mov	x3, x2
    db48:	aa0103e2 	mov	x2, x1
    db4c:	52800501 	mov	w1, #0x28                  	// #40
    db50:	17ffffd3 	b	da9c <mbedtls_mpi_is_prime_ext>

000000000000db54 <mbedtls_mpi_gen_prime>:
    db54:	a9b77bfd 	stp	x29, x30, [sp, #-144]!
    db58:	910003fd 	mov	x29, sp
    db5c:	a90153f3 	stp	x19, x20, [sp, #16]
    db60:	aa0003f3 	mov	x19, x0
    db64:	d283ffa0 	mov	x0, #0x1ffd                	// #8189
    db68:	a9025bf5 	stp	x21, x22, [sp, #32]
    db6c:	a90363f7 	stp	x23, x24, [sp, #48]
    db70:	a9046bf9 	stp	x25, x26, [sp, #64]
    db74:	a90573fb 	stp	x27, x28, [sp, #80]
    db78:	aa0103fc 	mov	x28, x1
    db7c:	d1000c21 	sub	x1, x1, #0x3
    db80:	eb00003f 	cmp	x1, x0
    db84:	54001708 	b.hi	de64 <mbedtls_mpi_gen_prime+0x310>  // b.pmore
    db88:	9101e3f4 	add	x20, sp, #0x78
    db8c:	2a0203f8 	mov	w24, w2
    db90:	aa1403e0 	mov	x0, x20
    db94:	aa0303f6 	mov	x22, x3
    db98:	aa0403f7 	mov	x23, x4
    db9c:	97fff3c5 	bl	aab0 <mbedtls_mpi_init_mempool>
    dba0:	f240139f 	tst	x28, #0x1f
    dba4:	d345ff95 	lsr	x21, x28, #5
    dba8:	9a9506a0 	cinc	x0, x21, ne  // ne = any
    dbac:	37080d58 	tbnz	w24, #1, dd54 <mbedtls_mpi_gen_prime+0x200>
    dbb0:	f1144f9f 	cmp	x28, #0x513
    dbb4:	54000f48 	b.hi	dd9c <mbedtls_mpi_gen_prime+0x248>  // b.pmore
    dbb8:	f10d479f 	cmp	x28, #0x351
    dbbc:	54000f48 	b.hi	dda4 <mbedtls_mpi_gen_prime+0x250>  // b.pmore
    dbc0:	f10a279f 	cmp	x28, #0x289
    dbc4:	54000f88 	b.hi	ddb4 <mbedtls_mpi_gen_prime+0x260>  // b.pmore
    dbc8:	f105779f 	cmp	x28, #0x15d
    dbcc:	54001048 	b.hi	ddd4 <mbedtls_mpi_gen_prime+0x280>  // b.pmore
    dbd0:	f103e79f 	cmp	x28, #0xf9
    dbd4:	54000ec8 	b.hi	ddac <mbedtls_mpi_gen_prime+0x258>  // b.pmore
    dbd8:	f102579f 	cmp	x28, #0x95
    dbdc:	52800255 	mov	w21, #0x12                  	// #18
    dbe0:	52800361 	mov	w1, #0x1b                  	// #27
    dbe4:	1a8182ba 	csel	w26, w21, w1, hi  // hi = pmore
    dbe8:	d37be815 	lsl	x21, x0, #5
    dbec:	d37ef419 	lsl	x25, x0, #2
    dbf0:	cb1c02bb 	sub	x27, x21, x28
    dbf4:	12000318 	and	w24, w24, #0x1
    dbf8:	d1001321 	sub	x1, x25, #0x4
    dbfc:	f90037e1 	str	x1, [sp, #104]
    dc00:	aa1603e2 	mov	x2, x22
    dc04:	aa1703e3 	mov	x3, x23
    dc08:	aa1903e1 	mov	x1, x25
    dc0c:	aa1303e0 	mov	x0, x19
    dc10:	97fffdcf 	bl	d34c <mbedtls_mpi_fill_random>
    dc14:	2a0003e2 	mov	w2, w0
    dc18:	35000f40 	cbnz	w0, de00 <mbedtls_mpi_gen_prime+0x2ac>
    dc1c:	f9400a60 	ldr	x0, [x19, #16]
    dc20:	f94037e1 	ldr	x1, [sp, #104]
    dc24:	b8616800 	ldr	w0, [x0, x1]
    dc28:	529e6661 	mov	w1, #0xf333                	// #62259
    dc2c:	72b6a081 	movk	w1, #0xb504, lsl #16
    dc30:	6b01001f 	cmp	w0, w1
    dc34:	54fffe69 	b.ls	dc00 <mbedtls_mpi_gen_prime+0xac>  // b.plast
    dc38:	eb15039f 	cmp	x28, x21
    dc3c:	54000d83 	b.cc	ddec <mbedtls_mpi_gen_prime+0x298>  // b.lo, b.ul, b.last
    dc40:	f9400a61 	ldr	x1, [x19, #16]
    dc44:	b9400020 	ldr	w0, [x1]
    dc48:	32000002 	orr	w2, w0, #0x1
    dc4c:	b9000022 	str	w2, [x1]
    dc50:	34000f18 	cbz	w24, de30 <mbedtls_mpi_gen_prime+0x2dc>
    dc54:	32000400 	orr	w0, w0, #0x3
    dc58:	b9000020 	str	w0, [x1]
    dc5c:	52800062 	mov	w2, #0x3                   	// #3
    dc60:	aa1303e1 	mov	x1, x19
    dc64:	9101d3e0 	add	x0, sp, #0x74
    dc68:	97fffa66 	bl	c600 <mbedtls_mpi_mod_int>
    dc6c:	2a0003e2 	mov	w2, w0
    dc70:	35000c80 	cbnz	w0, de00 <mbedtls_mpi_gen_prime+0x2ac>
    dc74:	b94077e0 	ldr	w0, [sp, #116]
    dc78:	35000ee0 	cbnz	w0, de54 <mbedtls_mpi_gen_prime+0x300>
    dc7c:	52800102 	mov	w2, #0x8                   	// #8
    dc80:	aa1303e1 	mov	x1, x19
    dc84:	aa1303e0 	mov	x0, x19
    dc88:	97fff7e8 	bl	bc28 <mbedtls_mpi_add_int>
    dc8c:	2a0003e2 	mov	w2, w0
    dc90:	35000b80 	cbnz	w0, de00 <mbedtls_mpi_gen_prime+0x2ac>
    dc94:	aa1303e1 	mov	x1, x19
    dc98:	aa1403e0 	mov	x0, x20
    dc9c:	97fff42c 	bl	ad4c <mbedtls_mpi_copy>
    dca0:	2a0003e2 	mov	w2, w0
    dca4:	35000ae0 	cbnz	w0, de00 <mbedtls_mpi_gen_prime+0x2ac>
    dca8:	aa1403e0 	mov	x0, x20
    dcac:	d2800021 	mov	x1, #0x1                   	// #1
    dcb0:	97fff64d 	bl	b5e4 <mbedtls_mpi_shift_r>
    dcb4:	2a0003e2 	mov	w2, w0
    dcb8:	35000a40 	cbnz	w0, de00 <mbedtls_mpi_gen_prime+0x2ac>
    dcbc:	93407f55 	sxtw	x21, w26
    dcc0:	aa1303e0 	mov	x0, x19
    dcc4:	97fffb06 	bl	c8dc <mpi_check_small_factors>
    dcc8:	2a0003e2 	mov	w2, w0
    dccc:	35000260 	cbnz	w0, dd18 <mbedtls_mpi_gen_prime+0x1c4>
    dcd0:	aa1403e0 	mov	x0, x20
    dcd4:	97fffb02 	bl	c8dc <mpi_check_small_factors>
    dcd8:	2a0003e2 	mov	w2, w0
    dcdc:	350001e0 	cbnz	w0, dd18 <mbedtls_mpi_gen_prime+0x1c4>
    dce0:	aa1603e2 	mov	x2, x22
    dce4:	aa1703e3 	mov	x3, x23
    dce8:	aa1503e1 	mov	x1, x21
    dcec:	aa1303e0 	mov	x0, x19
    dcf0:	97fffdc6 	bl	d408 <mpi_miller_rabin>
    dcf4:	2a0003e2 	mov	w2, w0
    dcf8:	35000100 	cbnz	w0, dd18 <mbedtls_mpi_gen_prime+0x1c4>
    dcfc:	aa1603e2 	mov	x2, x22
    dd00:	aa1703e3 	mov	x3, x23
    dd04:	aa1503e1 	mov	x1, x21
    dd08:	aa1403e0 	mov	x0, x20
    dd0c:	97fffdbf 	bl	d408 <mpi_miller_rabin>
    dd10:	2a0003e2 	mov	w2, w0
    dd14:	34000760 	cbz	w0, de00 <mbedtls_mpi_gen_prime+0x2ac>
    dd18:	3100385f 	cmn	w2, #0xe
    dd1c:	54000721 	b.ne	de00 <mbedtls_mpi_gen_prime+0x2ac>  // b.any
    dd20:	52800182 	mov	w2, #0xc                   	// #12
    dd24:	aa1303e1 	mov	x1, x19
    dd28:	aa1303e0 	mov	x0, x19
    dd2c:	97fff7bf 	bl	bc28 <mbedtls_mpi_add_int>
    dd30:	2a0003e2 	mov	w2, w0
    dd34:	35000660 	cbnz	w0, de00 <mbedtls_mpi_gen_prime+0x2ac>
    dd38:	528000c2 	mov	w2, #0x6                   	// #6
    dd3c:	aa1403e1 	mov	x1, x20
    dd40:	aa1403e0 	mov	x0, x20
    dd44:	97fff7b9 	bl	bc28 <mbedtls_mpi_add_int>
    dd48:	2a0003e2 	mov	w2, w0
    dd4c:	34fffba0 	cbz	w0, dcc0 <mbedtls_mpi_gen_prime+0x16c>
    dd50:	1400002c 	b	de00 <mbedtls_mpi_gen_prime+0x2ac>
    dd54:	f116a79f 	cmp	x28, #0x5a9
    dd58:	540002e8 	b.hi	ddb4 <mbedtls_mpi_gen_prime+0x260>  // b.pmore
    dd5c:	f111f79f 	cmp	x28, #0x47d
    dd60:	540002e8 	b.hi	ddbc <mbedtls_mpi_gen_prime+0x268>  // b.pmore
    dd64:	f10f9f9f 	cmp	x28, #0x3e7
    dd68:	540002e8 	b.hi	ddc4 <mbedtls_mpi_gen_prime+0x270>  // b.pmore
    dd6c:	f10d479f 	cmp	x28, #0x351
    dd70:	540002e8 	b.hi	ddcc <mbedtls_mpi_gen_prime+0x278>  // b.pmore
    dd74:	f10bb79f 	cmp	x28, #0x2ed
    dd78:	540002e8 	b.hi	ddd4 <mbedtls_mpi_gen_prime+0x280>  // b.pmore
    dd7c:	f107cf9f 	cmp	x28, #0x1f3
    dd80:	540002e8 	b.hi	dddc <mbedtls_mpi_gen_prime+0x288>  // b.pmore
    dd84:	f103e79f 	cmp	x28, #0xf9
    dd88:	540002e8 	b.hi	dde4 <mbedtls_mpi_gen_prime+0x290>  // b.pmore
    dd8c:	f102579f 	cmp	x28, #0x95
    dd90:	52800515 	mov	w21, #0x28                  	// #40
    dd94:	52800661 	mov	w1, #0x33                  	// #51
    dd98:	17ffff93 	b	dbe4 <mbedtls_mpi_gen_prime+0x90>
    dd9c:	5280005a 	mov	w26, #0x2                   	// #2
    dda0:	17ffff92 	b	dbe8 <mbedtls_mpi_gen_prime+0x94>
    dda4:	5280007a 	mov	w26, #0x3                   	// #3
    dda8:	17ffff90 	b	dbe8 <mbedtls_mpi_gen_prime+0x94>
    ddac:	5280019a 	mov	w26, #0xc                   	// #12
    ddb0:	17ffff8e 	b	dbe8 <mbedtls_mpi_gen_prime+0x94>
    ddb4:	5280009a 	mov	w26, #0x4                   	// #4
    ddb8:	17ffff8c 	b	dbe8 <mbedtls_mpi_gen_prime+0x94>
    ddbc:	528000ba 	mov	w26, #0x5                   	// #5
    ddc0:	17ffff8a 	b	dbe8 <mbedtls_mpi_gen_prime+0x94>
    ddc4:	528000da 	mov	w26, #0x6                   	// #6
    ddc8:	17ffff88 	b	dbe8 <mbedtls_mpi_gen_prime+0x94>
    ddcc:	528000fa 	mov	w26, #0x7                   	// #7
    ddd0:	17ffff86 	b	dbe8 <mbedtls_mpi_gen_prime+0x94>
    ddd4:	5280011a 	mov	w26, #0x8                   	// #8
    ddd8:	17ffff84 	b	dbe8 <mbedtls_mpi_gen_prime+0x94>
    dddc:	528001ba 	mov	w26, #0xd                   	// #13
    dde0:	17ffff82 	b	dbe8 <mbedtls_mpi_gen_prime+0x94>
    dde4:	5280039a 	mov	w26, #0x1c                  	// #28
    dde8:	17ffff80 	b	dbe8 <mbedtls_mpi_gen_prime+0x94>
    ddec:	aa1b03e1 	mov	x1, x27
    ddf0:	aa1303e0 	mov	x0, x19
    ddf4:	97fff5fc 	bl	b5e4 <mbedtls_mpi_shift_r>
    ddf8:	2a0003e2 	mov	w2, w0
    ddfc:	34fff220 	cbz	w0, dc40 <mbedtls_mpi_gen_prime+0xec>
    de00:	aa1403e0 	mov	x0, x20
    de04:	b9006be2 	str	w2, [sp, #104]
    de08:	97fff334 	bl	aad8 <mbedtls_mpi_free>
    de0c:	b9406be2 	ldr	w2, [sp, #104]
    de10:	2a0203e0 	mov	w0, w2
    de14:	a94153f3 	ldp	x19, x20, [sp, #16]
    de18:	a9425bf5 	ldp	x21, x22, [sp, #32]
    de1c:	a94363f7 	ldp	x23, x24, [sp, #48]
    de20:	a9446bf9 	ldp	x25, x26, [sp, #64]
    de24:	a94573fb 	ldp	x27, x28, [sp, #80]
    de28:	a8c97bfd 	ldp	x29, x30, [sp], #144
    de2c:	d65f03c0 	ret
    de30:	aa1603e2 	mov	x2, x22
    de34:	aa1703e3 	mov	x3, x23
    de38:	2a1a03e1 	mov	w1, w26
    de3c:	aa1303e0 	mov	x0, x19
    de40:	97ffff17 	bl	da9c <mbedtls_mpi_is_prime_ext>
    de44:	2a0003e2 	mov	w2, w0
    de48:	3100381f 	cmn	w0, #0xe
    de4c:	54ffeda0 	b.eq	dc00 <mbedtls_mpi_gen_prime+0xac>  // b.none
    de50:	17ffffec 	b	de00 <mbedtls_mpi_gen_prime+0x2ac>
    de54:	7100041f 	cmp	w0, #0x1
    de58:	54fff1e1 	b.ne	dc94 <mbedtls_mpi_gen_prime+0x140>  // b.any
    de5c:	52800082 	mov	w2, #0x4                   	// #4
    de60:	17ffff88 	b	dc80 <mbedtls_mpi_gen_prime+0x12c>
    de64:	12800062 	mov	w2, #0xfffffffc            	// #-4
    de68:	17ffffea 	b	de10 <mbedtls_mpi_gen_prime+0x2bc>

000000000000de6c <mbedtls_mpi_self_test>:
    de6c:	a9ae7bfd 	stp	x29, x30, [sp, #-288]!
    de70:	910003fd 	mov	x29, sp
    de74:	a9025bf5 	stp	x21, x22, [sp, #32]
    de78:	9101e3f6 	add	x22, sp, #0x78
    de7c:	9103c3f5 	add	x21, sp, #0xf0
    de80:	a90153f3 	stp	x19, x20, [sp, #16]
    de84:	2a0003f3 	mov	w19, w0
    de88:	aa1603e0 	mov	x0, x22
    de8c:	a90363f7 	stp	x23, x24, [sp, #48]
    de90:	9102a3f8 	add	x24, sp, #0xa8
    de94:	910303f4 	add	x20, sp, #0xc0
    de98:	a9046bf9 	stp	x25, x26, [sp, #64]
    de9c:	910363fa 	add	x26, sp, #0xd8
    dea0:	a90573fb 	stp	x27, x28, [sp, #80]
    dea4:	97fff303 	bl	aab0 <mbedtls_mpi_init_mempool>
    dea8:	910243fc 	add	x28, sp, #0x90
    deac:	aa1c03e0 	mov	x0, x28
    deb0:	97fff300 	bl	aab0 <mbedtls_mpi_init_mempool>
    deb4:	aa1803e0 	mov	x0, x24
    deb8:	97fff2fe 	bl	aab0 <mbedtls_mpi_init_mempool>
    debc:	aa1403e0 	mov	x0, x20
    dec0:	97fff2fc 	bl	aab0 <mbedtls_mpi_init_mempool>
    dec4:	aa1a03e0 	mov	x0, x26
    dec8:	97fff2fa 	bl	aab0 <mbedtls_mpi_init_mempool>
    decc:	aa1503e0 	mov	x0, x21
    ded0:	910423fb 	add	x27, sp, #0x108
    ded4:	97fff2f7 	bl	aab0 <mbedtls_mpi_init_mempool>
    ded8:	aa1b03e0 	mov	x0, x27
    dedc:	97fff2f5 	bl	aab0 <mbedtls_mpi_init_mempool>
    dee0:	aa1603e0 	mov	x0, x22
    dee4:	90000022 	adrp	x2, 11000 <errmsgstr+0x177>
    dee8:	52800201 	mov	w1, #0x10                  	// #16
    deec:	9133f842 	add	x2, x2, #0xcfe
    def0:	97fff7ce 	bl	be28 <mbedtls_mpi_read_string>
    def4:	2a0003f7 	mov	w23, w0
    def8:	350004c0 	cbnz	w0, df90 <mbedtls_mpi_self_test+0x124>
    defc:	aa1c03e0 	mov	x0, x28
    df00:	90000022 	adrp	x2, 11000 <errmsgstr+0x177>
    df04:	52800201 	mov	w1, #0x10                  	// #16
    df08:	9135fc42 	add	x2, x2, #0xd7f
    df0c:	97fff7c7 	bl	be28 <mbedtls_mpi_read_string>
    df10:	2a0003f7 	mov	w23, w0
    df14:	350003e0 	cbnz	w0, df90 <mbedtls_mpi_self_test+0x124>
    df18:	aa1803e0 	mov	x0, x24
    df1c:	90000022 	adrp	x2, 11000 <errmsgstr+0x177>
    df20:	52800201 	mov	w1, #0x10                  	// #16
    df24:	91380042 	add	x2, x2, #0xe00
    df28:	97fff7c0 	bl	be28 <mbedtls_mpi_read_string>
    df2c:	2a0003f7 	mov	w23, w0
    df30:	35000300 	cbnz	w0, df90 <mbedtls_mpi_self_test+0x124>
    df34:	aa1803e2 	mov	x2, x24
    df38:	aa1603e1 	mov	x1, x22
    df3c:	aa1403e0 	mov	x0, x20
    df40:	97fff75a 	bl	bca8 <mbedtls_mpi_mul_mpi>
    df44:	2a0003f7 	mov	w23, w0
    df48:	35000240 	cbnz	w0, df90 <mbedtls_mpi_self_test+0x124>
    df4c:	aa1503e0 	mov	x0, x21
    df50:	90000022 	adrp	x2, 11000 <errmsgstr+0x177>
    df54:	52800201 	mov	w1, #0x10                  	// #16
    df58:	91398442 	add	x2, x2, #0xe61
    df5c:	97fff7b3 	bl	be28 <mbedtls_mpi_read_string>
    df60:	2a0003f7 	mov	w23, w0
    df64:	35000160 	cbnz	w0, df90 <mbedtls_mpi_self_test+0x124>
    df68:	34000093 	cbz	w19, df78 <mbedtls_mpi_self_test+0x10c>
    df6c:	90000020 	adrp	x0, 11000 <errmsgstr+0x177>
    df70:	913d0000 	add	x0, x0, #0xf40
    df74:	97ffd29e 	bl	29ec <printf>
    df78:	aa1503e1 	mov	x1, x21
    df7c:	aa1403e0 	mov	x0, x20
    df80:	97fff5f0 	bl	b740 <mbedtls_mpi_cmp_mpi>
    df84:	340004e0 	cbz	w0, e020 <mbedtls_mpi_self_test+0x1b4>
    df88:	35000453 	cbnz	w19, e010 <mbedtls_mpi_self_test+0x1a4>
    df8c:	52800037 	mov	w23, #0x1                   	// #1
    df90:	710002ff 	cmp	w23, #0x0
    df94:	7a401a64 	ccmp	w19, #0x0, #0x4, ne  // ne = any
    df98:	540000a0 	b.eq	dfac <mbedtls_mpi_self_test+0x140>  // b.none
    df9c:	b0000020 	adrp	x0, 12000 <__func__.4007+0x34a>
    dfa0:	2a1703e1 	mov	w1, w23
    dfa4:	91047400 	add	x0, x0, #0x11d
    dfa8:	97ffd291 	bl	29ec <printf>
    dfac:	aa1603e0 	mov	x0, x22
    dfb0:	97fff2ca 	bl	aad8 <mbedtls_mpi_free>
    dfb4:	aa1c03e0 	mov	x0, x28
    dfb8:	97fff2c8 	bl	aad8 <mbedtls_mpi_free>
    dfbc:	aa1803e0 	mov	x0, x24
    dfc0:	97fff2c6 	bl	aad8 <mbedtls_mpi_free>
    dfc4:	aa1403e0 	mov	x0, x20
    dfc8:	97fff2c4 	bl	aad8 <mbedtls_mpi_free>
    dfcc:	aa1a03e0 	mov	x0, x26
    dfd0:	97fff2c2 	bl	aad8 <mbedtls_mpi_free>
    dfd4:	aa1503e0 	mov	x0, x21
    dfd8:	97fff2c0 	bl	aad8 <mbedtls_mpi_free>
    dfdc:	aa1b03e0 	mov	x0, x27
    dfe0:	97fff2be 	bl	aad8 <mbedtls_mpi_free>
    dfe4:	34000073 	cbz	w19, dff0 <mbedtls_mpi_self_test+0x184>
    dfe8:	52800140 	mov	w0, #0xa                   	// #10
    dfec:	940001cc 	bl	e71c <putchar>
    dff0:	2a1703e0 	mov	w0, w23
    dff4:	a94153f3 	ldp	x19, x20, [sp, #16]
    dff8:	a9425bf5 	ldp	x21, x22, [sp, #32]
    dffc:	a94363f7 	ldp	x23, x24, [sp, #48]
    e000:	a9446bf9 	ldp	x25, x26, [sp, #64]
    e004:	a94573fb 	ldp	x27, x28, [sp, #80]
    e008:	a8d27bfd 	ldp	x29, x30, [sp], #288
    e00c:	d65f03c0 	ret
    e010:	f0000000 	adrp	x0, 11000 <errmsgstr+0x177>
    e014:	91327c00 	add	x0, x0, #0xc9f
    e018:	97ffd297 	bl	2a74 <puts>
    e01c:	17ffffdc 	b	df8c <mbedtls_mpi_self_test+0x120>
    e020:	34000093 	cbz	w19, e030 <mbedtls_mpi_self_test+0x1c4>
    e024:	f0000000 	adrp	x0, 11000 <errmsgstr+0x177>
    e028:	913d6800 	add	x0, x0, #0xf5a
    e02c:	97ffd292 	bl	2a74 <puts>
    e030:	aa1803e3 	mov	x3, x24
    e034:	aa1603e2 	mov	x2, x22
    e038:	aa1a03e1 	mov	x1, x26
    e03c:	aa1403e0 	mov	x0, x20
    e040:	97fff7f3 	bl	c00c <mbedtls_mpi_div_mpi>
    e044:	2a0003f7 	mov	w23, w0
    e048:	35fffa40 	cbnz	w0, df90 <mbedtls_mpi_self_test+0x124>
    e04c:	aa1503e0 	mov	x0, x21
    e050:	f0000002 	adrp	x2, 11000 <errmsgstr+0x177>
    e054:	52800201 	mov	w1, #0x10                  	// #16
    e058:	913d8442 	add	x2, x2, #0xf61
    e05c:	97fff773 	bl	be28 <mbedtls_mpi_read_string>
    e060:	2a0003f7 	mov	w23, w0
    e064:	35fff960 	cbnz	w0, df90 <mbedtls_mpi_self_test+0x124>
    e068:	aa1b03e0 	mov	x0, x27
    e06c:	f0000002 	adrp	x2, 11000 <errmsgstr+0x177>
    e070:	52800201 	mov	w1, #0x10                  	// #16
    e074:	913e1442 	add	x2, x2, #0xf85
    e078:	97fff76c 	bl	be28 <mbedtls_mpi_read_string>
    e07c:	2a0003f7 	mov	w23, w0
    e080:	35fff880 	cbnz	w0, df90 <mbedtls_mpi_self_test+0x124>
    e084:	34000093 	cbz	w19, e094 <mbedtls_mpi_self_test+0x228>
    e088:	f0000000 	adrp	x0, 11000 <errmsgstr+0x177>
    e08c:	913f9000 	add	x0, x0, #0xfe4
    e090:	97ffd257 	bl	29ec <printf>
    e094:	aa1503e1 	mov	x1, x21
    e098:	aa1403e0 	mov	x0, x20
    e09c:	97fff5a9 	bl	b740 <mbedtls_mpi_cmp_mpi>
    e0a0:	35fff740 	cbnz	w0, df88 <mbedtls_mpi_self_test+0x11c>
    e0a4:	aa1b03e1 	mov	x1, x27
    e0a8:	aa1a03e0 	mov	x0, x26
    e0ac:	97fff5a5 	bl	b740 <mbedtls_mpi_cmp_mpi>
    e0b0:	35fff6c0 	cbnz	w0, df88 <mbedtls_mpi_self_test+0x11c>
    e0b4:	34000093 	cbz	w19, e0c4 <mbedtls_mpi_self_test+0x258>
    e0b8:	f0000000 	adrp	x0, 11000 <errmsgstr+0x177>
    e0bc:	913d6800 	add	x0, x0, #0xf5a
    e0c0:	97ffd26d 	bl	2a74 <puts>
    e0c4:	aa1803e3 	mov	x3, x24
    e0c8:	aa1c03e2 	mov	x2, x28
    e0cc:	aa1603e1 	mov	x1, x22
    e0d0:	aa1403e0 	mov	x0, x20
    e0d4:	d2800004 	mov	x4, #0x0                   	// #0
    e0d8:	97fffa90 	bl	cb18 <mbedtls_mpi_exp_mod>
    e0dc:	2a0003f7 	mov	w23, w0
    e0e0:	35fff580 	cbnz	w0, df90 <mbedtls_mpi_self_test+0x124>
    e0e4:	aa1503e0 	mov	x0, x21
    e0e8:	f0000002 	adrp	x2, 11000 <errmsgstr+0x177>
    e0ec:	52800201 	mov	w1, #0x10                  	// #16
    e0f0:	913ff842 	add	x2, x2, #0xffe
    e0f4:	97fff74d 	bl	be28 <mbedtls_mpi_read_string>
    e0f8:	2a0003f7 	mov	w23, w0
    e0fc:	35fff4a0 	cbnz	w0, df90 <mbedtls_mpi_self_test+0x124>
    e100:	34000093 	cbz	w19, e110 <mbedtls_mpi_self_test+0x2a4>
    e104:	90000020 	adrp	x0, 12000 <__func__.4007+0x34a>
    e108:	91017400 	add	x0, x0, #0x5d
    e10c:	97ffd238 	bl	29ec <printf>
    e110:	aa1503e1 	mov	x1, x21
    e114:	aa1403e0 	mov	x0, x20
    e118:	97fff58a 	bl	b740 <mbedtls_mpi_cmp_mpi>
    e11c:	35fff360 	cbnz	w0, df88 <mbedtls_mpi_self_test+0x11c>
    e120:	34000093 	cbz	w19, e130 <mbedtls_mpi_self_test+0x2c4>
    e124:	f0000000 	adrp	x0, 11000 <errmsgstr+0x177>
    e128:	913d6800 	add	x0, x0, #0xf5a
    e12c:	97ffd252 	bl	2a74 <puts>
    e130:	aa1803e2 	mov	x2, x24
    e134:	aa1603e1 	mov	x1, x22
    e138:	aa1403e0 	mov	x0, x20
    e13c:	97fffd4f 	bl	d678 <mbedtls_mpi_inv_mod>
    e140:	2a0003f7 	mov	w23, w0
    e144:	35fff260 	cbnz	w0, df90 <mbedtls_mpi_self_test+0x124>
    e148:	aa1503e0 	mov	x0, x21
    e14c:	90000022 	adrp	x2, 12000 <__func__.4007+0x34a>
    e150:	52800201 	mov	w1, #0x10                  	// #16
    e154:	9101dc42 	add	x2, x2, #0x77
    e158:	97fff734 	bl	be28 <mbedtls_mpi_read_string>
    e15c:	2a0003f7 	mov	w23, w0
    e160:	35fff180 	cbnz	w0, df90 <mbedtls_mpi_self_test+0x124>
    e164:	34000093 	cbz	w19, e174 <mbedtls_mpi_self_test+0x308>
    e168:	90000020 	adrp	x0, 12000 <__func__.4007+0x34a>
    e16c:	91036000 	add	x0, x0, #0xd8
    e170:	97ffd21f 	bl	29ec <printf>
    e174:	aa1503e1 	mov	x1, x21
    e178:	aa1403e0 	mov	x0, x20
    e17c:	97fff571 	bl	b740 <mbedtls_mpi_cmp_mpi>
    e180:	2a0003f9 	mov	w25, w0
    e184:	35fff020 	cbnz	w0, df88 <mbedtls_mpi_self_test+0x11c>
    e188:	340000f3 	cbz	w19, e1a4 <mbedtls_mpi_self_test+0x338>
    e18c:	f0000000 	adrp	x0, 11000 <errmsgstr+0x177>
    e190:	913d6800 	add	x0, x0, #0xf5a
    e194:	97ffd238 	bl	2a74 <puts>
    e198:	90000020 	adrp	x0, 12000 <__func__.4007+0x34a>
    e19c:	9103c800 	add	x0, x0, #0xf2
    e1a0:	97ffd213 	bl	29ec <printf>
    e1a4:	d0000017 	adrp	x23, 10000 <__text_end+0x1600>
    e1a8:	911932f7 	add	x23, x23, #0x64c
    e1ac:	910a82e0 	add	x0, x23, #0x2a0
    e1b0:	f90037e0 	str	x0, [sp, #104]
    e1b4:	f94037e0 	ldr	x0, [sp, #104]
    e1b8:	b9400001 	ldr	w1, [x0]
    e1bc:	aa1403e0 	mov	x0, x20
    e1c0:	97fff390 	bl	b000 <mbedtls_mpi_lset>
    e1c4:	2a0003f7 	mov	w23, w0
    e1c8:	35ffee40 	cbnz	w0, df90 <mbedtls_mpi_self_test+0x124>
    e1cc:	f94037e0 	ldr	x0, [sp, #104]
    e1d0:	b9400401 	ldr	w1, [x0, #4]
    e1d4:	aa1a03e0 	mov	x0, x26
    e1d8:	97fff38a 	bl	b000 <mbedtls_mpi_lset>
    e1dc:	2a0003f7 	mov	w23, w0
    e1e0:	35ffed80 	cbnz	w0, df90 <mbedtls_mpi_self_test+0x124>
    e1e4:	aa1a03e2 	mov	x2, x26
    e1e8:	aa1403e1 	mov	x1, x20
    e1ec:	aa1603e0 	mov	x0, x22
    e1f0:	97fffbed 	bl	d1a4 <mbedtls_mpi_gcd>
    e1f4:	2a0003f7 	mov	w23, w0
    e1f8:	35ffecc0 	cbnz	w0, df90 <mbedtls_mpi_self_test+0x124>
    e1fc:	f94037e0 	ldr	x0, [sp, #104]
    e200:	b9400801 	ldr	w1, [x0, #8]
    e204:	aa1603e0 	mov	x0, x22
    e208:	97fff5b6 	bl	b8e0 <mbedtls_mpi_cmp_int>
    e20c:	2a0003f7 	mov	w23, w0
    e210:	340000e0 	cbz	w0, e22c <mbedtls_mpi_self_test+0x3c0>
    e214:	34ffebd3 	cbz	w19, df8c <mbedtls_mpi_self_test+0x120>
    e218:	2a1903e1 	mov	w1, w25
    e21c:	90000020 	adrp	x0, 12000 <__func__.4007+0x34a>
    e220:	91043c00 	add	x0, x0, #0x10f
    e224:	97ffd1f2 	bl	29ec <printf>
    e228:	17ffff59 	b	df8c <mbedtls_mpi_self_test+0x120>
    e22c:	f94037e0 	ldr	x0, [sp, #104]
    e230:	11000739 	add	w25, w25, #0x1
    e234:	71000f3f 	cmp	w25, #0x3
    e238:	91003000 	add	x0, x0, #0xc
    e23c:	f90037e0 	str	x0, [sp, #104]
    e240:	54fffba1 	b.ne	e1b4 <mbedtls_mpi_self_test+0x348>  // b.any
    e244:	340000b3 	cbz	w19, e258 <mbedtls_mpi_self_test+0x3ec>
    e248:	f0000000 	adrp	x0, 11000 <errmsgstr+0x177>
    e24c:	913d6800 	add	x0, x0, #0xf5a
    e250:	97ffd209 	bl	2a74 <puts>
    e254:	17ffff4f 	b	df90 <mbedtls_mpi_self_test+0x124>
    e258:	2a1303f7 	mov	w23, w19
    e25c:	17ffff4d 	b	df90 <mbedtls_mpi_self_test+0x124>

000000000000e260 <mbedtls_platform_zeroize>:
    e260:	aa0103e2 	mov	x2, x1
    e264:	b40000c1 	cbz	x1, e27c <mbedtls_platform_zeroize+0x1c>
    e268:	b0000021 	adrp	x1, 13000 <_DYNAMIC>
    e26c:	f9436423 	ldr	x3, [x1, #1736]
    e270:	52800001 	mov	w1, #0x0                   	// #0
    e274:	aa0303f0 	mov	x16, x3
    e278:	d61f0200 	br	x16
    e27c:	d65f03c0 	ret

000000000000e280 <__init_tp>:
    e280:	a9bf7bf3 	stp	x19, x30, [sp, #-16]!
    e284:	aa0003f3 	mov	x19, x0
    e288:	f9000000 	str	x0, [x0]
    e28c:	940001bb 	bl	e978 <__set_thread_area>
    e290:	7100001f 	cmp	w0, #0x0
    e294:	5400030b 	b.lt	e2f4 <__init_tp+0x74>  // b.tstop
    e298:	54000081 	b.ne	e2a8 <__init_tp+0x28>  // b.any
    e29c:	b0000020 	adrp	x0, 13000 <_DYNAMIC>
    e2a0:	52800021 	mov	w1, #0x1                   	// #1
    e2a4:	391c2001 	strb	w1, [x0, #1800]
    e2a8:	52800040 	mov	w0, #0x2                   	// #2
    e2ac:	b9002a60 	str	w0, [x19, #40]
    e2b0:	90000041 	adrp	x1, 16000 <data.4829+0x2800>
    e2b4:	d2800c00 	mov	x0, #0x60                  	// #96
    e2b8:	91282021 	add	x1, x1, #0xa08
    e2bc:	97ffe3c2 	bl	71c4 <__syscall1>
    e2c0:	b9002260 	str	w0, [x19, #32]
    e2c4:	b0000020 	adrp	x0, 13000 <_DYNAMIC>
    e2c8:	911d0000 	add	x0, x0, #0x740
    e2cc:	f9004e60 	str	x0, [x19, #152]
    e2d0:	9101e260 	add	x0, x19, #0x78
    e2d4:	f9003e60 	str	x0, [x19, #120]
    e2d8:	90000040 	adrp	x0, 16000 <data.4829+0x2800>
    e2dc:	a900ce73 	stp	x19, x19, [x19, #8]
    e2e0:	f944d000 	ldr	x0, [x0, #2464]
    e2e4:	f9000e60 	str	x0, [x19, #24]
    e2e8:	52800000 	mov	w0, #0x0                   	// #0
    e2ec:	a8c17bf3 	ldp	x19, x30, [sp], #16
    e2f0:	d65f03c0 	ret
    e2f4:	12800000 	mov	w0, #0xffffffff            	// #-1
    e2f8:	17fffffd 	b	e2ec <__init_tp+0x6c>

000000000000e2fc <set_pthread_stub>:
    e2fc:	90000041 	adrp	x1, 16000 <data.4829+0x2800>
    e300:	91208021 	add	x1, x1, #0x820
    e304:	91002021 	add	x1, x1, #0x8
    e308:	f9000001 	str	x1, [x0]
    e30c:	d65f03c0 	ret

000000000000e310 <__copy_tls>:
    e310:	a9bb53f3 	stp	x19, x20, [sp, #-80]!
    e314:	a9015bf5 	stp	x21, x22, [sp, #16]
    e318:	aa0003f5 	mov	x21, x0
    e31c:	b0000020 	adrp	x0, 13000 <_DYNAMIC>
    e320:	911c2001 	add	x1, x0, #0x708
    e324:	a90263f7 	stp	x23, x24, [sp, #32]
    e328:	aa0003f6 	mov	x22, x0
    e32c:	a9036bf9 	stp	x25, x26, [sp, #48]
    e330:	a9415c34 	ldp	x20, x23, [x1, #16]
    e334:	f9401033 	ldr	x19, [x1, #32]
    e338:	d1000673 	sub	x19, x19, #0x1
    e33c:	d10022e2 	sub	x2, x23, #0x8
    e340:	f9401437 	ldr	x23, [x1, #40]
    e344:	f90023fe 	str	x30, [sp, #64]
    e348:	cb170c57 	sub	x23, x2, x23, lsl #3
    e34c:	928018e2 	mov	x2, #0xffffffffffffff38    	// #-200
    e350:	cb150042 	sub	x2, x2, x21
    e354:	8b1702b8 	add	x24, x21, x23
    e358:	8a020273 	and	x19, x19, x2
    e35c:	9100231a 	add	x26, x24, #0x8
    e360:	8b1302b3 	add	x19, x21, x19
    e364:	91032279 	add	x25, x19, #0xc8
    e368:	b5000194 	cbnz	x20, e398 <__copy_tls+0x88>
    e36c:	911c22c0 	add	x0, x22, #0x708
    e370:	a9436bf9 	ldp	x25, x26, [sp, #48]
    e374:	f9401400 	ldr	x0, [x0, #40]
    e378:	f8376aa0 	str	x0, [x21, x23]
    e37c:	a9415bf5 	ldp	x21, x22, [sp, #16]
    e380:	aa1303e0 	mov	x0, x19
    e384:	f94023fe 	ldr	x30, [sp, #64]
    e388:	f9006278 	str	x24, [x19, #192]
    e38c:	a94263f7 	ldp	x23, x24, [sp, #32]
    e390:	a8c553f3 	ldp	x19, x20, [sp], #80
    e394:	d65f03c0 	ret
    e398:	f9401680 	ldr	x0, [x20, #40]
    e39c:	f9400681 	ldr	x1, [x20, #8]
    e3a0:	8b000320 	add	x0, x25, x0
    e3a4:	f8008740 	str	x0, [x26], #8
    e3a8:	f9400a82 	ldr	x2, [x20, #16]
    e3ac:	f9401680 	ldr	x0, [x20, #40]
    e3b0:	8b000320 	add	x0, x25, x0
    e3b4:	97ffd8ad 	bl	4668 <memcpy>
    e3b8:	f9400294 	ldr	x20, [x20]
    e3bc:	17ffffeb 	b	e368 <__copy_tls+0x58>

000000000000e3c0 <__init_tls>:
    e3c0:	b0000024 	adrp	x4, 13000 <_DYNAMIC>
    e3c4:	b0000025 	adrp	x5, 13000 <_DYNAMIC>
    e3c8:	f9400c0a 	ldr	x10, [x0, #24]
    e3cc:	529caa2b 	mov	w11, #0xe551                	// #58705
    e3d0:	b946dc87 	ldr	w7, [x4, #1756]
    e3d4:	52800009 	mov	w9, #0x0                   	// #0
    e3d8:	f9409ca5 	ldr	x5, [x5, #312]
    e3dc:	aa0a03e2 	mov	x2, x10
    e3e0:	f9401408 	ldr	x8, [x0, #40]
    e3e4:	d2800001 	mov	x1, #0x0                   	// #0
    e3e8:	d2800003 	mov	x3, #0x0                   	// #0
    e3ec:	72ac8e8b 	movk	w11, #0x6474, lsl #16
    e3f0:	d2a0100c 	mov	x12, #0x800000              	// #8388608
    e3f4:	f81f0ffe 	str	x30, [sp, #-16]!
    e3f8:	b5000788 	cbnz	x8, e4e8 <__init_tls+0x128>
    e3fc:	34000049 	cbz	w9, e404 <__init_tls+0x44>
    e400:	b906dc87 	str	w7, [x4, #1756]
    e404:	90000045 	adrp	x5, 16000 <data.4829+0x2800>
    e408:	b0000024 	adrp	x4, 13000 <_DYNAMIC>
    e40c:	b40001e3 	cbz	x3, e448 <__init_tls+0x88>
    e410:	f9400862 	ldr	x2, [x3, #16]
    e414:	9125c0a0 	add	x0, x5, #0x970
    e418:	8b010041 	add	x1, x2, x1
    e41c:	d2800022 	mov	x2, #0x1                   	// #1
    e420:	f9000401 	str	x1, [x0, #8]
    e424:	f9401061 	ldr	x1, [x3, #32]
    e428:	f9000801 	str	x1, [x0, #16]
    e42c:	f9401461 	ldr	x1, [x3, #40]
    e430:	f9000c01 	str	x1, [x0, #24]
    e434:	f9401861 	ldr	x1, [x3, #48]
    e438:	f9001001 	str	x1, [x0, #32]
    e43c:	911c2081 	add	x1, x4, #0x708
    e440:	f9000820 	str	x0, [x1, #16]
    e444:	f9001422 	str	x2, [x1, #40]
    e448:	9125c0a3 	add	x3, x5, #0x970
    e44c:	a9419860 	ldp	x0, x6, [x3, #24]
    e450:	f9400461 	ldr	x1, [x3, #8]
    e454:	8b010002 	add	x2, x0, x1
    e458:	d10004c7 	sub	x7, x6, #0x1
    e45c:	cb0203e2 	neg	x2, x2
    e460:	f1001cdf 	cmp	x6, #0x7
    e464:	8a070042 	and	x2, x2, x7
    e468:	8b000042 	add	x2, x2, x0
    e46c:	d1004020 	sub	x0, x1, #0x10
    e470:	8a070000 	and	x0, x0, x7
    e474:	f9000c62 	str	x2, [x3, #24]
    e478:	91004000 	add	x0, x0, #0x10
    e47c:	f9001460 	str	x0, [x3, #40]
    e480:	8b000041 	add	x1, x2, x0
    e484:	54000068 	b.hi	e490 <__init_tls+0xd0>  // b.pmore
    e488:	d2800100 	mov	x0, #0x8                   	// #8
    e48c:	f9001060 	str	x0, [x3, #32]
    e490:	9125c0a5 	add	x5, x5, #0x970
    e494:	911c2083 	add	x3, x4, #0x708
    e498:	f94010a0 	ldr	x0, [x5, #32]
    e49c:	91037c02 	add	x2, x0, #0xdf
    e4a0:	8b010042 	add	x2, x2, x1
    e4a4:	927df042 	and	x2, x2, #0xfffffffffffffff8
    e4a8:	a9018062 	stp	x2, x0, [x3, #24]
    e4ac:	f105405f 	cmp	x2, #0x150
    e4b0:	54000549 	b.ls	e558 <__init_tls+0x198>  // b.plast
    e4b4:	d2800006 	mov	x6, #0x0                   	// #0
    e4b8:	92800005 	mov	x5, #0xffffffffffffffff    	// #-1
    e4bc:	d2800444 	mov	x4, #0x22                  	// #34
    e4c0:	d2800063 	mov	x3, #0x3                   	// #3
    e4c4:	d2800001 	mov	x1, #0x0                   	// #0
    e4c8:	d2801bc0 	mov	x0, #0xde                  	// #222
    e4cc:	97ffe352 	bl	7214 <__syscall6>
    e4d0:	97ffff90 	bl	e310 <__copy_tls>
    e4d4:	97ffff6b 	bl	e280 <__init_tp>
    e4d8:	36f80460 	tbz	w0, #31, e564 <__init_tls+0x1a4>
    e4dc:	d2800000 	mov	x0, #0x0                   	// #0
    e4e0:	3900001f 	strb	wzr, [x0]
    e4e4:	d4207d00 	brk	#0x3e8
    e4e8:	b9400046 	ldr	w6, [x2]
    e4ec:	710018df 	cmp	w6, #0x6
    e4f0:	540000e1 	b.ne	e50c <__init_tls+0x14c>  // b.any
    e4f4:	f9400841 	ldr	x1, [x2, #16]
    e4f8:	cb010141 	sub	x1, x10, x1
    e4fc:	f9401006 	ldr	x6, [x0, #32]
    e500:	d1000508 	sub	x8, x8, #0x1
    e504:	8b060042 	add	x2, x2, x6
    e508:	17ffffbc 	b	e3f8 <__init_tls+0x38>
    e50c:	710008df 	cmp	w6, #0x2
    e510:	54000180 	b.eq	e540 <__init_tls+0x180>  // b.none
    e514:	71001cdf 	cmp	w6, #0x7
    e518:	540001c0 	b.eq	e550 <__init_tls+0x190>  // b.none
    e51c:	6b0b00df 	cmp	w6, w11
    e520:	54fffee1 	b.ne	e4fc <__init_tls+0x13c>  // b.any
    e524:	f9401446 	ldr	x6, [x2, #40]
    e528:	eb2740df 	cmp	x6, w7, uxtw
    e52c:	54fffe89 	b.ls	e4fc <__init_tls+0x13c>  // b.plast
    e530:	f16000df 	cmp	x6, #0x800, lsl #12
    e534:	52800029 	mov	w9, #0x1                   	// #1
    e538:	9a8c90c7 	csel	x7, x6, x12, ls  // ls = plast
    e53c:	17fffff0 	b	e4fc <__init_tls+0x13c>
    e540:	b4fffde5 	cbz	x5, e4fc <__init_tls+0x13c>
    e544:	f9400841 	ldr	x1, [x2, #16]
    e548:	cb0100a1 	sub	x1, x5, x1
    e54c:	17ffffec 	b	e4fc <__init_tls+0x13c>
    e550:	aa0203e3 	mov	x3, x2
    e554:	17ffffea 	b	e4fc <__init_tls+0x13c>
    e558:	90000040 	adrp	x0, 16000 <data.4829+0x2800>
    e55c:	91208000 	add	x0, x0, #0x820
    e560:	17ffffdc 	b	e4d0 <__init_tls+0x110>
    e564:	f84107fe 	ldr	x30, [sp], #16
    e568:	d65f03c0 	ret

000000000000e56c <__malloc_allzerop>:
    e56c:	52800000 	mov	w0, #0x0                   	// #0
    e570:	d65f03c0 	ret

000000000000e574 <calloc>:
    e574:	a9be53f3 	stp	x19, x20, [sp, #-32]!
    e578:	f9000bfe 	str	x30, [sp, #16]
    e57c:	b4000161 	cbz	x1, e5a8 <calloc+0x34>
    e580:	9bc17c02 	umulh	x2, x0, x1
    e584:	b4000122 	cbz	x2, e5a8 <calloc+0x34>
    e588:	97ffda79 	bl	4f6c <__errno_location>
    e58c:	d2800014 	mov	x20, #0x0                   	// #0
    e590:	52800181 	mov	w1, #0xc                   	// #12
    e594:	b9000001 	str	w1, [x0]
    e598:	aa1403e0 	mov	x0, x20
    e59c:	f9400bfe 	ldr	x30, [sp, #16]
    e5a0:	a8c253f3 	ldp	x19, x20, [sp], #32
    e5a4:	d65f03c0 	ret
    e5a8:	9b007c33 	mul	x19, x1, x0
    e5ac:	aa1303e0 	mov	x0, x19
    e5b0:	97ffe1a0 	bl	6c30 <malloc>
    e5b4:	aa0003f4 	mov	x20, x0
    e5b8:	b4ffff00 	cbz	x0, e598 <calloc+0x24>
    e5bc:	90000041 	adrp	x1, 16000 <data.4829+0x2800>
    e5c0:	b94a0c21 	ldr	w1, [x1, #2572]
    e5c4:	34000261 	cbz	w1, e610 <calloc+0x9c>
    e5c8:	f13ffe7f 	cmp	x19, #0xfff
    e5cc:	54000289 	b.ls	e61c <calloc+0xa8>  // b.plast
    e5d0:	8b130280 	add	x0, x20, x19
    e5d4:	92402c02 	and	x2, x0, #0xfff
    e5d8:	cb020000 	sub	x0, x0, x2
    e5dc:	52800001 	mov	w1, #0x0                   	// #0
    e5e0:	97ffd90b 	bl	4a0c <memset>
    e5e4:	cb140013 	sub	x19, x0, x20
    e5e8:	f13ffe7f 	cmp	x19, #0xfff
    e5ec:	54000189 	b.ls	e61c <calloc+0xa8>  // b.plast
    e5f0:	d2820002 	mov	x2, #0x1000                	// #4096
    e5f4:	a97f0403 	ldp	x3, x1, [x0, #-16]
    e5f8:	aa030021 	orr	x1, x1, x3
    e5fc:	b5fffee1 	cbnz	x1, e5d8 <calloc+0x64>
    e600:	d1004000 	sub	x0, x0, #0x10
    e604:	f1004042 	subs	x2, x2, #0x10
    e608:	54ffff61 	b.ne	e5f4 <calloc+0x80>  // b.any
    e60c:	17fffff3 	b	e5d8 <calloc+0x64>
    e610:	97ffffd7 	bl	e56c <__malloc_allzerop>
    e614:	34fffda0 	cbz	w0, e5c8 <calloc+0x54>
    e618:	17ffffe0 	b	e598 <calloc+0x24>
    e61c:	aa1303e2 	mov	x2, x19
    e620:	aa1403e0 	mov	x0, x20
    e624:	f9400bfe 	ldr	x30, [sp, #16]
    e628:	52800001 	mov	w1, #0x0                   	// #0
    e62c:	a8c253f3 	ldp	x19, x20, [sp], #32
    e630:	17ffd8f7 	b	4a0c <memset>

000000000000e634 <realloc>:
    e634:	17ffdfd7 	b	6590 <__libc_realloc>

000000000000e638 <locking_putc.constprop.0>:
    e638:	a9be53f3 	stp	x19, x20, [sp, #-32]!
    e63c:	b0000033 	adrp	x19, 13000 <_DYNAMIC>
    e640:	12b80001 	mov	w1, #0x3fffffff            	// #1073741823
    e644:	a9017bf5 	stp	x21, x30, [sp, #16]
    e648:	2a0003f5 	mov	w21, w0
    e64c:	9110c260 	add	x0, x19, #0x430
    e650:	91023002 	add	x2, x0, #0x8c
    e654:	885ffc42 	ldaxr	w2, [x2]
    e658:	34000502 	cbz	w2, e6f8 <locking_putc.constprop.0+0xc0>
    e65c:	d5033bbf 	dmb	ish
    e660:	97ffdb3a 	bl	5348 <__lockfile>
    e664:	9110c260 	add	x0, x19, #0x430
    e668:	12001eb4 	and	w20, w21, #0xff
    e66c:	b9409001 	ldr	w1, [x0, #144]
    e670:	6b35003f 	cmp	w1, w21, uxtb
    e674:	540004a0 	b.eq	e708 <locking_putc.constprop.0+0xd0>  // b.none
    e678:	a9420402 	ldp	x2, x1, [x0, #32]
    e67c:	eb02003f 	cmp	x1, x2
    e680:	54000440 	b.eq	e708 <locking_putc.constprop.0+0xd0>  // b.none
    e684:	91000422 	add	x2, x1, #0x1
    e688:	f9001402 	str	x2, [x0, #40]
    e68c:	39000035 	strb	w21, [x1]
    e690:	9110c273 	add	x19, x19, #0x430
    e694:	52800000 	mov	w0, #0x0                   	// #0
    e698:	91023261 	add	x1, x19, #0x8c
    e69c:	885ffc21 	ldaxr	w1, [x1]
    e6a0:	91023263 	add	x3, x19, #0x8c
    e6a4:	8802fc60 	stlxr	w2, w0, [x3]
    e6a8:	35ffff82 	cbnz	w2, e698 <locking_putc.constprop.0+0x60>
    e6ac:	36f001e1 	tbz	w1, #30, e6e8 <locking_putc.constprop.0+0xb0>
    e6b0:	b0000033 	adrp	x19, 13000 <_DYNAMIC>
    e6b4:	9112f273 	add	x19, x19, #0x4bc
    e6b8:	aa1303e1 	mov	x1, x19
    e6bc:	d2800023 	mov	x3, #0x1                   	// #1
    e6c0:	d2801022 	mov	x2, #0x81                  	// #129
    e6c4:	d2800c40 	mov	x0, #0x62                  	// #98
    e6c8:	97ffe2ca 	bl	71f0 <__syscall3>
    e6cc:	b100981f 	cmn	x0, #0x26
    e6d0:	540000c1 	b.ne	e6e8 <locking_putc.constprop.0+0xb0>  // b.any
    e6d4:	d2800023 	mov	x3, #0x1                   	// #1
    e6d8:	aa1303e1 	mov	x1, x19
    e6dc:	aa0303e2 	mov	x2, x3
    e6e0:	d2800c40 	mov	x0, #0x62                  	// #98
    e6e4:	97ffe2c3 	bl	71f0 <__syscall3>
    e6e8:	2a1403e0 	mov	w0, w20
    e6ec:	a9417bf5 	ldp	x21, x30, [sp, #16]
    e6f0:	a8c253f3 	ldp	x19, x20, [sp], #32
    e6f4:	d65f03c0 	ret
    e6f8:	91023003 	add	x3, x0, #0x8c
    e6fc:	8802fc61 	stlxr	w2, w1, [x3]
    e700:	35fffa82 	cbnz	w2, e650 <locking_putc.constprop.0+0x18>
    e704:	17ffffd8 	b	e664 <locking_putc.constprop.0+0x2c>
    e708:	2a1403e1 	mov	w1, w20
    e70c:	9110c260 	add	x0, x19, #0x430
    e710:	97ffdb59 	bl	5474 <__overflow>
    e714:	2a0003f4 	mov	w20, w0
    e718:	17ffffde 	b	e690 <locking_putc.constprop.0+0x58>

000000000000e71c <putchar>:
    e71c:	b0000022 	adrp	x2, 13000 <_DYNAMIC>
    e720:	9110c041 	add	x1, x2, #0x430
    e724:	b9408c21 	ldr	w1, [x1, #140]
    e728:	7100003f 	cmp	w1, #0x0
    e72c:	5400010b 	b.lt	e74c <putchar+0x30>  // b.tstop
    e730:	54000220 	b.eq	e774 <putchar+0x58>  // b.none
    e734:	d53bd043 	mrs	x3, tpidr_el0
    e738:	f9400063 	ldr	x3, [x3]
    e73c:	12017821 	and	w1, w1, #0xbfffffff
    e740:	b9402063 	ldr	w3, [x3, #32]
    e744:	6b03003f 	cmp	w1, w3
    e748:	54000161 	b.ne	e774 <putchar+0x58>  // b.any
    e74c:	9110c043 	add	x3, x2, #0x430
    e750:	12001c01 	and	w1, w0, #0xff
    e754:	b9409064 	ldr	w4, [x3, #144]
    e758:	6b20009f 	cmp	w4, w0, uxtb
    e75c:	54000080 	b.eq	e76c <putchar+0x50>  // b.none
    e760:	a9421065 	ldp	x5, x4, [x3, #32]
    e764:	eb05009f 	cmp	x4, x5
    e768:	54000081 	b.ne	e778 <putchar+0x5c>  // b.any
    e76c:	9110c040 	add	x0, x2, #0x430
    e770:	17ffdb41 	b	5474 <__overflow>
    e774:	17ffffb1 	b	e638 <locking_putc.constprop.0>
    e778:	91000482 	add	x2, x4, #0x1
    e77c:	f9001462 	str	x2, [x3, #40]
    e780:	39000080 	strb	w0, [x4]
    e784:	2a0103e0 	mov	w0, w1
    e788:	d65f03c0 	ret

000000000000e78c <sprintf>:
    e78c:	d10403ff 	sub	sp, sp, #0x100
    e790:	a90d0fe2 	stp	x2, x3, [sp, #208]
    e794:	910403e2 	add	x2, sp, #0x100
    e798:	a9030be2 	stp	x2, x2, [sp, #48]
    e79c:	910343e2 	add	x2, sp, #0xd0
    e7a0:	f90023e2 	str	x2, [sp, #64]
    e7a4:	128005e2 	mov	w2, #0xffffffd0            	// #-48
    e7a8:	b9004be2 	str	w2, [sp, #72]
    e7ac:	12800fe2 	mov	w2, #0xffffff80            	// #-128
    e7b0:	b9004fe2 	str	w2, [sp, #76]
    e7b4:	a9430fe2 	ldp	x2, x3, [sp, #48]
    e7b8:	a9010fe2 	stp	x2, x3, [sp, #16]
    e7bc:	a9440fe2 	ldp	x2, x3, [sp, #64]
    e7c0:	f90003fe 	str	x30, [sp]
    e7c4:	a9020fe2 	stp	x2, x3, [sp, #32]
    e7c8:	910043e2 	add	x2, sp, #0x10
    e7cc:	3d8017e0 	str	q0, [sp, #80]
    e7d0:	3d801be1 	str	q1, [sp, #96]
    e7d4:	3d801fe2 	str	q2, [sp, #112]
    e7d8:	3d8023e3 	str	q3, [sp, #128]
    e7dc:	3d8027e4 	str	q4, [sp, #144]
    e7e0:	3d802be5 	str	q5, [sp, #160]
    e7e4:	3d802fe6 	str	q6, [sp, #176]
    e7e8:	3d8033e7 	str	q7, [sp, #192]
    e7ec:	a90e17e4 	stp	x4, x5, [sp, #224]
    e7f0:	a90f1fe6 	stp	x6, x7, [sp, #240]
    e7f4:	94000004 	bl	e804 <vsprintf>
    e7f8:	f94003fe 	ldr	x30, [sp]
    e7fc:	910403ff 	add	sp, sp, #0x100
    e800:	d65f03c0 	ret

000000000000e804 <vsprintf>:
    e804:	a9bc53f3 	stp	x19, x20, [sp, #-64]!
    e808:	aa0003f3 	mov	x19, x0
    e80c:	aa0103f4 	mov	x20, x1
    e810:	910083e3 	add	x3, sp, #0x20
    e814:	aa0203e1 	mov	x1, x2
    e818:	aa0303e0 	mov	x0, x3
    e81c:	d2800402 	mov	x2, #0x20                  	// #32
    e820:	f9000bfe 	str	x30, [sp, #16]
    e824:	97ffd791 	bl	4668 <memcpy>
    e828:	aa0003e3 	mov	x3, x0
    e82c:	aa1403e2 	mov	x2, x20
    e830:	aa1303e0 	mov	x0, x19
    e834:	b2407be1 	mov	x1, #0x7fffffff            	// #2147483647
    e838:	97ffdcaf 	bl	5af4 <vsnprintf>
    e83c:	f9400bfe 	ldr	x30, [sp, #16]
    e840:	a8c453f3 	ldp	x19, x20, [sp], #64
    e844:	d65f03c0 	ret

000000000000e848 <memmove>:
    e848:	aa0003e5 	mov	x5, x0
    e84c:	aa0103e4 	mov	x4, x1
    e850:	aa0203e3 	mov	x3, x2
    e854:	eb01001f 	cmp	x0, x1
    e858:	54000300 	b.eq	e8b8 <memmove+0x70>  // b.none
    e85c:	92800026 	mov	x6, #0xfffffffffffffffe    	// #-2
    e860:	cb020027 	sub	x7, x1, x2
    e864:	cb0000e7 	sub	x7, x7, x0
    e868:	9b067c46 	mul	x6, x2, x6
    e86c:	eb0600ff 	cmp	x7, x6
    e870:	54000048 	b.hi	e878 <memmove+0x30>  // b.pmore
    e874:	17ffd77d 	b	4668 <memcpy>
    e878:	ca000020 	eor	x0, x1, x0
    e87c:	eb0100bf 	cmp	x5, x1
    e880:	92400800 	and	x0, x0, #0x7
    e884:	54000482 	b.cs	e914 <memmove+0xcc>  // b.hs, b.nlast
    e888:	b4000220 	cbz	x0, e8cc <memmove+0x84>
    e88c:	aa0503e1 	mov	x1, x5
    e890:	d2800000 	mov	x0, #0x0                   	// #0
    e894:	eb00007f 	cmp	x3, x0
    e898:	540000e0 	b.eq	e8b4 <memmove+0x6c>  // b.none
    e89c:	38606882 	ldrb	w2, [x4, x0]
    e8a0:	38206822 	strb	w2, [x1, x0]
    e8a4:	91000400 	add	x0, x0, #0x1
    e8a8:	17fffffb 	b	e894 <memmove+0x4c>
    e8ac:	eb00007f 	cmp	x3, x0
    e8b0:	54000081 	b.ne	e8c0 <memmove+0x78>  // b.any
    e8b4:	aa0503e4 	mov	x4, x5
    e8b8:	aa0403e0 	mov	x0, x4
    e8bc:	d65f03c0 	ret
    e8c0:	38606881 	ldrb	w1, [x4, x0]
    e8c4:	382068a1 	strb	w1, [x5, x0]
    e8c8:	91000400 	add	x0, x0, #0x1
    e8cc:	8b0000a1 	add	x1, x5, x0
    e8d0:	8b000087 	add	x7, x4, x0
    e8d4:	cb000066 	sub	x6, x3, x0
    e8d8:	f2400822 	ands	x2, x1, #0x7
    e8dc:	54fffe81 	b.ne	e8ac <memmove+0x64>  // b.any
    e8e0:	cb0200c0 	sub	x0, x6, x2
    e8e4:	f1001c1f 	cmp	x0, #0x7
    e8e8:	540000e8 	b.hi	e904 <memmove+0xbc>  // b.pmore
    e8ec:	d343fcc4 	lsr	x4, x6, #3
    e8f0:	928000e3 	mov	x3, #0xfffffffffffffff8    	// #-8
    e8f4:	8b040c21 	add	x1, x1, x4, lsl #3
    e8f8:	9b031883 	madd	x3, x4, x3, x6
    e8fc:	8b040ce4 	add	x4, x7, x4, lsl #3
    e900:	17ffffe4 	b	e890 <memmove+0x48>
    e904:	f86268e0 	ldr	x0, [x7, x2]
    e908:	f8226820 	str	x0, [x1, x2]
    e90c:	91002042 	add	x2, x2, #0x8
    e910:	17fffff4 	b	e8e0 <memmove+0x98>
    e914:	b4000160 	cbz	x0, e940 <memmove+0xf8>
    e918:	b4fffce3 	cbz	x3, e8b4 <memmove+0x6c>
    e91c:	d1000463 	sub	x3, x3, #0x1
    e920:	38636880 	ldrb	w0, [x4, x3]
    e924:	382368a0 	strb	w0, [x5, x3]
    e928:	17fffffc 	b	e918 <memmove+0xd0>
    e92c:	d1000460 	sub	x0, x3, #0x1
    e930:	b4fffc23 	cbz	x3, e8b4 <memmove+0x6c>
    e934:	38606881 	ldrb	w1, [x4, x0]
    e938:	aa0003e3 	mov	x3, x0
    e93c:	382068a1 	strb	w1, [x5, x0]
    e940:	8b0300a0 	add	x0, x5, x3
    e944:	f240081f 	tst	x0, #0x7
    e948:	54ffff21 	b.ne	e92c <memmove+0xe4>  // b.any
    e94c:	aa0303e0 	mov	x0, x3
    e950:	f1001c1f 	cmp	x0, #0x7
    e954:	540000a8 	b.hi	e968 <memmove+0x120>  // b.pmore
    e958:	d343fc61 	lsr	x1, x3, #3
    e95c:	928000e0 	mov	x0, #0xfffffffffffffff8    	// #-8
    e960:	9b000c23 	madd	x3, x1, x0, x3
    e964:	17ffffed 	b	e918 <memmove+0xd0>
    e968:	d1002000 	sub	x0, x0, #0x8
    e96c:	f8606881 	ldr	x1, [x4, x0]
    e970:	f82068a1 	str	x1, [x5, x0]
    e974:	17fffff7 	b	e950 <memmove+0x108>

000000000000e978 <__set_thread_area>:
    e978:	128004a0 	mov	w0, #0xffffffda            	// #-38
    e97c:	d65f03c0 	ret

000000000000e980 <consttime_memcmp>:
    e980:	d10043ff 	sub	sp, sp, #0x10
    e984:	52802003 	mov	w3, #0x100                 	// #256
    e988:	d2800005 	mov	x5, #0x0                   	// #0
    e98c:	52800006 	mov	w6, #0x0                   	// #0
    e990:	b9000fe3 	str	w3, [sp, #12]
    e994:	52800003 	mov	w3, #0x0                   	// #0
    e998:	eb0200bf 	cmp	x5, x2
    e99c:	540000a1 	b.ne	e9b0 <consttime_memcmp+0x30>  // b.any
    e9a0:	53087c63 	lsr	w3, w3, #8
    e9a4:	4b462060 	sub	w0, w3, w6, lsr #8
    e9a8:	910043ff 	add	sp, sp, #0x10
    e9ac:	d65f03c0 	ret
    e9b0:	38656808 	ldrb	w8, [x0, x5]
    e9b4:	38656824 	ldrb	w4, [x1, x5]
    e9b8:	910004a5 	add	x5, x5, #0x1
    e9bc:	b9400fe9 	ldr	w9, [sp, #12]
    e9c0:	4b040107 	sub	w7, w8, w4
    e9c4:	4b080084 	sub	w4, w4, w8
    e9c8:	0a0900e7 	and	w7, w7, w9
    e9cc:	2a0700c6 	orr	w6, w6, w7
    e9d0:	b9400fe7 	ldr	w7, [sp, #12]
    e9d4:	0a070084 	and	w4, w4, w7
    e9d8:	b9400fe7 	ldr	w7, [sp, #12]
    e9dc:	2a040063 	orr	w3, w3, w4
    e9e0:	2a0300c4 	orr	w4, w6, w3
    e9e4:	0a2400e4 	bic	w4, w7, w4
    e9e8:	b9000fe4 	str	w4, [sp, #12]
    e9ec:	17ffffeb 	b	e998 <consttime_memcmp+0x18>

000000000000e9f0 <mempool_alloc_pool>:
    e9f0:	d65f03c0 	ret

000000000000e9f4 <mempool_alloc>:
    e9f4:	d65f03c0 	ret

000000000000e9f8 <mempool_calloc>:
    e9f8:	d65f03c0 	ret

000000000000e9fc <mempool_free>:
    e9fc:	d65f03c0 	ret
