In archive ../optee_os/out/arm/export-ta_arm64/lib/libc++abi.a:

cxa_aux_runtime.cpp.o:     file format elf64-littleaarch64


Disassembly of section .text:

0000000000000000 <__cxa_bad_cast>:
   0:	a9be7bfd 	stp	x29, x30, [sp, #-32]!
   4:	910003fd 	mov	x29, sp
   8:	f9000bf3 	str	x19, [sp, #16]
   c:	d2800100 	mov	x0, #0x8                   	// #8
  10:	94000000 	bl	0 <__cxa_allocate_exception>
  14:	aa0003f3 	mov	x19, x0
  18:	aa1303e0 	mov	x0, x19
  1c:	94000000 	bl	0 <_ZNSt8bad_castC1Ev>
  20:	90000000 	adrp	x0, 0 <_ZNSt8bad_castD1Ev>
  24:	f9400002 	ldr	x2, [x0]
  28:	90000000 	adrp	x0, 0 <_ZTISt8bad_cast>
  2c:	f9400001 	ldr	x1, [x0]
  30:	aa1303e0 	mov	x0, x19
  34:	94000000 	bl	0 <__cxa_throw>

0000000000000038 <__cxa_bad_typeid>:
  38:	a9be7bfd 	stp	x29, x30, [sp, #-32]!
  3c:	910003fd 	mov	x29, sp
  40:	f9000bf3 	str	x19, [sp, #16]
  44:	d2800100 	mov	x0, #0x8                   	// #8
  48:	94000000 	bl	0 <__cxa_allocate_exception>
  4c:	aa0003f3 	mov	x19, x0
  50:	aa1303e0 	mov	x0, x19
  54:	94000000 	bl	0 <_ZNSt10bad_typeidC1Ev>
  58:	90000000 	adrp	x0, 0 <_ZNSt10bad_typeidD1Ev>
  5c:	f9400002 	ldr	x2, [x0]
  60:	90000000 	adrp	x0, 0 <_ZTISt10bad_typeid>
  64:	f9400001 	ldr	x1, [x0]
  68:	aa1303e0 	mov	x0, x19
  6c:	94000000 	bl	0 <__cxa_throw>

0000000000000070 <__cxa_throw_bad_array_new_length>:
  70:	a9be7bfd 	stp	x29, x30, [sp, #-32]!
  74:	910003fd 	mov	x29, sp
  78:	f9000bf3 	str	x19, [sp, #16]
  7c:	d2800100 	mov	x0, #0x8                   	// #8
  80:	94000000 	bl	0 <__cxa_allocate_exception>
  84:	aa0003f3 	mov	x19, x0
  88:	aa1303e0 	mov	x0, x19
  8c:	94000000 	bl	0 <_ZNSt20bad_array_new_lengthC1Ev>
  90:	90000000 	adrp	x0, 0 <_ZNSt20bad_array_new_lengthD1Ev>
  94:	f9400002 	ldr	x2, [x0]
  98:	90000000 	adrp	x0, 0 <_ZTISt20bad_array_new_length>
  9c:	f9400001 	ldr	x1, [x0]
  a0:	aa1303e0 	mov	x0, x19
  a4:	94000000 	bl	0 <__cxa_throw>

cxa_default_handlers.cpp.o:     file format elf64-littleaarch64


Disassembly of section .text:

0000000000000000 <_ZL28demangling_terminate_handlerv>:
   0:	d11243ff 	sub	sp, sp, #0x490
   4:	a9007bfd 	stp	x29, x30, [sp]
   8:	910003fd 	mov	x29, sp
   c:	f9000bf3 	str	x19, [sp, #16]
  10:	94000000 	bl	0 <__cxa_get_globals_fast>
  14:	f90243e0 	str	x0, [sp, #1152]
  18:	f94243e0 	ldr	x0, [sp, #1152]
  1c:	f100001f 	cmp	x0, #0x0
  20:	54000d40 	b.eq	1c8 <_ZL28demangling_terminate_handlerv+0x1c8>  // b.none
  24:	f94243e0 	ldr	x0, [sp, #1152]
  28:	f9400000 	ldr	x0, [x0]
  2c:	f9023fe0 	str	x0, [sp, #1144]
  30:	f9423fe0 	ldr	x0, [sp, #1144]
  34:	f100001f 	cmp	x0, #0x0
  38:	54000c80 	b.eq	1c8 <_ZL28demangling_terminate_handlerv+0x1c8>  // b.none
  3c:	f9423fe0 	ldr	x0, [sp, #1144]
  40:	91020000 	add	x0, x0, #0x80
  44:	d1008000 	sub	x0, x0, #0x20
  48:	f9023be0 	str	x0, [sp, #1136]
  4c:	f9423be0 	ldr	x0, [sp, #1136]
  50:	94000000 	bl	0 <_ZN10__cxxabiv121__isOurExceptionClassEPK17_Unwind_Exception>
  54:	12001c00 	and	w0, w0, #0xff
  58:	7100001f 	cmp	w0, #0x0
  5c:	54000a80 	b.eq	1ac <_ZL28demangling_terminate_handlerv+0x1ac>  // b.none
  60:	f9423be0 	ldr	x0, [sp, #1136]
  64:	94000000 	bl	0 <_ZN10__cxxabiv119__getExceptionClassEPK17_Unwind_Exception>
  68:	aa0003e1 	mov	x1, x0
  6c:	d2856020 	mov	x0, #0x2b01                	// #11009
  70:	f2a86560 	movk	x0, #0x432b, lsl #16
  74:	f2c9c8e0 	movk	x0, #0x4e47, lsl #32
  78:	f2e86980 	movk	x0, #0x434c, lsl #48
  7c:	eb00003f 	cmp	x1, x0
  80:	54000081 	b.ne	90 <_ZL28demangling_terminate_handlerv+0x90>  // b.any
  84:	f9423fe0 	ldr	x0, [sp, #1144]
  88:	f9400400 	ldr	x0, [x0, #8]
  8c:	14000003 	b	98 <_ZL28demangling_terminate_handlerv+0x98>
  90:	f9423fe0 	ldr	x0, [sp, #1144]
  94:	91020000 	add	x0, x0, #0x80
  98:	f9021be0 	str	x0, [sp, #1072]
  9c:	f9423fe0 	ldr	x0, [sp, #1144]
  a0:	f9400800 	ldr	x0, [x0, #16]
  a4:	f90237e0 	str	x0, [sp, #1128]
  a8:	d2808000 	mov	x0, #0x400                 	// #1024
  ac:	f90213e0 	str	x0, [sp, #1056]
  b0:	f94237e0 	ldr	x0, [sp, #1128]
  b4:	f9022be0 	str	x0, [sp, #1104]
  b8:	f9422be0 	ldr	x0, [sp, #1104]
  bc:	f9400400 	ldr	x0, [x0, #8]
  c0:	f90227e0 	str	x0, [sp, #1096]
  c4:	f94227e0 	ldr	x0, [sp, #1096]
  c8:	d503201f 	nop
  cc:	9110b3e3 	add	x3, sp, #0x42c
  d0:	911083e2 	add	x2, sp, #0x420
  d4:	910083e1 	add	x1, sp, #0x20
  d8:	94000000 	bl	0 <__cxa_demangle>
  dc:	f90247e0 	str	x0, [sp, #1160]
  e0:	b9442fe0 	ldr	w0, [sp, #1068]
  e4:	7100001f 	cmp	w0, #0x0
  e8:	54000120 	b.eq	10c <_ZL28demangling_terminate_handlerv+0x10c>  // b.none
  ec:	f94237e0 	ldr	x0, [sp, #1128]
  f0:	f90223e0 	str	x0, [sp, #1088]
  f4:	f94223e0 	ldr	x0, [sp, #1088]
  f8:	f9400400 	ldr	x0, [x0, #8]
  fc:	f9021fe0 	str	x0, [sp, #1080]
 100:	f9421fe0 	ldr	x0, [sp, #1080]
 104:	d503201f 	nop
 108:	f90247e0 	str	x0, [sp, #1160]
 10c:	90000000 	adrp	x0, 0 <_ZTISt9exception>
 110:	f9400000 	ldr	x0, [x0]
 114:	f90233e0 	str	x0, [sp, #1120]
 118:	f94233e0 	ldr	x0, [sp, #1120]
 11c:	f9400000 	ldr	x0, [x0]
 120:	91008000 	add	x0, x0, #0x20
 124:	f9400003 	ldr	x3, [x0]
 128:	9110c3e0 	add	x0, sp, #0x430
 12c:	aa0003e2 	mov	x2, x0
 130:	f94237e1 	ldr	x1, [sp, #1128]
 134:	f94233e0 	ldr	x0, [sp, #1120]
 138:	d63f0060 	blr	x3
 13c:	12001c00 	and	w0, w0, #0xff
 140:	7100001f 	cmp	w0, #0x0
 144:	54000240 	b.eq	18c <_ZL28demangling_terminate_handlerv+0x18c>  // b.none
 148:	f9421be0 	ldr	x0, [sp, #1072]
 14c:	f9022fe0 	str	x0, [sp, #1112]
 150:	90000000 	adrp	x0, 0 <_ZL28demangling_terminate_handlerv>
 154:	91000000 	add	x0, x0, #0x0
 158:	f9400013 	ldr	x19, [x0]
 15c:	f9422fe0 	ldr	x0, [sp, #1112]
 160:	f9400000 	ldr	x0, [x0]
 164:	91004000 	add	x0, x0, #0x10
 168:	f9400001 	ldr	x1, [x0]
 16c:	f9422fe0 	ldr	x0, [sp, #1112]
 170:	d63f0020 	blr	x1
 174:	aa0003e3 	mov	x3, x0
 178:	f94247e2 	ldr	x2, [sp, #1160]
 17c:	aa1303e1 	mov	x1, x19
 180:	90000000 	adrp	x0, 0 <_ZL28demangling_terminate_handlerv>
 184:	91000000 	add	x0, x0, #0x0
 188:	94000000 	bl	0 <abort_message>
 18c:	90000000 	adrp	x0, 0 <_ZL28demangling_terminate_handlerv>
 190:	91000000 	add	x0, x0, #0x0
 194:	f9400000 	ldr	x0, [x0]
 198:	f94247e2 	ldr	x2, [sp, #1160]
 19c:	aa0003e1 	mov	x1, x0
 1a0:	90000000 	adrp	x0, 0 <_ZL28demangling_terminate_handlerv>
 1a4:	91000000 	add	x0, x0, #0x0
 1a8:	94000000 	bl	0 <abort_message>
 1ac:	90000000 	adrp	x0, 0 <_ZL28demangling_terminate_handlerv>
 1b0:	91000000 	add	x0, x0, #0x0
 1b4:	f9400000 	ldr	x0, [x0]
 1b8:	aa0003e1 	mov	x1, x0
 1bc:	90000000 	adrp	x0, 0 <_ZL28demangling_terminate_handlerv>
 1c0:	91000000 	add	x0, x0, #0x0
 1c4:	94000000 	bl	0 <abort_message>
 1c8:	90000000 	adrp	x0, 0 <_ZL28demangling_terminate_handlerv>
 1cc:	91000000 	add	x0, x0, #0x0
 1d0:	94000000 	bl	0 <abort_message>

00000000000001d4 <_ZL29demangling_unexpected_handlerv>:
 1d4:	a9bf7bfd 	stp	x29, x30, [sp, #-16]!
 1d8:	910003fd 	mov	x29, sp
 1dc:	90000000 	adrp	x0, 0 <_ZL28demangling_terminate_handlerv>
 1e0:	91000000 	add	x0, x0, #0x0
 1e4:	90000001 	adrp	x1, 0 <_ZL28demangling_terminate_handlerv>
 1e8:	91000021 	add	x1, x1, #0x0
 1ec:	f9000001 	str	x1, [x0]
 1f0:	94000000 	bl	0 <_ZSt9terminatev>

00000000000001f4 <_ZSt14set_unexpectedPFvvE>:
 1f4:	d100c3ff 	sub	sp, sp, #0x30
 1f8:	f90007e0 	str	x0, [sp, #8]
 1fc:	f94007e0 	ldr	x0, [sp, #8]
 200:	f100001f 	cmp	x0, #0x0
 204:	54000081 	b.ne	214 <_ZSt14set_unexpectedPFvvE+0x20>  // b.any
 208:	90000000 	adrp	x0, 0 <_ZL28demangling_terminate_handlerv>
 20c:	91000000 	add	x0, x0, #0x0
 210:	f90007e0 	str	x0, [sp, #8]
 214:	90000000 	adrp	x0, 10 <_ZL28demangling_terminate_handlerv+0x10>
 218:	f9400000 	ldr	x0, [x0]
 21c:	f90017e0 	str	x0, [sp, #40]
 220:	f94007e0 	ldr	x0, [sp, #8]
 224:	f90013e0 	str	x0, [sp, #32]
 228:	52800080 	mov	w0, #0x4                   	// #4
 22c:	b9001fe0 	str	w0, [sp, #28]
 230:	f94017e0 	ldr	x0, [sp, #40]
 234:	f9400000 	ldr	x0, [x0]
 238:	f9000be0 	str	x0, [sp, #16]
 23c:	f94017e0 	ldr	x0, [sp, #40]
 240:	f94013e1 	ldr	x1, [sp, #32]
 244:	f9000001 	str	x1, [x0]
 248:	f9400be0 	ldr	x0, [sp, #16]
 24c:	9100c3ff 	add	sp, sp, #0x30
 250:	d65f03c0 	ret

0000000000000254 <_ZSt13set_terminatePFvvE>:
 254:	d100c3ff 	sub	sp, sp, #0x30
 258:	f90007e0 	str	x0, [sp, #8]
 25c:	f94007e0 	ldr	x0, [sp, #8]
 260:	f100001f 	cmp	x0, #0x0
 264:	54000081 	b.ne	274 <_ZSt13set_terminatePFvvE+0x20>  // b.any
 268:	90000000 	adrp	x0, 0 <_ZL28demangling_terminate_handlerv>
 26c:	91000000 	add	x0, x0, #0x0
 270:	f90007e0 	str	x0, [sp, #8]
 274:	90000000 	adrp	x0, 8 <_ZL28demangling_terminate_handlerv+0x8>
 278:	f9400000 	ldr	x0, [x0]
 27c:	f90017e0 	str	x0, [sp, #40]
 280:	f94007e0 	ldr	x0, [sp, #8]
 284:	f90013e0 	str	x0, [sp, #32]
 288:	52800080 	mov	w0, #0x4                   	// #4
 28c:	b9001fe0 	str	w0, [sp, #28]
 290:	f94017e0 	ldr	x0, [sp, #40]
 294:	f9400000 	ldr	x0, [x0]
 298:	f9000be0 	str	x0, [sp, #16]
 29c:	f94017e0 	ldr	x0, [sp, #40]
 2a0:	f94013e1 	ldr	x1, [sp, #32]
 2a4:	f9000001 	str	x1, [x0]
 2a8:	f9400be0 	ldr	x0, [sp, #16]
 2ac:	9100c3ff 	add	sp, sp, #0x30
 2b0:	d65f03c0 	ret

cxa_demangle.cpp.o:     file format elf64-littleaarch64


Disassembly of section .text:

0000000000000000 <_ZN12_GLOBAL__N_116itanium_demangle10StringViewC1EPKcS3_>:
       0:	d10083ff 	sub	sp, sp, #0x20
       4:	f9000fe0 	str	x0, [sp, #24]
       8:	f9000be1 	str	x1, [sp, #16]
       c:	f90007e2 	str	x2, [sp, #8]
      10:	f9400fe0 	ldr	x0, [sp, #24]
      14:	f9400be1 	ldr	x1, [sp, #16]
      18:	f9000001 	str	x1, [x0]
      1c:	f9400fe0 	ldr	x0, [sp, #24]
      20:	f94007e1 	ldr	x1, [sp, #8]
      24:	f9000401 	str	x1, [x0, #8]
      28:	d503201f 	nop
      2c:	910083ff 	add	sp, sp, #0x20
      30:	d65f03c0 	ret

0000000000000034 <_ZN12_GLOBAL__N_116itanium_demangle10StringViewC1EPKc>:
      34:	a9be7bfd 	stp	x29, x30, [sp, #-32]!
      38:	910003fd 	mov	x29, sp
      3c:	f9000fe0 	str	x0, [sp, #24]
      40:	f9000be1 	str	x1, [sp, #16]
      44:	f9400fe0 	ldr	x0, [sp, #24]
      48:	f9400be1 	ldr	x1, [sp, #16]
      4c:	f9000001 	str	x1, [x0]
      50:	f9400be0 	ldr	x0, [sp, #16]
      54:	94000000 	bl	0 <strlen>
      58:	aa0003e1 	mov	x1, x0
      5c:	f9400be0 	ldr	x0, [sp, #16]
      60:	8b010001 	add	x1, x0, x1
      64:	f9400fe0 	ldr	x0, [sp, #24]
      68:	f9000401 	str	x1, [x0, #8]
      6c:	d503201f 	nop
      70:	a8c27bfd 	ldp	x29, x30, [sp], #32
      74:	d65f03c0 	ret

0000000000000078 <_ZN12_GLOBAL__N_116itanium_demangle10StringViewC1Ev>:
      78:	d10043ff 	sub	sp, sp, #0x10
      7c:	f90007e0 	str	x0, [sp, #8]
      80:	f94007e0 	ldr	x0, [sp, #8]
      84:	f900001f 	str	xzr, [x0]
      88:	f94007e0 	ldr	x0, [sp, #8]
      8c:	f900041f 	str	xzr, [x0, #8]
      90:	d503201f 	nop
      94:	910043ff 	add	sp, sp, #0x10
      98:	d65f03c0 	ret

000000000000009c <_ZNK12_GLOBAL__N_116itanium_demangle10StringView4findEcm>:
      9c:	a9b87bfd 	stp	x29, x30, [sp, #-128]!
      a0:	910003fd 	mov	x29, sp
      a4:	a90153f3 	stp	x19, x20, [sp, #16]
      a8:	f9001fe0 	str	x0, [sp, #56]
      ac:	3900dfe1 	strb	w1, [sp, #55]
      b0:	f90017e2 	str	x2, [sp, #40]
      b4:	f9401fe0 	ldr	x0, [sp, #56]
      b8:	940000b8 	bl	398 <_ZNK12_GLOBAL__N_116itanium_demangle10StringView4sizeEv>
      bc:	f90027e0 	str	x0, [sp, #72]
      c0:	9100a3e0 	add	x0, sp, #0x28
      c4:	f90037e0 	str	x0, [sp, #104]
      c8:	910123e0 	add	x0, sp, #0x48
      cc:	f90033e0 	str	x0, [sp, #96]
      d0:	390103f3 	strb	w19, [sp, #64]
      d4:	f94033e0 	ldr	x0, [sp, #96]
      d8:	f9002fe0 	str	x0, [sp, #88]
      dc:	f94037e0 	ldr	x0, [sp, #104]
      e0:	f9002be0 	str	x0, [sp, #80]
      e4:	f9402fe0 	ldr	x0, [sp, #88]
      e8:	f9400001 	ldr	x1, [x0]
      ec:	f9402be0 	ldr	x0, [sp, #80]
      f0:	f9400000 	ldr	x0, [x0]
      f4:	eb00003f 	cmp	x1, x0
      f8:	1a9f27e0 	cset	w0, cc  // cc = lo, ul, last
      fc:	12001c00 	and	w0, w0, #0xff
     100:	7100001f 	cmp	w0, #0x0
     104:	54000060 	b.eq	110 <_ZNK12_GLOBAL__N_116itanium_demangle10StringView4findEcm+0x74>  // b.none
     108:	f94033e0 	ldr	x0, [sp, #96]
     10c:	14000003 	b	118 <_ZNK12_GLOBAL__N_116itanium_demangle10StringView4findEcm+0x7c>
     110:	f94037e0 	ldr	x0, [sp, #104]
     114:	d503201f 	nop
     118:	d503201f 	nop
     11c:	f9400000 	ldr	x0, [x0]
     120:	f9003fe0 	str	x0, [sp, #120]
     124:	f9401fe0 	ldr	x0, [sp, #56]
     128:	9400009c 	bl	398 <_ZNK12_GLOBAL__N_116itanium_demangle10StringView4sizeEv>
     12c:	aa0003e1 	mov	x1, x0
     130:	f9403fe0 	ldr	x0, [sp, #120]
     134:	eb01001f 	cmp	x0, x1
     138:	1a9f27e0 	cset	w0, cc  // cc = lo, ul, last
     13c:	12001c00 	and	w0, w0, #0xff
     140:	7100001f 	cmp	w0, #0x0
     144:	54000300 	b.eq	1a4 <_ZNK12_GLOBAL__N_116itanium_demangle10StringView4findEcm+0x108>  // b.none
     148:	f9401fe0 	ldr	x0, [sp, #56]
     14c:	f9400001 	ldr	x1, [x0]
     150:	f9403fe0 	ldr	x0, [sp, #120]
     154:	8b000033 	add	x19, x1, x0
     158:	3940dff4 	ldrb	w20, [sp, #55]
     15c:	f9401fe0 	ldr	x0, [sp, #56]
     160:	9400008e 	bl	398 <_ZNK12_GLOBAL__N_116itanium_demangle10StringView4sizeEv>
     164:	aa0003e1 	mov	x1, x0
     168:	f9403fe0 	ldr	x0, [sp, #120]
     16c:	cb000020 	sub	x0, x1, x0
     170:	aa0003e2 	mov	x2, x0
     174:	2a1403e1 	mov	w1, w20
     178:	aa1303e0 	mov	x0, x19
     17c:	94000000 	bl	0 <memchr>
     180:	f9003be0 	str	x0, [sp, #112]
     184:	f9403be0 	ldr	x0, [sp, #112]
     188:	f100001f 	cmp	x0, #0x0
     18c:	540000c0 	b.eq	1a4 <_ZNK12_GLOBAL__N_116itanium_demangle10StringView4findEcm+0x108>  // b.none
     190:	f9401fe0 	ldr	x0, [sp, #56]
     194:	f9400000 	ldr	x0, [x0]
     198:	f9403be1 	ldr	x1, [sp, #112]
     19c:	cb000020 	sub	x0, x1, x0
     1a0:	14000002 	b	1a8 <_ZNK12_GLOBAL__N_116itanium_demangle10StringView4findEcm+0x10c>
     1a4:	92800000 	mov	x0, #0xffffffffffffffff    	// #-1
     1a8:	a94153f3 	ldp	x19, x20, [sp, #16]
     1ac:	a8c87bfd 	ldp	x29, x30, [sp], #128
     1b0:	d65f03c0 	ret

00000000000001b4 <_ZNK12_GLOBAL__N_116itanium_demangle10StringView9dropFrontEm>:
     1b4:	a9bd7bfd 	stp	x29, x30, [sp, #-48]!
     1b8:	910003fd 	mov	x29, sp
     1bc:	f9000fe0 	str	x0, [sp, #24]
     1c0:	f9000be1 	str	x1, [sp, #16]
     1c4:	f9400fe0 	ldr	x0, [sp, #24]
     1c8:	94000074 	bl	398 <_ZNK12_GLOBAL__N_116itanium_demangle10StringView4sizeEv>
     1cc:	aa0003e1 	mov	x1, x0
     1d0:	f9400be0 	ldr	x0, [sp, #16]
     1d4:	eb01001f 	cmp	x0, x1
     1d8:	1a9f37e0 	cset	w0, cs  // cs = hs, nlast
     1dc:	12001c00 	and	w0, w0, #0xff
     1e0:	7100001f 	cmp	w0, #0x0
     1e4:	54000080 	b.eq	1f4 <_ZNK12_GLOBAL__N_116itanium_demangle10StringView9dropFrontEm+0x40>  // b.none
     1e8:	f9400fe0 	ldr	x0, [sp, #24]
     1ec:	9400006b 	bl	398 <_ZNK12_GLOBAL__N_116itanium_demangle10StringView4sizeEv>
     1f0:	f9000be0 	str	x0, [sp, #16]
     1f4:	f9400fe0 	ldr	x0, [sp, #24]
     1f8:	f9400001 	ldr	x1, [x0]
     1fc:	f9400be0 	ldr	x0, [sp, #16]
     200:	8b000021 	add	x1, x1, x0
     204:	f9400fe0 	ldr	x0, [sp, #24]
     208:	f9400402 	ldr	x2, [x0, #8]
     20c:	910083e0 	add	x0, sp, #0x20
     210:	97ffff7c 	bl	0 <_ZN12_GLOBAL__N_116itanium_demangle10StringViewC1EPKcS3_>
     214:	a94207e0 	ldp	x0, x1, [sp, #32]
     218:	a8c37bfd 	ldp	x29, x30, [sp], #48
     21c:	d65f03c0 	ret

0000000000000220 <_ZNK12_GLOBAL__N_116itanium_demangle10StringView10startsWithES1_>:
     220:	a9b67bfd 	stp	x29, x30, [sp, #-160]!
     224:	910003fd 	mov	x29, sp
     228:	a90153f3 	stp	x19, x20, [sp, #16]
     22c:	f90013f5 	str	x21, [sp, #32]
     230:	f90027e0 	str	x0, [sp, #72]
     234:	a9038be1 	stp	x1, x2, [sp, #56]
     238:	9100e3e0 	add	x0, sp, #0x38
     23c:	94000057 	bl	398 <_ZNK12_GLOBAL__N_116itanium_demangle10StringView4sizeEv>
     240:	aa0003f3 	mov	x19, x0
     244:	f94027e0 	ldr	x0, [sp, #72]
     248:	94000054 	bl	398 <_ZNK12_GLOBAL__N_116itanium_demangle10StringView4sizeEv>
     24c:	eb00027f 	cmp	x19, x0
     250:	1a9f97e0 	cset	w0, hi  // hi = pmore
     254:	12001c00 	and	w0, w0, #0xff
     258:	7100001f 	cmp	w0, #0x0
     25c:	54000060 	b.eq	268 <_ZNK12_GLOBAL__N_116itanium_demangle10StringView10startsWithES1_+0x48>  // b.none
     260:	52800000 	mov	w0, #0x0                   	// #0
     264:	14000032 	b	32c <_ZNK12_GLOBAL__N_116itanium_demangle10StringView10startsWithES1_+0x10c>
     268:	9100e3e0 	add	x0, sp, #0x38
     26c:	9400003f 	bl	368 <_ZNK12_GLOBAL__N_116itanium_demangle10StringView5beginEv>
     270:	aa0003f4 	mov	x20, x0
     274:	9100e3e0 	add	x0, sp, #0x38
     278:	94000042 	bl	380 <_ZNK12_GLOBAL__N_116itanium_demangle10StringView3endEv>
     27c:	aa0003f3 	mov	x19, x0
     280:	f94027e0 	ldr	x0, [sp, #72]
     284:	94000039 	bl	368 <_ZNK12_GLOBAL__N_116itanium_demangle10StringView5beginEv>
     288:	f9004ff4 	str	x20, [sp, #152]
     28c:	f9004bf3 	str	x19, [sp, #144]
     290:	f90047e0 	str	x0, [sp, #136]
     294:	f9404fe0 	ldr	x0, [sp, #152]
     298:	f90043e0 	str	x0, [sp, #128]
     29c:	f9404be0 	ldr	x0, [sp, #144]
     2a0:	f9003fe0 	str	x0, [sp, #120]
     2a4:	f94047e0 	ldr	x0, [sp, #136]
     2a8:	f9003be0 	str	x0, [sp, #112]
     2ac:	390163f5 	strb	w21, [sp, #88]
     2b0:	f9403fe1 	ldr	x1, [sp, #120]
     2b4:	f94043e0 	ldr	x0, [sp, #128]
     2b8:	eb00003f 	cmp	x1, x0
     2bc:	54000320 	b.eq	320 <_ZNK12_GLOBAL__N_116itanium_demangle10StringView10startsWithES1_+0x100>  // b.none
     2c0:	f94043e0 	ldr	x0, [sp, #128]
     2c4:	f90037e0 	str	x0, [sp, #104]
     2c8:	f9403be0 	ldr	x0, [sp, #112]
     2cc:	f90033e0 	str	x0, [sp, #96]
     2d0:	f94037e0 	ldr	x0, [sp, #104]
     2d4:	39400001 	ldrb	w1, [x0]
     2d8:	f94033e0 	ldr	x0, [sp, #96]
     2dc:	39400000 	ldrb	w0, [x0]
     2e0:	6b00003f 	cmp	w1, w0
     2e4:	1a9f17e0 	cset	w0, eq  // eq = none
     2e8:	12001c00 	and	w0, w0, #0xff
     2ec:	52000000 	eor	w0, w0, #0x1
     2f0:	12001c00 	and	w0, w0, #0xff
     2f4:	7100001f 	cmp	w0, #0x0
     2f8:	54000060 	b.eq	304 <_ZNK12_GLOBAL__N_116itanium_demangle10StringView10startsWithES1_+0xe4>  // b.none
     2fc:	52800000 	mov	w0, #0x0                   	// #0
     300:	14000009 	b	324 <_ZNK12_GLOBAL__N_116itanium_demangle10StringView10startsWithES1_+0x104>
     304:	f94043e0 	ldr	x0, [sp, #128]
     308:	91000400 	add	x0, x0, #0x1
     30c:	f90043e0 	str	x0, [sp, #128]
     310:	f9403be0 	ldr	x0, [sp, #112]
     314:	91000400 	add	x0, x0, #0x1
     318:	f9003be0 	str	x0, [sp, #112]
     31c:	17ffffe5 	b	2b0 <_ZNK12_GLOBAL__N_116itanium_demangle10StringView10startsWithES1_+0x90>
     320:	52800020 	mov	w0, #0x1                   	// #1
     324:	d503201f 	nop
     328:	d503201f 	nop
     32c:	a94153f3 	ldp	x19, x20, [sp, #16]
     330:	f94013f5 	ldr	x21, [sp, #32]
     334:	a8ca7bfd 	ldp	x29, x30, [sp], #160
     338:	d65f03c0 	ret

000000000000033c <_ZNK12_GLOBAL__N_116itanium_demangle10StringViewixEm>:
     33c:	a9be7bfd 	stp	x29, x30, [sp, #-32]!
     340:	910003fd 	mov	x29, sp
     344:	f9000fe0 	str	x0, [sp, #24]
     348:	f9000be1 	str	x1, [sp, #16]
     34c:	f9400fe0 	ldr	x0, [sp, #24]
     350:	94000006 	bl	368 <_ZNK12_GLOBAL__N_116itanium_demangle10StringView5beginEv>
     354:	aa0003e1 	mov	x1, x0
     358:	f9400be0 	ldr	x0, [sp, #16]
     35c:	8b000020 	add	x0, x1, x0
     360:	a8c27bfd 	ldp	x29, x30, [sp], #32
     364:	d65f03c0 	ret

0000000000000368 <_ZNK12_GLOBAL__N_116itanium_demangle10StringView5beginEv>:
     368:	d10043ff 	sub	sp, sp, #0x10
     36c:	f90007e0 	str	x0, [sp, #8]
     370:	f94007e0 	ldr	x0, [sp, #8]
     374:	f9400000 	ldr	x0, [x0]
     378:	910043ff 	add	sp, sp, #0x10
     37c:	d65f03c0 	ret

0000000000000380 <_ZNK12_GLOBAL__N_116itanium_demangle10StringView3endEv>:
     380:	d10043ff 	sub	sp, sp, #0x10
     384:	f90007e0 	str	x0, [sp, #8]
     388:	f94007e0 	ldr	x0, [sp, #8]
     38c:	f9400400 	ldr	x0, [x0, #8]
     390:	910043ff 	add	sp, sp, #0x10
     394:	d65f03c0 	ret

0000000000000398 <_ZNK12_GLOBAL__N_116itanium_demangle10StringView4sizeEv>:
     398:	d10043ff 	sub	sp, sp, #0x10
     39c:	f90007e0 	str	x0, [sp, #8]
     3a0:	f94007e0 	ldr	x0, [sp, #8]
     3a4:	f9400401 	ldr	x1, [x0, #8]
     3a8:	f94007e0 	ldr	x0, [sp, #8]
     3ac:	f9400000 	ldr	x0, [x0]
     3b0:	cb000020 	sub	x0, x1, x0
     3b4:	910043ff 	add	sp, sp, #0x10
     3b8:	d65f03c0 	ret

00000000000003bc <_ZNK12_GLOBAL__N_116itanium_demangle10StringView5emptyEv>:
     3bc:	d10043ff 	sub	sp, sp, #0x10
     3c0:	f90007e0 	str	x0, [sp, #8]
     3c4:	f94007e0 	ldr	x0, [sp, #8]
     3c8:	f9400001 	ldr	x1, [x0]
     3cc:	f94007e0 	ldr	x0, [sp, #8]
     3d0:	f9400400 	ldr	x0, [x0, #8]
     3d4:	eb00003f 	cmp	x1, x0
     3d8:	1a9f17e0 	cset	w0, eq  // eq = none
     3dc:	12001c00 	and	w0, w0, #0xff
     3e0:	910043ff 	add	sp, sp, #0x10
     3e4:	d65f03c0 	ret

00000000000003e8 <_ZN12_GLOBAL__N_116itanium_demangleeqERKNS0_10StringViewES3_>:
     3e8:	a9b77bfd 	stp	x29, x30, [sp, #-144]!
     3ec:	910003fd 	mov	x29, sp
     3f0:	a90153f3 	stp	x19, x20, [sp, #16]
     3f4:	f90013f5 	str	x21, [sp, #32]
     3f8:	f9001fe0 	str	x0, [sp, #56]
     3fc:	f9001be1 	str	x1, [sp, #48]
     400:	f9401fe0 	ldr	x0, [sp, #56]
     404:	97ffffe5 	bl	398 <_ZNK12_GLOBAL__N_116itanium_demangle10StringView4sizeEv>
     408:	aa0003f3 	mov	x19, x0
     40c:	f9401be0 	ldr	x0, [sp, #48]
     410:	97ffffe2 	bl	398 <_ZNK12_GLOBAL__N_116itanium_demangle10StringView4sizeEv>
     414:	eb00027f 	cmp	x19, x0
     418:	540006a1 	b.ne	4ec <_ZN12_GLOBAL__N_116itanium_demangleeqERKNS0_10StringViewES3_+0x104>  // b.any
     41c:	f9401fe0 	ldr	x0, [sp, #56]
     420:	97ffffd2 	bl	368 <_ZNK12_GLOBAL__N_116itanium_demangle10StringView5beginEv>
     424:	aa0003f4 	mov	x20, x0
     428:	f9401fe0 	ldr	x0, [sp, #56]
     42c:	97ffffd5 	bl	380 <_ZNK12_GLOBAL__N_116itanium_demangle10StringView3endEv>
     430:	aa0003f3 	mov	x19, x0
     434:	f9401be0 	ldr	x0, [sp, #48]
     438:	97ffffcc 	bl	368 <_ZNK12_GLOBAL__N_116itanium_demangle10StringView5beginEv>
     43c:	f90047f4 	str	x20, [sp, #136]
     440:	f90043f3 	str	x19, [sp, #128]
     444:	f9003fe0 	str	x0, [sp, #120]
     448:	f94047e0 	ldr	x0, [sp, #136]
     44c:	f9003be0 	str	x0, [sp, #112]
     450:	f94043e0 	ldr	x0, [sp, #128]
     454:	f90037e0 	str	x0, [sp, #104]
     458:	f9403fe0 	ldr	x0, [sp, #120]
     45c:	f90033e0 	str	x0, [sp, #96]
     460:	390123f5 	strb	w21, [sp, #72]
     464:	f94037e1 	ldr	x1, [sp, #104]
     468:	f9403be0 	ldr	x0, [sp, #112]
     46c:	eb00003f 	cmp	x1, x0
     470:	54000320 	b.eq	4d4 <_ZN12_GLOBAL__N_116itanium_demangleeqERKNS0_10StringViewES3_+0xec>  // b.none
     474:	f9403be0 	ldr	x0, [sp, #112]
     478:	f9002fe0 	str	x0, [sp, #88]
     47c:	f94033e0 	ldr	x0, [sp, #96]
     480:	f9002be0 	str	x0, [sp, #80]
     484:	f9402fe0 	ldr	x0, [sp, #88]
     488:	39400001 	ldrb	w1, [x0]
     48c:	f9402be0 	ldr	x0, [sp, #80]
     490:	39400000 	ldrb	w0, [x0]
     494:	6b00003f 	cmp	w1, w0
     498:	1a9f17e0 	cset	w0, eq  // eq = none
     49c:	12001c00 	and	w0, w0, #0xff
     4a0:	52000000 	eor	w0, w0, #0x1
     4a4:	12001c00 	and	w0, w0, #0xff
     4a8:	7100001f 	cmp	w0, #0x0
     4ac:	54000060 	b.eq	4b8 <_ZN12_GLOBAL__N_116itanium_demangleeqERKNS0_10StringViewES3_+0xd0>  // b.none
     4b0:	52800000 	mov	w0, #0x0                   	// #0
     4b4:	14000009 	b	4d8 <_ZN12_GLOBAL__N_116itanium_demangleeqERKNS0_10StringViewES3_+0xf0>
     4b8:	f9403be0 	ldr	x0, [sp, #112]
     4bc:	91000400 	add	x0, x0, #0x1
     4c0:	f9003be0 	str	x0, [sp, #112]
     4c4:	f94033e0 	ldr	x0, [sp, #96]
     4c8:	91000400 	add	x0, x0, #0x1
     4cc:	f90033e0 	str	x0, [sp, #96]
     4d0:	17ffffe5 	b	464 <_ZN12_GLOBAL__N_116itanium_demangleeqERKNS0_10StringViewES3_+0x7c>
     4d4:	52800020 	mov	w0, #0x1                   	// #1
     4d8:	d503201f 	nop
     4dc:	7100001f 	cmp	w0, #0x0
     4e0:	54000060 	b.eq	4ec <_ZN12_GLOBAL__N_116itanium_demangleeqERKNS0_10StringViewES3_+0x104>  // b.none
     4e4:	52800020 	mov	w0, #0x1                   	// #1
     4e8:	14000002 	b	4f0 <_ZN12_GLOBAL__N_116itanium_demangleeqERKNS0_10StringViewES3_+0x108>
     4ec:	52800000 	mov	w0, #0x0                   	// #0
     4f0:	a94153f3 	ldp	x19, x20, [sp, #16]
     4f4:	f94013f5 	ldr	x21, [sp, #32]
     4f8:	a8c97bfd 	ldp	x29, x30, [sp], #144
     4fc:	d65f03c0 	ret

0000000000000500 <_ZN12_GLOBAL__N_116itanium_demangle12OutputStream4growEm>:
     500:	a9be7bfd 	stp	x29, x30, [sp, #-32]!
     504:	910003fd 	mov	x29, sp
     508:	f9000fe0 	str	x0, [sp, #24]
     50c:	f9000be1 	str	x1, [sp, #16]
     510:	f9400fe0 	ldr	x0, [sp, #24]
     514:	f9400401 	ldr	x1, [x0, #8]
     518:	f9400be0 	ldr	x0, [sp, #16]
     51c:	8b000021 	add	x1, x1, x0
     520:	f9400fe0 	ldr	x0, [sp, #24]
     524:	f9400800 	ldr	x0, [x0, #16]
     528:	eb00003f 	cmp	x1, x0
     52c:	54000463 	b.cc	5b8 <_ZN12_GLOBAL__N_116itanium_demangle12OutputStream4growEm+0xb8>  // b.lo, b.ul, b.last
     530:	f9400fe0 	ldr	x0, [sp, #24]
     534:	f9400800 	ldr	x0, [x0, #16]
     538:	d37ff801 	lsl	x1, x0, #1
     53c:	f9400fe0 	ldr	x0, [sp, #24]
     540:	f9000801 	str	x1, [x0, #16]
     544:	f9400fe0 	ldr	x0, [sp, #24]
     548:	f9400801 	ldr	x1, [x0, #16]
     54c:	f9400fe0 	ldr	x0, [sp, #24]
     550:	f9400402 	ldr	x2, [x0, #8]
     554:	f9400be0 	ldr	x0, [sp, #16]
     558:	8b000040 	add	x0, x2, x0
     55c:	eb00003f 	cmp	x1, x0
     560:	540000e2 	b.cs	57c <_ZN12_GLOBAL__N_116itanium_demangle12OutputStream4growEm+0x7c>  // b.hs, b.nlast
     564:	f9400fe0 	ldr	x0, [sp, #24]
     568:	f9400401 	ldr	x1, [x0, #8]
     56c:	f9400be0 	ldr	x0, [sp, #16]
     570:	8b000021 	add	x1, x1, x0
     574:	f9400fe0 	ldr	x0, [sp, #24]
     578:	f9000801 	str	x1, [x0, #16]
     57c:	f9400fe0 	ldr	x0, [sp, #24]
     580:	f9400002 	ldr	x2, [x0]
     584:	f9400fe0 	ldr	x0, [sp, #24]
     588:	f9400800 	ldr	x0, [x0, #16]
     58c:	aa0003e1 	mov	x1, x0
     590:	aa0203e0 	mov	x0, x2
     594:	94000000 	bl	0 <realloc>
     598:	aa0003e1 	mov	x1, x0
     59c:	f9400fe0 	ldr	x0, [sp, #24]
     5a0:	f9000001 	str	x1, [x0]
     5a4:	f9400fe0 	ldr	x0, [sp, #24]
     5a8:	f9400000 	ldr	x0, [x0]
     5ac:	f100001f 	cmp	x0, #0x0
     5b0:	54000041 	b.ne	5b8 <_ZN12_GLOBAL__N_116itanium_demangle12OutputStream4growEm+0xb8>  // b.any
     5b4:	94000000 	bl	0 <_ZSt9terminatev>
     5b8:	d503201f 	nop
     5bc:	a8c27bfd 	ldp	x29, x30, [sp], #32
     5c0:	d65f03c0 	ret

00000000000005c4 <_ZN12_GLOBAL__N_116itanium_demangle12OutputStream13writeUnsignedEmb>:
     5c4:	a9ba7bfd 	stp	x29, x30, [sp, #-96]!
     5c8:	910003fd 	mov	x29, sp
     5cc:	f90017e0 	str	x0, [sp, #40]
     5d0:	f90013e1 	str	x1, [sp, #32]
     5d4:	39007fe2 	strb	w2, [sp, #31]
     5d8:	f94013e0 	ldr	x0, [sp, #32]
     5dc:	f100001f 	cmp	x0, #0x0
     5e0:	540000a1 	b.ne	5f4 <_ZN12_GLOBAL__N_116itanium_demangle12OutputStream13writeUnsignedEmb+0x30>  // b.any
     5e4:	52800601 	mov	w1, #0x30                  	// #48
     5e8:	f94017e0 	ldr	x0, [sp, #40]
     5ec:	94000088 	bl	80c <_ZN12_GLOBAL__N_116itanium_demangle12OutputStreamlsEc>
     5f0:	14000033 	b	6bc <_ZN12_GLOBAL__N_116itanium_demangle12OutputStream13writeUnsignedEmb+0xf8>
     5f4:	9100c3e0 	add	x0, sp, #0x30
     5f8:	91005400 	add	x0, x0, #0x15
     5fc:	f9002fe0 	str	x0, [sp, #88]
     600:	f94013e0 	ldr	x0, [sp, #32]
     604:	f100001f 	cmp	x0, #0x0
     608:	54000340 	b.eq	670 <_ZN12_GLOBAL__N_116itanium_demangle12OutputStream13writeUnsignedEmb+0xac>  // b.none
     60c:	f94013e2 	ldr	x2, [sp, #32]
     610:	b202e7e0 	mov	x0, #0xcccccccccccccccc    	// #-3689348814741910324
     614:	f29999a0 	movk	x0, #0xcccd
     618:	9bc07c40 	umulh	x0, x2, x0
     61c:	d343fc01 	lsr	x1, x0, #3
     620:	aa0103e0 	mov	x0, x1
     624:	d37ef400 	lsl	x0, x0, #2
     628:	8b010000 	add	x0, x0, x1
     62c:	d37ff800 	lsl	x0, x0, #1
     630:	cb000041 	sub	x1, x2, x0
     634:	12001c20 	and	w0, w1, #0xff
     638:	1100c000 	add	w0, w0, #0x30
     63c:	12001c01 	and	w1, w0, #0xff
     640:	f9402fe0 	ldr	x0, [sp, #88]
     644:	d1000400 	sub	x0, x0, #0x1
     648:	f9002fe0 	str	x0, [sp, #88]
     64c:	f9402fe0 	ldr	x0, [sp, #88]
     650:	39000001 	strb	w1, [x0]
     654:	f94013e1 	ldr	x1, [sp, #32]
     658:	b202e7e0 	mov	x0, #0xcccccccccccccccc    	// #-3689348814741910324
     65c:	f29999a0 	movk	x0, #0xcccd
     660:	9bc07c20 	umulh	x0, x1, x0
     664:	d343fc00 	lsr	x0, x0, #3
     668:	f90013e0 	str	x0, [sp, #32]
     66c:	17ffffe5 	b	600 <_ZN12_GLOBAL__N_116itanium_demangle12OutputStream13writeUnsignedEmb+0x3c>
     670:	39407fe0 	ldrb	w0, [sp, #31]
     674:	7100001f 	cmp	w0, #0x0
     678:	540000e0 	b.eq	694 <_ZN12_GLOBAL__N_116itanium_demangle12OutputStream13writeUnsignedEmb+0xd0>  // b.none
     67c:	f9402fe0 	ldr	x0, [sp, #88]
     680:	d1000400 	sub	x0, x0, #0x1
     684:	f9002fe0 	str	x0, [sp, #88]
     688:	f9402fe0 	ldr	x0, [sp, #88]
     68c:	528005a1 	mov	w1, #0x2d                  	// #45
     690:	39000001 	strb	w1, [x0]
     694:	9100c3e0 	add	x0, sp, #0x30
     698:	91005400 	add	x0, x0, #0x15
     69c:	910123e3 	add	x3, sp, #0x48
     6a0:	aa0003e2 	mov	x2, x0
     6a4:	f9402fe1 	ldr	x1, [sp, #88]
     6a8:	aa0303e0 	mov	x0, x3
     6ac:	97fffe55 	bl	0 <_ZN12_GLOBAL__N_116itanium_demangle10StringViewC1EPKcS3_>
     6b0:	a9448be1 	ldp	x1, x2, [sp, #72]
     6b4:	f94017e0 	ldr	x0, [sp, #40]
     6b8:	9400004c 	bl	7e8 <_ZN12_GLOBAL__N_116itanium_demangle12OutputStreamlsENS0_10StringViewE>
     6bc:	a8c67bfd 	ldp	x29, x30, [sp], #96
     6c0:	d65f03c0 	ret

00000000000006c4 <_ZN12_GLOBAL__N_116itanium_demangle12OutputStream5resetEPcm>:
     6c4:	d10083ff 	sub	sp, sp, #0x20
     6c8:	f9000fe0 	str	x0, [sp, #24]
     6cc:	f9000be1 	str	x1, [sp, #16]
     6d0:	f90007e2 	str	x2, [sp, #8]
     6d4:	f9400fe0 	ldr	x0, [sp, #24]
     6d8:	f900041f 	str	xzr, [x0, #8]
     6dc:	f9400fe0 	ldr	x0, [sp, #24]
     6e0:	f9400be1 	ldr	x1, [sp, #16]
     6e4:	f9000001 	str	x1, [x0]
     6e8:	f9400fe0 	ldr	x0, [sp, #24]
     6ec:	f94007e1 	ldr	x1, [sp, #8]
     6f0:	f9000801 	str	x1, [x0, #16]
     6f4:	d503201f 	nop
     6f8:	910083ff 	add	sp, sp, #0x20
     6fc:	d65f03c0 	ret

0000000000000700 <_ZN12_GLOBAL__N_116itanium_demangle12OutputStreampLENS0_10StringViewE>:
     700:	a9bb7bfd 	stp	x29, x30, [sp, #-80]!
     704:	910003fd 	mov	x29, sp
     708:	f9000bf3 	str	x19, [sp, #16]
     70c:	f9001fe0 	str	x0, [sp, #56]
     710:	a9028be1 	stp	x1, x2, [sp, #40]
     714:	9100a3e0 	add	x0, sp, #0x28
     718:	97ffff20 	bl	398 <_ZNK12_GLOBAL__N_116itanium_demangle10StringView4sizeEv>
     71c:	f90027e0 	str	x0, [sp, #72]
     720:	f94027e0 	ldr	x0, [sp, #72]
     724:	f100001f 	cmp	x0, #0x0
     728:	54000061 	b.ne	734 <_ZN12_GLOBAL__N_116itanium_demangle12OutputStreampLENS0_10StringViewE+0x34>  // b.any
     72c:	f9401fe0 	ldr	x0, [sp, #56]
     730:	14000016 	b	788 <_ZN12_GLOBAL__N_116itanium_demangle12OutputStreampLENS0_10StringViewE+0x88>
     734:	f94027e1 	ldr	x1, [sp, #72]
     738:	f9401fe0 	ldr	x0, [sp, #56]
     73c:	97ffff71 	bl	500 <_ZN12_GLOBAL__N_116itanium_demangle12OutputStream4growEm>
     740:	f9401fe0 	ldr	x0, [sp, #56]
     744:	f9400001 	ldr	x1, [x0]
     748:	f9401fe0 	ldr	x0, [sp, #56]
     74c:	f9400400 	ldr	x0, [x0, #8]
     750:	8b000033 	add	x19, x1, x0
     754:	9100a3e0 	add	x0, sp, #0x28
     758:	97ffff04 	bl	368 <_ZNK12_GLOBAL__N_116itanium_demangle10StringView5beginEv>
     75c:	f94027e2 	ldr	x2, [sp, #72]
     760:	aa0003e1 	mov	x1, x0
     764:	aa1303e0 	mov	x0, x19
     768:	94000000 	bl	0 <memmove>
     76c:	f9401fe0 	ldr	x0, [sp, #56]
     770:	f9400401 	ldr	x1, [x0, #8]
     774:	f94027e0 	ldr	x0, [sp, #72]
     778:	8b000021 	add	x1, x1, x0
     77c:	f9401fe0 	ldr	x0, [sp, #56]
     780:	f9000401 	str	x1, [x0, #8]
     784:	f9401fe0 	ldr	x0, [sp, #56]
     788:	f9400bf3 	ldr	x19, [sp, #16]
     78c:	a8c57bfd 	ldp	x29, x30, [sp], #80
     790:	d65f03c0 	ret

0000000000000794 <_ZN12_GLOBAL__N_116itanium_demangle12OutputStreampLEc>:
     794:	a9be7bfd 	stp	x29, x30, [sp, #-32]!
     798:	910003fd 	mov	x29, sp
     79c:	f9000fe0 	str	x0, [sp, #24]
     7a0:	39005fe1 	strb	w1, [sp, #23]
     7a4:	d2800021 	mov	x1, #0x1                   	// #1
     7a8:	f9400fe0 	ldr	x0, [sp, #24]
     7ac:	97ffff55 	bl	500 <_ZN12_GLOBAL__N_116itanium_demangle12OutputStream4growEm>
     7b0:	39405fe4 	ldrb	w4, [sp, #23]
     7b4:	f9400fe0 	ldr	x0, [sp, #24]
     7b8:	f9400001 	ldr	x1, [x0]
     7bc:	f9400fe0 	ldr	x0, [sp, #24]
     7c0:	f9400400 	ldr	x0, [x0, #8]
     7c4:	91000403 	add	x3, x0, #0x1
     7c8:	f9400fe2 	ldr	x2, [sp, #24]
     7cc:	f9000443 	str	x3, [x2, #8]
     7d0:	8b000020 	add	x0, x1, x0
     7d4:	2a0403e1 	mov	w1, w4
     7d8:	39000001 	strb	w1, [x0]
     7dc:	f9400fe0 	ldr	x0, [sp, #24]
     7e0:	a8c27bfd 	ldp	x29, x30, [sp], #32
     7e4:	d65f03c0 	ret

00000000000007e8 <_ZN12_GLOBAL__N_116itanium_demangle12OutputStreamlsENS0_10StringViewE>:
     7e8:	a9bd7bfd 	stp	x29, x30, [sp, #-48]!
     7ec:	910003fd 	mov	x29, sp
     7f0:	f90017e0 	str	x0, [sp, #40]
     7f4:	a9018be1 	stp	x1, x2, [sp, #24]
     7f8:	a9418be1 	ldp	x1, x2, [sp, #24]
     7fc:	f94017e0 	ldr	x0, [sp, #40]
     800:	97ffffc0 	bl	700 <_ZN12_GLOBAL__N_116itanium_demangle12OutputStreampLENS0_10StringViewE>
     804:	a8c37bfd 	ldp	x29, x30, [sp], #48
     808:	d65f03c0 	ret

000000000000080c <_ZN12_GLOBAL__N_116itanium_demangle12OutputStreamlsEc>:
     80c:	a9be7bfd 	stp	x29, x30, [sp, #-32]!
     810:	910003fd 	mov	x29, sp
     814:	f9000fe0 	str	x0, [sp, #24]
     818:	39005fe1 	strb	w1, [sp, #23]
     81c:	39405fe1 	ldrb	w1, [sp, #23]
     820:	f9400fe0 	ldr	x0, [sp, #24]
     824:	97ffffdc 	bl	794 <_ZN12_GLOBAL__N_116itanium_demangle12OutputStreampLEc>
     828:	a8c27bfd 	ldp	x29, x30, [sp], #32
     82c:	d65f03c0 	ret

0000000000000830 <_ZN12_GLOBAL__N_116itanium_demangle12OutputStreamlsEy>:
     830:	a9be7bfd 	stp	x29, x30, [sp, #-32]!
     834:	910003fd 	mov	x29, sp
     838:	f9000fe0 	str	x0, [sp, #24]
     83c:	f9000be1 	str	x1, [sp, #16]
     840:	52800002 	mov	w2, #0x0                   	// #0
     844:	f9400be1 	ldr	x1, [sp, #16]
     848:	f9400fe0 	ldr	x0, [sp, #24]
     84c:	97ffff5e 	bl	5c4 <_ZN12_GLOBAL__N_116itanium_demangle12OutputStream13writeUnsignedEmb>
     850:	f9400fe0 	ldr	x0, [sp, #24]
     854:	a8c27bfd 	ldp	x29, x30, [sp], #32
     858:	d65f03c0 	ret

000000000000085c <_ZN12_GLOBAL__N_116itanium_demangle12OutputStreamlsEj>:
     85c:	a9be7bfd 	stp	x29, x30, [sp, #-32]!
     860:	910003fd 	mov	x29, sp
     864:	f9000fe0 	str	x0, [sp, #24]
     868:	b90017e1 	str	w1, [sp, #20]
     86c:	b94017e0 	ldr	w0, [sp, #20]
     870:	aa0003e1 	mov	x1, x0
     874:	f9400fe0 	ldr	x0, [sp, #24]
     878:	97ffffee 	bl	830 <_ZN12_GLOBAL__N_116itanium_demangle12OutputStreamlsEy>
     87c:	a8c27bfd 	ldp	x29, x30, [sp], #32
     880:	d65f03c0 	ret

0000000000000884 <_ZNK12_GLOBAL__N_116itanium_demangle12OutputStream18getCurrentPositionEv>:
     884:	d10043ff 	sub	sp, sp, #0x10
     888:	f90007e0 	str	x0, [sp, #8]
     88c:	f94007e0 	ldr	x0, [sp, #8]
     890:	f9400400 	ldr	x0, [x0, #8]
     894:	910043ff 	add	sp, sp, #0x10
     898:	d65f03c0 	ret

000000000000089c <_ZN12_GLOBAL__N_116itanium_demangle12OutputStream18setCurrentPositionEm>:
     89c:	d10043ff 	sub	sp, sp, #0x10
     8a0:	f90007e0 	str	x0, [sp, #8]
     8a4:	f90003e1 	str	x1, [sp]
     8a8:	f94007e0 	ldr	x0, [sp, #8]
     8ac:	f94003e1 	ldr	x1, [sp]
     8b0:	f9000401 	str	x1, [x0, #8]
     8b4:	d503201f 	nop
     8b8:	910043ff 	add	sp, sp, #0x10
     8bc:	d65f03c0 	ret

00000000000008c0 <_ZNK12_GLOBAL__N_116itanium_demangle12OutputStream4backEv>:
     8c0:	d10043ff 	sub	sp, sp, #0x10
     8c4:	f90007e0 	str	x0, [sp, #8]
     8c8:	f94007e0 	ldr	x0, [sp, #8]
     8cc:	f9400400 	ldr	x0, [x0, #8]
     8d0:	f100001f 	cmp	x0, #0x0
     8d4:	54000120 	b.eq	8f8 <_ZNK12_GLOBAL__N_116itanium_demangle12OutputStream4backEv+0x38>  // b.none
     8d8:	f94007e0 	ldr	x0, [sp, #8]
     8dc:	f9400001 	ldr	x1, [x0]
     8e0:	f94007e0 	ldr	x0, [sp, #8]
     8e4:	f9400400 	ldr	x0, [x0, #8]
     8e8:	d1000400 	sub	x0, x0, #0x1
     8ec:	8b000020 	add	x0, x1, x0
     8f0:	39400000 	ldrb	w0, [x0]
     8f4:	14000002 	b	8fc <_ZNK12_GLOBAL__N_116itanium_demangle12OutputStream4backEv+0x3c>
     8f8:	52800000 	mov	w0, #0x0                   	// #0
     8fc:	910043ff 	add	sp, sp, #0x10
     900:	d65f03c0 	ret

0000000000000904 <_ZN12_GLOBAL__N_116itanium_demangle12OutputStream9getBufferEv>:
     904:	d10043ff 	sub	sp, sp, #0x10
     908:	f90007e0 	str	x0, [sp, #8]
     90c:	f94007e0 	ldr	x0, [sp, #8]
     910:	f9400000 	ldr	x0, [x0]
     914:	910043ff 	add	sp, sp, #0x10
     918:	d65f03c0 	ret

000000000000091c <_ZN12_GLOBAL__N_116itanium_demangle22initializeOutputStreamEPcPmRNS0_12OutputStreamEm>:
     91c:	a9bc7bfd 	stp	x29, x30, [sp, #-64]!
     920:	910003fd 	mov	x29, sp
     924:	f90017e0 	str	x0, [sp, #40]
     928:	f90013e1 	str	x1, [sp, #32]
     92c:	f9000fe2 	str	x2, [sp, #24]
     930:	f9000be3 	str	x3, [sp, #16]
     934:	f94017e0 	ldr	x0, [sp, #40]
     938:	f100001f 	cmp	x0, #0x0
     93c:	54000181 	b.ne	96c <_ZN12_GLOBAL__N_116itanium_demangle22initializeOutputStreamEPcPmRNS0_12OutputStreamEm+0x50>  // b.any
     940:	f9400be0 	ldr	x0, [sp, #16]
     944:	94000000 	bl	0 <malloc>
     948:	f90017e0 	str	x0, [sp, #40]
     94c:	f94017e0 	ldr	x0, [sp, #40]
     950:	f100001f 	cmp	x0, #0x0
     954:	54000061 	b.ne	960 <_ZN12_GLOBAL__N_116itanium_demangle22initializeOutputStreamEPcPmRNS0_12OutputStreamEm+0x44>  // b.any
     958:	52800000 	mov	w0, #0x0                   	// #0
     95c:	1400000c 	b	98c <_ZN12_GLOBAL__N_116itanium_demangle22initializeOutputStreamEPcPmRNS0_12OutputStreamEm+0x70>
     960:	f9400be0 	ldr	x0, [sp, #16]
     964:	f9001fe0 	str	x0, [sp, #56]
     968:	14000004 	b	978 <_ZN12_GLOBAL__N_116itanium_demangle22initializeOutputStreamEPcPmRNS0_12OutputStreamEm+0x5c>
     96c:	f94013e0 	ldr	x0, [sp, #32]
     970:	f9400000 	ldr	x0, [x0]
     974:	f9001fe0 	str	x0, [sp, #56]
     978:	f9401fe2 	ldr	x2, [sp, #56]
     97c:	f94017e1 	ldr	x1, [sp, #40]
     980:	f9400fe0 	ldr	x0, [sp, #24]
     984:	97ffff50 	bl	6c4 <_ZN12_GLOBAL__N_116itanium_demangle12OutputStream5resetEPcm>
     988:	52800020 	mov	w0, #0x1                   	// #1
     98c:	a8c47bfd 	ldp	x29, x30, [sp], #64
     990:	d65f03c0 	ret

0000000000000994 <_ZN12_GLOBAL__N_116itanium_demangle4NodeC2ENS1_4KindENS1_5CacheES3_S3_>:
     994:	d10043ff 	sub	sp, sp, #0x10
     998:	f90007e0 	str	x0, [sp, #8]
     99c:	39001fe1 	strb	w1, [sp, #7]
     9a0:	39001be2 	strb	w2, [sp, #6]
     9a4:	390017e3 	strb	w3, [sp, #5]
     9a8:	390013e4 	strb	w4, [sp, #4]
     9ac:	90000000 	adrp	x0, 0 <_ZN12_GLOBAL__N_116itanium_demangle10StringViewC1EPKcS3_>
     9b0:	91000001 	add	x1, x0, #0x0
     9b4:	f94007e0 	ldr	x0, [sp, #8]
     9b8:	f9000001 	str	x1, [x0]
     9bc:	f94007e0 	ldr	x0, [sp, #8]
     9c0:	39401fe1 	ldrb	w1, [sp, #7]
     9c4:	39002001 	strb	w1, [x0, #8]
     9c8:	f94007e0 	ldr	x0, [sp, #8]
     9cc:	39401be1 	ldrb	w1, [sp, #6]
     9d0:	39002401 	strb	w1, [x0, #9]
     9d4:	f94007e0 	ldr	x0, [sp, #8]
     9d8:	394017e1 	ldrb	w1, [sp, #5]
     9dc:	39002801 	strb	w1, [x0, #10]
     9e0:	f94007e0 	ldr	x0, [sp, #8]
     9e4:	394013e1 	ldrb	w1, [sp, #4]
     9e8:	39002c01 	strb	w1, [x0, #11]
     9ec:	d503201f 	nop
     9f0:	910043ff 	add	sp, sp, #0x10
     9f4:	d65f03c0 	ret

00000000000009f8 <_ZNK12_GLOBAL__N_116itanium_demangle4Node15hasRHSComponentERNS0_12OutputStreamE>:
     9f8:	a9be7bfd 	stp	x29, x30, [sp, #-32]!
     9fc:	910003fd 	mov	x29, sp
     a00:	f9000fe0 	str	x0, [sp, #24]
     a04:	f9000be1 	str	x1, [sp, #16]
     a08:	f9400fe0 	ldr	x0, [sp, #24]
     a0c:	39402400 	ldrb	w0, [x0, #9]
     a10:	7100081f 	cmp	w0, #0x2
     a14:	540000e0 	b.eq	a30 <_ZNK12_GLOBAL__N_116itanium_demangle4Node15hasRHSComponentERNS0_12OutputStreamE+0x38>  // b.none
     a18:	f9400fe0 	ldr	x0, [sp, #24]
     a1c:	39402400 	ldrb	w0, [x0, #9]
     a20:	7100001f 	cmp	w0, #0x0
     a24:	1a9f17e0 	cset	w0, eq  // eq = none
     a28:	12001c00 	and	w0, w0, #0xff
     a2c:	14000009 	b	a50 <_ZNK12_GLOBAL__N_116itanium_demangle4Node15hasRHSComponentERNS0_12OutputStreamE+0x58>
     a30:	f9400fe0 	ldr	x0, [sp, #24]
     a34:	f9400000 	ldr	x0, [x0]
     a38:	f9400002 	ldr	x2, [x0]
     a3c:	f9400be1 	ldr	x1, [sp, #16]
     a40:	f9400fe0 	ldr	x0, [sp, #24]
     a44:	d63f0040 	blr	x2
     a48:	12001c00 	and	w0, w0, #0xff
     a4c:	d503201f 	nop
     a50:	a8c27bfd 	ldp	x29, x30, [sp], #32
     a54:	d65f03c0 	ret

0000000000000a58 <_ZNK12_GLOBAL__N_116itanium_demangle4Node8hasArrayERNS0_12OutputStreamE>:
     a58:	a9be7bfd 	stp	x29, x30, [sp, #-32]!
     a5c:	910003fd 	mov	x29, sp
     a60:	f9000fe0 	str	x0, [sp, #24]
     a64:	f9000be1 	str	x1, [sp, #16]
     a68:	f9400fe0 	ldr	x0, [sp, #24]
     a6c:	39402800 	ldrb	w0, [x0, #10]
     a70:	7100081f 	cmp	w0, #0x2
     a74:	540000e0 	b.eq	a90 <_ZNK12_GLOBAL__N_116itanium_demangle4Node8hasArrayERNS0_12OutputStreamE+0x38>  // b.none
     a78:	f9400fe0 	ldr	x0, [sp, #24]
     a7c:	39402800 	ldrb	w0, [x0, #10]
     a80:	7100001f 	cmp	w0, #0x0
     a84:	1a9f17e0 	cset	w0, eq  // eq = none
     a88:	12001c00 	and	w0, w0, #0xff
     a8c:	1400000a 	b	ab4 <_ZNK12_GLOBAL__N_116itanium_demangle4Node8hasArrayERNS0_12OutputStreamE+0x5c>
     a90:	f9400fe0 	ldr	x0, [sp, #24]
     a94:	f9400000 	ldr	x0, [x0]
     a98:	91002000 	add	x0, x0, #0x8
     a9c:	f9400002 	ldr	x2, [x0]
     aa0:	f9400be1 	ldr	x1, [sp, #16]
     aa4:	f9400fe0 	ldr	x0, [sp, #24]
     aa8:	d63f0040 	blr	x2
     aac:	12001c00 	and	w0, w0, #0xff
     ab0:	d503201f 	nop
     ab4:	a8c27bfd 	ldp	x29, x30, [sp], #32
     ab8:	d65f03c0 	ret

0000000000000abc <_ZNK12_GLOBAL__N_116itanium_demangle4Node11hasFunctionERNS0_12OutputStreamE>:
     abc:	a9be7bfd 	stp	x29, x30, [sp, #-32]!
     ac0:	910003fd 	mov	x29, sp
     ac4:	f9000fe0 	str	x0, [sp, #24]
     ac8:	f9000be1 	str	x1, [sp, #16]
     acc:	f9400fe0 	ldr	x0, [sp, #24]
     ad0:	39402c00 	ldrb	w0, [x0, #11]
     ad4:	7100081f 	cmp	w0, #0x2
     ad8:	540000e0 	b.eq	af4 <_ZNK12_GLOBAL__N_116itanium_demangle4Node11hasFunctionERNS0_12OutputStreamE+0x38>  // b.none
     adc:	f9400fe0 	ldr	x0, [sp, #24]
     ae0:	39402c00 	ldrb	w0, [x0, #11]
     ae4:	7100001f 	cmp	w0, #0x0
     ae8:	1a9f17e0 	cset	w0, eq  // eq = none
     aec:	12001c00 	and	w0, w0, #0xff
     af0:	1400000a 	b	b18 <_ZNK12_GLOBAL__N_116itanium_demangle4Node11hasFunctionERNS0_12OutputStreamE+0x5c>
     af4:	f9400fe0 	ldr	x0, [sp, #24]
     af8:	f9400000 	ldr	x0, [x0]
     afc:	91004000 	add	x0, x0, #0x10
     b00:	f9400002 	ldr	x2, [x0]
     b04:	f9400be1 	ldr	x1, [sp, #16]
     b08:	f9400fe0 	ldr	x0, [sp, #24]
     b0c:	d63f0040 	blr	x2
     b10:	12001c00 	and	w0, w0, #0xff
     b14:	d503201f 	nop
     b18:	a8c27bfd 	ldp	x29, x30, [sp], #32
     b1c:	d65f03c0 	ret

0000000000000b20 <_ZNK12_GLOBAL__N_116itanium_demangle4Node7getKindEv>:
     b20:	d10043ff 	sub	sp, sp, #0x10
     b24:	f90007e0 	str	x0, [sp, #8]
     b28:	f94007e0 	ldr	x0, [sp, #8]
     b2c:	39402000 	ldrb	w0, [x0, #8]
     b30:	910043ff 	add	sp, sp, #0x10
     b34:	d65f03c0 	ret

0000000000000b38 <_ZNK12_GLOBAL__N_116itanium_demangle4Node19hasRHSComponentSlowERNS0_12OutputStreamE>:
     b38:	d10043ff 	sub	sp, sp, #0x10
     b3c:	f90007e0 	str	x0, [sp, #8]
     b40:	f90003e1 	str	x1, [sp]
     b44:	52800000 	mov	w0, #0x0                   	// #0
     b48:	910043ff 	add	sp, sp, #0x10
     b4c:	d65f03c0 	ret

0000000000000b50 <_ZNK12_GLOBAL__N_116itanium_demangle4Node12hasArraySlowERNS0_12OutputStreamE>:
     b50:	d10043ff 	sub	sp, sp, #0x10
     b54:	f90007e0 	str	x0, [sp, #8]
     b58:	f90003e1 	str	x1, [sp]
     b5c:	52800000 	mov	w0, #0x0                   	// #0
     b60:	910043ff 	add	sp, sp, #0x10
     b64:	d65f03c0 	ret

0000000000000b68 <_ZNK12_GLOBAL__N_116itanium_demangle4Node15hasFunctionSlowERNS0_12OutputStreamE>:
     b68:	d10043ff 	sub	sp, sp, #0x10
     b6c:	f90007e0 	str	x0, [sp, #8]
     b70:	f90003e1 	str	x1, [sp]
     b74:	52800000 	mov	w0, #0x0                   	// #0
     b78:	910043ff 	add	sp, sp, #0x10
     b7c:	d65f03c0 	ret

0000000000000b80 <_ZNK12_GLOBAL__N_116itanium_demangle4Node13getSyntaxNodeERNS0_12OutputStreamE>:
     b80:	d10043ff 	sub	sp, sp, #0x10
     b84:	f90007e0 	str	x0, [sp, #8]
     b88:	f90003e1 	str	x1, [sp]
     b8c:	f94007e0 	ldr	x0, [sp, #8]
     b90:	910043ff 	add	sp, sp, #0x10
     b94:	d65f03c0 	ret

0000000000000b98 <_ZNK12_GLOBAL__N_116itanium_demangle4Node5printERNS0_12OutputStreamE>:
     b98:	a9be7bfd 	stp	x29, x30, [sp, #-32]!
     b9c:	910003fd 	mov	x29, sp
     ba0:	f9000fe0 	str	x0, [sp, #24]
     ba4:	f9000be1 	str	x1, [sp, #16]
     ba8:	f9400fe0 	ldr	x0, [sp, #24]
     bac:	f9400000 	ldr	x0, [x0]
     bb0:	91008000 	add	x0, x0, #0x20
     bb4:	f9400002 	ldr	x2, [x0]
     bb8:	f9400be1 	ldr	x1, [sp, #16]
     bbc:	f9400fe0 	ldr	x0, [sp, #24]
     bc0:	d63f0040 	blr	x2
     bc4:	f9400fe0 	ldr	x0, [sp, #24]
     bc8:	39402400 	ldrb	w0, [x0, #9]
     bcc:	7100041f 	cmp	w0, #0x1
     bd0:	54000100 	b.eq	bf0 <_ZNK12_GLOBAL__N_116itanium_demangle4Node5printERNS0_12OutputStreamE+0x58>  // b.none
     bd4:	f9400fe0 	ldr	x0, [sp, #24]
     bd8:	f9400000 	ldr	x0, [x0]
     bdc:	9100a000 	add	x0, x0, #0x28
     be0:	f9400002 	ldr	x2, [x0]
     be4:	f9400be1 	ldr	x1, [sp, #16]
     be8:	f9400fe0 	ldr	x0, [sp, #24]
     bec:	d63f0040 	blr	x2
     bf0:	d503201f 	nop
     bf4:	a8c27bfd 	ldp	x29, x30, [sp], #32
     bf8:	d65f03c0 	ret

0000000000000bfc <_ZNK12_GLOBAL__N_116itanium_demangle4Node10printRightERNS0_12OutputStreamE>:
     bfc:	d10043ff 	sub	sp, sp, #0x10
     c00:	f90007e0 	str	x0, [sp, #8]
     c04:	f90003e1 	str	x1, [sp]
     c08:	d503201f 	nop
     c0c:	910043ff 	add	sp, sp, #0x10
     c10:	d65f03c0 	ret

0000000000000c14 <_ZNK12_GLOBAL__N_116itanium_demangle4Node11getBaseNameEv>:
     c14:	a9bd7bfd 	stp	x29, x30, [sp, #-48]!
     c18:	910003fd 	mov	x29, sp
     c1c:	f9000fe0 	str	x0, [sp, #24]
     c20:	910083e0 	add	x0, sp, #0x20
     c24:	97fffd15 	bl	78 <_ZN12_GLOBAL__N_116itanium_demangle10StringViewC1Ev>
     c28:	a94207e0 	ldp	x0, x1, [sp, #32]
     c2c:	a8c37bfd 	ldp	x29, x30, [sp], #48
     c30:	d65f03c0 	ret

0000000000000c34 <_ZN12_GLOBAL__N_116itanium_demangle9NodeArrayC1Ev>:
     c34:	d10043ff 	sub	sp, sp, #0x10
     c38:	f90007e0 	str	x0, [sp, #8]
     c3c:	f94007e0 	ldr	x0, [sp, #8]
     c40:	f900001f 	str	xzr, [x0]
     c44:	f94007e0 	ldr	x0, [sp, #8]
     c48:	f900041f 	str	xzr, [x0, #8]
     c4c:	d503201f 	nop
     c50:	910043ff 	add	sp, sp, #0x10
     c54:	d65f03c0 	ret

0000000000000c58 <_ZN12_GLOBAL__N_116itanium_demangle9NodeArrayC1EPPNS0_4NodeEm>:
     c58:	d10083ff 	sub	sp, sp, #0x20
     c5c:	f9000fe0 	str	x0, [sp, #24]
     c60:	f9000be1 	str	x1, [sp, #16]
     c64:	f90007e2 	str	x2, [sp, #8]
     c68:	f9400fe0 	ldr	x0, [sp, #24]
     c6c:	f9400be1 	ldr	x1, [sp, #16]
     c70:	f9000001 	str	x1, [x0]
     c74:	f9400fe0 	ldr	x0, [sp, #24]
     c78:	f94007e1 	ldr	x1, [sp, #8]
     c7c:	f9000401 	str	x1, [x0, #8]
     c80:	d503201f 	nop
     c84:	910083ff 	add	sp, sp, #0x20
     c88:	d65f03c0 	ret

0000000000000c8c <_ZNK12_GLOBAL__N_116itanium_demangle9NodeArray5emptyEv>:
     c8c:	d10043ff 	sub	sp, sp, #0x10
     c90:	f90007e0 	str	x0, [sp, #8]
     c94:	f94007e0 	ldr	x0, [sp, #8]
     c98:	f9400400 	ldr	x0, [x0, #8]
     c9c:	f100001f 	cmp	x0, #0x0
     ca0:	1a9f17e0 	cset	w0, eq  // eq = none
     ca4:	12001c00 	and	w0, w0, #0xff
     ca8:	910043ff 	add	sp, sp, #0x10
     cac:	d65f03c0 	ret

0000000000000cb0 <_ZNK12_GLOBAL__N_116itanium_demangle9NodeArray4sizeEv>:
     cb0:	d10043ff 	sub	sp, sp, #0x10
     cb4:	f90007e0 	str	x0, [sp, #8]
     cb8:	f94007e0 	ldr	x0, [sp, #8]
     cbc:	f9400400 	ldr	x0, [x0, #8]
     cc0:	910043ff 	add	sp, sp, #0x10
     cc4:	d65f03c0 	ret

0000000000000cc8 <_ZNK12_GLOBAL__N_116itanium_demangle9NodeArray5beginEv>:
     cc8:	d10043ff 	sub	sp, sp, #0x10
     ccc:	f90007e0 	str	x0, [sp, #8]
     cd0:	f94007e0 	ldr	x0, [sp, #8]
     cd4:	f9400000 	ldr	x0, [x0]
     cd8:	910043ff 	add	sp, sp, #0x10
     cdc:	d65f03c0 	ret

0000000000000ce0 <_ZNK12_GLOBAL__N_116itanium_demangle9NodeArray3endEv>:
     ce0:	d10043ff 	sub	sp, sp, #0x10
     ce4:	f90007e0 	str	x0, [sp, #8]
     ce8:	f94007e0 	ldr	x0, [sp, #8]
     cec:	f9400001 	ldr	x1, [x0]
     cf0:	f94007e0 	ldr	x0, [sp, #8]
     cf4:	f9400400 	ldr	x0, [x0, #8]
     cf8:	d37df000 	lsl	x0, x0, #3
     cfc:	8b000020 	add	x0, x1, x0
     d00:	910043ff 	add	sp, sp, #0x10
     d04:	d65f03c0 	ret

0000000000000d08 <_ZNK12_GLOBAL__N_116itanium_demangle9NodeArrayixEm>:
     d08:	d10043ff 	sub	sp, sp, #0x10
     d0c:	f90007e0 	str	x0, [sp, #8]
     d10:	f90003e1 	str	x1, [sp]
     d14:	f94007e0 	ldr	x0, [sp, #8]
     d18:	f9400001 	ldr	x1, [x0]
     d1c:	f94003e0 	ldr	x0, [sp]
     d20:	d37df000 	lsl	x0, x0, #3
     d24:	8b000020 	add	x0, x1, x0
     d28:	f9400000 	ldr	x0, [x0]
     d2c:	910043ff 	add	sp, sp, #0x10
     d30:	d65f03c0 	ret

0000000000000d34 <_ZNK12_GLOBAL__N_116itanium_demangle9NodeArray14printWithCommaERNS0_12OutputStreamE>:
     d34:	a9bb7bfd 	stp	x29, x30, [sp, #-80]!
     d38:	910003fd 	mov	x29, sp
     d3c:	f9000fe0 	str	x0, [sp, #24]
     d40:	f9000be1 	str	x1, [sp, #16]
     d44:	52800020 	mov	w0, #0x1                   	// #1
     d48:	39013fe0 	strb	w0, [sp, #79]
     d4c:	f90023ff 	str	xzr, [sp, #64]
     d50:	f9400fe0 	ldr	x0, [sp, #24]
     d54:	f9400400 	ldr	x0, [x0, #8]
     d58:	f94023e1 	ldr	x1, [sp, #64]
     d5c:	eb00003f 	cmp	x1, x0
     d60:	540005c0 	b.eq	e18 <_ZNK12_GLOBAL__N_116itanium_demangle9NodeArray14printWithCommaERNS0_12OutputStreamE+0xe4>  // b.none
     d64:	f9400be0 	ldr	x0, [sp, #16]
     d68:	97fffec7 	bl	884 <_ZNK12_GLOBAL__N_116itanium_demangle12OutputStream18getCurrentPositionEv>
     d6c:	f9001fe0 	str	x0, [sp, #56]
     d70:	39413fe0 	ldrb	w0, [sp, #79]
     d74:	52000000 	eor	w0, w0, #0x1
     d78:	12001c00 	and	w0, w0, #0xff
     d7c:	7100001f 	cmp	w0, #0x0
     d80:	54000120 	b.eq	da4 <_ZNK12_GLOBAL__N_116itanium_demangle9NodeArray14printWithCommaERNS0_12OutputStreamE+0x70>  // b.none
     d84:	910083e2 	add	x2, sp, #0x20
     d88:	90000000 	adrp	x0, 0 <_ZN12_GLOBAL__N_116itanium_demangle10StringViewC1EPKcS3_>
     d8c:	91000001 	add	x1, x0, #0x0
     d90:	aa0203e0 	mov	x0, x2
     d94:	97fffca8 	bl	34 <_ZN12_GLOBAL__N_116itanium_demangle10StringViewC1EPKc>
     d98:	a9420be1 	ldp	x1, x2, [sp, #32]
     d9c:	f9400be0 	ldr	x0, [sp, #16]
     da0:	97fffe58 	bl	700 <_ZN12_GLOBAL__N_116itanium_demangle12OutputStreampLENS0_10StringViewE>
     da4:	f9400be0 	ldr	x0, [sp, #16]
     da8:	97fffeb7 	bl	884 <_ZNK12_GLOBAL__N_116itanium_demangle12OutputStream18getCurrentPositionEv>
     dac:	f9001be0 	str	x0, [sp, #48]
     db0:	f9400fe0 	ldr	x0, [sp, #24]
     db4:	f9400001 	ldr	x1, [x0]
     db8:	f94023e0 	ldr	x0, [sp, #64]
     dbc:	d37df000 	lsl	x0, x0, #3
     dc0:	8b000020 	add	x0, x1, x0
     dc4:	f9400000 	ldr	x0, [x0]
     dc8:	f9400be1 	ldr	x1, [sp, #16]
     dcc:	97ffff73 	bl	b98 <_ZNK12_GLOBAL__N_116itanium_demangle4Node5printERNS0_12OutputStreamE>
     dd0:	f9400be0 	ldr	x0, [sp, #16]
     dd4:	97fffeac 	bl	884 <_ZNK12_GLOBAL__N_116itanium_demangle12OutputStream18getCurrentPositionEv>
     dd8:	aa0003e1 	mov	x1, x0
     ddc:	f9401be0 	ldr	x0, [sp, #48]
     de0:	eb01001f 	cmp	x0, x1
     de4:	1a9f17e0 	cset	w0, eq  // eq = none
     de8:	12001c00 	and	w0, w0, #0xff
     dec:	7100001f 	cmp	w0, #0x0
     df0:	540000a0 	b.eq	e04 <_ZNK12_GLOBAL__N_116itanium_demangle9NodeArray14printWithCommaERNS0_12OutputStreamE+0xd0>  // b.none
     df4:	f9401fe1 	ldr	x1, [sp, #56]
     df8:	f9400be0 	ldr	x0, [sp, #16]
     dfc:	97fffea8 	bl	89c <_ZN12_GLOBAL__N_116itanium_demangle12OutputStream18setCurrentPositionEm>
     e00:	14000002 	b	e08 <_ZNK12_GLOBAL__N_116itanium_demangle9NodeArray14printWithCommaERNS0_12OutputStreamE+0xd4>
     e04:	39013fff 	strb	wzr, [sp, #79]
     e08:	f94023e0 	ldr	x0, [sp, #64]
     e0c:	91000400 	add	x0, x0, #0x1
     e10:	f90023e0 	str	x0, [sp, #64]
     e14:	17ffffcf 	b	d50 <_ZNK12_GLOBAL__N_116itanium_demangle9NodeArray14printWithCommaERNS0_12OutputStreamE+0x1c>
     e18:	d503201f 	nop
     e1c:	a8c57bfd 	ldp	x29, x30, [sp], #80
     e20:	d65f03c0 	ret

0000000000000e24 <_ZN12_GLOBAL__N_116itanium_demangle4NodeD2Ev>:
     e24:	d10043ff 	sub	sp, sp, #0x10
     e28:	f90007e0 	str	x0, [sp, #8]
     e2c:	90000000 	adrp	x0, 0 <_ZN12_GLOBAL__N_116itanium_demangle10StringViewC1EPKcS3_>
     e30:	91000001 	add	x1, x0, #0x0
     e34:	f94007e0 	ldr	x0, [sp, #8]
     e38:	f9000001 	str	x1, [x0]
     e3c:	d503201f 	nop
     e40:	910043ff 	add	sp, sp, #0x10
     e44:	d65f03c0 	ret

0000000000000e48 <_ZN12_GLOBAL__N_116itanium_demangle13NodeArrayNodeC1ENS0_9NodeArrayE>:
     e48:	a9bd7bfd 	stp	x29, x30, [sp, #-48]!
     e4c:	910003fd 	mov	x29, sp
     e50:	f90017e0 	str	x0, [sp, #40]
     e54:	a9018be1 	stp	x1, x2, [sp, #24]
     e58:	f94017e0 	ldr	x0, [sp, #40]
     e5c:	52800024 	mov	w4, #0x1                   	// #1
     e60:	52800023 	mov	w3, #0x1                   	// #1
     e64:	52800022 	mov	w2, #0x1                   	// #1
     e68:	52800001 	mov	w1, #0x0                   	// #0
     e6c:	97fffeca 	bl	994 <_ZN12_GLOBAL__N_116itanium_demangle4NodeC2ENS1_4KindENS1_5CacheES3_S3_>
     e70:	90000000 	adrp	x0, 0 <_ZN12_GLOBAL__N_116itanium_demangle10StringViewC1EPKcS3_>
     e74:	91000001 	add	x1, x0, #0x0
     e78:	f94017e0 	ldr	x0, [sp, #40]
     e7c:	f9000001 	str	x1, [x0]
     e80:	f94017e2 	ldr	x2, [sp, #40]
     e84:	a94187e0 	ldp	x0, x1, [sp, #24]
     e88:	a9010440 	stp	x0, x1, [x2, #16]
     e8c:	d503201f 	nop
     e90:	a8c37bfd 	ldp	x29, x30, [sp], #48
     e94:	d65f03c0 	ret

0000000000000e98 <_ZNK12_GLOBAL__N_116itanium_demangle13NodeArrayNode9printLeftERNS0_12OutputStreamE>:
     e98:	a9be7bfd 	stp	x29, x30, [sp, #-32]!
     e9c:	910003fd 	mov	x29, sp
     ea0:	f9000fe0 	str	x0, [sp, #24]
     ea4:	f9000be1 	str	x1, [sp, #16]
     ea8:	f9400fe0 	ldr	x0, [sp, #24]
     eac:	91004000 	add	x0, x0, #0x10
     eb0:	f9400be1 	ldr	x1, [sp, #16]
     eb4:	97ffffa0 	bl	d34 <_ZNK12_GLOBAL__N_116itanium_demangle9NodeArray14printWithCommaERNS0_12OutputStreamE>
     eb8:	d503201f 	nop
     ebc:	a8c27bfd 	ldp	x29, x30, [sp], #32
     ec0:	d65f03c0 	ret

0000000000000ec4 <_ZN12_GLOBAL__N_116itanium_demangle9DotSuffixC1EPKNS0_4NodeENS0_10StringViewE>:
     ec4:	a9bd7bfd 	stp	x29, x30, [sp, #-48]!
     ec8:	910003fd 	mov	x29, sp
     ecc:	f90017e0 	str	x0, [sp, #40]
     ed0:	f90013e1 	str	x1, [sp, #32]
     ed4:	a9010fe2 	stp	x2, x3, [sp, #16]
     ed8:	f94017e0 	ldr	x0, [sp, #40]
     edc:	52800024 	mov	w4, #0x1                   	// #1
     ee0:	52800023 	mov	w3, #0x1                   	// #1
     ee4:	52800022 	mov	w2, #0x1                   	// #1
     ee8:	52800021 	mov	w1, #0x1                   	// #1
     eec:	97fffeaa 	bl	994 <_ZN12_GLOBAL__N_116itanium_demangle4NodeC2ENS1_4KindENS1_5CacheES3_S3_>
     ef0:	90000000 	adrp	x0, 0 <_ZN12_GLOBAL__N_116itanium_demangle10StringViewC1EPKcS3_>
     ef4:	91000001 	add	x1, x0, #0x0
     ef8:	f94017e0 	ldr	x0, [sp, #40]
     efc:	f9000001 	str	x1, [x0]
     f00:	f94017e0 	ldr	x0, [sp, #40]
     f04:	f94013e1 	ldr	x1, [sp, #32]
     f08:	f9000801 	str	x1, [x0, #16]
     f0c:	f94017e0 	ldr	x0, [sp, #40]
     f10:	91006002 	add	x2, x0, #0x18
     f14:	a94107e0 	ldp	x0, x1, [sp, #16]
     f18:	a9000440 	stp	x0, x1, [x2]
     f1c:	d503201f 	nop
     f20:	a8c37bfd 	ldp	x29, x30, [sp], #48
     f24:	d65f03c0 	ret

0000000000000f28 <_ZNK12_GLOBAL__N_116itanium_demangle9DotSuffix9printLeftERNS0_12OutputStreamE>:
     f28:	a9bc7bfd 	stp	x29, x30, [sp, #-64]!
     f2c:	910003fd 	mov	x29, sp
     f30:	f9000fe0 	str	x0, [sp, #24]
     f34:	f9000be1 	str	x1, [sp, #16]
     f38:	f9400fe0 	ldr	x0, [sp, #24]
     f3c:	f9400800 	ldr	x0, [x0, #16]
     f40:	f9400be1 	ldr	x1, [sp, #16]
     f44:	97ffff15 	bl	b98 <_ZNK12_GLOBAL__N_116itanium_demangle4Node5printERNS0_12OutputStreamE>
     f48:	910083e2 	add	x2, sp, #0x20
     f4c:	90000000 	adrp	x0, 0 <_ZN12_GLOBAL__N_116itanium_demangle10StringViewC1EPKcS3_>
     f50:	91000001 	add	x1, x0, #0x0
     f54:	aa0203e0 	mov	x0, x2
     f58:	97fffc37 	bl	34 <_ZN12_GLOBAL__N_116itanium_demangle10StringViewC1EPKc>
     f5c:	a9420be1 	ldp	x1, x2, [sp, #32]
     f60:	f9400be0 	ldr	x0, [sp, #16]
     f64:	97fffde7 	bl	700 <_ZN12_GLOBAL__N_116itanium_demangle12OutputStreampLENS0_10StringViewE>
     f68:	f9400fe0 	ldr	x0, [sp, #24]
     f6c:	a9418801 	ldp	x1, x2, [x0, #24]
     f70:	f9400be0 	ldr	x0, [sp, #16]
     f74:	97fffde3 	bl	700 <_ZN12_GLOBAL__N_116itanium_demangle12OutputStreampLENS0_10StringViewE>
     f78:	9100c3e2 	add	x2, sp, #0x30
     f7c:	90000000 	adrp	x0, 0 <_ZN12_GLOBAL__N_116itanium_demangle10StringViewC1EPKcS3_>
     f80:	91000001 	add	x1, x0, #0x0
     f84:	aa0203e0 	mov	x0, x2
     f88:	97fffc2b 	bl	34 <_ZN12_GLOBAL__N_116itanium_demangle10StringViewC1EPKc>
     f8c:	a9430be1 	ldp	x1, x2, [sp, #48]
     f90:	f9400be0 	ldr	x0, [sp, #16]
     f94:	97fffddb 	bl	700 <_ZN12_GLOBAL__N_116itanium_demangle12OutputStreampLENS0_10StringViewE>
     f98:	d503201f 	nop
     f9c:	a8c47bfd 	ldp	x29, x30, [sp], #64
     fa0:	d65f03c0 	ret

0000000000000fa4 <_ZN12_GLOBAL__N_116itanium_demangle17VendorExtQualTypeC1EPKNS0_4NodeENS0_10StringViewES4_>:
     fa4:	a9bc7bfd 	stp	x29, x30, [sp, #-64]!
     fa8:	910003fd 	mov	x29, sp
     fac:	f9001fe0 	str	x0, [sp, #56]
     fb0:	f9001be1 	str	x1, [sp, #48]
     fb4:	a9020fe2 	stp	x2, x3, [sp, #32]
     fb8:	f9000fe4 	str	x4, [sp, #24]
     fbc:	f9401fe0 	ldr	x0, [sp, #56]
     fc0:	52800024 	mov	w4, #0x1                   	// #1
     fc4:	52800023 	mov	w3, #0x1                   	// #1
     fc8:	52800022 	mov	w2, #0x1                   	// #1
     fcc:	52800041 	mov	w1, #0x2                   	// #2
     fd0:	97fffe71 	bl	994 <_ZN12_GLOBAL__N_116itanium_demangle4NodeC2ENS1_4KindENS1_5CacheES3_S3_>
     fd4:	90000000 	adrp	x0, 0 <_ZN12_GLOBAL__N_116itanium_demangle10StringViewC1EPKcS3_>
     fd8:	91000001 	add	x1, x0, #0x0
     fdc:	f9401fe0 	ldr	x0, [sp, #56]
     fe0:	f9000001 	str	x1, [x0]
     fe4:	f9401fe0 	ldr	x0, [sp, #56]
     fe8:	f9401be1 	ldr	x1, [sp, #48]
     fec:	f9000801 	str	x1, [x0, #16]
     ff0:	f9401fe2 	ldr	x2, [sp, #56]
     ff4:	a94207e0 	ldp	x0, x1, [sp, #32]
     ff8:	a9018440 	stp	x0, x1, [x2, #24]
     ffc:	f9401fe0 	ldr	x0, [sp, #56]
    1000:	f9400fe1 	ldr	x1, [sp, #24]
    1004:	f9001401 	str	x1, [x0, #40]
    1008:	d503201f 	nop
    100c:	a8c47bfd 	ldp	x29, x30, [sp], #64
    1010:	d65f03c0 	ret

0000000000001014 <_ZNK12_GLOBAL__N_116itanium_demangle17VendorExtQualType9printLeftERNS0_12OutputStreamE>:
    1014:	a9bd7bfd 	stp	x29, x30, [sp, #-48]!
    1018:	910003fd 	mov	x29, sp
    101c:	f9000fe0 	str	x0, [sp, #24]
    1020:	f9000be1 	str	x1, [sp, #16]
    1024:	f9400fe0 	ldr	x0, [sp, #24]
    1028:	f9400800 	ldr	x0, [x0, #16]
    102c:	f9400be1 	ldr	x1, [sp, #16]
    1030:	97fffeda 	bl	b98 <_ZNK12_GLOBAL__N_116itanium_demangle4Node5printERNS0_12OutputStreamE>
    1034:	910083e2 	add	x2, sp, #0x20
    1038:	90000000 	adrp	x0, 0 <_ZN12_GLOBAL__N_116itanium_demangle10StringViewC1EPKcS3_>
    103c:	91000001 	add	x1, x0, #0x0
    1040:	aa0203e0 	mov	x0, x2
    1044:	97fffbfc 	bl	34 <_ZN12_GLOBAL__N_116itanium_demangle10StringViewC1EPKc>
    1048:	a9420be1 	ldp	x1, x2, [sp, #32]
    104c:	f9400be0 	ldr	x0, [sp, #16]
    1050:	97fffdac 	bl	700 <_ZN12_GLOBAL__N_116itanium_demangle12OutputStreampLENS0_10StringViewE>
    1054:	f9400fe0 	ldr	x0, [sp, #24]
    1058:	a9418801 	ldp	x1, x2, [x0, #24]
    105c:	f9400be0 	ldr	x0, [sp, #16]
    1060:	97fffda8 	bl	700 <_ZN12_GLOBAL__N_116itanium_demangle12OutputStreampLENS0_10StringViewE>
    1064:	f9400fe0 	ldr	x0, [sp, #24]
    1068:	f9401400 	ldr	x0, [x0, #40]
    106c:	f100001f 	cmp	x0, #0x0
    1070:	540000a0 	b.eq	1084 <_ZNK12_GLOBAL__N_116itanium_demangle17VendorExtQualType9printLeftERNS0_12OutputStreamE+0x70>  // b.none
    1074:	f9400fe0 	ldr	x0, [sp, #24]
    1078:	f9401400 	ldr	x0, [x0, #40]
    107c:	f9400be1 	ldr	x1, [sp, #16]
    1080:	97fffec6 	bl	b98 <_ZNK12_GLOBAL__N_116itanium_demangle4Node5printERNS0_12OutputStreamE>
    1084:	d503201f 	nop
    1088:	a8c37bfd 	ldp	x29, x30, [sp], #48
    108c:	d65f03c0 	ret

0000000000001090 <_ZN12_GLOBAL__N_116itanium_demangleoRERNS0_10QualifiersES1_>:
    1090:	d10043ff 	sub	sp, sp, #0x10
    1094:	f90007e0 	str	x0, [sp, #8]
    1098:	b90007e1 	str	w1, [sp, #4]
    109c:	f94007e0 	ldr	x0, [sp, #8]
    10a0:	b9400000 	ldr	w0, [x0]
    10a4:	2a0003e1 	mov	w1, w0
    10a8:	b94007e0 	ldr	w0, [sp, #4]
    10ac:	2a000020 	orr	w0, w1, w0
    10b0:	2a0003e1 	mov	w1, w0
    10b4:	f94007e0 	ldr	x0, [sp, #8]
    10b8:	b9000001 	str	w1, [x0]
    10bc:	f94007e0 	ldr	x0, [sp, #8]
    10c0:	b9400000 	ldr	w0, [x0]
    10c4:	910043ff 	add	sp, sp, #0x10
    10c8:	d65f03c0 	ret

00000000000010cc <_ZNK12_GLOBAL__N_116itanium_demangle8QualType10printQualsERNS0_12OutputStreamE>:
    10cc:	a9bb7bfd 	stp	x29, x30, [sp, #-80]!
    10d0:	910003fd 	mov	x29, sp
    10d4:	f9000fe0 	str	x0, [sp, #24]
    10d8:	f9000be1 	str	x1, [sp, #16]
    10dc:	f9400fe0 	ldr	x0, [sp, #24]
    10e0:	b9400c00 	ldr	w0, [x0, #12]
    10e4:	12000000 	and	w0, w0, #0x1
    10e8:	7100001f 	cmp	w0, #0x0
    10ec:	54000120 	b.eq	1110 <_ZNK12_GLOBAL__N_116itanium_demangle8QualType10printQualsERNS0_12OutputStreamE+0x44>  // b.none
    10f0:	910083e2 	add	x2, sp, #0x20
    10f4:	90000000 	adrp	x0, 0 <_ZN12_GLOBAL__N_116itanium_demangle10StringViewC1EPKcS3_>
    10f8:	91000001 	add	x1, x0, #0x0
    10fc:	aa0203e0 	mov	x0, x2
    1100:	97fffbcd 	bl	34 <_ZN12_GLOBAL__N_116itanium_demangle10StringViewC1EPKc>
    1104:	a9420be1 	ldp	x1, x2, [sp, #32]
    1108:	f9400be0 	ldr	x0, [sp, #16]
    110c:	97fffd7d 	bl	700 <_ZN12_GLOBAL__N_116itanium_demangle12OutputStreampLENS0_10StringViewE>
    1110:	f9400fe0 	ldr	x0, [sp, #24]
    1114:	b9400c00 	ldr	w0, [x0, #12]
    1118:	121f0000 	and	w0, w0, #0x2
    111c:	7100001f 	cmp	w0, #0x0
    1120:	54000120 	b.eq	1144 <_ZNK12_GLOBAL__N_116itanium_demangle8QualType10printQualsERNS0_12OutputStreamE+0x78>  // b.none
    1124:	9100c3e2 	add	x2, sp, #0x30
    1128:	90000000 	adrp	x0, 0 <_ZN12_GLOBAL__N_116itanium_demangle10StringViewC1EPKcS3_>
    112c:	91000001 	add	x1, x0, #0x0
    1130:	aa0203e0 	mov	x0, x2
    1134:	97fffbc0 	bl	34 <_ZN12_GLOBAL__N_116itanium_demangle10StringViewC1EPKc>
    1138:	a9430be1 	ldp	x1, x2, [sp, #48]
    113c:	f9400be0 	ldr	x0, [sp, #16]
    1140:	97fffd70 	bl	700 <_ZN12_GLOBAL__N_116itanium_demangle12OutputStreampLENS0_10StringViewE>
    1144:	f9400fe0 	ldr	x0, [sp, #24]
    1148:	b9400c00 	ldr	w0, [x0, #12]
    114c:	121e0000 	and	w0, w0, #0x4
    1150:	7100001f 	cmp	w0, #0x0
    1154:	54000120 	b.eq	1178 <_ZNK12_GLOBAL__N_116itanium_demangle8QualType10printQualsERNS0_12OutputStreamE+0xac>  // b.none
    1158:	910103e2 	add	x2, sp, #0x40
    115c:	90000000 	adrp	x0, 0 <_ZN12_GLOBAL__N_116itanium_demangle10StringViewC1EPKcS3_>
    1160:	91000001 	add	x1, x0, #0x0
    1164:	aa0203e0 	mov	x0, x2
    1168:	97fffbb3 	bl	34 <_ZN12_GLOBAL__N_116itanium_demangle10StringViewC1EPKc>
    116c:	a9440be1 	ldp	x1, x2, [sp, #64]
    1170:	f9400be0 	ldr	x0, [sp, #16]
    1174:	97fffd63 	bl	700 <_ZN12_GLOBAL__N_116itanium_demangle12OutputStreampLENS0_10StringViewE>
    1178:	d503201f 	nop
    117c:	a8c57bfd 	ldp	x29, x30, [sp], #80
    1180:	d65f03c0 	ret

0000000000001184 <_ZN12_GLOBAL__N_116itanium_demangle8QualTypeC1EPKNS0_4NodeENS0_10QualifiersE>:
    1184:	a9bd7bfd 	stp	x29, x30, [sp, #-48]!
    1188:	910003fd 	mov	x29, sp
    118c:	f90017e0 	str	x0, [sp, #40]
    1190:	f90013e1 	str	x1, [sp, #32]
    1194:	b9001fe2 	str	w2, [sp, #28]
    1198:	f94017e5 	ldr	x5, [sp, #40]
    119c:	f94013e0 	ldr	x0, [sp, #32]
    11a0:	39402401 	ldrb	w1, [x0, #9]
    11a4:	f94013e0 	ldr	x0, [sp, #32]
    11a8:	39402802 	ldrb	w2, [x0, #10]
    11ac:	f94013e0 	ldr	x0, [sp, #32]
    11b0:	39402c00 	ldrb	w0, [x0, #11]
    11b4:	2a0003e4 	mov	w4, w0
    11b8:	2a0203e3 	mov	w3, w2
    11bc:	2a0103e2 	mov	w2, w1
    11c0:	52800061 	mov	w1, #0x3                   	// #3
    11c4:	aa0503e0 	mov	x0, x5
    11c8:	97fffdf3 	bl	994 <_ZN12_GLOBAL__N_116itanium_demangle4NodeC2ENS1_4KindENS1_5CacheES3_S3_>
    11cc:	90000000 	adrp	x0, 0 <_ZN12_GLOBAL__N_116itanium_demangle10StringViewC1EPKcS3_>
    11d0:	91000001 	add	x1, x0, #0x0
    11d4:	f94017e0 	ldr	x0, [sp, #40]
    11d8:	f9000001 	str	x1, [x0]
    11dc:	f94017e0 	ldr	x0, [sp, #40]
    11e0:	b9401fe1 	ldr	w1, [sp, #28]
    11e4:	b9000c01 	str	w1, [x0, #12]
    11e8:	f94017e0 	ldr	x0, [sp, #40]
    11ec:	f94013e1 	ldr	x1, [sp, #32]
    11f0:	f9000801 	str	x1, [x0, #16]
    11f4:	d503201f 	nop
    11f8:	a8c37bfd 	ldp	x29, x30, [sp], #48
    11fc:	d65f03c0 	ret

0000000000001200 <_ZNK12_GLOBAL__N_116itanium_demangle8QualType19hasRHSComponentSlowERNS0_12OutputStreamE>:
    1200:	a9be7bfd 	stp	x29, x30, [sp, #-32]!
    1204:	910003fd 	mov	x29, sp
    1208:	f9000fe0 	str	x0, [sp, #24]
    120c:	f9000be1 	str	x1, [sp, #16]
    1210:	f9400fe0 	ldr	x0, [sp, #24]
    1214:	f9400800 	ldr	x0, [x0, #16]
    1218:	f9400be1 	ldr	x1, [sp, #16]
    121c:	97fffdf7 	bl	9f8 <_ZNK12_GLOBAL__N_116itanium_demangle4Node15hasRHSComponentERNS0_12OutputStreamE>
    1220:	12001c00 	and	w0, w0, #0xff
    1224:	a8c27bfd 	ldp	x29, x30, [sp], #32
    1228:	d65f03c0 	ret

000000000000122c <_ZNK12_GLOBAL__N_116itanium_demangle8QualType12hasArraySlowERNS0_12OutputStreamE>:
    122c:	a9be7bfd 	stp	x29, x30, [sp, #-32]!
    1230:	910003fd 	mov	x29, sp
    1234:	f9000fe0 	str	x0, [sp, #24]
    1238:	f9000be1 	str	x1, [sp, #16]
    123c:	f9400fe0 	ldr	x0, [sp, #24]
    1240:	f9400800 	ldr	x0, [x0, #16]
    1244:	f9400be1 	ldr	x1, [sp, #16]
    1248:	97fffe04 	bl	a58 <_ZNK12_GLOBAL__N_116itanium_demangle4Node8hasArrayERNS0_12OutputStreamE>
    124c:	12001c00 	and	w0, w0, #0xff
    1250:	a8c27bfd 	ldp	x29, x30, [sp], #32
    1254:	d65f03c0 	ret

0000000000001258 <_ZNK12_GLOBAL__N_116itanium_demangle8QualType15hasFunctionSlowERNS0_12OutputStreamE>:
    1258:	a9be7bfd 	stp	x29, x30, [sp, #-32]!
    125c:	910003fd 	mov	x29, sp
    1260:	f9000fe0 	str	x0, [sp, #24]
    1264:	f9000be1 	str	x1, [sp, #16]
    1268:	f9400fe0 	ldr	x0, [sp, #24]
    126c:	f9400800 	ldr	x0, [x0, #16]
    1270:	f9400be1 	ldr	x1, [sp, #16]
    1274:	97fffe12 	bl	abc <_ZNK12_GLOBAL__N_116itanium_demangle4Node11hasFunctionERNS0_12OutputStreamE>
    1278:	12001c00 	and	w0, w0, #0xff
    127c:	a8c27bfd 	ldp	x29, x30, [sp], #32
    1280:	d65f03c0 	ret

0000000000001284 <_ZNK12_GLOBAL__N_116itanium_demangle8QualType9printLeftERNS0_12OutputStreamE>:
    1284:	a9be7bfd 	stp	x29, x30, [sp, #-32]!
    1288:	910003fd 	mov	x29, sp
    128c:	f9000fe0 	str	x0, [sp, #24]
    1290:	f9000be1 	str	x1, [sp, #16]
    1294:	f9400fe0 	ldr	x0, [sp, #24]
    1298:	f9400800 	ldr	x0, [x0, #16]
    129c:	f9400000 	ldr	x0, [x0]
    12a0:	91008000 	add	x0, x0, #0x20
    12a4:	f9400002 	ldr	x2, [x0]
    12a8:	f9400fe0 	ldr	x0, [sp, #24]
    12ac:	f9400800 	ldr	x0, [x0, #16]
    12b0:	f9400be1 	ldr	x1, [sp, #16]
    12b4:	d63f0040 	blr	x2
    12b8:	f9400be1 	ldr	x1, [sp, #16]
    12bc:	f9400fe0 	ldr	x0, [sp, #24]
    12c0:	97ffff83 	bl	10cc <_ZNK12_GLOBAL__N_116itanium_demangle8QualType10printQualsERNS0_12OutputStreamE>
    12c4:	d503201f 	nop
    12c8:	a8c27bfd 	ldp	x29, x30, [sp], #32
    12cc:	d65f03c0 	ret

00000000000012d0 <_ZNK12_GLOBAL__N_116itanium_demangle8QualType10printRightERNS0_12OutputStreamE>:
    12d0:	a9be7bfd 	stp	x29, x30, [sp, #-32]!
    12d4:	910003fd 	mov	x29, sp
    12d8:	f9000fe0 	str	x0, [sp, #24]
    12dc:	f9000be1 	str	x1, [sp, #16]
    12e0:	f9400fe0 	ldr	x0, [sp, #24]
    12e4:	f9400800 	ldr	x0, [x0, #16]
    12e8:	f9400000 	ldr	x0, [x0]
    12ec:	9100a000 	add	x0, x0, #0x28
    12f0:	f9400002 	ldr	x2, [x0]
    12f4:	f9400fe0 	ldr	x0, [sp, #24]
    12f8:	f9400800 	ldr	x0, [x0, #16]
    12fc:	f9400be1 	ldr	x1, [sp, #16]
    1300:	d63f0040 	blr	x2
    1304:	d503201f 	nop
    1308:	a8c27bfd 	ldp	x29, x30, [sp], #32
    130c:	d65f03c0 	ret

0000000000001310 <_ZN12_GLOBAL__N_116itanium_demangle22ConversionOperatorTypeC1EPKNS0_4NodeE>:
    1310:	a9be7bfd 	stp	x29, x30, [sp, #-32]!
    1314:	910003fd 	mov	x29, sp
    1318:	f9000fe0 	str	x0, [sp, #24]
    131c:	f9000be1 	str	x1, [sp, #16]
    1320:	f9400fe0 	ldr	x0, [sp, #24]
    1324:	52800024 	mov	w4, #0x1                   	// #1
    1328:	52800023 	mov	w3, #0x1                   	// #1
    132c:	52800022 	mov	w2, #0x1                   	// #1
    1330:	52800081 	mov	w1, #0x4                   	// #4
    1334:	97fffd98 	bl	994 <_ZN12_GLOBAL__N_116itanium_demangle4NodeC2ENS1_4KindENS1_5CacheES3_S3_>
    1338:	90000000 	adrp	x0, 0 <_ZN12_GLOBAL__N_116itanium_demangle10StringViewC1EPKcS3_>
    133c:	91000001 	add	x1, x0, #0x0
    1340:	f9400fe0 	ldr	x0, [sp, #24]
    1344:	f9000001 	str	x1, [x0]
    1348:	f9400fe0 	ldr	x0, [sp, #24]
    134c:	f9400be1 	ldr	x1, [sp, #16]
    1350:	f9000801 	str	x1, [x0, #16]
    1354:	d503201f 	nop
    1358:	a8c27bfd 	ldp	x29, x30, [sp], #32
    135c:	d65f03c0 	ret

0000000000001360 <_ZNK12_GLOBAL__N_116itanium_demangle22ConversionOperatorType9printLeftERNS0_12OutputStreamE>:
    1360:	a9bd7bfd 	stp	x29, x30, [sp, #-48]!
    1364:	910003fd 	mov	x29, sp
    1368:	f9000fe0 	str	x0, [sp, #24]
    136c:	f9000be1 	str	x1, [sp, #16]
    1370:	910083e2 	add	x2, sp, #0x20
    1374:	90000000 	adrp	x0, 0 <_ZN12_GLOBAL__N_116itanium_demangle10StringViewC1EPKcS3_>
    1378:	91000001 	add	x1, x0, #0x0
    137c:	aa0203e0 	mov	x0, x2
    1380:	97fffb2d 	bl	34 <_ZN12_GLOBAL__N_116itanium_demangle10StringViewC1EPKc>
    1384:	a9420be1 	ldp	x1, x2, [sp, #32]
    1388:	f9400be0 	ldr	x0, [sp, #16]
    138c:	97fffcdd 	bl	700 <_ZN12_GLOBAL__N_116itanium_demangle12OutputStreampLENS0_10StringViewE>
    1390:	f9400fe0 	ldr	x0, [sp, #24]
    1394:	f9400800 	ldr	x0, [x0, #16]
    1398:	f9400be1 	ldr	x1, [sp, #16]
    139c:	97fffdff 	bl	b98 <_ZNK12_GLOBAL__N_116itanium_demangle4Node5printERNS0_12OutputStreamE>
    13a0:	d503201f 	nop
    13a4:	a8c37bfd 	ldp	x29, x30, [sp], #48
    13a8:	d65f03c0 	ret

00000000000013ac <_ZN12_GLOBAL__N_116itanium_demangle20PostfixQualifiedTypeC1EPNS0_4NodeENS0_10StringViewE>:
    13ac:	a9bd7bfd 	stp	x29, x30, [sp, #-48]!
    13b0:	910003fd 	mov	x29, sp
    13b4:	f90017e0 	str	x0, [sp, #40]
    13b8:	f90013e1 	str	x1, [sp, #32]
    13bc:	a9010fe2 	stp	x2, x3, [sp, #16]
    13c0:	f94017e0 	ldr	x0, [sp, #40]
    13c4:	52800024 	mov	w4, #0x1                   	// #1
    13c8:	52800023 	mov	w3, #0x1                   	// #1
    13cc:	52800022 	mov	w2, #0x1                   	// #1
    13d0:	528000a1 	mov	w1, #0x5                   	// #5
    13d4:	97fffd70 	bl	994 <_ZN12_GLOBAL__N_116itanium_demangle4NodeC2ENS1_4KindENS1_5CacheES3_S3_>
    13d8:	90000000 	adrp	x0, 0 <_ZN12_GLOBAL__N_116itanium_demangle10StringViewC1EPKcS3_>
    13dc:	91000001 	add	x1, x0, #0x0
    13e0:	f94017e0 	ldr	x0, [sp, #40]
    13e4:	f9000001 	str	x1, [x0]
    13e8:	f94017e0 	ldr	x0, [sp, #40]
    13ec:	f94013e1 	ldr	x1, [sp, #32]
    13f0:	f9000801 	str	x1, [x0, #16]
    13f4:	f94017e0 	ldr	x0, [sp, #40]
    13f8:	91006002 	add	x2, x0, #0x18
    13fc:	a94107e0 	ldp	x0, x1, [sp, #16]
    1400:	a9000440 	stp	x0, x1, [x2]
    1404:	d503201f 	nop
    1408:	a8c37bfd 	ldp	x29, x30, [sp], #48
    140c:	d65f03c0 	ret

0000000000001410 <_ZNK12_GLOBAL__N_116itanium_demangle20PostfixQualifiedType9printLeftERNS0_12OutputStreamE>:
    1410:	a9be7bfd 	stp	x29, x30, [sp, #-32]!
    1414:	910003fd 	mov	x29, sp
    1418:	f9000fe0 	str	x0, [sp, #24]
    141c:	f9000be1 	str	x1, [sp, #16]
    1420:	f9400fe0 	ldr	x0, [sp, #24]
    1424:	f9400800 	ldr	x0, [x0, #16]
    1428:	f9400000 	ldr	x0, [x0]
    142c:	91008000 	add	x0, x0, #0x20
    1430:	f9400002 	ldr	x2, [x0]
    1434:	f9400fe0 	ldr	x0, [sp, #24]
    1438:	f9400800 	ldr	x0, [x0, #16]
    143c:	f9400be1 	ldr	x1, [sp, #16]
    1440:	d63f0040 	blr	x2
    1444:	f9400fe0 	ldr	x0, [sp, #24]
    1448:	a9418801 	ldp	x1, x2, [x0, #24]
    144c:	f9400be0 	ldr	x0, [sp, #16]
    1450:	97fffcac 	bl	700 <_ZN12_GLOBAL__N_116itanium_demangle12OutputStreampLENS0_10StringViewE>
    1454:	d503201f 	nop
    1458:	a8c27bfd 	ldp	x29, x30, [sp], #32
    145c:	d65f03c0 	ret

0000000000001460 <_ZN12_GLOBAL__N_116itanium_demangle8NameTypeC1ENS0_10StringViewE>:
    1460:	a9bd7bfd 	stp	x29, x30, [sp, #-48]!
    1464:	910003fd 	mov	x29, sp
    1468:	f90017e0 	str	x0, [sp, #40]
    146c:	a9018be1 	stp	x1, x2, [sp, #24]
    1470:	f94017e0 	ldr	x0, [sp, #40]
    1474:	52800024 	mov	w4, #0x1                   	// #1
    1478:	52800023 	mov	w3, #0x1                   	// #1
    147c:	52800022 	mov	w2, #0x1                   	// #1
    1480:	528000e1 	mov	w1, #0x7                   	// #7
    1484:	97fffd44 	bl	994 <_ZN12_GLOBAL__N_116itanium_demangle4NodeC2ENS1_4KindENS1_5CacheES3_S3_>
    1488:	90000000 	adrp	x0, 0 <_ZN12_GLOBAL__N_116itanium_demangle10StringViewC1EPKcS3_>
    148c:	91000001 	add	x1, x0, #0x0
    1490:	f94017e0 	ldr	x0, [sp, #40]
    1494:	f9000001 	str	x1, [x0]
    1498:	f94017e0 	ldr	x0, [sp, #40]
    149c:	91004002 	add	x2, x0, #0x10
    14a0:	a94187e0 	ldp	x0, x1, [sp, #24]
    14a4:	a9000440 	stp	x0, x1, [x2]
    14a8:	d503201f 	nop
    14ac:	a8c37bfd 	ldp	x29, x30, [sp], #48
    14b0:	d65f03c0 	ret

00000000000014b4 <_ZNK12_GLOBAL__N_116itanium_demangle8NameType7getNameEv>:
    14b4:	d10043ff 	sub	sp, sp, #0x10
    14b8:	f90007e0 	str	x0, [sp, #8]
    14bc:	f94007e0 	ldr	x0, [sp, #8]
    14c0:	a9410400 	ldp	x0, x1, [x0, #16]
    14c4:	910043ff 	add	sp, sp, #0x10
    14c8:	d65f03c0 	ret

00000000000014cc <_ZNK12_GLOBAL__N_116itanium_demangle8NameType11getBaseNameEv>:
    14cc:	d10043ff 	sub	sp, sp, #0x10
    14d0:	f90007e0 	str	x0, [sp, #8]
    14d4:	f94007e0 	ldr	x0, [sp, #8]
    14d8:	a9410400 	ldp	x0, x1, [x0, #16]
    14dc:	910043ff 	add	sp, sp, #0x10
    14e0:	d65f03c0 	ret

00000000000014e4 <_ZNK12_GLOBAL__N_116itanium_demangle8NameType9printLeftERNS0_12OutputStreamE>:
    14e4:	a9be7bfd 	stp	x29, x30, [sp, #-32]!
    14e8:	910003fd 	mov	x29, sp
    14ec:	f9000fe0 	str	x0, [sp, #24]
    14f0:	f9000be1 	str	x1, [sp, #16]
    14f4:	f9400fe0 	ldr	x0, [sp, #24]
    14f8:	a9410801 	ldp	x1, x2, [x0, #16]
    14fc:	f9400be0 	ldr	x0, [sp, #16]
    1500:	97fffc80 	bl	700 <_ZN12_GLOBAL__N_116itanium_demangle12OutputStreampLENS0_10StringViewE>
    1504:	d503201f 	nop
    1508:	a8c27bfd 	ldp	x29, x30, [sp], #32
    150c:	d65f03c0 	ret

0000000000001510 <_ZN12_GLOBAL__N_116itanium_demangle22ElaboratedTypeSpefTypeC1ENS0_10StringViewEPNS0_4NodeE>:
    1510:	a9bd7bfd 	stp	x29, x30, [sp, #-48]!
    1514:	910003fd 	mov	x29, sp
    1518:	f90017e0 	str	x0, [sp, #40]
    151c:	a9018be1 	stp	x1, x2, [sp, #24]
    1520:	f9000be3 	str	x3, [sp, #16]
    1524:	f94017e0 	ldr	x0, [sp, #40]
    1528:	52800024 	mov	w4, #0x1                   	// #1
    152c:	52800023 	mov	w3, #0x1                   	// #1
    1530:	52800022 	mov	w2, #0x1                   	// #1
    1534:	528000c1 	mov	w1, #0x6                   	// #6
    1538:	97fffd17 	bl	994 <_ZN12_GLOBAL__N_116itanium_demangle4NodeC2ENS1_4KindENS1_5CacheES3_S3_>
    153c:	90000000 	adrp	x0, 0 <_ZN12_GLOBAL__N_116itanium_demangle10StringViewC1EPKcS3_>
    1540:	91000001 	add	x1, x0, #0x0
    1544:	f94017e0 	ldr	x0, [sp, #40]
    1548:	f9000001 	str	x1, [x0]
    154c:	f94017e2 	ldr	x2, [sp, #40]
    1550:	a94187e0 	ldp	x0, x1, [sp, #24]
    1554:	a9010440 	stp	x0, x1, [x2, #16]
    1558:	f94017e0 	ldr	x0, [sp, #40]
    155c:	f9400be1 	ldr	x1, [sp, #16]
    1560:	f9001001 	str	x1, [x0, #32]
    1564:	d503201f 	nop
    1568:	a8c37bfd 	ldp	x29, x30, [sp], #48
    156c:	d65f03c0 	ret

0000000000001570 <_ZNK12_GLOBAL__N_116itanium_demangle22ElaboratedTypeSpefType9printLeftERNS0_12OutputStreamE>:
    1570:	a9be7bfd 	stp	x29, x30, [sp, #-32]!
    1574:	910003fd 	mov	x29, sp
    1578:	f9000fe0 	str	x0, [sp, #24]
    157c:	f9000be1 	str	x1, [sp, #16]
    1580:	f9400fe0 	ldr	x0, [sp, #24]
    1584:	a9410801 	ldp	x1, x2, [x0, #16]
    1588:	f9400be0 	ldr	x0, [sp, #16]
    158c:	97fffc5d 	bl	700 <_ZN12_GLOBAL__N_116itanium_demangle12OutputStreampLENS0_10StringViewE>
    1590:	52800401 	mov	w1, #0x20                  	// #32
    1594:	f9400be0 	ldr	x0, [sp, #16]
    1598:	97fffc7f 	bl	794 <_ZN12_GLOBAL__N_116itanium_demangle12OutputStreampLEc>
    159c:	f9400fe0 	ldr	x0, [sp, #24]
    15a0:	f9401000 	ldr	x0, [x0, #32]
    15a4:	f9400be1 	ldr	x1, [sp, #16]
    15a8:	97fffd7c 	bl	b98 <_ZNK12_GLOBAL__N_116itanium_demangle4Node5printERNS0_12OutputStreamE>
    15ac:	d503201f 	nop
    15b0:	a8c27bfd 	ldp	x29, x30, [sp], #32
    15b4:	d65f03c0 	ret

00000000000015b8 <_ZN12_GLOBAL__N_116itanium_demangle10AbiTagAttrC1EPNS0_4NodeENS0_10StringViewE>:
    15b8:	a9bd7bfd 	stp	x29, x30, [sp, #-48]!
    15bc:	910003fd 	mov	x29, sp
    15c0:	f90017e0 	str	x0, [sp, #40]
    15c4:	f90013e1 	str	x1, [sp, #32]
    15c8:	a9010fe2 	stp	x2, x3, [sp, #16]
    15cc:	f94017e5 	ldr	x5, [sp, #40]
    15d0:	f94013e0 	ldr	x0, [sp, #32]
    15d4:	39402401 	ldrb	w1, [x0, #9]
    15d8:	f94013e0 	ldr	x0, [sp, #32]
    15dc:	39402802 	ldrb	w2, [x0, #10]
    15e0:	f94013e0 	ldr	x0, [sp, #32]
    15e4:	39402c00 	ldrb	w0, [x0, #11]
    15e8:	2a0003e4 	mov	w4, w0
    15ec:	2a0203e3 	mov	w3, w2
    15f0:	2a0103e2 	mov	w2, w1
    15f4:	52800101 	mov	w1, #0x8                   	// #8
    15f8:	aa0503e0 	mov	x0, x5
    15fc:	97fffce6 	bl	994 <_ZN12_GLOBAL__N_116itanium_demangle4NodeC2ENS1_4KindENS1_5CacheES3_S3_>
    1600:	90000000 	adrp	x0, 0 <_ZN12_GLOBAL__N_116itanium_demangle10StringViewC1EPKcS3_>
    1604:	91000001 	add	x1, x0, #0x0
    1608:	f94017e0 	ldr	x0, [sp, #40]
    160c:	f9000001 	str	x1, [x0]
    1610:	f94017e0 	ldr	x0, [sp, #40]
    1614:	f94013e1 	ldr	x1, [sp, #32]
    1618:	f9000801 	str	x1, [x0, #16]
    161c:	f94017e2 	ldr	x2, [sp, #40]
    1620:	a94107e0 	ldp	x0, x1, [sp, #16]
    1624:	a9018440 	stp	x0, x1, [x2, #24]
    1628:	d503201f 	nop
    162c:	a8c37bfd 	ldp	x29, x30, [sp], #48
    1630:	d65f03c0 	ret

0000000000001634 <_ZNK12_GLOBAL__N_116itanium_demangle10AbiTagAttr9printLeftERNS0_12OutputStreamE>:
    1634:	a9bc7bfd 	stp	x29, x30, [sp, #-64]!
    1638:	910003fd 	mov	x29, sp
    163c:	f9000fe0 	str	x0, [sp, #24]
    1640:	f9000be1 	str	x1, [sp, #16]
    1644:	f9400fe0 	ldr	x0, [sp, #24]
    1648:	f9400800 	ldr	x0, [x0, #16]
    164c:	f9400000 	ldr	x0, [x0]
    1650:	91008000 	add	x0, x0, #0x20
    1654:	f9400002 	ldr	x2, [x0]
    1658:	f9400fe0 	ldr	x0, [sp, #24]
    165c:	f9400800 	ldr	x0, [x0, #16]
    1660:	f9400be1 	ldr	x1, [sp, #16]
    1664:	d63f0040 	blr	x2
    1668:	910083e2 	add	x2, sp, #0x20
    166c:	90000000 	adrp	x0, 0 <_ZN12_GLOBAL__N_116itanium_demangle10StringViewC1EPKcS3_>
    1670:	91000001 	add	x1, x0, #0x0
    1674:	aa0203e0 	mov	x0, x2
    1678:	97fffa6f 	bl	34 <_ZN12_GLOBAL__N_116itanium_demangle10StringViewC1EPKc>
    167c:	a9420be1 	ldp	x1, x2, [sp, #32]
    1680:	f9400be0 	ldr	x0, [sp, #16]
    1684:	97fffc1f 	bl	700 <_ZN12_GLOBAL__N_116itanium_demangle12OutputStreampLENS0_10StringViewE>
    1688:	f9400fe0 	ldr	x0, [sp, #24]
    168c:	a9418801 	ldp	x1, x2, [x0, #24]
    1690:	f9400be0 	ldr	x0, [sp, #16]
    1694:	97fffc1b 	bl	700 <_ZN12_GLOBAL__N_116itanium_demangle12OutputStreampLENS0_10StringViewE>
    1698:	9100c3e2 	add	x2, sp, #0x30
    169c:	90000000 	adrp	x0, 0 <_ZN12_GLOBAL__N_116itanium_demangle10StringViewC1EPKcS3_>
    16a0:	91000001 	add	x1, x0, #0x0
    16a4:	aa0203e0 	mov	x0, x2
    16a8:	97fffa63 	bl	34 <_ZN12_GLOBAL__N_116itanium_demangle10StringViewC1EPKc>
    16ac:	a9430be1 	ldp	x1, x2, [sp, #48]
    16b0:	f9400be0 	ldr	x0, [sp, #16]
    16b4:	97fffc13 	bl	700 <_ZN12_GLOBAL__N_116itanium_demangle12OutputStreampLENS0_10StringViewE>
    16b8:	d503201f 	nop
    16bc:	a8c47bfd 	ldp	x29, x30, [sp], #64
    16c0:	d65f03c0 	ret

00000000000016c4 <_ZN12_GLOBAL__N_116itanium_demangle12EnableIfAttrC1ENS0_9NodeArrayE>:
    16c4:	a9bd7bfd 	stp	x29, x30, [sp, #-48]!
    16c8:	910003fd 	mov	x29, sp
    16cc:	f90017e0 	str	x0, [sp, #40]
    16d0:	a9018be1 	stp	x1, x2, [sp, #24]
    16d4:	f94017e0 	ldr	x0, [sp, #40]
    16d8:	52800024 	mov	w4, #0x1                   	// #1
    16dc:	52800023 	mov	w3, #0x1                   	// #1
    16e0:	52800022 	mov	w2, #0x1                   	// #1
    16e4:	52800121 	mov	w1, #0x9                   	// #9
    16e8:	97fffcab 	bl	994 <_ZN12_GLOBAL__N_116itanium_demangle4NodeC2ENS1_4KindENS1_5CacheES3_S3_>
    16ec:	90000000 	adrp	x0, 0 <_ZN12_GLOBAL__N_116itanium_demangle10StringViewC1EPKcS3_>
    16f0:	91000001 	add	x1, x0, #0x0
    16f4:	f94017e0 	ldr	x0, [sp, #40]
    16f8:	f9000001 	str	x1, [x0]
    16fc:	f94017e2 	ldr	x2, [sp, #40]
    1700:	a94187e0 	ldp	x0, x1, [sp, #24]
    1704:	a9010440 	stp	x0, x1, [x2, #16]
    1708:	d503201f 	nop
    170c:	a8c37bfd 	ldp	x29, x30, [sp], #48
    1710:	d65f03c0 	ret

0000000000001714 <_ZNK12_GLOBAL__N_116itanium_demangle12EnableIfAttr9printLeftERNS0_12OutputStreamE>:
    1714:	a9bd7bfd 	stp	x29, x30, [sp, #-48]!
    1718:	910003fd 	mov	x29, sp
    171c:	f9000fe0 	str	x0, [sp, #24]
    1720:	f9000be1 	str	x1, [sp, #16]
    1724:	910083e2 	add	x2, sp, #0x20
    1728:	90000000 	adrp	x0, 0 <_ZN12_GLOBAL__N_116itanium_demangle10StringViewC1EPKcS3_>
    172c:	91000001 	add	x1, x0, #0x0
    1730:	aa0203e0 	mov	x0, x2
    1734:	97fffa40 	bl	34 <_ZN12_GLOBAL__N_116itanium_demangle10StringViewC1EPKc>
    1738:	a9420be1 	ldp	x1, x2, [sp, #32]
    173c:	f9400be0 	ldr	x0, [sp, #16]
    1740:	97fffbf0 	bl	700 <_ZN12_GLOBAL__N_116itanium_demangle12OutputStreampLENS0_10StringViewE>
    1744:	f9400fe0 	ldr	x0, [sp, #24]
    1748:	91004000 	add	x0, x0, #0x10
    174c:	f9400be1 	ldr	x1, [sp, #16]
    1750:	97fffd79 	bl	d34 <_ZNK12_GLOBAL__N_116itanium_demangle9NodeArray14printWithCommaERNS0_12OutputStreamE>
    1754:	52800ba1 	mov	w1, #0x5d                  	// #93
    1758:	f9400be0 	ldr	x0, [sp, #16]
    175c:	97fffc0e 	bl	794 <_ZN12_GLOBAL__N_116itanium_demangle12OutputStreampLEc>
    1760:	d503201f 	nop
    1764:	a8c37bfd 	ldp	x29, x30, [sp], #48
    1768:	d65f03c0 	ret

000000000000176c <_ZN12_GLOBAL__N_116itanium_demangle13ObjCProtoNameC1EPKNS0_4NodeENS0_10StringViewE>:
    176c:	a9bd7bfd 	stp	x29, x30, [sp, #-48]!
    1770:	910003fd 	mov	x29, sp
    1774:	f90017e0 	str	x0, [sp, #40]
    1778:	f90013e1 	str	x1, [sp, #32]
    177c:	a9010fe2 	stp	x2, x3, [sp, #16]
    1780:	f94017e0 	ldr	x0, [sp, #40]
    1784:	52800024 	mov	w4, #0x1                   	// #1
    1788:	52800023 	mov	w3, #0x1                   	// #1
    178c:	52800022 	mov	w2, #0x1                   	// #1
    1790:	52800141 	mov	w1, #0xa                   	// #10
    1794:	97fffc80 	bl	994 <_ZN12_GLOBAL__N_116itanium_demangle4NodeC2ENS1_4KindENS1_5CacheES3_S3_>
    1798:	90000000 	adrp	x0, 0 <_ZN12_GLOBAL__N_116itanium_demangle10StringViewC1EPKcS3_>
    179c:	91000001 	add	x1, x0, #0x0
    17a0:	f94017e0 	ldr	x0, [sp, #40]
    17a4:	f9000001 	str	x1, [x0]
    17a8:	f94017e0 	ldr	x0, [sp, #40]
    17ac:	f94013e1 	ldr	x1, [sp, #32]
    17b0:	f9000801 	str	x1, [x0, #16]
    17b4:	f94017e2 	ldr	x2, [sp, #40]
    17b8:	a94107e0 	ldp	x0, x1, [sp, #16]
    17bc:	a9018440 	stp	x0, x1, [x2, #24]
    17c0:	d503201f 	nop
    17c4:	a8c37bfd 	ldp	x29, x30, [sp], #48
    17c8:	d65f03c0 	ret

00000000000017cc <_ZNK12_GLOBAL__N_116itanium_demangle13ObjCProtoName12isObjCObjectEv>:
    17cc:	a9bc7bfd 	stp	x29, x30, [sp, #-64]!
    17d0:	910003fd 	mov	x29, sp
    17d4:	f9000fe0 	str	x0, [sp, #24]
    17d8:	f9400fe0 	ldr	x0, [sp, #24]
    17dc:	f9400800 	ldr	x0, [x0, #16]
    17e0:	97fffcd0 	bl	b20 <_ZNK12_GLOBAL__N_116itanium_demangle4Node7getKindEv>
    17e4:	12001c00 	and	w0, w0, #0xff
    17e8:	71001c1f 	cmp	w0, #0x7
    17ec:	54000241 	b.ne	1834 <_ZNK12_GLOBAL__N_116itanium_demangle13ObjCProtoName12isObjCObjectEv+0x68>  // b.any
    17f0:	f9400fe0 	ldr	x0, [sp, #24]
    17f4:	f9400800 	ldr	x0, [x0, #16]
    17f8:	97ffff2f 	bl	14b4 <_ZNK12_GLOBAL__N_116itanium_demangle8NameType7getNameEv>
    17fc:	a90207e0 	stp	x0, x1, [sp, #32]
    1800:	9100c3e2 	add	x2, sp, #0x30
    1804:	90000000 	adrp	x0, 0 <_ZN12_GLOBAL__N_116itanium_demangle10StringViewC1EPKcS3_>
    1808:	91000001 	add	x1, x0, #0x0
    180c:	aa0203e0 	mov	x0, x2
    1810:	97fffa09 	bl	34 <_ZN12_GLOBAL__N_116itanium_demangle10StringViewC1EPKc>
    1814:	9100c3e1 	add	x1, sp, #0x30
    1818:	910083e0 	add	x0, sp, #0x20
    181c:	97fffaf3 	bl	3e8 <_ZN12_GLOBAL__N_116itanium_demangleeqERKNS0_10StringViewES3_>
    1820:	12001c00 	and	w0, w0, #0xff
    1824:	7100001f 	cmp	w0, #0x0
    1828:	54000060 	b.eq	1834 <_ZNK12_GLOBAL__N_116itanium_demangle13ObjCProtoName12isObjCObjectEv+0x68>  // b.none
    182c:	52800020 	mov	w0, #0x1                   	// #1
    1830:	14000002 	b	1838 <_ZNK12_GLOBAL__N_116itanium_demangle13ObjCProtoName12isObjCObjectEv+0x6c>
    1834:	52800000 	mov	w0, #0x0                   	// #0
    1838:	a8c47bfd 	ldp	x29, x30, [sp], #64
    183c:	d65f03c0 	ret

0000000000001840 <_ZNK12_GLOBAL__N_116itanium_demangle13ObjCProtoName9printLeftERNS0_12OutputStreamE>:
    1840:	a9bc7bfd 	stp	x29, x30, [sp, #-64]!
    1844:	910003fd 	mov	x29, sp
    1848:	f9000fe0 	str	x0, [sp, #24]
    184c:	f9000be1 	str	x1, [sp, #16]
    1850:	f9400fe0 	ldr	x0, [sp, #24]
    1854:	f9400800 	ldr	x0, [x0, #16]
    1858:	f9400be1 	ldr	x1, [sp, #16]
    185c:	97fffccf 	bl	b98 <_ZNK12_GLOBAL__N_116itanium_demangle4Node5printERNS0_12OutputStreamE>
    1860:	910083e2 	add	x2, sp, #0x20
    1864:	90000000 	adrp	x0, 0 <_ZN12_GLOBAL__N_116itanium_demangle10StringViewC1EPKcS3_>
    1868:	91000001 	add	x1, x0, #0x0
    186c:	aa0203e0 	mov	x0, x2
    1870:	97fff9f1 	bl	34 <_ZN12_GLOBAL__N_116itanium_demangle10StringViewC1EPKc>
    1874:	a9420be1 	ldp	x1, x2, [sp, #32]
    1878:	f9400be0 	ldr	x0, [sp, #16]
    187c:	97fffba1 	bl	700 <_ZN12_GLOBAL__N_116itanium_demangle12OutputStreampLENS0_10StringViewE>
    1880:	f9400fe0 	ldr	x0, [sp, #24]
    1884:	a9418801 	ldp	x1, x2, [x0, #24]
    1888:	f9400be0 	ldr	x0, [sp, #16]
    188c:	97fffb9d 	bl	700 <_ZN12_GLOBAL__N_116itanium_demangle12OutputStreampLENS0_10StringViewE>
    1890:	9100c3e2 	add	x2, sp, #0x30
    1894:	90000000 	adrp	x0, 0 <_ZN12_GLOBAL__N_116itanium_demangle10StringViewC1EPKcS3_>
    1898:	91000001 	add	x1, x0, #0x0
    189c:	aa0203e0 	mov	x0, x2
    18a0:	97fff9e5 	bl	34 <_ZN12_GLOBAL__N_116itanium_demangle10StringViewC1EPKc>
    18a4:	a9430be1 	ldp	x1, x2, [sp, #48]
    18a8:	f9400be0 	ldr	x0, [sp, #16]
    18ac:	97fffb95 	bl	700 <_ZN12_GLOBAL__N_116itanium_demangle12OutputStreampLENS0_10StringViewE>
    18b0:	d503201f 	nop
    18b4:	a8c47bfd 	ldp	x29, x30, [sp], #64
    18b8:	d65f03c0 	ret

00000000000018bc <_ZN12_GLOBAL__N_116itanium_demangle11PointerTypeC1EPKNS0_4NodeE>:
    18bc:	a9be7bfd 	stp	x29, x30, [sp, #-32]!
    18c0:	910003fd 	mov	x29, sp
    18c4:	f9000fe0 	str	x0, [sp, #24]
    18c8:	f9000be1 	str	x1, [sp, #16]
    18cc:	f9400fe5 	ldr	x5, [sp, #24]
    18d0:	f9400be0 	ldr	x0, [sp, #16]
    18d4:	39402400 	ldrb	w0, [x0, #9]
    18d8:	52800024 	mov	w4, #0x1                   	// #1
    18dc:	52800023 	mov	w3, #0x1                   	// #1
    18e0:	2a0003e2 	mov	w2, w0
    18e4:	52800161 	mov	w1, #0xb                   	// #11
    18e8:	aa0503e0 	mov	x0, x5
    18ec:	97fffc2a 	bl	994 <_ZN12_GLOBAL__N_116itanium_demangle4NodeC2ENS1_4KindENS1_5CacheES3_S3_>
    18f0:	90000000 	adrp	x0, 0 <_ZN12_GLOBAL__N_116itanium_demangle10StringViewC1EPKcS3_>
    18f4:	91000001 	add	x1, x0, #0x0
    18f8:	f9400fe0 	ldr	x0, [sp, #24]
    18fc:	f9000001 	str	x1, [x0]
    1900:	f9400fe0 	ldr	x0, [sp, #24]
    1904:	f9400be1 	ldr	x1, [sp, #16]
    1908:	f9000801 	str	x1, [x0, #16]
    190c:	d503201f 	nop
    1910:	a8c27bfd 	ldp	x29, x30, [sp], #32
    1914:	d65f03c0 	ret

0000000000001918 <_ZNK12_GLOBAL__N_116itanium_demangle11PointerType19hasRHSComponentSlowERNS0_12OutputStreamE>:
    1918:	a9be7bfd 	stp	x29, x30, [sp, #-32]!
    191c:	910003fd 	mov	x29, sp
    1920:	f9000fe0 	str	x0, [sp, #24]
    1924:	f9000be1 	str	x1, [sp, #16]
    1928:	f9400fe0 	ldr	x0, [sp, #24]
    192c:	f9400800 	ldr	x0, [x0, #16]
    1930:	f9400be1 	ldr	x1, [sp, #16]
    1934:	97fffc31 	bl	9f8 <_ZNK12_GLOBAL__N_116itanium_demangle4Node15hasRHSComponentERNS0_12OutputStreamE>
    1938:	12001c00 	and	w0, w0, #0xff
    193c:	a8c27bfd 	ldp	x29, x30, [sp], #32
    1940:	d65f03c0 	ret

0000000000001944 <_ZNK12_GLOBAL__N_116itanium_demangle11PointerType9printLeftERNS0_12OutputStreamE>:
    1944:	a9b87bfd 	stp	x29, x30, [sp, #-128]!
    1948:	910003fd 	mov	x29, sp
    194c:	f9000fe0 	str	x0, [sp, #24]
    1950:	f9000be1 	str	x1, [sp, #16]
    1954:	f9400fe0 	ldr	x0, [sp, #24]
    1958:	f9400800 	ldr	x0, [x0, #16]
    195c:	97fffc71 	bl	b20 <_ZNK12_GLOBAL__N_116itanium_demangle4Node7getKindEv>
    1960:	12001c00 	and	w0, w0, #0xff
    1964:	7100281f 	cmp	w0, #0xa
    1968:	54000121 	b.ne	198c <_ZNK12_GLOBAL__N_116itanium_demangle11PointerType9printLeftERNS0_12OutputStreamE+0x48>  // b.any
    196c:	f9400fe0 	ldr	x0, [sp, #24]
    1970:	f9400800 	ldr	x0, [x0, #16]
    1974:	97ffff96 	bl	17cc <_ZNK12_GLOBAL__N_116itanium_demangle13ObjCProtoName12isObjCObjectEv>
    1978:	12001c00 	and	w0, w0, #0xff
    197c:	52000000 	eor	w0, w0, #0x1
    1980:	12001c00 	and	w0, w0, #0xff
    1984:	7100001f 	cmp	w0, #0x0
    1988:	54000060 	b.eq	1994 <_ZNK12_GLOBAL__N_116itanium_demangle11PointerType9printLeftERNS0_12OutputStreamE+0x50>  // b.none
    198c:	52800020 	mov	w0, #0x1                   	// #1
    1990:	14000002 	b	1998 <_ZNK12_GLOBAL__N_116itanium_demangle11PointerType9printLeftERNS0_12OutputStreamE+0x54>
    1994:	52800000 	mov	w0, #0x0                   	// #0
    1998:	7100001f 	cmp	w0, #0x0
    199c:	540007a0 	b.eq	1a90 <_ZNK12_GLOBAL__N_116itanium_demangle11PointerType9printLeftERNS0_12OutputStreamE+0x14c>  // b.none
    19a0:	f9400fe0 	ldr	x0, [sp, #24]
    19a4:	f9400800 	ldr	x0, [x0, #16]
    19a8:	f9400000 	ldr	x0, [x0]
    19ac:	91008000 	add	x0, x0, #0x20
    19b0:	f9400002 	ldr	x2, [x0]
    19b4:	f9400fe0 	ldr	x0, [sp, #24]
    19b8:	f9400800 	ldr	x0, [x0, #16]
    19bc:	f9400be1 	ldr	x1, [sp, #16]
    19c0:	d63f0040 	blr	x2
    19c4:	f9400fe0 	ldr	x0, [sp, #24]
    19c8:	f9400800 	ldr	x0, [x0, #16]
    19cc:	f9400be1 	ldr	x1, [sp, #16]
    19d0:	97fffc22 	bl	a58 <_ZNK12_GLOBAL__N_116itanium_demangle4Node8hasArrayERNS0_12OutputStreamE>
    19d4:	12001c00 	and	w0, w0, #0xff
    19d8:	7100001f 	cmp	w0, #0x0
    19dc:	54000120 	b.eq	1a00 <_ZNK12_GLOBAL__N_116itanium_demangle11PointerType9printLeftERNS0_12OutputStreamE+0xbc>  // b.none
    19e0:	9100a3e2 	add	x2, sp, #0x28
    19e4:	90000000 	adrp	x0, 0 <_ZN12_GLOBAL__N_116itanium_demangle10StringViewC1EPKcS3_>
    19e8:	91000001 	add	x1, x0, #0x0
    19ec:	aa0203e0 	mov	x0, x2
    19f0:	97fff991 	bl	34 <_ZN12_GLOBAL__N_116itanium_demangle10StringViewC1EPKc>
    19f4:	a9428be1 	ldp	x1, x2, [sp, #40]
    19f8:	f9400be0 	ldr	x0, [sp, #16]
    19fc:	97fffb41 	bl	700 <_ZN12_GLOBAL__N_116itanium_demangle12OutputStreampLENS0_10StringViewE>
    1a00:	f9400fe0 	ldr	x0, [sp, #24]
    1a04:	f9400800 	ldr	x0, [x0, #16]
    1a08:	f9400be1 	ldr	x1, [sp, #16]
    1a0c:	97fffc13 	bl	a58 <_ZNK12_GLOBAL__N_116itanium_demangle4Node8hasArrayERNS0_12OutputStreamE>
    1a10:	12001c00 	and	w0, w0, #0xff
    1a14:	7100001f 	cmp	w0, #0x0
    1a18:	54000101 	b.ne	1a38 <_ZNK12_GLOBAL__N_116itanium_demangle11PointerType9printLeftERNS0_12OutputStreamE+0xf4>  // b.any
    1a1c:	f9400fe0 	ldr	x0, [sp, #24]
    1a20:	f9400800 	ldr	x0, [x0, #16]
    1a24:	f9400be1 	ldr	x1, [sp, #16]
    1a28:	97fffc25 	bl	abc <_ZNK12_GLOBAL__N_116itanium_demangle4Node11hasFunctionERNS0_12OutputStreamE>
    1a2c:	12001c00 	and	w0, w0, #0xff
    1a30:	7100001f 	cmp	w0, #0x0
    1a34:	54000060 	b.eq	1a40 <_ZNK12_GLOBAL__N_116itanium_demangle11PointerType9printLeftERNS0_12OutputStreamE+0xfc>  // b.none
    1a38:	52800020 	mov	w0, #0x1                   	// #1
    1a3c:	14000002 	b	1a44 <_ZNK12_GLOBAL__N_116itanium_demangle11PointerType9printLeftERNS0_12OutputStreamE+0x100>
    1a40:	52800000 	mov	w0, #0x0                   	// #0
    1a44:	7100001f 	cmp	w0, #0x0
    1a48:	54000120 	b.eq	1a6c <_ZNK12_GLOBAL__N_116itanium_demangle11PointerType9printLeftERNS0_12OutputStreamE+0x128>  // b.none
    1a4c:	9100e3e2 	add	x2, sp, #0x38
    1a50:	90000000 	adrp	x0, 0 <_ZN12_GLOBAL__N_116itanium_demangle10StringViewC1EPKcS3_>
    1a54:	91000001 	add	x1, x0, #0x0
    1a58:	aa0203e0 	mov	x0, x2
    1a5c:	97fff976 	bl	34 <_ZN12_GLOBAL__N_116itanium_demangle10StringViewC1EPKc>
    1a60:	a9438be1 	ldp	x1, x2, [sp, #56]
    1a64:	f9400be0 	ldr	x0, [sp, #16]
    1a68:	97fffb26 	bl	700 <_ZN12_GLOBAL__N_116itanium_demangle12OutputStreampLENS0_10StringViewE>
    1a6c:	910123e2 	add	x2, sp, #0x48
    1a70:	90000000 	adrp	x0, 0 <_ZN12_GLOBAL__N_116itanium_demangle10StringViewC1EPKcS3_>
    1a74:	91000001 	add	x1, x0, #0x0
    1a78:	aa0203e0 	mov	x0, x2
    1a7c:	97fff96e 	bl	34 <_ZN12_GLOBAL__N_116itanium_demangle10StringViewC1EPKc>
    1a80:	a9448be1 	ldp	x1, x2, [sp, #72]
    1a84:	f9400be0 	ldr	x0, [sp, #16]
    1a88:	97fffb1e 	bl	700 <_ZN12_GLOBAL__N_116itanium_demangle12OutputStreampLENS0_10StringViewE>
    1a8c:	14000018 	b	1aec <_ZNK12_GLOBAL__N_116itanium_demangle11PointerType9printLeftERNS0_12OutputStreamE+0x1a8>
    1a90:	f9400fe0 	ldr	x0, [sp, #24]
    1a94:	f9400800 	ldr	x0, [x0, #16]
    1a98:	f9003fe0 	str	x0, [sp, #120]
    1a9c:	910163e2 	add	x2, sp, #0x58
    1aa0:	90000000 	adrp	x0, 0 <_ZN12_GLOBAL__N_116itanium_demangle10StringViewC1EPKcS3_>
    1aa4:	91000001 	add	x1, x0, #0x0
    1aa8:	aa0203e0 	mov	x0, x2
    1aac:	97fff962 	bl	34 <_ZN12_GLOBAL__N_116itanium_demangle10StringViewC1EPKc>
    1ab0:	a9458be1 	ldp	x1, x2, [sp, #88]
    1ab4:	f9400be0 	ldr	x0, [sp, #16]
    1ab8:	97fffb12 	bl	700 <_ZN12_GLOBAL__N_116itanium_demangle12OutputStreampLENS0_10StringViewE>
    1abc:	f9403fe0 	ldr	x0, [sp, #120]
    1ac0:	a9418801 	ldp	x1, x2, [x0, #24]
    1ac4:	f9400be0 	ldr	x0, [sp, #16]
    1ac8:	97fffb0e 	bl	700 <_ZN12_GLOBAL__N_116itanium_demangle12OutputStreampLENS0_10StringViewE>
    1acc:	9101a3e2 	add	x2, sp, #0x68
    1ad0:	90000000 	adrp	x0, 0 <_ZN12_GLOBAL__N_116itanium_demangle10StringViewC1EPKcS3_>
    1ad4:	91000001 	add	x1, x0, #0x0
    1ad8:	aa0203e0 	mov	x0, x2
    1adc:	97fff956 	bl	34 <_ZN12_GLOBAL__N_116itanium_demangle10StringViewC1EPKc>
    1ae0:	a9468be1 	ldp	x1, x2, [sp, #104]
    1ae4:	f9400be0 	ldr	x0, [sp, #16]
    1ae8:	97fffb06 	bl	700 <_ZN12_GLOBAL__N_116itanium_demangle12OutputStreampLENS0_10StringViewE>
    1aec:	d503201f 	nop
    1af0:	a8c87bfd 	ldp	x29, x30, [sp], #128
    1af4:	d65f03c0 	ret

0000000000001af8 <_ZNK12_GLOBAL__N_116itanium_demangle11PointerType10printRightERNS0_12OutputStreamE>:
    1af8:	a9bd7bfd 	stp	x29, x30, [sp, #-48]!
    1afc:	910003fd 	mov	x29, sp
    1b00:	f9000fe0 	str	x0, [sp, #24]
    1b04:	f9000be1 	str	x1, [sp, #16]
    1b08:	f9400fe0 	ldr	x0, [sp, #24]
    1b0c:	f9400800 	ldr	x0, [x0, #16]
    1b10:	97fffc04 	bl	b20 <_ZNK12_GLOBAL__N_116itanium_demangle4Node7getKindEv>
    1b14:	12001c00 	and	w0, w0, #0xff
    1b18:	7100281f 	cmp	w0, #0xa
    1b1c:	54000121 	b.ne	1b40 <_ZNK12_GLOBAL__N_116itanium_demangle11PointerType10printRightERNS0_12OutputStreamE+0x48>  // b.any
    1b20:	f9400fe0 	ldr	x0, [sp, #24]
    1b24:	f9400800 	ldr	x0, [x0, #16]
    1b28:	97ffff29 	bl	17cc <_ZNK12_GLOBAL__N_116itanium_demangle13ObjCProtoName12isObjCObjectEv>
    1b2c:	12001c00 	and	w0, w0, #0xff
    1b30:	52000000 	eor	w0, w0, #0x1
    1b34:	12001c00 	and	w0, w0, #0xff
    1b38:	7100001f 	cmp	w0, #0x0
    1b3c:	54000060 	b.eq	1b48 <_ZNK12_GLOBAL__N_116itanium_demangle11PointerType10printRightERNS0_12OutputStreamE+0x50>  // b.none
    1b40:	52800020 	mov	w0, #0x1                   	// #1
    1b44:	14000002 	b	1b4c <_ZNK12_GLOBAL__N_116itanium_demangle11PointerType10printRightERNS0_12OutputStreamE+0x54>
    1b48:	52800000 	mov	w0, #0x0                   	// #0
    1b4c:	7100001f 	cmp	w0, #0x0
    1b50:	540004a0 	b.eq	1be4 <_ZNK12_GLOBAL__N_116itanium_demangle11PointerType10printRightERNS0_12OutputStreamE+0xec>  // b.none
    1b54:	f9400fe0 	ldr	x0, [sp, #24]
    1b58:	f9400800 	ldr	x0, [x0, #16]
    1b5c:	f9400be1 	ldr	x1, [sp, #16]
    1b60:	97fffbbe 	bl	a58 <_ZNK12_GLOBAL__N_116itanium_demangle4Node8hasArrayERNS0_12OutputStreamE>
    1b64:	12001c00 	and	w0, w0, #0xff
    1b68:	7100001f 	cmp	w0, #0x0
    1b6c:	54000101 	b.ne	1b8c <_ZNK12_GLOBAL__N_116itanium_demangle11PointerType10printRightERNS0_12OutputStreamE+0x94>  // b.any
    1b70:	f9400fe0 	ldr	x0, [sp, #24]
    1b74:	f9400800 	ldr	x0, [x0, #16]
    1b78:	f9400be1 	ldr	x1, [sp, #16]
    1b7c:	97fffbd0 	bl	abc <_ZNK12_GLOBAL__N_116itanium_demangle4Node11hasFunctionERNS0_12OutputStreamE>
    1b80:	12001c00 	and	w0, w0, #0xff
    1b84:	7100001f 	cmp	w0, #0x0
    1b88:	54000060 	b.eq	1b94 <_ZNK12_GLOBAL__N_116itanium_demangle11PointerType10printRightERNS0_12OutputStreamE+0x9c>  // b.none
    1b8c:	52800020 	mov	w0, #0x1                   	// #1
    1b90:	14000002 	b	1b98 <_ZNK12_GLOBAL__N_116itanium_demangle11PointerType10printRightERNS0_12OutputStreamE+0xa0>
    1b94:	52800000 	mov	w0, #0x0                   	// #0
    1b98:	7100001f 	cmp	w0, #0x0
    1b9c:	54000120 	b.eq	1bc0 <_ZNK12_GLOBAL__N_116itanium_demangle11PointerType10printRightERNS0_12OutputStreamE+0xc8>  // b.none
    1ba0:	910083e2 	add	x2, sp, #0x20
    1ba4:	90000000 	adrp	x0, 0 <_ZN12_GLOBAL__N_116itanium_demangle10StringViewC1EPKcS3_>
    1ba8:	91000001 	add	x1, x0, #0x0
    1bac:	aa0203e0 	mov	x0, x2
    1bb0:	97fff921 	bl	34 <_ZN12_GLOBAL__N_116itanium_demangle10StringViewC1EPKc>
    1bb4:	a9420be1 	ldp	x1, x2, [sp, #32]
    1bb8:	f9400be0 	ldr	x0, [sp, #16]
    1bbc:	97fffad1 	bl	700 <_ZN12_GLOBAL__N_116itanium_demangle12OutputStreampLENS0_10StringViewE>
    1bc0:	f9400fe0 	ldr	x0, [sp, #24]
    1bc4:	f9400800 	ldr	x0, [x0, #16]
    1bc8:	f9400000 	ldr	x0, [x0]
    1bcc:	9100a000 	add	x0, x0, #0x28
    1bd0:	f9400002 	ldr	x2, [x0]
    1bd4:	f9400fe0 	ldr	x0, [sp, #24]
    1bd8:	f9400800 	ldr	x0, [x0, #16]
    1bdc:	f9400be1 	ldr	x1, [sp, #16]
    1be0:	d63f0040 	blr	x2
    1be4:	d503201f 	nop
    1be8:	a8c37bfd 	ldp	x29, x30, [sp], #48
    1bec:	d65f03c0 	ret

0000000000001bf0 <_ZNK12_GLOBAL__N_116itanium_demangle13ReferenceType8collapseERNS0_12OutputStreamE>:
    1bf0:	a9b47bfd 	stp	x29, x30, [sp, #-192]!
    1bf4:	910003fd 	mov	x29, sp
    1bf8:	f9000bf3 	str	x19, [sp, #16]
    1bfc:	f90017e0 	str	x0, [sp, #40]
    1c00:	f90013e1 	str	x1, [sp, #32]
    1c04:	f94017e0 	ldr	x0, [sp, #40]
    1c08:	91006001 	add	x1, x0, #0x18
    1c0c:	f94017e0 	ldr	x0, [sp, #40]
    1c10:	91004000 	add	x0, x0, #0x10
    1c14:	f90057e1 	str	x1, [sp, #168]
    1c18:	f90053e0 	str	x0, [sp, #160]
    1c1c:	f94057e0 	ldr	x0, [sp, #168]
    1c20:	f9004fe0 	str	x0, [sp, #152]
    1c24:	f9404fe1 	ldr	x1, [sp, #152]
    1c28:	f94053e0 	ldr	x0, [sp, #160]
    1c2c:	f9004be0 	str	x0, [sp, #144]
    1c30:	f9404be0 	ldr	x0, [sp, #144]
    1c34:	f90047e1 	str	x1, [sp, #136]
    1c38:	f90043e0 	str	x0, [sp, #128]
    1c3c:	f94047e0 	ldr	x0, [sp, #136]
    1c40:	b9400000 	ldr	w0, [x0]
    1c44:	b9004be0 	str	w0, [sp, #72]
    1c48:	f94043e0 	ldr	x0, [sp, #128]
    1c4c:	f9400000 	ldr	x0, [x0]
    1c50:	f9002be0 	str	x0, [sp, #80]
    1c54:	d503201f 	nop
    1c58:	a94487e0 	ldp	x0, x1, [sp, #72]
    1c5c:	a90387e0 	stp	x0, x1, [sp, #56]
    1c60:	f94023e0 	ldr	x0, [sp, #64]
    1c64:	f9400000 	ldr	x0, [x0]
    1c68:	91006000 	add	x0, x0, #0x18
    1c6c:	f9400002 	ldr	x2, [x0]
    1c70:	f94023e0 	ldr	x0, [sp, #64]
    1c74:	f94013e1 	ldr	x1, [sp, #32]
    1c78:	d63f0040 	blr	x2
    1c7c:	f9005fe0 	str	x0, [sp, #184]
    1c80:	f9405fe0 	ldr	x0, [sp, #184]
    1c84:	97fffba7 	bl	b20 <_ZNK12_GLOBAL__N_116itanium_demangle4Node7getKindEv>
    1c88:	12001c00 	and	w0, w0, #0xff
    1c8c:	7100301f 	cmp	w0, #0xc
    1c90:	1a9f07e0 	cset	w0, ne  // ne = any
    1c94:	12001c00 	and	w0, w0, #0xff
    1c98:	7100001f 	cmp	w0, #0x0
    1c9c:	54000461 	b.ne	1d28 <_ZNK12_GLOBAL__N_116itanium_demangle13ReferenceType8collapseERNS0_12OutputStreamE+0x138>  // b.any
    1ca0:	f9405fe0 	ldr	x0, [sp, #184]
    1ca4:	f9005be0 	str	x0, [sp, #176]
    1ca8:	f9405be0 	ldr	x0, [sp, #176]
    1cac:	f9400800 	ldr	x0, [x0, #16]
    1cb0:	f90023e0 	str	x0, [sp, #64]
    1cb4:	f9405be0 	ldr	x0, [sp, #176]
    1cb8:	91006000 	add	x0, x0, #0x18
    1cbc:	f9003fe0 	str	x0, [sp, #120]
    1cc0:	9100e3e0 	add	x0, sp, #0x38
    1cc4:	f9003be0 	str	x0, [sp, #112]
    1cc8:	f9403fe0 	ldr	x0, [sp, #120]
    1ccc:	f90037e0 	str	x0, [sp, #104]
    1cd0:	3900c3f3 	strb	w19, [sp, #48]
    1cd4:	f94037e0 	ldr	x0, [sp, #104]
    1cd8:	f90033e0 	str	x0, [sp, #96]
    1cdc:	f9403be0 	ldr	x0, [sp, #112]
    1ce0:	f9002fe0 	str	x0, [sp, #88]
    1ce4:	f94033e0 	ldr	x0, [sp, #96]
    1ce8:	b9400001 	ldr	w1, [x0]
    1cec:	f9402fe0 	ldr	x0, [sp, #88]
    1cf0:	b9400000 	ldr	w0, [x0]
    1cf4:	6b00003f 	cmp	w1, w0
    1cf8:	1a9fa7e0 	cset	w0, lt  // lt = tstop
    1cfc:	12001c00 	and	w0, w0, #0xff
    1d00:	7100001f 	cmp	w0, #0x0
    1d04:	54000060 	b.eq	1d10 <_ZNK12_GLOBAL__N_116itanium_demangle13ReferenceType8collapseERNS0_12OutputStreamE+0x120>  // b.none
    1d08:	f94037e0 	ldr	x0, [sp, #104]
    1d0c:	14000003 	b	1d18 <_ZNK12_GLOBAL__N_116itanium_demangle13ReferenceType8collapseERNS0_12OutputStreamE+0x128>
    1d10:	f9403be0 	ldr	x0, [sp, #112]
    1d14:	d503201f 	nop
    1d18:	d503201f 	nop
    1d1c:	b9400000 	ldr	w0, [x0]
    1d20:	b9003be0 	str	w0, [sp, #56]
    1d24:	17ffffcf 	b	1c60 <_ZNK12_GLOBAL__N_116itanium_demangle13ReferenceType8collapseERNS0_12OutputStreamE+0x70>
    1d28:	d503201f 	nop
    1d2c:	a94387e0 	ldp	x0, x1, [sp, #56]
    1d30:	f9400bf3 	ldr	x19, [sp, #16]
    1d34:	a8cc7bfd 	ldp	x29, x30, [sp], #192
    1d38:	d65f03c0 	ret

0000000000001d3c <_ZN12_GLOBAL__N_116itanium_demangle13ReferenceTypeC1EPKNS0_4NodeENS0_13ReferenceKindE>:
    1d3c:	a9bd7bfd 	stp	x29, x30, [sp, #-48]!
    1d40:	910003fd 	mov	x29, sp
    1d44:	f90017e0 	str	x0, [sp, #40]
    1d48:	f90013e1 	str	x1, [sp, #32]
    1d4c:	b9001fe2 	str	w2, [sp, #28]
    1d50:	f94017e5 	ldr	x5, [sp, #40]
    1d54:	f94013e0 	ldr	x0, [sp, #32]
    1d58:	39402400 	ldrb	w0, [x0, #9]
    1d5c:	52800024 	mov	w4, #0x1                   	// #1
    1d60:	52800023 	mov	w3, #0x1                   	// #1
    1d64:	2a0003e2 	mov	w2, w0
    1d68:	52800181 	mov	w1, #0xc                   	// #12
    1d6c:	aa0503e0 	mov	x0, x5
    1d70:	97fffb09 	bl	994 <_ZN12_GLOBAL__N_116itanium_demangle4NodeC2ENS1_4KindENS1_5CacheES3_S3_>
    1d74:	90000000 	adrp	x0, 0 <_ZN12_GLOBAL__N_116itanium_demangle10StringViewC1EPKcS3_>
    1d78:	91000001 	add	x1, x0, #0x0
    1d7c:	f94017e0 	ldr	x0, [sp, #40]
    1d80:	f9000001 	str	x1, [x0]
    1d84:	f94017e0 	ldr	x0, [sp, #40]
    1d88:	f94013e1 	ldr	x1, [sp, #32]
    1d8c:	f9000801 	str	x1, [x0, #16]
    1d90:	f94017e0 	ldr	x0, [sp, #40]
    1d94:	b9401fe1 	ldr	w1, [sp, #28]
    1d98:	b9001801 	str	w1, [x0, #24]
    1d9c:	f94017e0 	ldr	x0, [sp, #40]
    1da0:	3900701f 	strb	wzr, [x0, #28]
    1da4:	d503201f 	nop
    1da8:	a8c37bfd 	ldp	x29, x30, [sp], #48
    1dac:	d65f03c0 	ret

0000000000001db0 <_ZNK12_GLOBAL__N_116itanium_demangle13ReferenceType19hasRHSComponentSlowERNS0_12OutputStreamE>:
    1db0:	a9be7bfd 	stp	x29, x30, [sp, #-32]!
    1db4:	910003fd 	mov	x29, sp
    1db8:	f9000fe0 	str	x0, [sp, #24]
    1dbc:	f9000be1 	str	x1, [sp, #16]
    1dc0:	f9400fe0 	ldr	x0, [sp, #24]
    1dc4:	f9400800 	ldr	x0, [x0, #16]
    1dc8:	f9400be1 	ldr	x1, [sp, #16]
    1dcc:	97fffb0b 	bl	9f8 <_ZNK12_GLOBAL__N_116itanium_demangle4Node15hasRHSComponentERNS0_12OutputStreamE>
    1dd0:	12001c00 	and	w0, w0, #0xff
    1dd4:	a8c27bfd 	ldp	x29, x30, [sp], #32
    1dd8:	d65f03c0 	ret

0000000000001ddc <_ZNK12_GLOBAL__N_116itanium_demangle13ReferenceType9printLeftERNS0_12OutputStreamE>:
    1ddc:	a9b87bfd 	stp	x29, x30, [sp, #-128]!
    1de0:	910003fd 	mov	x29, sp
    1de4:	f9000bf3 	str	x19, [sp, #16]
    1de8:	f90017e0 	str	x0, [sp, #40]
    1dec:	f90013e1 	str	x1, [sp, #32]
    1df0:	f94017e0 	ldr	x0, [sp, #40]
    1df4:	39407000 	ldrb	w0, [x0, #28]
    1df8:	7100001f 	cmp	w0, #0x0
    1dfc:	540009e1 	b.ne	1f38 <_ZNK12_GLOBAL__N_116itanium_demangle13ReferenceType9printLeftERNS0_12OutputStreamE+0x15c>  // b.any
    1e00:	f94017e0 	ldr	x0, [sp, #40]
    1e04:	91007001 	add	x1, x0, #0x1c
    1e08:	910103e0 	add	x0, sp, #0x40
    1e0c:	52800022 	mov	w2, #0x1                   	// #1
    1e10:	940018ac 	bl	80c0 <_ZN12_GLOBAL__N_116itanium_demangle14SwapAndRestoreIbEC1ERbb>
    1e14:	f94013e1 	ldr	x1, [sp, #32]
    1e18:	f94017e0 	ldr	x0, [sp, #40]
    1e1c:	97ffff75 	bl	1bf0 <_ZNK12_GLOBAL__N_116itanium_demangle13ReferenceType8collapseERNS0_12OutputStreamE>
    1e20:	a90307e0 	stp	x0, x1, [sp, #48]
    1e24:	f9401fe0 	ldr	x0, [sp, #56]
    1e28:	f9400000 	ldr	x0, [x0]
    1e2c:	91008000 	add	x0, x0, #0x20
    1e30:	f9400002 	ldr	x2, [x0]
    1e34:	f9401fe0 	ldr	x0, [sp, #56]
    1e38:	f94013e1 	ldr	x1, [sp, #32]
    1e3c:	d63f0040 	blr	x2
    1e40:	f9401fe0 	ldr	x0, [sp, #56]
    1e44:	f94013e1 	ldr	x1, [sp, #32]
    1e48:	97fffb04 	bl	a58 <_ZNK12_GLOBAL__N_116itanium_demangle4Node8hasArrayERNS0_12OutputStreamE>
    1e4c:	12001c00 	and	w0, w0, #0xff
    1e50:	7100001f 	cmp	w0, #0x0
    1e54:	54000120 	b.eq	1e78 <_ZNK12_GLOBAL__N_116itanium_demangle13ReferenceType9printLeftERNS0_12OutputStreamE+0x9c>  // b.none
    1e58:	910143e2 	add	x2, sp, #0x50
    1e5c:	90000000 	adrp	x0, 0 <_ZN12_GLOBAL__N_116itanium_demangle10StringViewC1EPKcS3_>
    1e60:	91000001 	add	x1, x0, #0x0
    1e64:	aa0203e0 	mov	x0, x2
    1e68:	97fff873 	bl	34 <_ZN12_GLOBAL__N_116itanium_demangle10StringViewC1EPKc>
    1e6c:	a9450be1 	ldp	x1, x2, [sp, #80]
    1e70:	f94013e0 	ldr	x0, [sp, #32]
    1e74:	97fffa23 	bl	700 <_ZN12_GLOBAL__N_116itanium_demangle12OutputStreampLENS0_10StringViewE>
    1e78:	f9401fe0 	ldr	x0, [sp, #56]
    1e7c:	f94013e1 	ldr	x1, [sp, #32]
    1e80:	97fffaf6 	bl	a58 <_ZNK12_GLOBAL__N_116itanium_demangle4Node8hasArrayERNS0_12OutputStreamE>
    1e84:	12001c00 	and	w0, w0, #0xff
    1e88:	7100001f 	cmp	w0, #0x0
    1e8c:	540000e1 	b.ne	1ea8 <_ZNK12_GLOBAL__N_116itanium_demangle13ReferenceType9printLeftERNS0_12OutputStreamE+0xcc>  // b.any
    1e90:	f9401fe0 	ldr	x0, [sp, #56]
    1e94:	f94013e1 	ldr	x1, [sp, #32]
    1e98:	97fffb09 	bl	abc <_ZNK12_GLOBAL__N_116itanium_demangle4Node11hasFunctionERNS0_12OutputStreamE>
    1e9c:	12001c00 	and	w0, w0, #0xff
    1ea0:	7100001f 	cmp	w0, #0x0
    1ea4:	54000060 	b.eq	1eb0 <_ZNK12_GLOBAL__N_116itanium_demangle13ReferenceType9printLeftERNS0_12OutputStreamE+0xd4>  // b.none
    1ea8:	52800020 	mov	w0, #0x1                   	// #1
    1eac:	14000002 	b	1eb4 <_ZNK12_GLOBAL__N_116itanium_demangle13ReferenceType9printLeftERNS0_12OutputStreamE+0xd8>
    1eb0:	52800000 	mov	w0, #0x0                   	// #0
    1eb4:	7100001f 	cmp	w0, #0x0
    1eb8:	54000120 	b.eq	1edc <_ZNK12_GLOBAL__N_116itanium_demangle13ReferenceType9printLeftERNS0_12OutputStreamE+0x100>  // b.none
    1ebc:	910183e2 	add	x2, sp, #0x60
    1ec0:	90000000 	adrp	x0, 0 <_ZN12_GLOBAL__N_116itanium_demangle10StringViewC1EPKcS3_>
    1ec4:	91000001 	add	x1, x0, #0x0
    1ec8:	aa0203e0 	mov	x0, x2
    1ecc:	97fff85a 	bl	34 <_ZN12_GLOBAL__N_116itanium_demangle10StringViewC1EPKc>
    1ed0:	a9460be1 	ldp	x1, x2, [sp, #96]
    1ed4:	f94013e0 	ldr	x0, [sp, #32]
    1ed8:	97fffa0a 	bl	700 <_ZN12_GLOBAL__N_116itanium_demangle12OutputStreampLENS0_10StringViewE>
    1edc:	b94033e0 	ldr	w0, [sp, #48]
    1ee0:	7100001f 	cmp	w0, #0x0
    1ee4:	54000081 	b.ne	1ef4 <_ZNK12_GLOBAL__N_116itanium_demangle13ReferenceType9printLeftERNS0_12OutputStreamE+0x118>  // b.any
    1ee8:	90000000 	adrp	x0, 0 <_ZN12_GLOBAL__N_116itanium_demangle10StringViewC1EPKcS3_>
    1eec:	91000000 	add	x0, x0, #0x0
    1ef0:	14000003 	b	1efc <_ZNK12_GLOBAL__N_116itanium_demangle13ReferenceType9printLeftERNS0_12OutputStreamE+0x120>
    1ef4:	90000000 	adrp	x0, 0 <_ZN12_GLOBAL__N_116itanium_demangle10StringViewC1EPKcS3_>
    1ef8:	91000000 	add	x0, x0, #0x0
    1efc:	9101c3e2 	add	x2, sp, #0x70
    1f00:	aa0003e1 	mov	x1, x0
    1f04:	aa0203e0 	mov	x0, x2
    1f08:	97fff84b 	bl	34 <_ZN12_GLOBAL__N_116itanium_demangle10StringViewC1EPKc>
    1f0c:	a9470be1 	ldp	x1, x2, [sp, #112]
    1f10:	f94013e0 	ldr	x0, [sp, #32]
    1f14:	97fff9fb 	bl	700 <_ZN12_GLOBAL__N_116itanium_demangle12OutputStreampLENS0_10StringViewE>
    1f18:	910103e0 	add	x0, sp, #0x40
    1f1c:	94001880 	bl	811c <_ZN12_GLOBAL__N_116itanium_demangle14SwapAndRestoreIbED1Ev>
    1f20:	14000007 	b	1f3c <_ZNK12_GLOBAL__N_116itanium_demangle13ReferenceType9printLeftERNS0_12OutputStreamE+0x160>
    1f24:	aa0003f3 	mov	x19, x0
    1f28:	910103e0 	add	x0, sp, #0x40
    1f2c:	9400187c 	bl	811c <_ZN12_GLOBAL__N_116itanium_demangle14SwapAndRestoreIbED1Ev>
    1f30:	aa1303e0 	mov	x0, x19
    1f34:	94000000 	bl	0 <_Unwind_Resume>
    1f38:	d503201f 	nop
    1f3c:	f9400bf3 	ldr	x19, [sp, #16]
    1f40:	a8c87bfd 	ldp	x29, x30, [sp], #128
    1f44:	d65f03c0 	ret

0000000000001f48 <_ZNK12_GLOBAL__N_116itanium_demangle13ReferenceType10printRightERNS0_12OutputStreamE>:
    1f48:	a9ba7bfd 	stp	x29, x30, [sp, #-96]!
    1f4c:	910003fd 	mov	x29, sp
    1f50:	f9000bf3 	str	x19, [sp, #16]
    1f54:	f90017e0 	str	x0, [sp, #40]
    1f58:	f90013e1 	str	x1, [sp, #32]
    1f5c:	f94017e0 	ldr	x0, [sp, #40]
    1f60:	39407000 	ldrb	w0, [x0, #28]
    1f64:	7100001f 	cmp	w0, #0x0
    1f68:	54000641 	b.ne	2030 <_ZNK12_GLOBAL__N_116itanium_demangle13ReferenceType10printRightERNS0_12OutputStreamE+0xe8>  // b.any
    1f6c:	f94017e0 	ldr	x0, [sp, #40]
    1f70:	91007001 	add	x1, x0, #0x1c
    1f74:	910103e0 	add	x0, sp, #0x40
    1f78:	52800022 	mov	w2, #0x1                   	// #1
    1f7c:	94001851 	bl	80c0 <_ZN12_GLOBAL__N_116itanium_demangle14SwapAndRestoreIbEC1ERbb>
    1f80:	f94013e1 	ldr	x1, [sp, #32]
    1f84:	f94017e0 	ldr	x0, [sp, #40]
    1f88:	97ffff1a 	bl	1bf0 <_ZNK12_GLOBAL__N_116itanium_demangle13ReferenceType8collapseERNS0_12OutputStreamE>
    1f8c:	a90307e0 	stp	x0, x1, [sp, #48]
    1f90:	f9401fe0 	ldr	x0, [sp, #56]
    1f94:	f94013e1 	ldr	x1, [sp, #32]
    1f98:	97fffab0 	bl	a58 <_ZNK12_GLOBAL__N_116itanium_demangle4Node8hasArrayERNS0_12OutputStreamE>
    1f9c:	12001c00 	and	w0, w0, #0xff
    1fa0:	7100001f 	cmp	w0, #0x0
    1fa4:	540000e1 	b.ne	1fc0 <_ZNK12_GLOBAL__N_116itanium_demangle13ReferenceType10printRightERNS0_12OutputStreamE+0x78>  // b.any
    1fa8:	f9401fe0 	ldr	x0, [sp, #56]
    1fac:	f94013e1 	ldr	x1, [sp, #32]
    1fb0:	97fffac3 	bl	abc <_ZNK12_GLOBAL__N_116itanium_demangle4Node11hasFunctionERNS0_12OutputStreamE>
    1fb4:	12001c00 	and	w0, w0, #0xff
    1fb8:	7100001f 	cmp	w0, #0x0
    1fbc:	54000060 	b.eq	1fc8 <_ZNK12_GLOBAL__N_116itanium_demangle13ReferenceType10printRightERNS0_12OutputStreamE+0x80>  // b.none
    1fc0:	52800020 	mov	w0, #0x1                   	// #1
    1fc4:	14000002 	b	1fcc <_ZNK12_GLOBAL__N_116itanium_demangle13ReferenceType10printRightERNS0_12OutputStreamE+0x84>
    1fc8:	52800000 	mov	w0, #0x0                   	// #0
    1fcc:	7100001f 	cmp	w0, #0x0
    1fd0:	54000120 	b.eq	1ff4 <_ZNK12_GLOBAL__N_116itanium_demangle13ReferenceType10printRightERNS0_12OutputStreamE+0xac>  // b.none
    1fd4:	910143e2 	add	x2, sp, #0x50
    1fd8:	90000000 	adrp	x0, 0 <_ZN12_GLOBAL__N_116itanium_demangle10StringViewC1EPKcS3_>
    1fdc:	91000001 	add	x1, x0, #0x0
    1fe0:	aa0203e0 	mov	x0, x2
    1fe4:	97fff814 	bl	34 <_ZN12_GLOBAL__N_116itanium_demangle10StringViewC1EPKc>
    1fe8:	a9450be1 	ldp	x1, x2, [sp, #80]
    1fec:	f94013e0 	ldr	x0, [sp, #32]
    1ff0:	97fff9c4 	bl	700 <_ZN12_GLOBAL__N_116itanium_demangle12OutputStreampLENS0_10StringViewE>
    1ff4:	f9401fe0 	ldr	x0, [sp, #56]
    1ff8:	f9400000 	ldr	x0, [x0]
    1ffc:	9100a000 	add	x0, x0, #0x28
    2000:	f9400002 	ldr	x2, [x0]
    2004:	f9401fe0 	ldr	x0, [sp, #56]
    2008:	f94013e1 	ldr	x1, [sp, #32]
    200c:	d63f0040 	blr	x2
    2010:	910103e0 	add	x0, sp, #0x40
    2014:	94001842 	bl	811c <_ZN12_GLOBAL__N_116itanium_demangle14SwapAndRestoreIbED1Ev>
    2018:	14000007 	b	2034 <_ZNK12_GLOBAL__N_116itanium_demangle13ReferenceType10printRightERNS0_12OutputStreamE+0xec>
    201c:	aa0003f3 	mov	x19, x0
    2020:	910103e0 	add	x0, sp, #0x40
    2024:	9400183e 	bl	811c <_ZN12_GLOBAL__N_116itanium_demangle14SwapAndRestoreIbED1Ev>
    2028:	aa1303e0 	mov	x0, x19
    202c:	94000000 	bl	0 <_Unwind_Resume>
    2030:	d503201f 	nop
    2034:	f9400bf3 	ldr	x19, [sp, #16]
    2038:	a8c67bfd 	ldp	x29, x30, [sp], #96
    203c:	d65f03c0 	ret

0000000000002040 <_ZN12_GLOBAL__N_116itanium_demangle19PointerToMemberTypeC1EPKNS0_4NodeES4_>:
    2040:	a9bd7bfd 	stp	x29, x30, [sp, #-48]!
    2044:	910003fd 	mov	x29, sp
    2048:	f90017e0 	str	x0, [sp, #40]
    204c:	f90013e1 	str	x1, [sp, #32]
    2050:	f9000fe2 	str	x2, [sp, #24]
    2054:	f94017e5 	ldr	x5, [sp, #40]
    2058:	f9400fe0 	ldr	x0, [sp, #24]
    205c:	39402400 	ldrb	w0, [x0, #9]
    2060:	52800024 	mov	w4, #0x1                   	// #1
    2064:	52800023 	mov	w3, #0x1                   	// #1
    2068:	2a0003e2 	mov	w2, w0
    206c:	528001a1 	mov	w1, #0xd                   	// #13
    2070:	aa0503e0 	mov	x0, x5
    2074:	97fffa48 	bl	994 <_ZN12_GLOBAL__N_116itanium_demangle4NodeC2ENS1_4KindENS1_5CacheES3_S3_>
    2078:	90000000 	adrp	x0, 0 <_ZN12_GLOBAL__N_116itanium_demangle10StringViewC1EPKcS3_>
    207c:	91000001 	add	x1, x0, #0x0
    2080:	f94017e0 	ldr	x0, [sp, #40]
    2084:	f9000001 	str	x1, [x0]
    2088:	f94017e0 	ldr	x0, [sp, #40]
    208c:	f94013e1 	ldr	x1, [sp, #32]
    2090:	f9000801 	str	x1, [x0, #16]
    2094:	f94017e0 	ldr	x0, [sp, #40]
    2098:	f9400fe1 	ldr	x1, [sp, #24]
    209c:	f9000c01 	str	x1, [x0, #24]
    20a0:	d503201f 	nop
    20a4:	a8c37bfd 	ldp	x29, x30, [sp], #48
    20a8:	d65f03c0 	ret

00000000000020ac <_ZNK12_GLOBAL__N_116itanium_demangle19PointerToMemberType19hasRHSComponentSlowERNS0_12OutputStreamE>:
    20ac:	a9be7bfd 	stp	x29, x30, [sp, #-32]!
    20b0:	910003fd 	mov	x29, sp
    20b4:	f9000fe0 	str	x0, [sp, #24]
    20b8:	f9000be1 	str	x1, [sp, #16]
    20bc:	f9400fe0 	ldr	x0, [sp, #24]
    20c0:	f9400c00 	ldr	x0, [x0, #24]
    20c4:	f9400be1 	ldr	x1, [sp, #16]
    20c8:	97fffa4c 	bl	9f8 <_ZNK12_GLOBAL__N_116itanium_demangle4Node15hasRHSComponentERNS0_12OutputStreamE>
    20cc:	12001c00 	and	w0, w0, #0xff
    20d0:	a8c27bfd 	ldp	x29, x30, [sp], #32
    20d4:	d65f03c0 	ret

00000000000020d8 <_ZNK12_GLOBAL__N_116itanium_demangle19PointerToMemberType9printLeftERNS0_12OutputStreamE>:
    20d8:	a9bb7bfd 	stp	x29, x30, [sp, #-80]!
    20dc:	910003fd 	mov	x29, sp
    20e0:	f9000fe0 	str	x0, [sp, #24]
    20e4:	f9000be1 	str	x1, [sp, #16]
    20e8:	f9400fe0 	ldr	x0, [sp, #24]
    20ec:	f9400c00 	ldr	x0, [x0, #24]
    20f0:	f9400000 	ldr	x0, [x0]
    20f4:	91008000 	add	x0, x0, #0x20
    20f8:	f9400002 	ldr	x2, [x0]
    20fc:	f9400fe0 	ldr	x0, [sp, #24]
    2100:	f9400c00 	ldr	x0, [x0, #24]
    2104:	f9400be1 	ldr	x1, [sp, #16]
    2108:	d63f0040 	blr	x2
    210c:	f9400fe0 	ldr	x0, [sp, #24]
    2110:	f9400c00 	ldr	x0, [x0, #24]
    2114:	f9400be1 	ldr	x1, [sp, #16]
    2118:	97fffa50 	bl	a58 <_ZNK12_GLOBAL__N_116itanium_demangle4Node8hasArrayERNS0_12OutputStreamE>
    211c:	12001c00 	and	w0, w0, #0xff
    2120:	7100001f 	cmp	w0, #0x0
    2124:	54000101 	b.ne	2144 <_ZNK12_GLOBAL__N_116itanium_demangle19PointerToMemberType9printLeftERNS0_12OutputStreamE+0x6c>  // b.any
    2128:	f9400fe0 	ldr	x0, [sp, #24]
    212c:	f9400c00 	ldr	x0, [x0, #24]
    2130:	f9400be1 	ldr	x1, [sp, #16]
    2134:	97fffa62 	bl	abc <_ZNK12_GLOBAL__N_116itanium_demangle4Node11hasFunctionERNS0_12OutputStreamE>
    2138:	12001c00 	and	w0, w0, #0xff
    213c:	7100001f 	cmp	w0, #0x0
    2140:	54000060 	b.eq	214c <_ZNK12_GLOBAL__N_116itanium_demangle19PointerToMemberType9printLeftERNS0_12OutputStreamE+0x74>  // b.none
    2144:	52800020 	mov	w0, #0x1                   	// #1
    2148:	14000002 	b	2150 <_ZNK12_GLOBAL__N_116itanium_demangle19PointerToMemberType9printLeftERNS0_12OutputStreamE+0x78>
    214c:	52800000 	mov	w0, #0x0                   	// #0
    2150:	7100001f 	cmp	w0, #0x0
    2154:	54000140 	b.eq	217c <_ZNK12_GLOBAL__N_116itanium_demangle19PointerToMemberType9printLeftERNS0_12OutputStreamE+0xa4>  // b.none
    2158:	910083e2 	add	x2, sp, #0x20
    215c:	90000000 	adrp	x0, 0 <_ZN12_GLOBAL__N_116itanium_demangle10StringViewC1EPKcS3_>
    2160:	91000001 	add	x1, x0, #0x0
    2164:	aa0203e0 	mov	x0, x2
    2168:	97fff7b3 	bl	34 <_ZN12_GLOBAL__N_116itanium_demangle10StringViewC1EPKc>
    216c:	a9420be1 	ldp	x1, x2, [sp, #32]
    2170:	f9400be0 	ldr	x0, [sp, #16]
    2174:	97fff963 	bl	700 <_ZN12_GLOBAL__N_116itanium_demangle12OutputStreampLENS0_10StringViewE>
    2178:	14000009 	b	219c <_ZNK12_GLOBAL__N_116itanium_demangle19PointerToMemberType9printLeftERNS0_12OutputStreamE+0xc4>
    217c:	9100c3e2 	add	x2, sp, #0x30
    2180:	90000000 	adrp	x0, 0 <_ZN12_GLOBAL__N_116itanium_demangle10StringViewC1EPKcS3_>
    2184:	91000001 	add	x1, x0, #0x0
    2188:	aa0203e0 	mov	x0, x2
    218c:	97fff7aa 	bl	34 <_ZN12_GLOBAL__N_116itanium_demangle10StringViewC1EPKc>
    2190:	a9430be1 	ldp	x1, x2, [sp, #48]
    2194:	f9400be0 	ldr	x0, [sp, #16]
    2198:	97fff95a 	bl	700 <_ZN12_GLOBAL__N_116itanium_demangle12OutputStreampLENS0_10StringViewE>
    219c:	f9400fe0 	ldr	x0, [sp, #24]
    21a0:	f9400800 	ldr	x0, [x0, #16]
    21a4:	f9400be1 	ldr	x1, [sp, #16]
    21a8:	97fffa7c 	bl	b98 <_ZNK12_GLOBAL__N_116itanium_demangle4Node5printERNS0_12OutputStreamE>
    21ac:	910103e2 	add	x2, sp, #0x40
    21b0:	90000000 	adrp	x0, 0 <_ZN12_GLOBAL__N_116itanium_demangle10StringViewC1EPKcS3_>
    21b4:	91000001 	add	x1, x0, #0x0
    21b8:	aa0203e0 	mov	x0, x2
    21bc:	97fff79e 	bl	34 <_ZN12_GLOBAL__N_116itanium_demangle10StringViewC1EPKc>
    21c0:	a9440be1 	ldp	x1, x2, [sp, #64]
    21c4:	f9400be0 	ldr	x0, [sp, #16]
    21c8:	97fff94e 	bl	700 <_ZN12_GLOBAL__N_116itanium_demangle12OutputStreampLENS0_10StringViewE>
    21cc:	d503201f 	nop
    21d0:	a8c57bfd 	ldp	x29, x30, [sp], #80
    21d4:	d65f03c0 	ret

00000000000021d8 <_ZNK12_GLOBAL__N_116itanium_demangle19PointerToMemberType10printRightERNS0_12OutputStreamE>:
    21d8:	a9bd7bfd 	stp	x29, x30, [sp, #-48]!
    21dc:	910003fd 	mov	x29, sp
    21e0:	f9000fe0 	str	x0, [sp, #24]
    21e4:	f9000be1 	str	x1, [sp, #16]
    21e8:	f9400fe0 	ldr	x0, [sp, #24]
    21ec:	f9400c00 	ldr	x0, [x0, #24]
    21f0:	f9400be1 	ldr	x1, [sp, #16]
    21f4:	97fffa19 	bl	a58 <_ZNK12_GLOBAL__N_116itanium_demangle4Node8hasArrayERNS0_12OutputStreamE>
    21f8:	12001c00 	and	w0, w0, #0xff
    21fc:	7100001f 	cmp	w0, #0x0
    2200:	54000101 	b.ne	2220 <_ZNK12_GLOBAL__N_116itanium_demangle19PointerToMemberType10printRightERNS0_12OutputStreamE+0x48>  // b.any
    2204:	f9400fe0 	ldr	x0, [sp, #24]
    2208:	f9400c00 	ldr	x0, [x0, #24]
    220c:	f9400be1 	ldr	x1, [sp, #16]
    2210:	97fffa2b 	bl	abc <_ZNK12_GLOBAL__N_116itanium_demangle4Node11hasFunctionERNS0_12OutputStreamE>
    2214:	12001c00 	and	w0, w0, #0xff
    2218:	7100001f 	cmp	w0, #0x0
    221c:	54000060 	b.eq	2228 <_ZNK12_GLOBAL__N_116itanium_demangle19PointerToMemberType10printRightERNS0_12OutputStreamE+0x50>  // b.none
    2220:	52800020 	mov	w0, #0x1                   	// #1
    2224:	14000002 	b	222c <_ZNK12_GLOBAL__N_116itanium_demangle19PointerToMemberType10printRightERNS0_12OutputStreamE+0x54>
    2228:	52800000 	mov	w0, #0x0                   	// #0
    222c:	7100001f 	cmp	w0, #0x0
    2230:	54000120 	b.eq	2254 <_ZNK12_GLOBAL__N_116itanium_demangle19PointerToMemberType10printRightERNS0_12OutputStreamE+0x7c>  // b.none
    2234:	910083e2 	add	x2, sp, #0x20
    2238:	90000000 	adrp	x0, 0 <_ZN12_GLOBAL__N_116itanium_demangle10StringViewC1EPKcS3_>
    223c:	91000001 	add	x1, x0, #0x0
    2240:	aa0203e0 	mov	x0, x2
    2244:	97fff77c 	bl	34 <_ZN12_GLOBAL__N_116itanium_demangle10StringViewC1EPKc>
    2248:	a9420be1 	ldp	x1, x2, [sp, #32]
    224c:	f9400be0 	ldr	x0, [sp, #16]
    2250:	97fff92c 	bl	700 <_ZN12_GLOBAL__N_116itanium_demangle12OutputStreampLENS0_10StringViewE>
    2254:	f9400fe0 	ldr	x0, [sp, #24]
    2258:	f9400c00 	ldr	x0, [x0, #24]
    225c:	f9400000 	ldr	x0, [x0]
    2260:	9100a000 	add	x0, x0, #0x28
    2264:	f9400002 	ldr	x2, [x0]
    2268:	f9400fe0 	ldr	x0, [sp, #24]
    226c:	f9400c00 	ldr	x0, [x0, #24]
    2270:	f9400be1 	ldr	x1, [sp, #16]
    2274:	d63f0040 	blr	x2
    2278:	d503201f 	nop
    227c:	a8c37bfd 	ldp	x29, x30, [sp], #48
    2280:	d65f03c0 	ret

0000000000002284 <_ZN12_GLOBAL__N_116itanium_demangle9ArrayTypeC1EPKNS0_4NodeEPS2_>:
    2284:	a9bd7bfd 	stp	x29, x30, [sp, #-48]!
    2288:	910003fd 	mov	x29, sp
    228c:	f90017e0 	str	x0, [sp, #40]
    2290:	f90013e1 	str	x1, [sp, #32]
    2294:	f9000fe2 	str	x2, [sp, #24]
    2298:	f94017e0 	ldr	x0, [sp, #40]
    229c:	52800024 	mov	w4, #0x1                   	// #1
    22a0:	52800003 	mov	w3, #0x0                   	// #0
    22a4:	52800002 	mov	w2, #0x0                   	// #0
    22a8:	528001c1 	mov	w1, #0xe                   	// #14
    22ac:	97fff9ba 	bl	994 <_ZN12_GLOBAL__N_116itanium_demangle4NodeC2ENS1_4KindENS1_5CacheES3_S3_>
    22b0:	90000000 	adrp	x0, 0 <_ZN12_GLOBAL__N_116itanium_demangle10StringViewC1EPKcS3_>
    22b4:	91000001 	add	x1, x0, #0x0
    22b8:	f94017e0 	ldr	x0, [sp, #40]
    22bc:	f9000001 	str	x1, [x0]
    22c0:	f94017e0 	ldr	x0, [sp, #40]
    22c4:	f94013e1 	ldr	x1, [sp, #32]
    22c8:	f9000801 	str	x1, [x0, #16]
    22cc:	f94017e0 	ldr	x0, [sp, #40]
    22d0:	f9400fe1 	ldr	x1, [sp, #24]
    22d4:	f9000c01 	str	x1, [x0, #24]
    22d8:	d503201f 	nop
    22dc:	a8c37bfd 	ldp	x29, x30, [sp], #48
    22e0:	d65f03c0 	ret

00000000000022e4 <_ZNK12_GLOBAL__N_116itanium_demangle9ArrayType19hasRHSComponentSlowERNS0_12OutputStreamE>:
    22e4:	d10043ff 	sub	sp, sp, #0x10
    22e8:	f90007e0 	str	x0, [sp, #8]
    22ec:	f90003e1 	str	x1, [sp]
    22f0:	52800020 	mov	w0, #0x1                   	// #1
    22f4:	910043ff 	add	sp, sp, #0x10
    22f8:	d65f03c0 	ret

00000000000022fc <_ZNK12_GLOBAL__N_116itanium_demangle9ArrayType12hasArraySlowERNS0_12OutputStreamE>:
    22fc:	d10043ff 	sub	sp, sp, #0x10
    2300:	f90007e0 	str	x0, [sp, #8]
    2304:	f90003e1 	str	x1, [sp]
    2308:	52800020 	mov	w0, #0x1                   	// #1
    230c:	910043ff 	add	sp, sp, #0x10
    2310:	d65f03c0 	ret

0000000000002314 <_ZNK12_GLOBAL__N_116itanium_demangle9ArrayType9printLeftERNS0_12OutputStreamE>:
    2314:	a9be7bfd 	stp	x29, x30, [sp, #-32]!
    2318:	910003fd 	mov	x29, sp
    231c:	f9000fe0 	str	x0, [sp, #24]
    2320:	f9000be1 	str	x1, [sp, #16]
    2324:	f9400fe0 	ldr	x0, [sp, #24]
    2328:	f9400800 	ldr	x0, [x0, #16]
    232c:	f9400000 	ldr	x0, [x0]
    2330:	91008000 	add	x0, x0, #0x20
    2334:	f9400002 	ldr	x2, [x0]
    2338:	f9400fe0 	ldr	x0, [sp, #24]
    233c:	f9400800 	ldr	x0, [x0, #16]
    2340:	f9400be1 	ldr	x1, [sp, #16]
    2344:	d63f0040 	blr	x2
    2348:	d503201f 	nop
    234c:	a8c27bfd 	ldp	x29, x30, [sp], #32
    2350:	d65f03c0 	ret

0000000000002354 <_ZNK12_GLOBAL__N_116itanium_demangle9ArrayType10printRightERNS0_12OutputStreamE>:
    2354:	a9bb7bfd 	stp	x29, x30, [sp, #-80]!
    2358:	910003fd 	mov	x29, sp
    235c:	f9000fe0 	str	x0, [sp, #24]
    2360:	f9000be1 	str	x1, [sp, #16]
    2364:	f9400be0 	ldr	x0, [sp, #16]
    2368:	97fff956 	bl	8c0 <_ZNK12_GLOBAL__N_116itanium_demangle12OutputStream4backEv>
    236c:	12001c00 	and	w0, w0, #0xff
    2370:	7101741f 	cmp	w0, #0x5d
    2374:	1a9f07e0 	cset	w0, ne  // ne = any
    2378:	12001c00 	and	w0, w0, #0xff
    237c:	7100001f 	cmp	w0, #0x0
    2380:	54000120 	b.eq	23a4 <_ZNK12_GLOBAL__N_116itanium_demangle9ArrayType10printRightERNS0_12OutputStreamE+0x50>  // b.none
    2384:	910083e2 	add	x2, sp, #0x20
    2388:	90000000 	adrp	x0, 0 <_ZN12_GLOBAL__N_116itanium_demangle10StringViewC1EPKcS3_>
    238c:	91000001 	add	x1, x0, #0x0
    2390:	aa0203e0 	mov	x0, x2
    2394:	97fff728 	bl	34 <_ZN12_GLOBAL__N_116itanium_demangle10StringViewC1EPKc>
    2398:	a9420be1 	ldp	x1, x2, [sp, #32]
    239c:	f9400be0 	ldr	x0, [sp, #16]
    23a0:	97fff8d8 	bl	700 <_ZN12_GLOBAL__N_116itanium_demangle12OutputStreampLENS0_10StringViewE>
    23a4:	9100c3e2 	add	x2, sp, #0x30
    23a8:	90000000 	adrp	x0, 0 <_ZN12_GLOBAL__N_116itanium_demangle10StringViewC1EPKcS3_>
    23ac:	91000001 	add	x1, x0, #0x0
    23b0:	aa0203e0 	mov	x0, x2
    23b4:	97fff720 	bl	34 <_ZN12_GLOBAL__N_116itanium_demangle10StringViewC1EPKc>
    23b8:	a9430be1 	ldp	x1, x2, [sp, #48]
    23bc:	f9400be0 	ldr	x0, [sp, #16]
    23c0:	97fff8d0 	bl	700 <_ZN12_GLOBAL__N_116itanium_demangle12OutputStreampLENS0_10StringViewE>
    23c4:	f9400fe0 	ldr	x0, [sp, #24]
    23c8:	f9400c00 	ldr	x0, [x0, #24]
    23cc:	f100001f 	cmp	x0, #0x0
    23d0:	540000a0 	b.eq	23e4 <_ZNK12_GLOBAL__N_116itanium_demangle9ArrayType10printRightERNS0_12OutputStreamE+0x90>  // b.none
    23d4:	f9400fe0 	ldr	x0, [sp, #24]
    23d8:	f9400c00 	ldr	x0, [x0, #24]
    23dc:	f9400be1 	ldr	x1, [sp, #16]
    23e0:	97fff9ee 	bl	b98 <_ZNK12_GLOBAL__N_116itanium_demangle4Node5printERNS0_12OutputStreamE>
    23e4:	910103e2 	add	x2, sp, #0x40
    23e8:	90000000 	adrp	x0, 0 <_ZN12_GLOBAL__N_116itanium_demangle10StringViewC1EPKcS3_>
    23ec:	91000001 	add	x1, x0, #0x0
    23f0:	aa0203e0 	mov	x0, x2
    23f4:	97fff710 	bl	34 <_ZN12_GLOBAL__N_116itanium_demangle10StringViewC1EPKc>
    23f8:	a9440be1 	ldp	x1, x2, [sp, #64]
    23fc:	f9400be0 	ldr	x0, [sp, #16]
    2400:	97fff8c0 	bl	700 <_ZN12_GLOBAL__N_116itanium_demangle12OutputStreampLENS0_10StringViewE>
    2404:	f9400fe0 	ldr	x0, [sp, #24]
    2408:	f9400800 	ldr	x0, [x0, #16]
    240c:	f9400000 	ldr	x0, [x0]
    2410:	9100a000 	add	x0, x0, #0x28
    2414:	f9400002 	ldr	x2, [x0]
    2418:	f9400fe0 	ldr	x0, [sp, #24]
    241c:	f9400800 	ldr	x0, [x0, #16]
    2420:	f9400be1 	ldr	x1, [sp, #16]
    2424:	d63f0040 	blr	x2
    2428:	d503201f 	nop
    242c:	a8c57bfd 	ldp	x29, x30, [sp], #80
    2430:	d65f03c0 	ret

0000000000002434 <_ZN12_GLOBAL__N_116itanium_demangle12FunctionTypeC1EPKNS0_4NodeENS0_9NodeArrayENS0_10QualifiersENS0_15FunctionRefQualES4_>:
    2434:	a9bc7bfd 	stp	x29, x30, [sp, #-64]!
    2438:	910003fd 	mov	x29, sp
    243c:	f9001fe0 	str	x0, [sp, #56]
    2440:	f9001be1 	str	x1, [sp, #48]
    2444:	a9020fe2 	stp	x2, x3, [sp, #32]
    2448:	b9001fe4 	str	w4, [sp, #28]
    244c:	39006fe5 	strb	w5, [sp, #27]
    2450:	f9000be6 	str	x6, [sp, #16]
    2454:	f9401fe0 	ldr	x0, [sp, #56]
    2458:	52800004 	mov	w4, #0x0                   	// #0
    245c:	52800023 	mov	w3, #0x1                   	// #1
    2460:	52800002 	mov	w2, #0x0                   	// #0
    2464:	528001e1 	mov	w1, #0xf                   	// #15
    2468:	97fff94b 	bl	994 <_ZN12_GLOBAL__N_116itanium_demangle4NodeC2ENS1_4KindENS1_5CacheES3_S3_>
    246c:	90000000 	adrp	x0, 0 <_ZN12_GLOBAL__N_116itanium_demangle10StringViewC1EPKcS3_>
    2470:	91000001 	add	x1, x0, #0x0
    2474:	f9401fe0 	ldr	x0, [sp, #56]
    2478:	f9000001 	str	x1, [x0]
    247c:	f9401fe0 	ldr	x0, [sp, #56]
    2480:	f9401be1 	ldr	x1, [sp, #48]
    2484:	f9000801 	str	x1, [x0, #16]
    2488:	f9401fe2 	ldr	x2, [sp, #56]
    248c:	a94207e0 	ldp	x0, x1, [sp, #32]
    2490:	a9018440 	stp	x0, x1, [x2, #24]
    2494:	f9401fe0 	ldr	x0, [sp, #56]
    2498:	b9401fe1 	ldr	w1, [sp, #28]
    249c:	b9002801 	str	w1, [x0, #40]
    24a0:	f9401fe0 	ldr	x0, [sp, #56]
    24a4:	39406fe1 	ldrb	w1, [sp, #27]
    24a8:	3900b001 	strb	w1, [x0, #44]
    24ac:	f9401fe0 	ldr	x0, [sp, #56]
    24b0:	f9400be1 	ldr	x1, [sp, #16]
    24b4:	f9001801 	str	x1, [x0, #48]
    24b8:	d503201f 	nop
    24bc:	a8c47bfd 	ldp	x29, x30, [sp], #64
    24c0:	d65f03c0 	ret

00000000000024c4 <_ZNK12_GLOBAL__N_116itanium_demangle12FunctionType19hasRHSComponentSlowERNS0_12OutputStreamE>:
    24c4:	d10043ff 	sub	sp, sp, #0x10
    24c8:	f90007e0 	str	x0, [sp, #8]
    24cc:	f90003e1 	str	x1, [sp]
    24d0:	52800020 	mov	w0, #0x1                   	// #1
    24d4:	910043ff 	add	sp, sp, #0x10
    24d8:	d65f03c0 	ret

00000000000024dc <_ZNK12_GLOBAL__N_116itanium_demangle12FunctionType15hasFunctionSlowERNS0_12OutputStreamE>:
    24dc:	d10043ff 	sub	sp, sp, #0x10
    24e0:	f90007e0 	str	x0, [sp, #8]
    24e4:	f90003e1 	str	x1, [sp]
    24e8:	52800020 	mov	w0, #0x1                   	// #1
    24ec:	910043ff 	add	sp, sp, #0x10
    24f0:	d65f03c0 	ret

00000000000024f4 <_ZNK12_GLOBAL__N_116itanium_demangle12FunctionType9printLeftERNS0_12OutputStreamE>:
    24f4:	a9bd7bfd 	stp	x29, x30, [sp, #-48]!
    24f8:	910003fd 	mov	x29, sp
    24fc:	f9000fe0 	str	x0, [sp, #24]
    2500:	f9000be1 	str	x1, [sp, #16]
    2504:	f9400fe0 	ldr	x0, [sp, #24]
    2508:	f9400800 	ldr	x0, [x0, #16]
    250c:	f9400000 	ldr	x0, [x0]
    2510:	91008000 	add	x0, x0, #0x20
    2514:	f9400002 	ldr	x2, [x0]
    2518:	f9400fe0 	ldr	x0, [sp, #24]
    251c:	f9400800 	ldr	x0, [x0, #16]
    2520:	f9400be1 	ldr	x1, [sp, #16]
    2524:	d63f0040 	blr	x2
    2528:	910083e2 	add	x2, sp, #0x20
    252c:	90000000 	adrp	x0, 0 <_ZN12_GLOBAL__N_116itanium_demangle10StringViewC1EPKcS3_>
    2530:	91000001 	add	x1, x0, #0x0
    2534:	aa0203e0 	mov	x0, x2
    2538:	97fff6bf 	bl	34 <_ZN12_GLOBAL__N_116itanium_demangle10StringViewC1EPKc>
    253c:	a9420be1 	ldp	x1, x2, [sp, #32]
    2540:	f9400be0 	ldr	x0, [sp, #16]
    2544:	97fff86f 	bl	700 <_ZN12_GLOBAL__N_116itanium_demangle12OutputStreampLENS0_10StringViewE>
    2548:	d503201f 	nop
    254c:	a8c37bfd 	ldp	x29, x30, [sp], #48
    2550:	d65f03c0 	ret

0000000000002554 <_ZNK12_GLOBAL__N_116itanium_demangle12FunctionType10printRightERNS0_12OutputStreamE>:
    2554:	a9b77bfd 	stp	x29, x30, [sp, #-144]!
    2558:	910003fd 	mov	x29, sp
    255c:	f9000fe0 	str	x0, [sp, #24]
    2560:	f9000be1 	str	x1, [sp, #16]
    2564:	910083e2 	add	x2, sp, #0x20
    2568:	90000000 	adrp	x0, 0 <_ZN12_GLOBAL__N_116itanium_demangle10StringViewC1EPKcS3_>
    256c:	91000001 	add	x1, x0, #0x0
    2570:	aa0203e0 	mov	x0, x2
    2574:	97fff6b0 	bl	34 <_ZN12_GLOBAL__N_116itanium_demangle10StringViewC1EPKc>
    2578:	a9420be1 	ldp	x1, x2, [sp, #32]
    257c:	f9400be0 	ldr	x0, [sp, #16]
    2580:	97fff860 	bl	700 <_ZN12_GLOBAL__N_116itanium_demangle12OutputStreampLENS0_10StringViewE>
    2584:	f9400fe0 	ldr	x0, [sp, #24]
    2588:	91006000 	add	x0, x0, #0x18
    258c:	f9400be1 	ldr	x1, [sp, #16]
    2590:	97fff9e9 	bl	d34 <_ZNK12_GLOBAL__N_116itanium_demangle9NodeArray14printWithCommaERNS0_12OutputStreamE>
    2594:	9100c3e2 	add	x2, sp, #0x30
    2598:	90000000 	adrp	x0, 0 <_ZN12_GLOBAL__N_116itanium_demangle10StringViewC1EPKcS3_>
    259c:	91000001 	add	x1, x0, #0x0
    25a0:	aa0203e0 	mov	x0, x2
    25a4:	97fff6a4 	bl	34 <_ZN12_GLOBAL__N_116itanium_demangle10StringViewC1EPKc>
    25a8:	a9430be1 	ldp	x1, x2, [sp, #48]
    25ac:	f9400be0 	ldr	x0, [sp, #16]
    25b0:	97fff854 	bl	700 <_ZN12_GLOBAL__N_116itanium_demangle12OutputStreampLENS0_10StringViewE>
    25b4:	f9400fe0 	ldr	x0, [sp, #24]
    25b8:	f9400800 	ldr	x0, [x0, #16]
    25bc:	f9400000 	ldr	x0, [x0]
    25c0:	9100a000 	add	x0, x0, #0x28
    25c4:	f9400002 	ldr	x2, [x0]
    25c8:	f9400fe0 	ldr	x0, [sp, #24]
    25cc:	f9400800 	ldr	x0, [x0, #16]
    25d0:	f9400be1 	ldr	x1, [sp, #16]
    25d4:	d63f0040 	blr	x2
    25d8:	f9400fe0 	ldr	x0, [sp, #24]
    25dc:	b9402800 	ldr	w0, [x0, #40]
    25e0:	12000000 	and	w0, w0, #0x1
    25e4:	7100001f 	cmp	w0, #0x0
    25e8:	54000120 	b.eq	260c <_ZNK12_GLOBAL__N_116itanium_demangle12FunctionType10printRightERNS0_12OutputStreamE+0xb8>  // b.none
    25ec:	910103e2 	add	x2, sp, #0x40
    25f0:	90000000 	adrp	x0, 0 <_ZN12_GLOBAL__N_116itanium_demangle10StringViewC1EPKcS3_>
    25f4:	91000001 	add	x1, x0, #0x0
    25f8:	aa0203e0 	mov	x0, x2
    25fc:	97fff68e 	bl	34 <_ZN12_GLOBAL__N_116itanium_demangle10StringViewC1EPKc>
    2600:	a9440be1 	ldp	x1, x2, [sp, #64]
    2604:	f9400be0 	ldr	x0, [sp, #16]
    2608:	97fff83e 	bl	700 <_ZN12_GLOBAL__N_116itanium_demangle12OutputStreampLENS0_10StringViewE>
    260c:	f9400fe0 	ldr	x0, [sp, #24]
    2610:	b9402800 	ldr	w0, [x0, #40]
    2614:	121f0000 	and	w0, w0, #0x2
    2618:	7100001f 	cmp	w0, #0x0
    261c:	54000120 	b.eq	2640 <_ZNK12_GLOBAL__N_116itanium_demangle12FunctionType10printRightERNS0_12OutputStreamE+0xec>  // b.none
    2620:	910143e2 	add	x2, sp, #0x50
    2624:	90000000 	adrp	x0, 0 <_ZN12_GLOBAL__N_116itanium_demangle10StringViewC1EPKcS3_>
    2628:	91000001 	add	x1, x0, #0x0
    262c:	aa0203e0 	mov	x0, x2
    2630:	97fff681 	bl	34 <_ZN12_GLOBAL__N_116itanium_demangle10StringViewC1EPKc>
    2634:	a9450be1 	ldp	x1, x2, [sp, #80]
    2638:	f9400be0 	ldr	x0, [sp, #16]
    263c:	97fff831 	bl	700 <_ZN12_GLOBAL__N_116itanium_demangle12OutputStreampLENS0_10StringViewE>
    2640:	f9400fe0 	ldr	x0, [sp, #24]
    2644:	b9402800 	ldr	w0, [x0, #40]
    2648:	121e0000 	and	w0, w0, #0x4
    264c:	7100001f 	cmp	w0, #0x0
    2650:	54000120 	b.eq	2674 <_ZNK12_GLOBAL__N_116itanium_demangle12FunctionType10printRightERNS0_12OutputStreamE+0x120>  // b.none
    2654:	910183e2 	add	x2, sp, #0x60
    2658:	90000000 	adrp	x0, 0 <_ZN12_GLOBAL__N_116itanium_demangle10StringViewC1EPKcS3_>
    265c:	91000001 	add	x1, x0, #0x0
    2660:	aa0203e0 	mov	x0, x2
    2664:	97fff674 	bl	34 <_ZN12_GLOBAL__N_116itanium_demangle10StringViewC1EPKc>
    2668:	a9460be1 	ldp	x1, x2, [sp, #96]
    266c:	f9400be0 	ldr	x0, [sp, #16]
    2670:	97fff824 	bl	700 <_ZN12_GLOBAL__N_116itanium_demangle12OutputStreampLENS0_10StringViewE>
    2674:	f9400fe0 	ldr	x0, [sp, #24]
    2678:	3940b000 	ldrb	w0, [x0, #44]
    267c:	7100041f 	cmp	w0, #0x1
    2680:	54000141 	b.ne	26a8 <_ZNK12_GLOBAL__N_116itanium_demangle12FunctionType10printRightERNS0_12OutputStreamE+0x154>  // b.any
    2684:	9101c3e2 	add	x2, sp, #0x70
    2688:	90000000 	adrp	x0, 0 <_ZN12_GLOBAL__N_116itanium_demangle10StringViewC1EPKcS3_>
    268c:	91000001 	add	x1, x0, #0x0
    2690:	aa0203e0 	mov	x0, x2
    2694:	97fff668 	bl	34 <_ZN12_GLOBAL__N_116itanium_demangle10StringViewC1EPKc>
    2698:	a9470be1 	ldp	x1, x2, [sp, #112]
    269c:	f9400be0 	ldr	x0, [sp, #16]
    26a0:	97fff818 	bl	700 <_ZN12_GLOBAL__N_116itanium_demangle12OutputStreampLENS0_10StringViewE>
    26a4:	1400000d 	b	26d8 <_ZNK12_GLOBAL__N_116itanium_demangle12FunctionType10printRightERNS0_12OutputStreamE+0x184>
    26a8:	f9400fe0 	ldr	x0, [sp, #24]
    26ac:	3940b000 	ldrb	w0, [x0, #44]
    26b0:	7100081f 	cmp	w0, #0x2
    26b4:	54000121 	b.ne	26d8 <_ZNK12_GLOBAL__N_116itanium_demangle12FunctionType10printRightERNS0_12OutputStreamE+0x184>  // b.any
    26b8:	910203e2 	add	x2, sp, #0x80
    26bc:	90000000 	adrp	x0, 0 <_ZN12_GLOBAL__N_116itanium_demangle10StringViewC1EPKcS3_>
    26c0:	91000001 	add	x1, x0, #0x0
    26c4:	aa0203e0 	mov	x0, x2
    26c8:	97fff65b 	bl	34 <_ZN12_GLOBAL__N_116itanium_demangle10StringViewC1EPKc>
    26cc:	a9480be1 	ldp	x1, x2, [sp, #128]
    26d0:	f9400be0 	ldr	x0, [sp, #16]
    26d4:	97fff80b 	bl	700 <_ZN12_GLOBAL__N_116itanium_demangle12OutputStreampLENS0_10StringViewE>
    26d8:	f9400fe0 	ldr	x0, [sp, #24]
    26dc:	f9401800 	ldr	x0, [x0, #48]
    26e0:	f100001f 	cmp	x0, #0x0
    26e4:	54000100 	b.eq	2704 <_ZNK12_GLOBAL__N_116itanium_demangle12FunctionType10printRightERNS0_12OutputStreamE+0x1b0>  // b.none
    26e8:	52800401 	mov	w1, #0x20                  	// #32
    26ec:	f9400be0 	ldr	x0, [sp, #16]
    26f0:	97fff829 	bl	794 <_ZN12_GLOBAL__N_116itanium_demangle12OutputStreampLEc>
    26f4:	f9400fe0 	ldr	x0, [sp, #24]
    26f8:	f9401800 	ldr	x0, [x0, #48]
    26fc:	f9400be1 	ldr	x1, [sp, #16]
    2700:	97fff926 	bl	b98 <_ZNK12_GLOBAL__N_116itanium_demangle4Node5printERNS0_12OutputStreamE>
    2704:	d503201f 	nop
    2708:	a8c97bfd 	ldp	x29, x30, [sp], #144
    270c:	d65f03c0 	ret

0000000000002710 <_ZN12_GLOBAL__N_116itanium_demangle12NoexceptSpecC1EPKNS0_4NodeE>:
    2710:	a9be7bfd 	stp	x29, x30, [sp, #-32]!
    2714:	910003fd 	mov	x29, sp
    2718:	f9000fe0 	str	x0, [sp, #24]
    271c:	f9000be1 	str	x1, [sp, #16]
    2720:	f9400fe0 	ldr	x0, [sp, #24]
    2724:	52800024 	mov	w4, #0x1                   	// #1
    2728:	52800023 	mov	w3, #0x1                   	// #1
    272c:	52800022 	mov	w2, #0x1                   	// #1
    2730:	52800201 	mov	w1, #0x10                  	// #16
    2734:	97fff898 	bl	994 <_ZN12_GLOBAL__N_116itanium_demangle4NodeC2ENS1_4KindENS1_5CacheES3_S3_>
    2738:	90000000 	adrp	x0, 0 <_ZN12_GLOBAL__N_116itanium_demangle10StringViewC1EPKcS3_>
    273c:	91000001 	add	x1, x0, #0x0
    2740:	f9400fe0 	ldr	x0, [sp, #24]
    2744:	f9000001 	str	x1, [x0]
    2748:	f9400fe0 	ldr	x0, [sp, #24]
    274c:	f9400be1 	ldr	x1, [sp, #16]
    2750:	f9000801 	str	x1, [x0, #16]
    2754:	d503201f 	nop
    2758:	a8c27bfd 	ldp	x29, x30, [sp], #32
    275c:	d65f03c0 	ret

0000000000002760 <_ZNK12_GLOBAL__N_116itanium_demangle12NoexceptSpec9printLeftERNS0_12OutputStreamE>:
    2760:	a9bc7bfd 	stp	x29, x30, [sp, #-64]!
    2764:	910003fd 	mov	x29, sp
    2768:	f9000fe0 	str	x0, [sp, #24]
    276c:	f9000be1 	str	x1, [sp, #16]
    2770:	910083e2 	add	x2, sp, #0x20
    2774:	90000000 	adrp	x0, 0 <_ZN12_GLOBAL__N_116itanium_demangle10StringViewC1EPKcS3_>
    2778:	91000001 	add	x1, x0, #0x0
    277c:	aa0203e0 	mov	x0, x2
    2780:	97fff62d 	bl	34 <_ZN12_GLOBAL__N_116itanium_demangle10StringViewC1EPKc>
    2784:	a9420be1 	ldp	x1, x2, [sp, #32]
    2788:	f9400be0 	ldr	x0, [sp, #16]
    278c:	97fff7dd 	bl	700 <_ZN12_GLOBAL__N_116itanium_demangle12OutputStreampLENS0_10StringViewE>
    2790:	f9400fe0 	ldr	x0, [sp, #24]
    2794:	f9400800 	ldr	x0, [x0, #16]
    2798:	f9400be1 	ldr	x1, [sp, #16]
    279c:	97fff8ff 	bl	b98 <_ZNK12_GLOBAL__N_116itanium_demangle4Node5printERNS0_12OutputStreamE>
    27a0:	9100c3e2 	add	x2, sp, #0x30
    27a4:	90000000 	adrp	x0, 0 <_ZN12_GLOBAL__N_116itanium_demangle10StringViewC1EPKcS3_>
    27a8:	91000001 	add	x1, x0, #0x0
    27ac:	aa0203e0 	mov	x0, x2
    27b0:	97fff621 	bl	34 <_ZN12_GLOBAL__N_116itanium_demangle10StringViewC1EPKc>
    27b4:	a9430be1 	ldp	x1, x2, [sp, #48]
    27b8:	f9400be0 	ldr	x0, [sp, #16]
    27bc:	97fff7d1 	bl	700 <_ZN12_GLOBAL__N_116itanium_demangle12OutputStreampLENS0_10StringViewE>
    27c0:	d503201f 	nop
    27c4:	a8c47bfd 	ldp	x29, x30, [sp], #64
    27c8:	d65f03c0 	ret

00000000000027cc <_ZN12_GLOBAL__N_116itanium_demangle20DynamicExceptionSpecC1ENS0_9NodeArrayE>:
    27cc:	a9bd7bfd 	stp	x29, x30, [sp, #-48]!
    27d0:	910003fd 	mov	x29, sp
    27d4:	f90017e0 	str	x0, [sp, #40]
    27d8:	a9018be1 	stp	x1, x2, [sp, #24]
    27dc:	f94017e0 	ldr	x0, [sp, #40]
    27e0:	52800024 	mov	w4, #0x1                   	// #1
    27e4:	52800023 	mov	w3, #0x1                   	// #1
    27e8:	52800022 	mov	w2, #0x1                   	// #1
    27ec:	52800221 	mov	w1, #0x11                  	// #17
    27f0:	97fff869 	bl	994 <_ZN12_GLOBAL__N_116itanium_demangle4NodeC2ENS1_4KindENS1_5CacheES3_S3_>
    27f4:	90000000 	adrp	x0, 0 <_ZN12_GLOBAL__N_116itanium_demangle10StringViewC1EPKcS3_>
    27f8:	91000001 	add	x1, x0, #0x0
    27fc:	f94017e0 	ldr	x0, [sp, #40]
    2800:	f9000001 	str	x1, [x0]
    2804:	f94017e2 	ldr	x2, [sp, #40]
    2808:	a94187e0 	ldp	x0, x1, [sp, #24]
    280c:	a9010440 	stp	x0, x1, [x2, #16]
    2810:	d503201f 	nop
    2814:	a8c37bfd 	ldp	x29, x30, [sp], #48
    2818:	d65f03c0 	ret

000000000000281c <_ZNK12_GLOBAL__N_116itanium_demangle20DynamicExceptionSpec9printLeftERNS0_12OutputStreamE>:
    281c:	a9bd7bfd 	stp	x29, x30, [sp, #-48]!
    2820:	910003fd 	mov	x29, sp
    2824:	f9000fe0 	str	x0, [sp, #24]
    2828:	f9000be1 	str	x1, [sp, #16]
    282c:	910083e2 	add	x2, sp, #0x20
    2830:	90000000 	adrp	x0, 0 <_ZN12_GLOBAL__N_116itanium_demangle10StringViewC1EPKcS3_>
    2834:	91000001 	add	x1, x0, #0x0
    2838:	aa0203e0 	mov	x0, x2
    283c:	97fff5fe 	bl	34 <_ZN12_GLOBAL__N_116itanium_demangle10StringViewC1EPKc>
    2840:	a9420be1 	ldp	x1, x2, [sp, #32]
    2844:	f9400be0 	ldr	x0, [sp, #16]
    2848:	97fff7ae 	bl	700 <_ZN12_GLOBAL__N_116itanium_demangle12OutputStreampLENS0_10StringViewE>
    284c:	f9400fe0 	ldr	x0, [sp, #24]
    2850:	91004000 	add	x0, x0, #0x10
    2854:	f9400be1 	ldr	x1, [sp, #16]
    2858:	97fff937 	bl	d34 <_ZNK12_GLOBAL__N_116itanium_demangle9NodeArray14printWithCommaERNS0_12OutputStreamE>
    285c:	52800521 	mov	w1, #0x29                  	// #41
    2860:	f9400be0 	ldr	x0, [sp, #16]
    2864:	97fff7cc 	bl	794 <_ZN12_GLOBAL__N_116itanium_demangle12OutputStreampLEc>
    2868:	d503201f 	nop
    286c:	a8c37bfd 	ldp	x29, x30, [sp], #48
    2870:	d65f03c0 	ret

0000000000002874 <_ZN12_GLOBAL__N_116itanium_demangle16FunctionEncodingC1EPKNS0_4NodeES4_NS0_9NodeArrayES4_NS0_10QualifiersENS0_15FunctionRefQualE>:
    2874:	a9bb7bfd 	stp	x29, x30, [sp, #-80]!
    2878:	910003fd 	mov	x29, sp
    287c:	f90027e0 	str	x0, [sp, #72]
    2880:	f90023e1 	str	x1, [sp, #64]
    2884:	f9001fe2 	str	x2, [sp, #56]
    2888:	a90293e3 	stp	x3, x4, [sp, #40]
    288c:	f90013e5 	str	x5, [sp, #32]
    2890:	b9001fe6 	str	w6, [sp, #28]
    2894:	39006fe7 	strb	w7, [sp, #27]
    2898:	f94027e0 	ldr	x0, [sp, #72]
    289c:	52800004 	mov	w4, #0x0                   	// #0
    28a0:	52800023 	mov	w3, #0x1                   	// #1
    28a4:	52800002 	mov	w2, #0x0                   	// #0
    28a8:	52800241 	mov	w1, #0x12                  	// #18
    28ac:	97fff83a 	bl	994 <_ZN12_GLOBAL__N_116itanium_demangle4NodeC2ENS1_4KindENS1_5CacheES3_S3_>
    28b0:	90000000 	adrp	x0, 0 <_ZN12_GLOBAL__N_116itanium_demangle10StringViewC1EPKcS3_>
    28b4:	91000001 	add	x1, x0, #0x0
    28b8:	f94027e0 	ldr	x0, [sp, #72]
    28bc:	f9000001 	str	x1, [x0]
    28c0:	f94027e0 	ldr	x0, [sp, #72]
    28c4:	f94023e1 	ldr	x1, [sp, #64]
    28c8:	f9000801 	str	x1, [x0, #16]
    28cc:	f94027e0 	ldr	x0, [sp, #72]
    28d0:	f9401fe1 	ldr	x1, [sp, #56]
    28d4:	f9000c01 	str	x1, [x0, #24]
    28d8:	f94027e2 	ldr	x2, [sp, #72]
    28dc:	a94287e0 	ldp	x0, x1, [sp, #40]
    28e0:	a9020440 	stp	x0, x1, [x2, #32]
    28e4:	f94027e0 	ldr	x0, [sp, #72]
    28e8:	f94013e1 	ldr	x1, [sp, #32]
    28ec:	f9001801 	str	x1, [x0, #48]
    28f0:	f94027e0 	ldr	x0, [sp, #72]
    28f4:	b9401fe1 	ldr	w1, [sp, #28]
    28f8:	b9003801 	str	w1, [x0, #56]
    28fc:	f94027e0 	ldr	x0, [sp, #72]
    2900:	39406fe1 	ldrb	w1, [sp, #27]
    2904:	3900f001 	strb	w1, [x0, #60]
    2908:	d503201f 	nop
    290c:	a8c57bfd 	ldp	x29, x30, [sp], #80
    2910:	d65f03c0 	ret

0000000000002914 <_ZNK12_GLOBAL__N_116itanium_demangle16FunctionEncoding19hasRHSComponentSlowERNS0_12OutputStreamE>:
    2914:	d10043ff 	sub	sp, sp, #0x10
    2918:	f90007e0 	str	x0, [sp, #8]
    291c:	f90003e1 	str	x1, [sp]
    2920:	52800020 	mov	w0, #0x1                   	// #1
    2924:	910043ff 	add	sp, sp, #0x10
    2928:	d65f03c0 	ret

000000000000292c <_ZNK12_GLOBAL__N_116itanium_demangle16FunctionEncoding15hasFunctionSlowERNS0_12OutputStreamE>:
    292c:	d10043ff 	sub	sp, sp, #0x10
    2930:	f90007e0 	str	x0, [sp, #8]
    2934:	f90003e1 	str	x1, [sp]
    2938:	52800020 	mov	w0, #0x1                   	// #1
    293c:	910043ff 	add	sp, sp, #0x10
    2940:	d65f03c0 	ret

0000000000002944 <_ZNK12_GLOBAL__N_116itanium_demangle16FunctionEncoding9printLeftERNS0_12OutputStreamE>:
    2944:	a9bd7bfd 	stp	x29, x30, [sp, #-48]!
    2948:	910003fd 	mov	x29, sp
    294c:	f9000fe0 	str	x0, [sp, #24]
    2950:	f9000be1 	str	x1, [sp, #16]
    2954:	f9400fe0 	ldr	x0, [sp, #24]
    2958:	f9400800 	ldr	x0, [x0, #16]
    295c:	f100001f 	cmp	x0, #0x0
    2960:	54000360 	b.eq	29cc <_ZNK12_GLOBAL__N_116itanium_demangle16FunctionEncoding9printLeftERNS0_12OutputStreamE+0x88>  // b.none
    2964:	f9400fe0 	ldr	x0, [sp, #24]
    2968:	f9400800 	ldr	x0, [x0, #16]
    296c:	f9400000 	ldr	x0, [x0]
    2970:	91008000 	add	x0, x0, #0x20
    2974:	f9400002 	ldr	x2, [x0]
    2978:	f9400fe0 	ldr	x0, [sp, #24]
    297c:	f9400800 	ldr	x0, [x0, #16]
    2980:	f9400be1 	ldr	x1, [sp, #16]
    2984:	d63f0040 	blr	x2
    2988:	f9400fe0 	ldr	x0, [sp, #24]
    298c:	f9400800 	ldr	x0, [x0, #16]
    2990:	f9400be1 	ldr	x1, [sp, #16]
    2994:	97fff819 	bl	9f8 <_ZNK12_GLOBAL__N_116itanium_demangle4Node15hasRHSComponentERNS0_12OutputStreamE>
    2998:	12001c00 	and	w0, w0, #0xff
    299c:	52000000 	eor	w0, w0, #0x1
    29a0:	12001c00 	and	w0, w0, #0xff
    29a4:	7100001f 	cmp	w0, #0x0
    29a8:	54000120 	b.eq	29cc <_ZNK12_GLOBAL__N_116itanium_demangle16FunctionEncoding9printLeftERNS0_12OutputStreamE+0x88>  // b.none
    29ac:	910083e2 	add	x2, sp, #0x20
    29b0:	90000000 	adrp	x0, 0 <_ZN12_GLOBAL__N_116itanium_demangle10StringViewC1EPKcS3_>
    29b4:	91000001 	add	x1, x0, #0x0
    29b8:	aa0203e0 	mov	x0, x2
    29bc:	97fff59e 	bl	34 <_ZN12_GLOBAL__N_116itanium_demangle10StringViewC1EPKc>
    29c0:	a9420be1 	ldp	x1, x2, [sp, #32]
    29c4:	f9400be0 	ldr	x0, [sp, #16]
    29c8:	97fff74e 	bl	700 <_ZN12_GLOBAL__N_116itanium_demangle12OutputStreampLENS0_10StringViewE>
    29cc:	f9400fe0 	ldr	x0, [sp, #24]
    29d0:	f9400c00 	ldr	x0, [x0, #24]
    29d4:	f9400be1 	ldr	x1, [sp, #16]
    29d8:	97fff870 	bl	b98 <_ZNK12_GLOBAL__N_116itanium_demangle4Node5printERNS0_12OutputStreamE>
    29dc:	d503201f 	nop
    29e0:	a8c37bfd 	ldp	x29, x30, [sp], #48
    29e4:	d65f03c0 	ret

00000000000029e8 <_ZNK12_GLOBAL__N_116itanium_demangle16FunctionEncoding10printRightERNS0_12OutputStreamE>:
    29e8:	a9b77bfd 	stp	x29, x30, [sp, #-144]!
    29ec:	910003fd 	mov	x29, sp
    29f0:	f9000fe0 	str	x0, [sp, #24]
    29f4:	f9000be1 	str	x1, [sp, #16]
    29f8:	910083e2 	add	x2, sp, #0x20
    29fc:	90000000 	adrp	x0, 0 <_ZN12_GLOBAL__N_116itanium_demangle10StringViewC1EPKcS3_>
    2a00:	91000001 	add	x1, x0, #0x0
    2a04:	aa0203e0 	mov	x0, x2
    2a08:	97fff58b 	bl	34 <_ZN12_GLOBAL__N_116itanium_demangle10StringViewC1EPKc>
    2a0c:	a9420be1 	ldp	x1, x2, [sp, #32]
    2a10:	f9400be0 	ldr	x0, [sp, #16]
    2a14:	97fff73b 	bl	700 <_ZN12_GLOBAL__N_116itanium_demangle12OutputStreampLENS0_10StringViewE>
    2a18:	f9400fe0 	ldr	x0, [sp, #24]
    2a1c:	91008000 	add	x0, x0, #0x20
    2a20:	f9400be1 	ldr	x1, [sp, #16]
    2a24:	97fff8c4 	bl	d34 <_ZNK12_GLOBAL__N_116itanium_demangle9NodeArray14printWithCommaERNS0_12OutputStreamE>
    2a28:	9100c3e2 	add	x2, sp, #0x30
    2a2c:	90000000 	adrp	x0, 0 <_ZN12_GLOBAL__N_116itanium_demangle10StringViewC1EPKcS3_>
    2a30:	91000001 	add	x1, x0, #0x0
    2a34:	aa0203e0 	mov	x0, x2
    2a38:	97fff57f 	bl	34 <_ZN12_GLOBAL__N_116itanium_demangle10StringViewC1EPKc>
    2a3c:	a9430be1 	ldp	x1, x2, [sp, #48]
    2a40:	f9400be0 	ldr	x0, [sp, #16]
    2a44:	97fff72f 	bl	700 <_ZN12_GLOBAL__N_116itanium_demangle12OutputStreampLENS0_10StringViewE>
    2a48:	f9400fe0 	ldr	x0, [sp, #24]
    2a4c:	f9400800 	ldr	x0, [x0, #16]
    2a50:	f100001f 	cmp	x0, #0x0
    2a54:	54000140 	b.eq	2a7c <_ZNK12_GLOBAL__N_116itanium_demangle16FunctionEncoding10printRightERNS0_12OutputStreamE+0x94>  // b.none
    2a58:	f9400fe0 	ldr	x0, [sp, #24]
    2a5c:	f9400800 	ldr	x0, [x0, #16]
    2a60:	f9400000 	ldr	x0, [x0]
    2a64:	9100a000 	add	x0, x0, #0x28
    2a68:	f9400002 	ldr	x2, [x0]
    2a6c:	f9400fe0 	ldr	x0, [sp, #24]
    2a70:	f9400800 	ldr	x0, [x0, #16]
    2a74:	f9400be1 	ldr	x1, [sp, #16]
    2a78:	d63f0040 	blr	x2
    2a7c:	f9400fe0 	ldr	x0, [sp, #24]
    2a80:	b9403800 	ldr	w0, [x0, #56]
    2a84:	12000000 	and	w0, w0, #0x1
    2a88:	7100001f 	cmp	w0, #0x0
    2a8c:	54000120 	b.eq	2ab0 <_ZNK12_GLOBAL__N_116itanium_demangle16FunctionEncoding10printRightERNS0_12OutputStreamE+0xc8>  // b.none
    2a90:	910103e2 	add	x2, sp, #0x40
    2a94:	90000000 	adrp	x0, 0 <_ZN12_GLOBAL__N_116itanium_demangle10StringViewC1EPKcS3_>
    2a98:	91000001 	add	x1, x0, #0x0
    2a9c:	aa0203e0 	mov	x0, x2
    2aa0:	97fff565 	bl	34 <_ZN12_GLOBAL__N_116itanium_demangle10StringViewC1EPKc>
    2aa4:	a9440be1 	ldp	x1, x2, [sp, #64]
    2aa8:	f9400be0 	ldr	x0, [sp, #16]
    2aac:	97fff715 	bl	700 <_ZN12_GLOBAL__N_116itanium_demangle12OutputStreampLENS0_10StringViewE>
    2ab0:	f9400fe0 	ldr	x0, [sp, #24]
    2ab4:	b9403800 	ldr	w0, [x0, #56]
    2ab8:	121f0000 	and	w0, w0, #0x2
    2abc:	7100001f 	cmp	w0, #0x0
    2ac0:	54000120 	b.eq	2ae4 <_ZNK12_GLOBAL__N_116itanium_demangle16FunctionEncoding10printRightERNS0_12OutputStreamE+0xfc>  // b.none
    2ac4:	910143e2 	add	x2, sp, #0x50
    2ac8:	90000000 	adrp	x0, 0 <_ZN12_GLOBAL__N_116itanium_demangle10StringViewC1EPKcS3_>
    2acc:	91000001 	add	x1, x0, #0x0
    2ad0:	aa0203e0 	mov	x0, x2
    2ad4:	97fff558 	bl	34 <_ZN12_GLOBAL__N_116itanium_demangle10StringViewC1EPKc>
    2ad8:	a9450be1 	ldp	x1, x2, [sp, #80]
    2adc:	f9400be0 	ldr	x0, [sp, #16]
    2ae0:	97fff708 	bl	700 <_ZN12_GLOBAL__N_116itanium_demangle12OutputStreampLENS0_10StringViewE>
    2ae4:	f9400fe0 	ldr	x0, [sp, #24]
    2ae8:	b9403800 	ldr	w0, [x0, #56]
    2aec:	121e0000 	and	w0, w0, #0x4
    2af0:	7100001f 	cmp	w0, #0x0
    2af4:	54000120 	b.eq	2b18 <_ZNK12_GLOBAL__N_116itanium_demangle16FunctionEncoding10printRightERNS0_12OutputStreamE+0x130>  // b.none
    2af8:	910183e2 	add	x2, sp, #0x60
    2afc:	90000000 	adrp	x0, 0 <_ZN12_GLOBAL__N_116itanium_demangle10StringViewC1EPKcS3_>
    2b00:	91000001 	add	x1, x0, #0x0
    2b04:	aa0203e0 	mov	x0, x2
    2b08:	97fff54b 	bl	34 <_ZN12_GLOBAL__N_116itanium_demangle10StringViewC1EPKc>
    2b0c:	a9460be1 	ldp	x1, x2, [sp, #96]
    2b10:	f9400be0 	ldr	x0, [sp, #16]
    2b14:	97fff6fb 	bl	700 <_ZN12_GLOBAL__N_116itanium_demangle12OutputStreampLENS0_10StringViewE>
    2b18:	f9400fe0 	ldr	x0, [sp, #24]
    2b1c:	3940f000 	ldrb	w0, [x0, #60]
    2b20:	7100041f 	cmp	w0, #0x1
    2b24:	54000141 	b.ne	2b4c <_ZNK12_GLOBAL__N_116itanium_demangle16FunctionEncoding10printRightERNS0_12OutputStreamE+0x164>  // b.any
    2b28:	9101c3e2 	add	x2, sp, #0x70
    2b2c:	90000000 	adrp	x0, 0 <_ZN12_GLOBAL__N_116itanium_demangle10StringViewC1EPKcS3_>
    2b30:	91000001 	add	x1, x0, #0x0
    2b34:	aa0203e0 	mov	x0, x2
    2b38:	97fff53f 	bl	34 <_ZN12_GLOBAL__N_116itanium_demangle10StringViewC1EPKc>
    2b3c:	a9470be1 	ldp	x1, x2, [sp, #112]
    2b40:	f9400be0 	ldr	x0, [sp, #16]
    2b44:	97fff6ef 	bl	700 <_ZN12_GLOBAL__N_116itanium_demangle12OutputStreampLENS0_10StringViewE>
    2b48:	1400000d 	b	2b7c <_ZNK12_GLOBAL__N_116itanium_demangle16FunctionEncoding10printRightERNS0_12OutputStreamE+0x194>
    2b4c:	f9400fe0 	ldr	x0, [sp, #24]
    2b50:	3940f000 	ldrb	w0, [x0, #60]
    2b54:	7100081f 	cmp	w0, #0x2
    2b58:	54000121 	b.ne	2b7c <_ZNK12_GLOBAL__N_116itanium_demangle16FunctionEncoding10printRightERNS0_12OutputStreamE+0x194>  // b.any
    2b5c:	910203e2 	add	x2, sp, #0x80
    2b60:	90000000 	adrp	x0, 0 <_ZN12_GLOBAL__N_116itanium_demangle10StringViewC1EPKcS3_>
    2b64:	91000001 	add	x1, x0, #0x0
    2b68:	aa0203e0 	mov	x0, x2
    2b6c:	97fff532 	bl	34 <_ZN12_GLOBAL__N_116itanium_demangle10StringViewC1EPKc>
    2b70:	a9480be1 	ldp	x1, x2, [sp, #128]
    2b74:	f9400be0 	ldr	x0, [sp, #16]
    2b78:	97fff6e2 	bl	700 <_ZN12_GLOBAL__N_116itanium_demangle12OutputStreampLENS0_10StringViewE>
    2b7c:	f9400fe0 	ldr	x0, [sp, #24]
    2b80:	f9401800 	ldr	x0, [x0, #48]
    2b84:	f100001f 	cmp	x0, #0x0
    2b88:	540000a0 	b.eq	2b9c <_ZNK12_GLOBAL__N_116itanium_demangle16FunctionEncoding10printRightERNS0_12OutputStreamE+0x1b4>  // b.none
    2b8c:	f9400fe0 	ldr	x0, [sp, #24]
    2b90:	f9401800 	ldr	x0, [x0, #48]
    2b94:	f9400be1 	ldr	x1, [sp, #16]
    2b98:	97fff800 	bl	b98 <_ZNK12_GLOBAL__N_116itanium_demangle4Node5printERNS0_12OutputStreamE>
    2b9c:	d503201f 	nop
    2ba0:	a8c97bfd 	ldp	x29, x30, [sp], #144
    2ba4:	d65f03c0 	ret

0000000000002ba8 <_ZN12_GLOBAL__N_116itanium_demangle15LiteralOperatorC1EPKNS0_4NodeE>:
    2ba8:	a9be7bfd 	stp	x29, x30, [sp, #-32]!
    2bac:	910003fd 	mov	x29, sp
    2bb0:	f9000fe0 	str	x0, [sp, #24]
    2bb4:	f9000be1 	str	x1, [sp, #16]
    2bb8:	f9400fe0 	ldr	x0, [sp, #24]
    2bbc:	52800024 	mov	w4, #0x1                   	// #1
    2bc0:	52800023 	mov	w3, #0x1                   	// #1
    2bc4:	52800022 	mov	w2, #0x1                   	// #1
    2bc8:	52800261 	mov	w1, #0x13                  	// #19
    2bcc:	97fff772 	bl	994 <_ZN12_GLOBAL__N_116itanium_demangle4NodeC2ENS1_4KindENS1_5CacheES3_S3_>
    2bd0:	90000000 	adrp	x0, 0 <_ZN12_GLOBAL__N_116itanium_demangle10StringViewC1EPKcS3_>
    2bd4:	91000001 	add	x1, x0, #0x0
    2bd8:	f9400fe0 	ldr	x0, [sp, #24]
    2bdc:	f9000001 	str	x1, [x0]
    2be0:	f9400fe0 	ldr	x0, [sp, #24]
    2be4:	f9400be1 	ldr	x1, [sp, #16]
    2be8:	f9000801 	str	x1, [x0, #16]
    2bec:	d503201f 	nop
    2bf0:	a8c27bfd 	ldp	x29, x30, [sp], #32
    2bf4:	d65f03c0 	ret

0000000000002bf8 <_ZNK12_GLOBAL__N_116itanium_demangle15LiteralOperator9printLeftERNS0_12OutputStreamE>:
    2bf8:	a9bd7bfd 	stp	x29, x30, [sp, #-48]!
    2bfc:	910003fd 	mov	x29, sp
    2c00:	f9000fe0 	str	x0, [sp, #24]
    2c04:	f9000be1 	str	x1, [sp, #16]
    2c08:	910083e2 	add	x2, sp, #0x20
    2c0c:	90000000 	adrp	x0, 0 <_ZN12_GLOBAL__N_116itanium_demangle10StringViewC1EPKcS3_>
    2c10:	91000001 	add	x1, x0, #0x0
    2c14:	aa0203e0 	mov	x0, x2
    2c18:	97fff507 	bl	34 <_ZN12_GLOBAL__N_116itanium_demangle10StringViewC1EPKc>
    2c1c:	a9420be1 	ldp	x1, x2, [sp, #32]
    2c20:	f9400be0 	ldr	x0, [sp, #16]
    2c24:	97fff6b7 	bl	700 <_ZN12_GLOBAL__N_116itanium_demangle12OutputStreampLENS0_10StringViewE>
    2c28:	f9400fe0 	ldr	x0, [sp, #24]
    2c2c:	f9400800 	ldr	x0, [x0, #16]
    2c30:	f9400be1 	ldr	x1, [sp, #16]
    2c34:	97fff7d9 	bl	b98 <_ZNK12_GLOBAL__N_116itanium_demangle4Node5printERNS0_12OutputStreamE>
    2c38:	d503201f 	nop
    2c3c:	a8c37bfd 	ldp	x29, x30, [sp], #48
    2c40:	d65f03c0 	ret

0000000000002c44 <_ZN12_GLOBAL__N_116itanium_demangle11SpecialNameC1ENS0_10StringViewEPKNS0_4NodeE>:
    2c44:	a9bd7bfd 	stp	x29, x30, [sp, #-48]!
    2c48:	910003fd 	mov	x29, sp
    2c4c:	f90017e0 	str	x0, [sp, #40]
    2c50:	a9018be1 	stp	x1, x2, [sp, #24]
    2c54:	f9000be3 	str	x3, [sp, #16]
    2c58:	f94017e0 	ldr	x0, [sp, #40]
    2c5c:	52800024 	mov	w4, #0x1                   	// #1
    2c60:	52800023 	mov	w3, #0x1                   	// #1
    2c64:	52800022 	mov	w2, #0x1                   	// #1
    2c68:	52800281 	mov	w1, #0x14                  	// #20
    2c6c:	97fff74a 	bl	994 <_ZN12_GLOBAL__N_116itanium_demangle4NodeC2ENS1_4KindENS1_5CacheES3_S3_>
    2c70:	90000000 	adrp	x0, 0 <_ZN12_GLOBAL__N_116itanium_demangle10StringViewC1EPKcS3_>
    2c74:	91000001 	add	x1, x0, #0x0
    2c78:	f94017e0 	ldr	x0, [sp, #40]
    2c7c:	f9000001 	str	x1, [x0]
    2c80:	f94017e0 	ldr	x0, [sp, #40]
    2c84:	91004002 	add	x2, x0, #0x10
    2c88:	a94187e0 	ldp	x0, x1, [sp, #24]
    2c8c:	a9000440 	stp	x0, x1, [x2]
    2c90:	f94017e0 	ldr	x0, [sp, #40]
    2c94:	f9400be1 	ldr	x1, [sp, #16]
    2c98:	f9001001 	str	x1, [x0, #32]
    2c9c:	d503201f 	nop
    2ca0:	a8c37bfd 	ldp	x29, x30, [sp], #48
    2ca4:	d65f03c0 	ret

0000000000002ca8 <_ZNK12_GLOBAL__N_116itanium_demangle11SpecialName9printLeftERNS0_12OutputStreamE>:
    2ca8:	a9be7bfd 	stp	x29, x30, [sp, #-32]!
    2cac:	910003fd 	mov	x29, sp
    2cb0:	f9000fe0 	str	x0, [sp, #24]
    2cb4:	f9000be1 	str	x1, [sp, #16]
    2cb8:	f9400fe0 	ldr	x0, [sp, #24]
    2cbc:	a9410801 	ldp	x1, x2, [x0, #16]
    2cc0:	f9400be0 	ldr	x0, [sp, #16]
    2cc4:	97fff68f 	bl	700 <_ZN12_GLOBAL__N_116itanium_demangle12OutputStreampLENS0_10StringViewE>
    2cc8:	f9400fe0 	ldr	x0, [sp, #24]
    2ccc:	f9401000 	ldr	x0, [x0, #32]
    2cd0:	f9400be1 	ldr	x1, [sp, #16]
    2cd4:	97fff7b1 	bl	b98 <_ZNK12_GLOBAL__N_116itanium_demangle4Node5printERNS0_12OutputStreamE>
    2cd8:	d503201f 	nop
    2cdc:	a8c27bfd 	ldp	x29, x30, [sp], #32
    2ce0:	d65f03c0 	ret

0000000000002ce4 <_ZN12_GLOBAL__N_116itanium_demangle21CtorVtableSpecialNameC1EPKNS0_4NodeES4_>:
    2ce4:	a9bd7bfd 	stp	x29, x30, [sp, #-48]!
    2ce8:	910003fd 	mov	x29, sp
    2cec:	f90017e0 	str	x0, [sp, #40]
    2cf0:	f90013e1 	str	x1, [sp, #32]
    2cf4:	f9000fe2 	str	x2, [sp, #24]
    2cf8:	f94017e0 	ldr	x0, [sp, #40]
    2cfc:	52800024 	mov	w4, #0x1                   	// #1
    2d00:	52800023 	mov	w3, #0x1                   	// #1
    2d04:	52800022 	mov	w2, #0x1                   	// #1
    2d08:	528002a1 	mov	w1, #0x15                  	// #21
    2d0c:	97fff722 	bl	994 <_ZN12_GLOBAL__N_116itanium_demangle4NodeC2ENS1_4KindENS1_5CacheES3_S3_>
    2d10:	90000000 	adrp	x0, 0 <_ZN12_GLOBAL__N_116itanium_demangle10StringViewC1EPKcS3_>
    2d14:	91000001 	add	x1, x0, #0x0
    2d18:	f94017e0 	ldr	x0, [sp, #40]
    2d1c:	f9000001 	str	x1, [x0]
    2d20:	f94017e0 	ldr	x0, [sp, #40]
    2d24:	f94013e1 	ldr	x1, [sp, #32]
    2d28:	f9000801 	str	x1, [x0, #16]
    2d2c:	f94017e0 	ldr	x0, [sp, #40]
    2d30:	f9400fe1 	ldr	x1, [sp, #24]
    2d34:	f9000c01 	str	x1, [x0, #24]
    2d38:	d503201f 	nop
    2d3c:	a8c37bfd 	ldp	x29, x30, [sp], #48
    2d40:	d65f03c0 	ret

0000000000002d44 <_ZNK12_GLOBAL__N_116itanium_demangle21CtorVtableSpecialName9printLeftERNS0_12OutputStreamE>:
    2d44:	a9bc7bfd 	stp	x29, x30, [sp, #-64]!
    2d48:	910003fd 	mov	x29, sp
    2d4c:	f9000fe0 	str	x0, [sp, #24]
    2d50:	f9000be1 	str	x1, [sp, #16]
    2d54:	910083e2 	add	x2, sp, #0x20
    2d58:	90000000 	adrp	x0, 0 <_ZN12_GLOBAL__N_116itanium_demangle10StringViewC1EPKcS3_>
    2d5c:	91000001 	add	x1, x0, #0x0
    2d60:	aa0203e0 	mov	x0, x2
    2d64:	97fff4b4 	bl	34 <_ZN12_GLOBAL__N_116itanium_demangle10StringViewC1EPKc>
    2d68:	a9420be1 	ldp	x1, x2, [sp, #32]
    2d6c:	f9400be0 	ldr	x0, [sp, #16]
    2d70:	97fff664 	bl	700 <_ZN12_GLOBAL__N_116itanium_demangle12OutputStreampLENS0_10StringViewE>
    2d74:	f9400fe0 	ldr	x0, [sp, #24]
    2d78:	f9400800 	ldr	x0, [x0, #16]
    2d7c:	f9400be1 	ldr	x1, [sp, #16]
    2d80:	97fff786 	bl	b98 <_ZNK12_GLOBAL__N_116itanium_demangle4Node5printERNS0_12OutputStreamE>
    2d84:	9100c3e2 	add	x2, sp, #0x30
    2d88:	90000000 	adrp	x0, 0 <_ZN12_GLOBAL__N_116itanium_demangle10StringViewC1EPKcS3_>
    2d8c:	91000001 	add	x1, x0, #0x0
    2d90:	aa0203e0 	mov	x0, x2
    2d94:	97fff4a8 	bl	34 <_ZN12_GLOBAL__N_116itanium_demangle10StringViewC1EPKc>
    2d98:	a9430be1 	ldp	x1, x2, [sp, #48]
    2d9c:	f9400be0 	ldr	x0, [sp, #16]
    2da0:	97fff658 	bl	700 <_ZN12_GLOBAL__N_116itanium_demangle12OutputStreampLENS0_10StringViewE>
    2da4:	f9400fe0 	ldr	x0, [sp, #24]
    2da8:	f9400c00 	ldr	x0, [x0, #24]
    2dac:	f9400be1 	ldr	x1, [sp, #16]
    2db0:	97fff77a 	bl	b98 <_ZNK12_GLOBAL__N_116itanium_demangle4Node5printERNS0_12OutputStreamE>
    2db4:	d503201f 	nop
    2db8:	a8c47bfd 	ldp	x29, x30, [sp], #64
    2dbc:	d65f03c0 	ret

0000000000002dc0 <_ZN12_GLOBAL__N_116itanium_demangle10NestedNameC1EPNS0_4NodeES3_>:
    2dc0:	a9bd7bfd 	stp	x29, x30, [sp, #-48]!
    2dc4:	910003fd 	mov	x29, sp
    2dc8:	f90017e0 	str	x0, [sp, #40]
    2dcc:	f90013e1 	str	x1, [sp, #32]
    2dd0:	f9000fe2 	str	x2, [sp, #24]
    2dd4:	f94017e0 	ldr	x0, [sp, #40]
    2dd8:	52800024 	mov	w4, #0x1                   	// #1
    2ddc:	52800023 	mov	w3, #0x1                   	// #1
    2de0:	52800022 	mov	w2, #0x1                   	// #1
    2de4:	528002e1 	mov	w1, #0x17                  	// #23
    2de8:	97fff6eb 	bl	994 <_ZN12_GLOBAL__N_116itanium_demangle4NodeC2ENS1_4KindENS1_5CacheES3_S3_>
    2dec:	90000000 	adrp	x0, 0 <_ZN12_GLOBAL__N_116itanium_demangle10StringViewC1EPKcS3_>
    2df0:	91000001 	add	x1, x0, #0x0
    2df4:	f94017e0 	ldr	x0, [sp, #40]
    2df8:	f9000001 	str	x1, [x0]
    2dfc:	f94017e0 	ldr	x0, [sp, #40]
    2e00:	f94013e1 	ldr	x1, [sp, #32]
    2e04:	f9000801 	str	x1, [x0, #16]
    2e08:	f94017e0 	ldr	x0, [sp, #40]
    2e0c:	f9400fe1 	ldr	x1, [sp, #24]
    2e10:	f9000c01 	str	x1, [x0, #24]
    2e14:	d503201f 	nop
    2e18:	a8c37bfd 	ldp	x29, x30, [sp], #48
    2e1c:	d65f03c0 	ret

0000000000002e20 <_ZNK12_GLOBAL__N_116itanium_demangle10NestedName11getBaseNameEv>:
    2e20:	a9be7bfd 	stp	x29, x30, [sp, #-32]!
    2e24:	910003fd 	mov	x29, sp
    2e28:	f9000fe0 	str	x0, [sp, #24]
    2e2c:	f9400fe0 	ldr	x0, [sp, #24]
    2e30:	f9400c00 	ldr	x0, [x0, #24]
    2e34:	f9400000 	ldr	x0, [x0]
    2e38:	9100c000 	add	x0, x0, #0x30
    2e3c:	f9400001 	ldr	x1, [x0]
    2e40:	f9400fe0 	ldr	x0, [sp, #24]
    2e44:	f9400c00 	ldr	x0, [x0, #24]
    2e48:	d63f0020 	blr	x1
    2e4c:	a8c27bfd 	ldp	x29, x30, [sp], #32
    2e50:	d65f03c0 	ret

0000000000002e54 <_ZNK12_GLOBAL__N_116itanium_demangle10NestedName9printLeftERNS0_12OutputStreamE>:
    2e54:	a9bd7bfd 	stp	x29, x30, [sp, #-48]!
    2e58:	910003fd 	mov	x29, sp
    2e5c:	f9000fe0 	str	x0, [sp, #24]
    2e60:	f9000be1 	str	x1, [sp, #16]
    2e64:	f9400fe0 	ldr	x0, [sp, #24]
    2e68:	f9400800 	ldr	x0, [x0, #16]
    2e6c:	f9400be1 	ldr	x1, [sp, #16]
    2e70:	97fff74a 	bl	b98 <_ZNK12_GLOBAL__N_116itanium_demangle4Node5printERNS0_12OutputStreamE>
    2e74:	910083e2 	add	x2, sp, #0x20
    2e78:	90000000 	adrp	x0, 0 <_ZN12_GLOBAL__N_116itanium_demangle10StringViewC1EPKcS3_>
    2e7c:	91000001 	add	x1, x0, #0x0
    2e80:	aa0203e0 	mov	x0, x2
    2e84:	97fff46c 	bl	34 <_ZN12_GLOBAL__N_116itanium_demangle10StringViewC1EPKc>
    2e88:	a9420be1 	ldp	x1, x2, [sp, #32]
    2e8c:	f9400be0 	ldr	x0, [sp, #16]
    2e90:	97fff61c 	bl	700 <_ZN12_GLOBAL__N_116itanium_demangle12OutputStreampLENS0_10StringViewE>
    2e94:	f9400fe0 	ldr	x0, [sp, #24]
    2e98:	f9400c00 	ldr	x0, [x0, #24]
    2e9c:	f9400be1 	ldr	x1, [sp, #16]
    2ea0:	97fff73e 	bl	b98 <_ZNK12_GLOBAL__N_116itanium_demangle4Node5printERNS0_12OutputStreamE>
    2ea4:	d503201f 	nop
    2ea8:	a8c37bfd 	ldp	x29, x30, [sp], #48
    2eac:	d65f03c0 	ret

0000000000002eb0 <_ZN12_GLOBAL__N_116itanium_demangle9LocalNameC1EPNS0_4NodeES3_>:
    2eb0:	a9bd7bfd 	stp	x29, x30, [sp, #-48]!
    2eb4:	910003fd 	mov	x29, sp
    2eb8:	f90017e0 	str	x0, [sp, #40]
    2ebc:	f90013e1 	str	x1, [sp, #32]
    2ec0:	f9000fe2 	str	x2, [sp, #24]
    2ec4:	f94017e0 	ldr	x0, [sp, #40]
    2ec8:	52800024 	mov	w4, #0x1                   	// #1
    2ecc:	52800023 	mov	w3, #0x1                   	// #1
    2ed0:	52800022 	mov	w2, #0x1                   	// #1
    2ed4:	52800301 	mov	w1, #0x18                  	// #24
    2ed8:	97fff6af 	bl	994 <_ZN12_GLOBAL__N_116itanium_demangle4NodeC2ENS1_4KindENS1_5CacheES3_S3_>
    2edc:	90000000 	adrp	x0, 0 <_ZN12_GLOBAL__N_116itanium_demangle10StringViewC1EPKcS3_>
    2ee0:	91000001 	add	x1, x0, #0x0
    2ee4:	f94017e0 	ldr	x0, [sp, #40]
    2ee8:	f9000001 	str	x1, [x0]
    2eec:	f94017e0 	ldr	x0, [sp, #40]
    2ef0:	f94013e1 	ldr	x1, [sp, #32]
    2ef4:	f9000801 	str	x1, [x0, #16]
    2ef8:	f94017e0 	ldr	x0, [sp, #40]
    2efc:	f9400fe1 	ldr	x1, [sp, #24]
    2f00:	f9000c01 	str	x1, [x0, #24]
    2f04:	d503201f 	nop
    2f08:	a8c37bfd 	ldp	x29, x30, [sp], #48
    2f0c:	d65f03c0 	ret

0000000000002f10 <_ZNK12_GLOBAL__N_116itanium_demangle9LocalName9printLeftERNS0_12OutputStreamE>:
    2f10:	a9bd7bfd 	stp	x29, x30, [sp, #-48]!
    2f14:	910003fd 	mov	x29, sp
    2f18:	f9000fe0 	str	x0, [sp, #24]
    2f1c:	f9000be1 	str	x1, [sp, #16]
    2f20:	f9400fe0 	ldr	x0, [sp, #24]
    2f24:	f9400800 	ldr	x0, [x0, #16]
    2f28:	f9400be1 	ldr	x1, [sp, #16]
    2f2c:	97fff71b 	bl	b98 <_ZNK12_GLOBAL__N_116itanium_demangle4Node5printERNS0_12OutputStreamE>
    2f30:	910083e2 	add	x2, sp, #0x20
    2f34:	90000000 	adrp	x0, 0 <_ZN12_GLOBAL__N_116itanium_demangle10StringViewC1EPKcS3_>
    2f38:	91000001 	add	x1, x0, #0x0
    2f3c:	aa0203e0 	mov	x0, x2
    2f40:	97fff43d 	bl	34 <_ZN12_GLOBAL__N_116itanium_demangle10StringViewC1EPKc>
    2f44:	a9420be1 	ldp	x1, x2, [sp, #32]
    2f48:	f9400be0 	ldr	x0, [sp, #16]
    2f4c:	97fff5ed 	bl	700 <_ZN12_GLOBAL__N_116itanium_demangle12OutputStreampLENS0_10StringViewE>
    2f50:	f9400fe0 	ldr	x0, [sp, #24]
    2f54:	f9400c00 	ldr	x0, [x0, #24]
    2f58:	f9400be1 	ldr	x1, [sp, #16]
    2f5c:	97fff70f 	bl	b98 <_ZNK12_GLOBAL__N_116itanium_demangle4Node5printERNS0_12OutputStreamE>
    2f60:	d503201f 	nop
    2f64:	a8c37bfd 	ldp	x29, x30, [sp], #48
    2f68:	d65f03c0 	ret

0000000000002f6c <_ZN12_GLOBAL__N_116itanium_demangle13QualifiedNameC1EPKNS0_4NodeES4_>:
    2f6c:	a9bd7bfd 	stp	x29, x30, [sp, #-48]!
    2f70:	910003fd 	mov	x29, sp
    2f74:	f90017e0 	str	x0, [sp, #40]
    2f78:	f90013e1 	str	x1, [sp, #32]
    2f7c:	f9000fe2 	str	x2, [sp, #24]
    2f80:	f94017e0 	ldr	x0, [sp, #40]
    2f84:	52800024 	mov	w4, #0x1                   	// #1
    2f88:	52800023 	mov	w3, #0x1                   	// #1
    2f8c:	52800022 	mov	w2, #0x1                   	// #1
    2f90:	528002c1 	mov	w1, #0x16                  	// #22
    2f94:	97fff680 	bl	994 <_ZN12_GLOBAL__N_116itanium_demangle4NodeC2ENS1_4KindENS1_5CacheES3_S3_>
    2f98:	90000000 	adrp	x0, 0 <_ZN12_GLOBAL__N_116itanium_demangle10StringViewC1EPKcS3_>
    2f9c:	91000001 	add	x1, x0, #0x0
    2fa0:	f94017e0 	ldr	x0, [sp, #40]
    2fa4:	f9000001 	str	x1, [x0]
    2fa8:	f94017e0 	ldr	x0, [sp, #40]
    2fac:	f94013e1 	ldr	x1, [sp, #32]
    2fb0:	f9000801 	str	x1, [x0, #16]
    2fb4:	f94017e0 	ldr	x0, [sp, #40]
    2fb8:	f9400fe1 	ldr	x1, [sp, #24]
    2fbc:	f9000c01 	str	x1, [x0, #24]
    2fc0:	d503201f 	nop
    2fc4:	a8c37bfd 	ldp	x29, x30, [sp], #48
    2fc8:	d65f03c0 	ret

0000000000002fcc <_ZNK12_GLOBAL__N_116itanium_demangle13QualifiedName11getBaseNameEv>:
    2fcc:	a9be7bfd 	stp	x29, x30, [sp, #-32]!
    2fd0:	910003fd 	mov	x29, sp
    2fd4:	f9000fe0 	str	x0, [sp, #24]
    2fd8:	f9400fe0 	ldr	x0, [sp, #24]
    2fdc:	f9400c00 	ldr	x0, [x0, #24]
    2fe0:	f9400000 	ldr	x0, [x0]
    2fe4:	9100c000 	add	x0, x0, #0x30
    2fe8:	f9400001 	ldr	x1, [x0]
    2fec:	f9400fe0 	ldr	x0, [sp, #24]
    2ff0:	f9400c00 	ldr	x0, [x0, #24]
    2ff4:	d63f0020 	blr	x1
    2ff8:	a8c27bfd 	ldp	x29, x30, [sp], #32
    2ffc:	d65f03c0 	ret

0000000000003000 <_ZNK12_GLOBAL__N_116itanium_demangle13QualifiedName9printLeftERNS0_12OutputStreamE>:
    3000:	a9bd7bfd 	stp	x29, x30, [sp, #-48]!
    3004:	910003fd 	mov	x29, sp
    3008:	f9000fe0 	str	x0, [sp, #24]
    300c:	f9000be1 	str	x1, [sp, #16]
    3010:	f9400fe0 	ldr	x0, [sp, #24]
    3014:	f9400800 	ldr	x0, [x0, #16]
    3018:	f9400be1 	ldr	x1, [sp, #16]
    301c:	97fff6df 	bl	b98 <_ZNK12_GLOBAL__N_116itanium_demangle4Node5printERNS0_12OutputStreamE>
    3020:	910083e2 	add	x2, sp, #0x20
    3024:	90000000 	adrp	x0, 0 <_ZN12_GLOBAL__N_116itanium_demangle10StringViewC1EPKcS3_>
    3028:	91000001 	add	x1, x0, #0x0
    302c:	aa0203e0 	mov	x0, x2
    3030:	97fff401 	bl	34 <_ZN12_GLOBAL__N_116itanium_demangle10StringViewC1EPKc>
    3034:	a9420be1 	ldp	x1, x2, [sp, #32]
    3038:	f9400be0 	ldr	x0, [sp, #16]
    303c:	97fff5b1 	bl	700 <_ZN12_GLOBAL__N_116itanium_demangle12OutputStreampLENS0_10StringViewE>
    3040:	f9400fe0 	ldr	x0, [sp, #24]
    3044:	f9400c00 	ldr	x0, [x0, #24]
    3048:	f9400be1 	ldr	x1, [sp, #16]
    304c:	97fff6d3 	bl	b98 <_ZNK12_GLOBAL__N_116itanium_demangle4Node5printERNS0_12OutputStreamE>
    3050:	d503201f 	nop
    3054:	a8c37bfd 	ldp	x29, x30, [sp], #48
    3058:	d65f03c0 	ret

000000000000305c <_ZN12_GLOBAL__N_116itanium_demangle10VectorTypeC1EPKNS0_4NodeEPS2_>:
    305c:	a9bd7bfd 	stp	x29, x30, [sp, #-48]!
    3060:	910003fd 	mov	x29, sp
    3064:	f90017e0 	str	x0, [sp, #40]
    3068:	f90013e1 	str	x1, [sp, #32]
    306c:	f9000fe2 	str	x2, [sp, #24]
    3070:	f94017e0 	ldr	x0, [sp, #40]
    3074:	52800024 	mov	w4, #0x1                   	// #1
    3078:	52800023 	mov	w3, #0x1                   	// #1
    307c:	52800022 	mov	w2, #0x1                   	// #1
    3080:	52800321 	mov	w1, #0x19                  	// #25
    3084:	97fff644 	bl	994 <_ZN12_GLOBAL__N_116itanium_demangle4NodeC2ENS1_4KindENS1_5CacheES3_S3_>
    3088:	90000000 	adrp	x0, 0 <_ZN12_GLOBAL__N_116itanium_demangle10StringViewC1EPKcS3_>
    308c:	91000001 	add	x1, x0, #0x0
    3090:	f94017e0 	ldr	x0, [sp, #40]
    3094:	f9000001 	str	x1, [x0]
    3098:	f94017e0 	ldr	x0, [sp, #40]
    309c:	f94013e1 	ldr	x1, [sp, #32]
    30a0:	f9000801 	str	x1, [x0, #16]
    30a4:	f94017e0 	ldr	x0, [sp, #40]
    30a8:	f9400fe1 	ldr	x1, [sp, #24]
    30ac:	f9000c01 	str	x1, [x0, #24]
    30b0:	d503201f 	nop
    30b4:	a8c37bfd 	ldp	x29, x30, [sp], #48
    30b8:	d65f03c0 	ret

00000000000030bc <_ZNK12_GLOBAL__N_116itanium_demangle10VectorType9printLeftERNS0_12OutputStreamE>:
    30bc:	a9bc7bfd 	stp	x29, x30, [sp, #-64]!
    30c0:	910003fd 	mov	x29, sp
    30c4:	f9000fe0 	str	x0, [sp, #24]
    30c8:	f9000be1 	str	x1, [sp, #16]
    30cc:	f9400fe0 	ldr	x0, [sp, #24]
    30d0:	f9400800 	ldr	x0, [x0, #16]
    30d4:	f9400be1 	ldr	x1, [sp, #16]
    30d8:	97fff6b0 	bl	b98 <_ZNK12_GLOBAL__N_116itanium_demangle4Node5printERNS0_12OutputStreamE>
    30dc:	910083e2 	add	x2, sp, #0x20
    30e0:	90000000 	adrp	x0, 0 <_ZN12_GLOBAL__N_116itanium_demangle10StringViewC1EPKcS3_>
    30e4:	91000001 	add	x1, x0, #0x0
    30e8:	aa0203e0 	mov	x0, x2
    30ec:	97fff3d2 	bl	34 <_ZN12_GLOBAL__N_116itanium_demangle10StringViewC1EPKc>
    30f0:	a9420be1 	ldp	x1, x2, [sp, #32]
    30f4:	f9400be0 	ldr	x0, [sp, #16]
    30f8:	97fff582 	bl	700 <_ZN12_GLOBAL__N_116itanium_demangle12OutputStreampLENS0_10StringViewE>
    30fc:	f9400fe0 	ldr	x0, [sp, #24]
    3100:	f9400c00 	ldr	x0, [x0, #24]
    3104:	f100001f 	cmp	x0, #0x0
    3108:	540000a0 	b.eq	311c <_ZNK12_GLOBAL__N_116itanium_demangle10VectorType9printLeftERNS0_12OutputStreamE+0x60>  // b.none
    310c:	f9400fe0 	ldr	x0, [sp, #24]
    3110:	f9400c00 	ldr	x0, [x0, #24]
    3114:	f9400be1 	ldr	x1, [sp, #16]
    3118:	97fff6a0 	bl	b98 <_ZNK12_GLOBAL__N_116itanium_demangle4Node5printERNS0_12OutputStreamE>
    311c:	9100c3e2 	add	x2, sp, #0x30
    3120:	90000000 	adrp	x0, 0 <_ZN12_GLOBAL__N_116itanium_demangle10StringViewC1EPKcS3_>
    3124:	91000001 	add	x1, x0, #0x0
    3128:	aa0203e0 	mov	x0, x2
    312c:	97fff3c2 	bl	34 <_ZN12_GLOBAL__N_116itanium_demangle10StringViewC1EPKc>
    3130:	a9430be1 	ldp	x1, x2, [sp, #48]
    3134:	f9400be0 	ldr	x0, [sp, #16]
    3138:	97fff572 	bl	700 <_ZN12_GLOBAL__N_116itanium_demangle12OutputStreampLENS0_10StringViewE>
    313c:	d503201f 	nop
    3140:	a8c47bfd 	ldp	x29, x30, [sp], #64
    3144:	d65f03c0 	ret

0000000000003148 <_ZN12_GLOBAL__N_116itanium_demangle15PixelVectorTypeC1EPKNS0_4NodeE>:
    3148:	a9be7bfd 	stp	x29, x30, [sp, #-32]!
    314c:	910003fd 	mov	x29, sp
    3150:	f9000fe0 	str	x0, [sp, #24]
    3154:	f9000be1 	str	x1, [sp, #16]
    3158:	f9400fe0 	ldr	x0, [sp, #24]
    315c:	52800024 	mov	w4, #0x1                   	// #1
    3160:	52800023 	mov	w3, #0x1                   	// #1
    3164:	52800022 	mov	w2, #0x1                   	// #1
    3168:	52800341 	mov	w1, #0x1a                  	// #26
    316c:	97fff60a 	bl	994 <_ZN12_GLOBAL__N_116itanium_demangle4NodeC2ENS1_4KindENS1_5CacheES3_S3_>
    3170:	90000000 	adrp	x0, 0 <_ZN12_GLOBAL__N_116itanium_demangle10StringViewC1EPKcS3_>
    3174:	91000001 	add	x1, x0, #0x0
    3178:	f9400fe0 	ldr	x0, [sp, #24]
    317c:	f9000001 	str	x1, [x0]
    3180:	f9400fe0 	ldr	x0, [sp, #24]
    3184:	f9400be1 	ldr	x1, [sp, #16]
    3188:	f9000801 	str	x1, [x0, #16]
    318c:	d503201f 	nop
    3190:	a8c27bfd 	ldp	x29, x30, [sp], #32
    3194:	d65f03c0 	ret

0000000000003198 <_ZNK12_GLOBAL__N_116itanium_demangle15PixelVectorType9printLeftERNS0_12OutputStreamE>:
    3198:	a9bc7bfd 	stp	x29, x30, [sp, #-64]!
    319c:	910003fd 	mov	x29, sp
    31a0:	f9000fe0 	str	x0, [sp, #24]
    31a4:	f9000be1 	str	x1, [sp, #16]
    31a8:	910083e2 	add	x2, sp, #0x20
    31ac:	90000000 	adrp	x0, 0 <_ZN12_GLOBAL__N_116itanium_demangle10StringViewC1EPKcS3_>
    31b0:	91000001 	add	x1, x0, #0x0
    31b4:	aa0203e0 	mov	x0, x2
    31b8:	97fff39f 	bl	34 <_ZN12_GLOBAL__N_116itanium_demangle10StringViewC1EPKc>
    31bc:	a9420be1 	ldp	x1, x2, [sp, #32]
    31c0:	f9400be0 	ldr	x0, [sp, #16]
    31c4:	97fff54f 	bl	700 <_ZN12_GLOBAL__N_116itanium_demangle12OutputStreampLENS0_10StringViewE>
    31c8:	f9400fe0 	ldr	x0, [sp, #24]
    31cc:	f9400800 	ldr	x0, [x0, #16]
    31d0:	f9400be1 	ldr	x1, [sp, #16]
    31d4:	97fff671 	bl	b98 <_ZNK12_GLOBAL__N_116itanium_demangle4Node5printERNS0_12OutputStreamE>
    31d8:	9100c3e2 	add	x2, sp, #0x30
    31dc:	90000000 	adrp	x0, 0 <_ZN12_GLOBAL__N_116itanium_demangle10StringViewC1EPKcS3_>
    31e0:	91000001 	add	x1, x0, #0x0
    31e4:	aa0203e0 	mov	x0, x2
    31e8:	97fff393 	bl	34 <_ZN12_GLOBAL__N_116itanium_demangle10StringViewC1EPKc>
    31ec:	a9430be1 	ldp	x1, x2, [sp, #48]
    31f0:	f9400be0 	ldr	x0, [sp, #16]
    31f4:	97fff543 	bl	700 <_ZN12_GLOBAL__N_116itanium_demangle12OutputStreampLENS0_10StringViewE>
    31f8:	d503201f 	nop
    31fc:	a8c47bfd 	ldp	x29, x30, [sp], #64
    3200:	d65f03c0 	ret

0000000000003204 <_ZN12_GLOBAL__N_116itanium_demangle26SyntheticTemplateParamNameC1ENS0_17TemplateParamKindEj>:
    3204:	a9be7bfd 	stp	x29, x30, [sp, #-32]!
    3208:	910003fd 	mov	x29, sp
    320c:	f9000fe0 	str	x0, [sp, #24]
    3210:	b90017e1 	str	w1, [sp, #20]
    3214:	b90013e2 	str	w2, [sp, #16]
    3218:	f9400fe0 	ldr	x0, [sp, #24]
    321c:	52800024 	mov	w4, #0x1                   	// #1
    3220:	52800023 	mov	w3, #0x1                   	// #1
    3224:	52800022 	mov	w2, #0x1                   	// #1
    3228:	52800361 	mov	w1, #0x1b                  	// #27
    322c:	97fff5da 	bl	994 <_ZN12_GLOBAL__N_116itanium_demangle4NodeC2ENS1_4KindENS1_5CacheES3_S3_>
    3230:	90000000 	adrp	x0, 0 <_ZN12_GLOBAL__N_116itanium_demangle10StringViewC1EPKcS3_>
    3234:	91000001 	add	x1, x0, #0x0
    3238:	f9400fe0 	ldr	x0, [sp, #24]
    323c:	f9000001 	str	x1, [x0]
    3240:	f9400fe0 	ldr	x0, [sp, #24]
    3244:	b94017e1 	ldr	w1, [sp, #20]
    3248:	b9000c01 	str	w1, [x0, #12]
    324c:	f9400fe0 	ldr	x0, [sp, #24]
    3250:	b94013e1 	ldr	w1, [sp, #16]
    3254:	b9001001 	str	w1, [x0, #16]
    3258:	d503201f 	nop
    325c:	a8c27bfd 	ldp	x29, x30, [sp], #32
    3260:	d65f03c0 	ret

0000000000003264 <_ZNK12_GLOBAL__N_116itanium_demangle26SyntheticTemplateParamName9printLeftERNS0_12OutputStreamE>:
    3264:	a9bb7bfd 	stp	x29, x30, [sp, #-80]!
    3268:	910003fd 	mov	x29, sp
    326c:	f9000fe0 	str	x0, [sp, #24]
    3270:	f9000be1 	str	x1, [sp, #16]
    3274:	f9400fe0 	ldr	x0, [sp, #24]
    3278:	b9400c00 	ldr	w0, [x0, #12]
    327c:	7100081f 	cmp	w0, #0x2
    3280:	54000340 	b.eq	32e8 <_ZNK12_GLOBAL__N_116itanium_demangle26SyntheticTemplateParamName9printLeftERNS0_12OutputStreamE+0x84>  // b.none
    3284:	7100081f 	cmp	w0, #0x2
    3288:	5400042c 	b.gt	330c <_ZNK12_GLOBAL__N_116itanium_demangle26SyntheticTemplateParamName9printLeftERNS0_12OutputStreamE+0xa8>
    328c:	7100001f 	cmp	w0, #0x0
    3290:	54000080 	b.eq	32a0 <_ZNK12_GLOBAL__N_116itanium_demangle26SyntheticTemplateParamName9printLeftERNS0_12OutputStreamE+0x3c>  // b.none
    3294:	7100041f 	cmp	w0, #0x1
    3298:	54000160 	b.eq	32c4 <_ZNK12_GLOBAL__N_116itanium_demangle26SyntheticTemplateParamName9printLeftERNS0_12OutputStreamE+0x60>  // b.none
    329c:	1400001c 	b	330c <_ZNK12_GLOBAL__N_116itanium_demangle26SyntheticTemplateParamName9printLeftERNS0_12OutputStreamE+0xa8>
    32a0:	910083e2 	add	x2, sp, #0x20
    32a4:	90000000 	adrp	x0, 0 <_ZN12_GLOBAL__N_116itanium_demangle10StringViewC1EPKcS3_>
    32a8:	91000001 	add	x1, x0, #0x0
    32ac:	aa0203e0 	mov	x0, x2
    32b0:	97fff361 	bl	34 <_ZN12_GLOBAL__N_116itanium_demangle10StringViewC1EPKc>
    32b4:	a9420be1 	ldp	x1, x2, [sp, #32]
    32b8:	f9400be0 	ldr	x0, [sp, #16]
    32bc:	97fff511 	bl	700 <_ZN12_GLOBAL__N_116itanium_demangle12OutputStreampLENS0_10StringViewE>
    32c0:	14000013 	b	330c <_ZNK12_GLOBAL__N_116itanium_demangle26SyntheticTemplateParamName9printLeftERNS0_12OutputStreamE+0xa8>
    32c4:	9100c3e2 	add	x2, sp, #0x30
    32c8:	90000000 	adrp	x0, 0 <_ZN12_GLOBAL__N_116itanium_demangle10StringViewC1EPKcS3_>
    32cc:	91000001 	add	x1, x0, #0x0
    32d0:	aa0203e0 	mov	x0, x2
    32d4:	97fff358 	bl	34 <_ZN12_GLOBAL__N_116itanium_demangle10StringViewC1EPKc>
    32d8:	a9430be1 	ldp	x1, x2, [sp, #48]
    32dc:	f9400be0 	ldr	x0, [sp, #16]
    32e0:	97fff508 	bl	700 <_ZN12_GLOBAL__N_116itanium_demangle12OutputStreampLENS0_10StringViewE>
    32e4:	1400000a 	b	330c <_ZNK12_GLOBAL__N_116itanium_demangle26SyntheticTemplateParamName9printLeftERNS0_12OutputStreamE+0xa8>
    32e8:	910103e2 	add	x2, sp, #0x40
    32ec:	90000000 	adrp	x0, 0 <_ZN12_GLOBAL__N_116itanium_demangle10StringViewC1EPKcS3_>
    32f0:	91000001 	add	x1, x0, #0x0
    32f4:	aa0203e0 	mov	x0, x2
    32f8:	97fff34f 	bl	34 <_ZN12_GLOBAL__N_116itanium_demangle10StringViewC1EPKc>
    32fc:	a9440be1 	ldp	x1, x2, [sp, #64]
    3300:	f9400be0 	ldr	x0, [sp, #16]
    3304:	97fff4ff 	bl	700 <_ZN12_GLOBAL__N_116itanium_demangle12OutputStreampLENS0_10StringViewE>
    3308:	d503201f 	nop
    330c:	f9400fe0 	ldr	x0, [sp, #24]
    3310:	b9401000 	ldr	w0, [x0, #16]
    3314:	7100001f 	cmp	w0, #0x0
    3318:	540000e0 	b.eq	3334 <_ZNK12_GLOBAL__N_116itanium_demangle26SyntheticTemplateParamName9printLeftERNS0_12OutputStreamE+0xd0>  // b.none
    331c:	f9400fe0 	ldr	x0, [sp, #24]
    3320:	b9401000 	ldr	w0, [x0, #16]
    3324:	51000400 	sub	w0, w0, #0x1
    3328:	2a0003e1 	mov	w1, w0
    332c:	f9400be0 	ldr	x0, [sp, #16]
    3330:	97fff54b 	bl	85c <_ZN12_GLOBAL__N_116itanium_demangle12OutputStreamlsEj>
    3334:	d503201f 	nop
    3338:	a8c57bfd 	ldp	x29, x30, [sp], #80
    333c:	d65f03c0 	ret

0000000000003340 <_ZN12_GLOBAL__N_116itanium_demangle21TypeTemplateParamDeclC1EPNS0_4NodeE>:
    3340:	a9be7bfd 	stp	x29, x30, [sp, #-32]!
    3344:	910003fd 	mov	x29, sp
    3348:	f9000fe0 	str	x0, [sp, #24]
    334c:	f9000be1 	str	x1, [sp, #16]
    3350:	f9400fe0 	ldr	x0, [sp, #24]
    3354:	52800024 	mov	w4, #0x1                   	// #1
    3358:	52800023 	mov	w3, #0x1                   	// #1
    335c:	52800002 	mov	w2, #0x0                   	// #0
    3360:	52800381 	mov	w1, #0x1c                  	// #28
    3364:	97fff58c 	bl	994 <_ZN12_GLOBAL__N_116itanium_demangle4NodeC2ENS1_4KindENS1_5CacheES3_S3_>
    3368:	90000000 	adrp	x0, 0 <_ZN12_GLOBAL__N_116itanium_demangle10StringViewC1EPKcS3_>
    336c:	91000001 	add	x1, x0, #0x0
    3370:	f9400fe0 	ldr	x0, [sp, #24]
    3374:	f9000001 	str	x1, [x0]
    3378:	f9400fe0 	ldr	x0, [sp, #24]
    337c:	f9400be1 	ldr	x1, [sp, #16]
    3380:	f9000801 	str	x1, [x0, #16]
    3384:	d503201f 	nop
    3388:	a8c27bfd 	ldp	x29, x30, [sp], #32
    338c:	d65f03c0 	ret

0000000000003390 <_ZNK12_GLOBAL__N_116itanium_demangle21TypeTemplateParamDecl9printLeftERNS0_12OutputStreamE>:
    3390:	a9bd7bfd 	stp	x29, x30, [sp, #-48]!
    3394:	910003fd 	mov	x29, sp
    3398:	f9000fe0 	str	x0, [sp, #24]
    339c:	f9000be1 	str	x1, [sp, #16]
    33a0:	910083e2 	add	x2, sp, #0x20
    33a4:	90000000 	adrp	x0, 0 <_ZN12_GLOBAL__N_116itanium_demangle10StringViewC1EPKcS3_>
    33a8:	91000001 	add	x1, x0, #0x0
    33ac:	aa0203e0 	mov	x0, x2
    33b0:	97fff321 	bl	34 <_ZN12_GLOBAL__N_116itanium_demangle10StringViewC1EPKc>
    33b4:	a9420be1 	ldp	x1, x2, [sp, #32]
    33b8:	f9400be0 	ldr	x0, [sp, #16]
    33bc:	97fff4d1 	bl	700 <_ZN12_GLOBAL__N_116itanium_demangle12OutputStreampLENS0_10StringViewE>
    33c0:	d503201f 	nop
    33c4:	a8c37bfd 	ldp	x29, x30, [sp], #48
    33c8:	d65f03c0 	ret

00000000000033cc <_ZNK12_GLOBAL__N_116itanium_demangle21TypeTemplateParamDecl10printRightERNS0_12OutputStreamE>:
    33cc:	a9be7bfd 	stp	x29, x30, [sp, #-32]!
    33d0:	910003fd 	mov	x29, sp
    33d4:	f9000fe0 	str	x0, [sp, #24]
    33d8:	f9000be1 	str	x1, [sp, #16]
    33dc:	f9400fe0 	ldr	x0, [sp, #24]
    33e0:	f9400800 	ldr	x0, [x0, #16]
    33e4:	f9400be1 	ldr	x1, [sp, #16]
    33e8:	97fff5ec 	bl	b98 <_ZNK12_GLOBAL__N_116itanium_demangle4Node5printERNS0_12OutputStreamE>
    33ec:	d503201f 	nop
    33f0:	a8c27bfd 	ldp	x29, x30, [sp], #32
    33f4:	d65f03c0 	ret

00000000000033f8 <_ZN12_GLOBAL__N_116itanium_demangle24NonTypeTemplateParamDeclC1EPNS0_4NodeES3_>:
    33f8:	a9bd7bfd 	stp	x29, x30, [sp, #-48]!
    33fc:	910003fd 	mov	x29, sp
    3400:	f90017e0 	str	x0, [sp, #40]
    3404:	f90013e1 	str	x1, [sp, #32]
    3408:	f9000fe2 	str	x2, [sp, #24]
    340c:	f94017e0 	ldr	x0, [sp, #40]
    3410:	52800024 	mov	w4, #0x1                   	// #1
    3414:	52800023 	mov	w3, #0x1                   	// #1
    3418:	52800002 	mov	w2, #0x0                   	// #0
    341c:	528003a1 	mov	w1, #0x1d                  	// #29
    3420:	97fff55d 	bl	994 <_ZN12_GLOBAL__N_116itanium_demangle4NodeC2ENS1_4KindENS1_5CacheES3_S3_>
    3424:	90000000 	adrp	x0, 0 <_ZN12_GLOBAL__N_116itanium_demangle10StringViewC1EPKcS3_>
    3428:	91000001 	add	x1, x0, #0x0
    342c:	f94017e0 	ldr	x0, [sp, #40]
    3430:	f9000001 	str	x1, [x0]
    3434:	f94017e0 	ldr	x0, [sp, #40]
    3438:	f94013e1 	ldr	x1, [sp, #32]
    343c:	f9000801 	str	x1, [x0, #16]
    3440:	f94017e0 	ldr	x0, [sp, #40]
    3444:	f9400fe1 	ldr	x1, [sp, #24]
    3448:	f9000c01 	str	x1, [x0, #24]
    344c:	d503201f 	nop
    3450:	a8c37bfd 	ldp	x29, x30, [sp], #48
    3454:	d65f03c0 	ret

0000000000003458 <_ZNK12_GLOBAL__N_116itanium_demangle24NonTypeTemplateParamDecl9printLeftERNS0_12OutputStreamE>:
    3458:	a9bd7bfd 	stp	x29, x30, [sp, #-48]!
    345c:	910003fd 	mov	x29, sp
    3460:	f9000fe0 	str	x0, [sp, #24]
    3464:	f9000be1 	str	x1, [sp, #16]
    3468:	f9400fe0 	ldr	x0, [sp, #24]
    346c:	f9400c00 	ldr	x0, [x0, #24]
    3470:	f9400000 	ldr	x0, [x0]
    3474:	91008000 	add	x0, x0, #0x20
    3478:	f9400002 	ldr	x2, [x0]
    347c:	f9400fe0 	ldr	x0, [sp, #24]
    3480:	f9400c00 	ldr	x0, [x0, #24]
    3484:	f9400be1 	ldr	x1, [sp, #16]
    3488:	d63f0040 	blr	x2
    348c:	f9400fe0 	ldr	x0, [sp, #24]
    3490:	f9400c00 	ldr	x0, [x0, #24]
    3494:	f9400be1 	ldr	x1, [sp, #16]
    3498:	97fff558 	bl	9f8 <_ZNK12_GLOBAL__N_116itanium_demangle4Node15hasRHSComponentERNS0_12OutputStreamE>
    349c:	12001c00 	and	w0, w0, #0xff
    34a0:	52000000 	eor	w0, w0, #0x1
    34a4:	12001c00 	and	w0, w0, #0xff
    34a8:	7100001f 	cmp	w0, #0x0
    34ac:	54000120 	b.eq	34d0 <_ZNK12_GLOBAL__N_116itanium_demangle24NonTypeTemplateParamDecl9printLeftERNS0_12OutputStreamE+0x78>  // b.none
    34b0:	910083e2 	add	x2, sp, #0x20
    34b4:	90000000 	adrp	x0, 0 <_ZN12_GLOBAL__N_116itanium_demangle10StringViewC1EPKcS3_>
    34b8:	91000001 	add	x1, x0, #0x0
    34bc:	aa0203e0 	mov	x0, x2
    34c0:	97fff2dd 	bl	34 <_ZN12_GLOBAL__N_116itanium_demangle10StringViewC1EPKc>
    34c4:	a9420be1 	ldp	x1, x2, [sp, #32]
    34c8:	f9400be0 	ldr	x0, [sp, #16]
    34cc:	97fff48d 	bl	700 <_ZN12_GLOBAL__N_116itanium_demangle12OutputStreampLENS0_10StringViewE>
    34d0:	d503201f 	nop
    34d4:	a8c37bfd 	ldp	x29, x30, [sp], #48
    34d8:	d65f03c0 	ret

00000000000034dc <_ZNK12_GLOBAL__N_116itanium_demangle24NonTypeTemplateParamDecl10printRightERNS0_12OutputStreamE>:
    34dc:	a9be7bfd 	stp	x29, x30, [sp, #-32]!
    34e0:	910003fd 	mov	x29, sp
    34e4:	f9000fe0 	str	x0, [sp, #24]
    34e8:	f9000be1 	str	x1, [sp, #16]
    34ec:	f9400fe0 	ldr	x0, [sp, #24]
    34f0:	f9400800 	ldr	x0, [x0, #16]
    34f4:	f9400be1 	ldr	x1, [sp, #16]
    34f8:	97fff5a8 	bl	b98 <_ZNK12_GLOBAL__N_116itanium_demangle4Node5printERNS0_12OutputStreamE>
    34fc:	f9400fe0 	ldr	x0, [sp, #24]
    3500:	f9400c00 	ldr	x0, [x0, #24]
    3504:	f9400000 	ldr	x0, [x0]
    3508:	9100a000 	add	x0, x0, #0x28
    350c:	f9400002 	ldr	x2, [x0]
    3510:	f9400fe0 	ldr	x0, [sp, #24]
    3514:	f9400c00 	ldr	x0, [x0, #24]
    3518:	f9400be1 	ldr	x1, [sp, #16]
    351c:	d63f0040 	blr	x2
    3520:	d503201f 	nop
    3524:	a8c27bfd 	ldp	x29, x30, [sp], #32
    3528:	d65f03c0 	ret

000000000000352c <_ZN12_GLOBAL__N_116itanium_demangle25TemplateTemplateParamDeclC1EPNS0_4NodeENS0_9NodeArrayE>:
    352c:	a9bd7bfd 	stp	x29, x30, [sp, #-48]!
    3530:	910003fd 	mov	x29, sp
    3534:	f90017e0 	str	x0, [sp, #40]
    3538:	f90013e1 	str	x1, [sp, #32]
    353c:	a9010fe2 	stp	x2, x3, [sp, #16]
    3540:	f94017e0 	ldr	x0, [sp, #40]
    3544:	52800024 	mov	w4, #0x1                   	// #1
    3548:	52800023 	mov	w3, #0x1                   	// #1
    354c:	52800002 	mov	w2, #0x0                   	// #0
    3550:	528003c1 	mov	w1, #0x1e                  	// #30
    3554:	97fff510 	bl	994 <_ZN12_GLOBAL__N_116itanium_demangle4NodeC2ENS1_4KindENS1_5CacheES3_S3_>
    3558:	90000000 	adrp	x0, 0 <_ZN12_GLOBAL__N_116itanium_demangle10StringViewC1EPKcS3_>
    355c:	91000001 	add	x1, x0, #0x0
    3560:	f94017e0 	ldr	x0, [sp, #40]
    3564:	f9000001 	str	x1, [x0]
    3568:	f94017e0 	ldr	x0, [sp, #40]
    356c:	f94013e1 	ldr	x1, [sp, #32]
    3570:	f9000801 	str	x1, [x0, #16]
    3574:	f94017e2 	ldr	x2, [sp, #40]
    3578:	a94107e0 	ldp	x0, x1, [sp, #16]
    357c:	a9018440 	stp	x0, x1, [x2, #24]
    3580:	d503201f 	nop
    3584:	a8c37bfd 	ldp	x29, x30, [sp], #48
    3588:	d65f03c0 	ret

000000000000358c <_ZNK12_GLOBAL__N_116itanium_demangle25TemplateTemplateParamDecl9printLeftERNS0_12OutputStreamE>:
    358c:	a9bc7bfd 	stp	x29, x30, [sp, #-64]!
    3590:	910003fd 	mov	x29, sp
    3594:	f9000fe0 	str	x0, [sp, #24]
    3598:	f9000be1 	str	x1, [sp, #16]
    359c:	910083e2 	add	x2, sp, #0x20
    35a0:	90000000 	adrp	x0, 0 <_ZN12_GLOBAL__N_116itanium_demangle10StringViewC1EPKcS3_>
    35a4:	91000001 	add	x1, x0, #0x0
    35a8:	aa0203e0 	mov	x0, x2
    35ac:	97fff2a2 	bl	34 <_ZN12_GLOBAL__N_116itanium_demangle10StringViewC1EPKc>
    35b0:	a9420be1 	ldp	x1, x2, [sp, #32]
    35b4:	f9400be0 	ldr	x0, [sp, #16]
    35b8:	97fff452 	bl	700 <_ZN12_GLOBAL__N_116itanium_demangle12OutputStreampLENS0_10StringViewE>
    35bc:	f9400fe0 	ldr	x0, [sp, #24]
    35c0:	91006000 	add	x0, x0, #0x18
    35c4:	f9400be1 	ldr	x1, [sp, #16]
    35c8:	97fff5db 	bl	d34 <_ZNK12_GLOBAL__N_116itanium_demangle9NodeArray14printWithCommaERNS0_12OutputStreamE>
    35cc:	9100c3e2 	add	x2, sp, #0x30
    35d0:	90000000 	adrp	x0, 0 <_ZN12_GLOBAL__N_116itanium_demangle10StringViewC1EPKcS3_>
    35d4:	91000001 	add	x1, x0, #0x0
    35d8:	aa0203e0 	mov	x0, x2
    35dc:	97fff296 	bl	34 <_ZN12_GLOBAL__N_116itanium_demangle10StringViewC1EPKc>
    35e0:	a9430be1 	ldp	x1, x2, [sp, #48]
    35e4:	f9400be0 	ldr	x0, [sp, #16]
    35e8:	97fff446 	bl	700 <_ZN12_GLOBAL__N_116itanium_demangle12OutputStreampLENS0_10StringViewE>
    35ec:	d503201f 	nop
    35f0:	a8c47bfd 	ldp	x29, x30, [sp], #64
    35f4:	d65f03c0 	ret

00000000000035f8 <_ZNK12_GLOBAL__N_116itanium_demangle25TemplateTemplateParamDecl10printRightERNS0_12OutputStreamE>:
    35f8:	a9be7bfd 	stp	x29, x30, [sp, #-32]!
    35fc:	910003fd 	mov	x29, sp
    3600:	f9000fe0 	str	x0, [sp, #24]
    3604:	f9000be1 	str	x1, [sp, #16]
    3608:	f9400fe0 	ldr	x0, [sp, #24]
    360c:	f9400800 	ldr	x0, [x0, #16]
    3610:	f9400be1 	ldr	x1, [sp, #16]
    3614:	97fff561 	bl	b98 <_ZNK12_GLOBAL__N_116itanium_demangle4Node5printERNS0_12OutputStreamE>
    3618:	d503201f 	nop
    361c:	a8c27bfd 	ldp	x29, x30, [sp], #32
    3620:	d65f03c0 	ret

0000000000003624 <_ZN12_GLOBAL__N_116itanium_demangle21TemplateParamPackDeclC1EPNS0_4NodeE>:
    3624:	a9be7bfd 	stp	x29, x30, [sp, #-32]!
    3628:	910003fd 	mov	x29, sp
    362c:	f9000fe0 	str	x0, [sp, #24]
    3630:	f9000be1 	str	x1, [sp, #16]
    3634:	f9400fe0 	ldr	x0, [sp, #24]
    3638:	52800024 	mov	w4, #0x1                   	// #1
    363c:	52800023 	mov	w3, #0x1                   	// #1
    3640:	52800002 	mov	w2, #0x0                   	// #0
    3644:	528003e1 	mov	w1, #0x1f                  	// #31
    3648:	97fff4d3 	bl	994 <_ZN12_GLOBAL__N_116itanium_demangle4NodeC2ENS1_4KindENS1_5CacheES3_S3_>
    364c:	90000000 	adrp	x0, 0 <_ZN12_GLOBAL__N_116itanium_demangle10StringViewC1EPKcS3_>
    3650:	91000001 	add	x1, x0, #0x0
    3654:	f9400fe0 	ldr	x0, [sp, #24]
    3658:	f9000001 	str	x1, [x0]
    365c:	f9400fe0 	ldr	x0, [sp, #24]
    3660:	f9400be1 	ldr	x1, [sp, #16]
    3664:	f9000801 	str	x1, [x0, #16]
    3668:	d503201f 	nop
    366c:	a8c27bfd 	ldp	x29, x30, [sp], #32
    3670:	d65f03c0 	ret

0000000000003674 <_ZNK12_GLOBAL__N_116itanium_demangle21TemplateParamPackDecl9printLeftERNS0_12OutputStreamE>:
    3674:	a9bd7bfd 	stp	x29, x30, [sp, #-48]!
    3678:	910003fd 	mov	x29, sp
    367c:	f9000fe0 	str	x0, [sp, #24]
    3680:	f9000be1 	str	x1, [sp, #16]
    3684:	f9400fe0 	ldr	x0, [sp, #24]
    3688:	f9400800 	ldr	x0, [x0, #16]
    368c:	f9400000 	ldr	x0, [x0]
    3690:	91008000 	add	x0, x0, #0x20
    3694:	f9400002 	ldr	x2, [x0]
    3698:	f9400fe0 	ldr	x0, [sp, #24]
    369c:	f9400800 	ldr	x0, [x0, #16]
    36a0:	f9400be1 	ldr	x1, [sp, #16]
    36a4:	d63f0040 	blr	x2
    36a8:	910083e2 	add	x2, sp, #0x20
    36ac:	90000000 	adrp	x0, 0 <_ZN12_GLOBAL__N_116itanium_demangle10StringViewC1EPKcS3_>
    36b0:	91000001 	add	x1, x0, #0x0
    36b4:	aa0203e0 	mov	x0, x2
    36b8:	97fff25f 	bl	34 <_ZN12_GLOBAL__N_116itanium_demangle10StringViewC1EPKc>
    36bc:	a9420be1 	ldp	x1, x2, [sp, #32]
    36c0:	f9400be0 	ldr	x0, [sp, #16]
    36c4:	97fff40f 	bl	700 <_ZN12_GLOBAL__N_116itanium_demangle12OutputStreampLENS0_10StringViewE>
    36c8:	d503201f 	nop
    36cc:	a8c37bfd 	ldp	x29, x30, [sp], #48
    36d0:	d65f03c0 	ret

00000000000036d4 <_ZNK12_GLOBAL__N_116itanium_demangle21TemplateParamPackDecl10printRightERNS0_12OutputStreamE>:
    36d4:	a9be7bfd 	stp	x29, x30, [sp, #-32]!
    36d8:	910003fd 	mov	x29, sp
    36dc:	f9000fe0 	str	x0, [sp, #24]
    36e0:	f9000be1 	str	x1, [sp, #16]
    36e4:	f9400fe0 	ldr	x0, [sp, #24]
    36e8:	f9400800 	ldr	x0, [x0, #16]
    36ec:	f9400000 	ldr	x0, [x0]
    36f0:	9100a000 	add	x0, x0, #0x28
    36f4:	f9400002 	ldr	x2, [x0]
    36f8:	f9400fe0 	ldr	x0, [sp, #24]
    36fc:	f9400800 	ldr	x0, [x0, #16]
    3700:	f9400be1 	ldr	x1, [sp, #16]
    3704:	d63f0040 	blr	x2
    3708:	d503201f 	nop
    370c:	a8c27bfd 	ldp	x29, x30, [sp], #32
    3710:	d65f03c0 	ret

0000000000003714 <_ZNK12_GLOBAL__N_116itanium_demangle13ParameterPack23initializePackExpansionERNS0_12OutputStreamE>:
    3714:	a9be7bfd 	stp	x29, x30, [sp, #-32]!
    3718:	910003fd 	mov	x29, sp
    371c:	f9000fe0 	str	x0, [sp, #24]
    3720:	f9000be1 	str	x1, [sp, #16]
    3724:	f9400be0 	ldr	x0, [sp, #16]
    3728:	b9401c01 	ldr	w1, [x0, #28]
    372c:	12800000 	mov	w0, #0xffffffff            	// #-1
    3730:	d503201f 	nop
    3734:	6b00003f 	cmp	w1, w0
    3738:	1a9f17e0 	cset	w0, eq  // eq = none
    373c:	12001c00 	and	w0, w0, #0xff
    3740:	7100001f 	cmp	w0, #0x0
    3744:	54000120 	b.eq	3768 <_ZNK12_GLOBAL__N_116itanium_demangle13ParameterPack23initializePackExpansionERNS0_12OutputStreamE+0x54>  // b.none
    3748:	f9400fe0 	ldr	x0, [sp, #24]
    374c:	91004000 	add	x0, x0, #0x10
    3750:	97fff558 	bl	cb0 <_ZNK12_GLOBAL__N_116itanium_demangle9NodeArray4sizeEv>
    3754:	2a0003e1 	mov	w1, w0
    3758:	f9400be0 	ldr	x0, [sp, #16]
    375c:	b9001c01 	str	w1, [x0, #28]
    3760:	f9400be0 	ldr	x0, [sp, #16]
    3764:	b900181f 	str	wzr, [x0, #24]
    3768:	d503201f 	nop
    376c:	a8c27bfd 	ldp	x29, x30, [sp], #32
    3770:	d65f03c0 	ret

0000000000003774 <_ZZN12_GLOBAL__N_116itanium_demangle13ParameterPackC4ENS0_9NodeArrayEENKUlPNS0_4NodeEE_clES4_>:
    3774:	d10043ff 	sub	sp, sp, #0x10
    3778:	f90007e0 	str	x0, [sp, #8]
    377c:	f90003e1 	str	x1, [sp]
    3780:	f94003e0 	ldr	x0, [sp]
    3784:	39402800 	ldrb	w0, [x0, #10]
    3788:	7100041f 	cmp	w0, #0x1
    378c:	1a9f17e0 	cset	w0, eq  // eq = none
    3790:	12001c00 	and	w0, w0, #0xff
    3794:	910043ff 	add	sp, sp, #0x10
    3798:	d65f03c0 	ret

000000000000379c <_ZZN12_GLOBAL__N_116itanium_demangle13ParameterPackC4ENS0_9NodeArrayEENKUlPNS0_4NodeEE0_clES4_>:
    379c:	d10043ff 	sub	sp, sp, #0x10
    37a0:	f90007e0 	str	x0, [sp, #8]
    37a4:	f90003e1 	str	x1, [sp]
    37a8:	f94003e0 	ldr	x0, [sp]
    37ac:	39402c00 	ldrb	w0, [x0, #11]
    37b0:	7100041f 	cmp	w0, #0x1
    37b4:	1a9f17e0 	cset	w0, eq  // eq = none
    37b8:	12001c00 	and	w0, w0, #0xff
    37bc:	910043ff 	add	sp, sp, #0x10
    37c0:	d65f03c0 	ret

00000000000037c4 <_ZZN12_GLOBAL__N_116itanium_demangle13ParameterPackC4ENS0_9NodeArrayEENKUlPNS0_4NodeEE1_clES4_>:
    37c4:	d10043ff 	sub	sp, sp, #0x10
    37c8:	f90007e0 	str	x0, [sp, #8]
    37cc:	f90003e1 	str	x1, [sp]
    37d0:	f94003e0 	ldr	x0, [sp]
    37d4:	39402400 	ldrb	w0, [x0, #9]
    37d8:	7100041f 	cmp	w0, #0x1
    37dc:	1a9f17e0 	cset	w0, eq  // eq = none
    37e0:	12001c00 	and	w0, w0, #0xff
    37e4:	910043ff 	add	sp, sp, #0x10
    37e8:	d65f03c0 	ret

00000000000037ec <_ZN12_GLOBAL__N_116itanium_demangle13ParameterPackC1ENS0_9NodeArrayE>:
    37ec:	a9b67bfd 	stp	x29, x30, [sp, #-160]!
    37f0:	910003fd 	mov	x29, sp
    37f4:	a90153f3 	stp	x19, x20, [sp, #16]
    37f8:	a9025bf5 	stp	x21, x22, [sp, #32]
    37fc:	f90027e0 	str	x0, [sp, #72]
    3800:	a9038be1 	stp	x1, x2, [sp, #56]
    3804:	f94027e0 	ldr	x0, [sp, #72]
    3808:	52800024 	mov	w4, #0x1                   	// #1
    380c:	52800023 	mov	w3, #0x1                   	// #1
    3810:	52800022 	mov	w2, #0x1                   	// #1
    3814:	52800401 	mov	w1, #0x20                  	// #32
    3818:	97fff45f 	bl	994 <_ZN12_GLOBAL__N_116itanium_demangle4NodeC2ENS1_4KindENS1_5CacheES3_S3_>
    381c:	90000000 	adrp	x0, 0 <_ZN12_GLOBAL__N_116itanium_demangle10StringViewC1EPKcS3_>
    3820:	91000001 	add	x1, x0, #0x0
    3824:	f94027e0 	ldr	x0, [sp, #72]
    3828:	f9000001 	str	x1, [x0]
    382c:	f94027e2 	ldr	x2, [sp, #72]
    3830:	a94387e0 	ldp	x0, x1, [sp, #56]
    3834:	a9010440 	stp	x0, x1, [x2, #16]
    3838:	f94027e0 	ldr	x0, [sp, #72]
    383c:	52800041 	mov	w1, #0x2                   	// #2
    3840:	39002401 	strb	w1, [x0, #9]
    3844:	f94027e0 	ldr	x0, [sp, #72]
    3848:	39402401 	ldrb	w1, [x0, #9]
    384c:	f94027e0 	ldr	x0, [sp, #72]
    3850:	39002c01 	strb	w1, [x0, #11]
    3854:	f94027e0 	ldr	x0, [sp, #72]
    3858:	39402c01 	ldrb	w1, [x0, #11]
    385c:	f94027e0 	ldr	x0, [sp, #72]
    3860:	39002801 	strb	w1, [x0, #10]
    3864:	f94027e0 	ldr	x0, [sp, #72]
    3868:	91004000 	add	x0, x0, #0x10
    386c:	97fff517 	bl	cc8 <_ZNK12_GLOBAL__N_116itanium_demangle9NodeArray5beginEv>
    3870:	aa0003f3 	mov	x19, x0
    3874:	f94027e0 	ldr	x0, [sp, #72]
    3878:	91004000 	add	x0, x0, #0x10
    387c:	97fff519 	bl	ce0 <_ZNK12_GLOBAL__N_116itanium_demangle9NodeArray3endEv>
    3880:	f9004ff3 	str	x19, [sp, #152]
    3884:	f9004be0 	str	x0, [sp, #144]
    3888:	3901a3f6 	strb	w22, [sp, #104]
    388c:	f9404be1 	ldr	x1, [sp, #144]
    3890:	f9404fe0 	ldr	x0, [sp, #152]
    3894:	eb00003f 	cmp	x1, x0
    3898:	54000200 	b.eq	38d8 <_ZN12_GLOBAL__N_116itanium_demangle13ParameterPackC1ENS0_9NodeArrayE+0xec>  // b.none
    389c:	f9404fe0 	ldr	x0, [sp, #152]
    38a0:	f9400001 	ldr	x1, [x0]
    38a4:	9101a3e0 	add	x0, sp, #0x68
    38a8:	97ffffb3 	bl	3774 <_ZZN12_GLOBAL__N_116itanium_demangle13ParameterPackC4ENS0_9NodeArrayEENKUlPNS0_4NodeEE_clES4_>
    38ac:	12001c00 	and	w0, w0, #0xff
    38b0:	52000000 	eor	w0, w0, #0x1
    38b4:	12001c00 	and	w0, w0, #0xff
    38b8:	7100001f 	cmp	w0, #0x0
    38bc:	54000060 	b.eq	38c8 <_ZN12_GLOBAL__N_116itanium_demangle13ParameterPackC1ENS0_9NodeArrayE+0xdc>  // b.none
    38c0:	52800000 	mov	w0, #0x0                   	// #0
    38c4:	14000006 	b	38dc <_ZN12_GLOBAL__N_116itanium_demangle13ParameterPackC1ENS0_9NodeArrayE+0xf0>
    38c8:	f9404fe0 	ldr	x0, [sp, #152]
    38cc:	91002000 	add	x0, x0, #0x8
    38d0:	f9004fe0 	str	x0, [sp, #152]
    38d4:	17ffffee 	b	388c <_ZN12_GLOBAL__N_116itanium_demangle13ParameterPackC1ENS0_9NodeArrayE+0xa0>
    38d8:	52800020 	mov	w0, #0x1                   	// #1
    38dc:	7100001f 	cmp	w0, #0x0
    38e0:	54000080 	b.eq	38f0 <_ZN12_GLOBAL__N_116itanium_demangle13ParameterPackC1ENS0_9NodeArrayE+0x104>  // b.none
    38e4:	f94027e0 	ldr	x0, [sp, #72]
    38e8:	52800021 	mov	w1, #0x1                   	// #1
    38ec:	39002801 	strb	w1, [x0, #10]
    38f0:	f94027e0 	ldr	x0, [sp, #72]
    38f4:	91004000 	add	x0, x0, #0x10
    38f8:	97fff4f4 	bl	cc8 <_ZNK12_GLOBAL__N_116itanium_demangle9NodeArray5beginEv>
    38fc:	aa0003f3 	mov	x19, x0
    3900:	f94027e0 	ldr	x0, [sp, #72]
    3904:	91004000 	add	x0, x0, #0x10
    3908:	97fff4f6 	bl	ce0 <_ZNK12_GLOBAL__N_116itanium_demangle9NodeArray3endEv>
    390c:	f90047f3 	str	x19, [sp, #136]
    3910:	f90043e0 	str	x0, [sp, #128]
    3914:	390183f5 	strb	w21, [sp, #96]
    3918:	f94043e1 	ldr	x1, [sp, #128]
    391c:	f94047e0 	ldr	x0, [sp, #136]
    3920:	eb00003f 	cmp	x1, x0
    3924:	54000200 	b.eq	3964 <_ZN12_GLOBAL__N_116itanium_demangle13ParameterPackC1ENS0_9NodeArrayE+0x178>  // b.none
    3928:	f94047e0 	ldr	x0, [sp, #136]
    392c:	f9400001 	ldr	x1, [x0]
    3930:	910183e0 	add	x0, sp, #0x60
    3934:	97ffff9a 	bl	379c <_ZZN12_GLOBAL__N_116itanium_demangle13ParameterPackC4ENS0_9NodeArrayEENKUlPNS0_4NodeEE0_clES4_>
    3938:	12001c00 	and	w0, w0, #0xff
    393c:	52000000 	eor	w0, w0, #0x1
    3940:	12001c00 	and	w0, w0, #0xff
    3944:	7100001f 	cmp	w0, #0x0
    3948:	54000060 	b.eq	3954 <_ZN12_GLOBAL__N_116itanium_demangle13ParameterPackC1ENS0_9NodeArrayE+0x168>  // b.none
    394c:	52800000 	mov	w0, #0x0                   	// #0
    3950:	14000006 	b	3968 <_ZN12_GLOBAL__N_116itanium_demangle13ParameterPackC1ENS0_9NodeArrayE+0x17c>
    3954:	f94047e0 	ldr	x0, [sp, #136]
    3958:	91002000 	add	x0, x0, #0x8
    395c:	f90047e0 	str	x0, [sp, #136]
    3960:	17ffffee 	b	3918 <_ZN12_GLOBAL__N_116itanium_demangle13ParameterPackC1ENS0_9NodeArrayE+0x12c>
    3964:	52800020 	mov	w0, #0x1                   	// #1
    3968:	7100001f 	cmp	w0, #0x0
    396c:	54000080 	b.eq	397c <_ZN12_GLOBAL__N_116itanium_demangle13ParameterPackC1ENS0_9NodeArrayE+0x190>  // b.none
    3970:	f94027e0 	ldr	x0, [sp, #72]
    3974:	52800021 	mov	w1, #0x1                   	// #1
    3978:	39002c01 	strb	w1, [x0, #11]
    397c:	f94027e0 	ldr	x0, [sp, #72]
    3980:	91004000 	add	x0, x0, #0x10
    3984:	97fff4d1 	bl	cc8 <_ZNK12_GLOBAL__N_116itanium_demangle9NodeArray5beginEv>
    3988:	aa0003f3 	mov	x19, x0
    398c:	f94027e0 	ldr	x0, [sp, #72]
    3990:	91004000 	add	x0, x0, #0x10
    3994:	97fff4d3 	bl	ce0 <_ZNK12_GLOBAL__N_116itanium_demangle9NodeArray3endEv>
    3998:	f9003ff3 	str	x19, [sp, #120]
    399c:	f9003be0 	str	x0, [sp, #112]
    39a0:	390163f4 	strb	w20, [sp, #88]
    39a4:	f9403be1 	ldr	x1, [sp, #112]
    39a8:	f9403fe0 	ldr	x0, [sp, #120]
    39ac:	eb00003f 	cmp	x1, x0
    39b0:	54000200 	b.eq	39f0 <_ZN12_GLOBAL__N_116itanium_demangle13ParameterPackC1ENS0_9NodeArrayE+0x204>  // b.none
    39b4:	f9403fe0 	ldr	x0, [sp, #120]
    39b8:	f9400001 	ldr	x1, [x0]
    39bc:	910163e0 	add	x0, sp, #0x58
    39c0:	97ffff81 	bl	37c4 <_ZZN12_GLOBAL__N_116itanium_demangle13ParameterPackC4ENS0_9NodeArrayEENKUlPNS0_4NodeEE1_clES4_>
    39c4:	12001c00 	and	w0, w0, #0xff
    39c8:	52000000 	eor	w0, w0, #0x1
    39cc:	12001c00 	and	w0, w0, #0xff
    39d0:	7100001f 	cmp	w0, #0x0
    39d4:	54000060 	b.eq	39e0 <_ZN12_GLOBAL__N_116itanium_demangle13ParameterPackC1ENS0_9NodeArrayE+0x1f4>  // b.none
    39d8:	52800000 	mov	w0, #0x0                   	// #0
    39dc:	14000006 	b	39f4 <_ZN12_GLOBAL__N_116itanium_demangle13ParameterPackC1ENS0_9NodeArrayE+0x208>
    39e0:	f9403fe0 	ldr	x0, [sp, #120]
    39e4:	91002000 	add	x0, x0, #0x8
    39e8:	f9003fe0 	str	x0, [sp, #120]
    39ec:	17ffffee 	b	39a4 <_ZN12_GLOBAL__N_116itanium_demangle13ParameterPackC1ENS0_9NodeArrayE+0x1b8>
    39f0:	52800020 	mov	w0, #0x1                   	// #1
    39f4:	7100001f 	cmp	w0, #0x0
    39f8:	54000080 	b.eq	3a08 <_ZN12_GLOBAL__N_116itanium_demangle13ParameterPackC1ENS0_9NodeArrayE+0x21c>  // b.none
    39fc:	f94027e0 	ldr	x0, [sp, #72]
    3a00:	52800021 	mov	w1, #0x1                   	// #1
    3a04:	39002401 	strb	w1, [x0, #9]
    3a08:	d503201f 	nop
    3a0c:	a94153f3 	ldp	x19, x20, [sp, #16]
    3a10:	a9425bf5 	ldp	x21, x22, [sp, #32]
    3a14:	a8ca7bfd 	ldp	x29, x30, [sp], #160
    3a18:	d65f03c0 	ret

0000000000003a1c <_ZNK12_GLOBAL__N_116itanium_demangle13ParameterPack19hasRHSComponentSlowERNS0_12OutputStreamE>:
    3a1c:	a9bd7bfd 	stp	x29, x30, [sp, #-48]!
    3a20:	910003fd 	mov	x29, sp
    3a24:	f9000fe0 	str	x0, [sp, #24]
    3a28:	f9000be1 	str	x1, [sp, #16]
    3a2c:	f9400be1 	ldr	x1, [sp, #16]
    3a30:	f9400fe0 	ldr	x0, [sp, #24]
    3a34:	97ffff38 	bl	3714 <_ZNK12_GLOBAL__N_116itanium_demangle13ParameterPack23initializePackExpansionERNS0_12OutputStreamE>
    3a38:	f9400be0 	ldr	x0, [sp, #16]
    3a3c:	b9401800 	ldr	w0, [x0, #24]
    3a40:	2a0003e0 	mov	w0, w0
    3a44:	f90017e0 	str	x0, [sp, #40]
    3a48:	f9400fe0 	ldr	x0, [sp, #24]
    3a4c:	91004000 	add	x0, x0, #0x10
    3a50:	97fff498 	bl	cb0 <_ZNK12_GLOBAL__N_116itanium_demangle9NodeArray4sizeEv>
    3a54:	aa0003e1 	mov	x1, x0
    3a58:	f94017e0 	ldr	x0, [sp, #40]
    3a5c:	eb01001f 	cmp	x0, x1
    3a60:	54000182 	b.cs	3a90 <_ZNK12_GLOBAL__N_116itanium_demangle13ParameterPack19hasRHSComponentSlowERNS0_12OutputStreamE+0x74>  // b.hs, b.nlast
    3a64:	f9400fe0 	ldr	x0, [sp, #24]
    3a68:	91004000 	add	x0, x0, #0x10
    3a6c:	f94017e1 	ldr	x1, [sp, #40]
    3a70:	97fff4a6 	bl	d08 <_ZNK12_GLOBAL__N_116itanium_demangle9NodeArrayixEm>
    3a74:	f9400be1 	ldr	x1, [sp, #16]
    3a78:	97fff3e0 	bl	9f8 <_ZNK12_GLOBAL__N_116itanium_demangle4Node15hasRHSComponentERNS0_12OutputStreamE>
    3a7c:	12001c00 	and	w0, w0, #0xff
    3a80:	7100001f 	cmp	w0, #0x0
    3a84:	54000060 	b.eq	3a90 <_ZNK12_GLOBAL__N_116itanium_demangle13ParameterPack19hasRHSComponentSlowERNS0_12OutputStreamE+0x74>  // b.none
    3a88:	52800020 	mov	w0, #0x1                   	// #1
    3a8c:	14000002 	b	3a94 <_ZNK12_GLOBAL__N_116itanium_demangle13ParameterPack19hasRHSComponentSlowERNS0_12OutputStreamE+0x78>
    3a90:	52800000 	mov	w0, #0x0                   	// #0
    3a94:	a8c37bfd 	ldp	x29, x30, [sp], #48
    3a98:	d65f03c0 	ret

0000000000003a9c <_ZNK12_GLOBAL__N_116itanium_demangle13ParameterPack12hasArraySlowERNS0_12OutputStreamE>:
    3a9c:	a9bd7bfd 	stp	x29, x30, [sp, #-48]!
    3aa0:	910003fd 	mov	x29, sp
    3aa4:	f9000fe0 	str	x0, [sp, #24]
    3aa8:	f9000be1 	str	x1, [sp, #16]
    3aac:	f9400be1 	ldr	x1, [sp, #16]
    3ab0:	f9400fe0 	ldr	x0, [sp, #24]
    3ab4:	97ffff18 	bl	3714 <_ZNK12_GLOBAL__N_116itanium_demangle13ParameterPack23initializePackExpansionERNS0_12OutputStreamE>
    3ab8:	f9400be0 	ldr	x0, [sp, #16]
    3abc:	b9401800 	ldr	w0, [x0, #24]
    3ac0:	2a0003e0 	mov	w0, w0
    3ac4:	f90017e0 	str	x0, [sp, #40]
    3ac8:	f9400fe0 	ldr	x0, [sp, #24]
    3acc:	91004000 	add	x0, x0, #0x10
    3ad0:	97fff478 	bl	cb0 <_ZNK12_GLOBAL__N_116itanium_demangle9NodeArray4sizeEv>
    3ad4:	aa0003e1 	mov	x1, x0
    3ad8:	f94017e0 	ldr	x0, [sp, #40]
    3adc:	eb01001f 	cmp	x0, x1
    3ae0:	54000182 	b.cs	3b10 <_ZNK12_GLOBAL__N_116itanium_demangle13ParameterPack12hasArraySlowERNS0_12OutputStreamE+0x74>  // b.hs, b.nlast
    3ae4:	f9400fe0 	ldr	x0, [sp, #24]
    3ae8:	91004000 	add	x0, x0, #0x10
    3aec:	f94017e1 	ldr	x1, [sp, #40]
    3af0:	97fff486 	bl	d08 <_ZNK12_GLOBAL__N_116itanium_demangle9NodeArrayixEm>
    3af4:	f9400be1 	ldr	x1, [sp, #16]
    3af8:	97fff3d8 	bl	a58 <_ZNK12_GLOBAL__N_116itanium_demangle4Node8hasArrayERNS0_12OutputStreamE>
    3afc:	12001c00 	and	w0, w0, #0xff
    3b00:	7100001f 	cmp	w0, #0x0
    3b04:	54000060 	b.eq	3b10 <_ZNK12_GLOBAL__N_116itanium_demangle13ParameterPack12hasArraySlowERNS0_12OutputStreamE+0x74>  // b.none
    3b08:	52800020 	mov	w0, #0x1                   	// #1
    3b0c:	14000002 	b	3b14 <_ZNK12_GLOBAL__N_116itanium_demangle13ParameterPack12hasArraySlowERNS0_12OutputStreamE+0x78>
    3b10:	52800000 	mov	w0, #0x0                   	// #0
    3b14:	a8c37bfd 	ldp	x29, x30, [sp], #48
    3b18:	d65f03c0 	ret

0000000000003b1c <_ZNK12_GLOBAL__N_116itanium_demangle13ParameterPack15hasFunctionSlowERNS0_12OutputStreamE>:
    3b1c:	a9bd7bfd 	stp	x29, x30, [sp, #-48]!
    3b20:	910003fd 	mov	x29, sp
    3b24:	f9000fe0 	str	x0, [sp, #24]
    3b28:	f9000be1 	str	x1, [sp, #16]
    3b2c:	f9400be1 	ldr	x1, [sp, #16]
    3b30:	f9400fe0 	ldr	x0, [sp, #24]
    3b34:	97fffef8 	bl	3714 <_ZNK12_GLOBAL__N_116itanium_demangle13ParameterPack23initializePackExpansionERNS0_12OutputStreamE>
    3b38:	f9400be0 	ldr	x0, [sp, #16]
    3b3c:	b9401800 	ldr	w0, [x0, #24]
    3b40:	2a0003e0 	mov	w0, w0
    3b44:	f90017e0 	str	x0, [sp, #40]
    3b48:	f9400fe0 	ldr	x0, [sp, #24]
    3b4c:	91004000 	add	x0, x0, #0x10
    3b50:	97fff458 	bl	cb0 <_ZNK12_GLOBAL__N_116itanium_demangle9NodeArray4sizeEv>
    3b54:	aa0003e1 	mov	x1, x0
    3b58:	f94017e0 	ldr	x0, [sp, #40]
    3b5c:	eb01001f 	cmp	x0, x1
    3b60:	54000182 	b.cs	3b90 <_ZNK12_GLOBAL__N_116itanium_demangle13ParameterPack15hasFunctionSlowERNS0_12OutputStreamE+0x74>  // b.hs, b.nlast
    3b64:	f9400fe0 	ldr	x0, [sp, #24]
    3b68:	91004000 	add	x0, x0, #0x10
    3b6c:	f94017e1 	ldr	x1, [sp, #40]
    3b70:	97fff466 	bl	d08 <_ZNK12_GLOBAL__N_116itanium_demangle9NodeArrayixEm>
    3b74:	f9400be1 	ldr	x1, [sp, #16]
    3b78:	97fff3d1 	bl	abc <_ZNK12_GLOBAL__N_116itanium_demangle4Node11hasFunctionERNS0_12OutputStreamE>
    3b7c:	12001c00 	and	w0, w0, #0xff
    3b80:	7100001f 	cmp	w0, #0x0
    3b84:	54000060 	b.eq	3b90 <_ZNK12_GLOBAL__N_116itanium_demangle13ParameterPack15hasFunctionSlowERNS0_12OutputStreamE+0x74>  // b.none
    3b88:	52800020 	mov	w0, #0x1                   	// #1
    3b8c:	14000002 	b	3b94 <_ZNK12_GLOBAL__N_116itanium_demangle13ParameterPack15hasFunctionSlowERNS0_12OutputStreamE+0x78>
    3b90:	52800000 	mov	w0, #0x0                   	// #0
    3b94:	a8c37bfd 	ldp	x29, x30, [sp], #48
    3b98:	d65f03c0 	ret

0000000000003b9c <_ZNK12_GLOBAL__N_116itanium_demangle13ParameterPack13getSyntaxNodeERNS0_12OutputStreamE>:
    3b9c:	a9bd7bfd 	stp	x29, x30, [sp, #-48]!
    3ba0:	910003fd 	mov	x29, sp
    3ba4:	f9000fe0 	str	x0, [sp, #24]
    3ba8:	f9000be1 	str	x1, [sp, #16]
    3bac:	f9400be1 	ldr	x1, [sp, #16]
    3bb0:	f9400fe0 	ldr	x0, [sp, #24]
    3bb4:	97fffed8 	bl	3714 <_ZNK12_GLOBAL__N_116itanium_demangle13ParameterPack23initializePackExpansionERNS0_12OutputStreamE>
    3bb8:	f9400be0 	ldr	x0, [sp, #16]
    3bbc:	b9401800 	ldr	w0, [x0, #24]
    3bc0:	2a0003e0 	mov	w0, w0
    3bc4:	f90017e0 	str	x0, [sp, #40]
    3bc8:	f9400fe0 	ldr	x0, [sp, #24]
    3bcc:	91004000 	add	x0, x0, #0x10
    3bd0:	97fff438 	bl	cb0 <_ZNK12_GLOBAL__N_116itanium_demangle9NodeArray4sizeEv>
    3bd4:	aa0003e1 	mov	x1, x0
    3bd8:	f94017e0 	ldr	x0, [sp, #40]
    3bdc:	eb01001f 	cmp	x0, x1
    3be0:	54000162 	b.cs	3c0c <_ZNK12_GLOBAL__N_116itanium_demangle13ParameterPack13getSyntaxNodeERNS0_12OutputStreamE+0x70>  // b.hs, b.nlast
    3be4:	f9400fe0 	ldr	x0, [sp, #24]
    3be8:	91004000 	add	x0, x0, #0x10
    3bec:	f94017e1 	ldr	x1, [sp, #40]
    3bf0:	97fff446 	bl	d08 <_ZNK12_GLOBAL__N_116itanium_demangle9NodeArrayixEm>
    3bf4:	f9400001 	ldr	x1, [x0]
    3bf8:	91006021 	add	x1, x1, #0x18
    3bfc:	f9400022 	ldr	x2, [x1]
    3c00:	f9400be1 	ldr	x1, [sp, #16]
    3c04:	d63f0040 	blr	x2
    3c08:	14000002 	b	3c10 <_ZNK12_GLOBAL__N_116itanium_demangle13ParameterPack13getSyntaxNodeERNS0_12OutputStreamE+0x74>
    3c0c:	f9400fe0 	ldr	x0, [sp, #24]
    3c10:	a8c37bfd 	ldp	x29, x30, [sp], #48
    3c14:	d65f03c0 	ret

0000000000003c18 <_ZNK12_GLOBAL__N_116itanium_demangle13ParameterPack9printLeftERNS0_12OutputStreamE>:
    3c18:	a9bd7bfd 	stp	x29, x30, [sp, #-48]!
    3c1c:	910003fd 	mov	x29, sp
    3c20:	f9000fe0 	str	x0, [sp, #24]
    3c24:	f9000be1 	str	x1, [sp, #16]
    3c28:	f9400be1 	ldr	x1, [sp, #16]
    3c2c:	f9400fe0 	ldr	x0, [sp, #24]
    3c30:	97fffeb9 	bl	3714 <_ZNK12_GLOBAL__N_116itanium_demangle13ParameterPack23initializePackExpansionERNS0_12OutputStreamE>
    3c34:	f9400be0 	ldr	x0, [sp, #16]
    3c38:	b9401800 	ldr	w0, [x0, #24]
    3c3c:	2a0003e0 	mov	w0, w0
    3c40:	f90017e0 	str	x0, [sp, #40]
    3c44:	f9400fe0 	ldr	x0, [sp, #24]
    3c48:	91004000 	add	x0, x0, #0x10
    3c4c:	97fff419 	bl	cb0 <_ZNK12_GLOBAL__N_116itanium_demangle9NodeArray4sizeEv>
    3c50:	aa0003e1 	mov	x1, x0
    3c54:	f94017e0 	ldr	x0, [sp, #40]
    3c58:	eb01001f 	cmp	x0, x1
    3c5c:	1a9f27e0 	cset	w0, cc  // cc = lo, ul, last
    3c60:	12001c00 	and	w0, w0, #0xff
    3c64:	7100001f 	cmp	w0, #0x0
    3c68:	54000140 	b.eq	3c90 <_ZNK12_GLOBAL__N_116itanium_demangle13ParameterPack9printLeftERNS0_12OutputStreamE+0x78>  // b.none
    3c6c:	f9400fe0 	ldr	x0, [sp, #24]
    3c70:	91004000 	add	x0, x0, #0x10
    3c74:	f94017e1 	ldr	x1, [sp, #40]
    3c78:	97fff424 	bl	d08 <_ZNK12_GLOBAL__N_116itanium_demangle9NodeArrayixEm>
    3c7c:	f9400001 	ldr	x1, [x0]
    3c80:	91008021 	add	x1, x1, #0x20
    3c84:	f9400022 	ldr	x2, [x1]
    3c88:	f9400be1 	ldr	x1, [sp, #16]
    3c8c:	d63f0040 	blr	x2
    3c90:	d503201f 	nop
    3c94:	a8c37bfd 	ldp	x29, x30, [sp], #48
    3c98:	d65f03c0 	ret

0000000000003c9c <_ZNK12_GLOBAL__N_116itanium_demangle13ParameterPack10printRightERNS0_12OutputStreamE>:
    3c9c:	a9bd7bfd 	stp	x29, x30, [sp, #-48]!
    3ca0:	910003fd 	mov	x29, sp
    3ca4:	f9000fe0 	str	x0, [sp, #24]
    3ca8:	f9000be1 	str	x1, [sp, #16]
    3cac:	f9400be1 	ldr	x1, [sp, #16]
    3cb0:	f9400fe0 	ldr	x0, [sp, #24]
    3cb4:	97fffe98 	bl	3714 <_ZNK12_GLOBAL__N_116itanium_demangle13ParameterPack23initializePackExpansionERNS0_12OutputStreamE>
    3cb8:	f9400be0 	ldr	x0, [sp, #16]
    3cbc:	b9401800 	ldr	w0, [x0, #24]
    3cc0:	2a0003e0 	mov	w0, w0
    3cc4:	f90017e0 	str	x0, [sp, #40]
    3cc8:	f9400fe0 	ldr	x0, [sp, #24]
    3ccc:	91004000 	add	x0, x0, #0x10
    3cd0:	97fff3f8 	bl	cb0 <_ZNK12_GLOBAL__N_116itanium_demangle9NodeArray4sizeEv>
    3cd4:	aa0003e1 	mov	x1, x0
    3cd8:	f94017e0 	ldr	x0, [sp, #40]
    3cdc:	eb01001f 	cmp	x0, x1
    3ce0:	1a9f27e0 	cset	w0, cc  // cc = lo, ul, last
    3ce4:	12001c00 	and	w0, w0, #0xff
    3ce8:	7100001f 	cmp	w0, #0x0
    3cec:	54000140 	b.eq	3d14 <_ZNK12_GLOBAL__N_116itanium_demangle13ParameterPack10printRightERNS0_12OutputStreamE+0x78>  // b.none
    3cf0:	f9400fe0 	ldr	x0, [sp, #24]
    3cf4:	91004000 	add	x0, x0, #0x10
    3cf8:	f94017e1 	ldr	x1, [sp, #40]
    3cfc:	97fff403 	bl	d08 <_ZNK12_GLOBAL__N_116itanium_demangle9NodeArrayixEm>
    3d00:	f9400001 	ldr	x1, [x0]
    3d04:	9100a021 	add	x1, x1, #0x28
    3d08:	f9400022 	ldr	x2, [x1]
    3d0c:	f9400be1 	ldr	x1, [sp, #16]
    3d10:	d63f0040 	blr	x2
    3d14:	d503201f 	nop
    3d18:	a8c37bfd 	ldp	x29, x30, [sp], #48
    3d1c:	d65f03c0 	ret

0000000000003d20 <_ZN12_GLOBAL__N_116itanium_demangle20TemplateArgumentPackC1ENS0_9NodeArrayE>:
    3d20:	a9bd7bfd 	stp	x29, x30, [sp, #-48]!
    3d24:	910003fd 	mov	x29, sp
    3d28:	f90017e0 	str	x0, [sp, #40]
    3d2c:	a9018be1 	stp	x1, x2, [sp, #24]
    3d30:	f94017e0 	ldr	x0, [sp, #40]
    3d34:	52800024 	mov	w4, #0x1                   	// #1
    3d38:	52800023 	mov	w3, #0x1                   	// #1
    3d3c:	52800022 	mov	w2, #0x1                   	// #1
    3d40:	52800421 	mov	w1, #0x21                  	// #33
    3d44:	97fff314 	bl	994 <_ZN12_GLOBAL__N_116itanium_demangle4NodeC2ENS1_4KindENS1_5CacheES3_S3_>
    3d48:	90000000 	adrp	x0, 0 <_ZN12_GLOBAL__N_116itanium_demangle10StringViewC1EPKcS3_>
    3d4c:	91000001 	add	x1, x0, #0x0
    3d50:	f94017e0 	ldr	x0, [sp, #40]
    3d54:	f9000001 	str	x1, [x0]
    3d58:	f94017e2 	ldr	x2, [sp, #40]
    3d5c:	a94187e0 	ldp	x0, x1, [sp, #24]
    3d60:	a9010440 	stp	x0, x1, [x2, #16]
    3d64:	d503201f 	nop
    3d68:	a8c37bfd 	ldp	x29, x30, [sp], #48
    3d6c:	d65f03c0 	ret

0000000000003d70 <_ZNK12_GLOBAL__N_116itanium_demangle20TemplateArgumentPack11getElementsEv>:
    3d70:	d10043ff 	sub	sp, sp, #0x10
    3d74:	f90007e0 	str	x0, [sp, #8]
    3d78:	f94007e0 	ldr	x0, [sp, #8]
    3d7c:	a9410400 	ldp	x0, x1, [x0, #16]
    3d80:	910043ff 	add	sp, sp, #0x10
    3d84:	d65f03c0 	ret

0000000000003d88 <_ZNK12_GLOBAL__N_116itanium_demangle20TemplateArgumentPack9printLeftERNS0_12OutputStreamE>:
    3d88:	a9be7bfd 	stp	x29, x30, [sp, #-32]!
    3d8c:	910003fd 	mov	x29, sp
    3d90:	f9000fe0 	str	x0, [sp, #24]
    3d94:	f9000be1 	str	x1, [sp, #16]
    3d98:	f9400fe0 	ldr	x0, [sp, #24]
    3d9c:	91004000 	add	x0, x0, #0x10
    3da0:	f9400be1 	ldr	x1, [sp, #16]
    3da4:	97fff3e4 	bl	d34 <_ZNK12_GLOBAL__N_116itanium_demangle9NodeArray14printWithCommaERNS0_12OutputStreamE>
    3da8:	d503201f 	nop
    3dac:	a8c27bfd 	ldp	x29, x30, [sp], #32
    3db0:	d65f03c0 	ret

0000000000003db4 <_ZN12_GLOBAL__N_116itanium_demangle22ParameterPackExpansionC1EPKNS0_4NodeE>:
    3db4:	a9be7bfd 	stp	x29, x30, [sp, #-32]!
    3db8:	910003fd 	mov	x29, sp
    3dbc:	f9000fe0 	str	x0, [sp, #24]
    3dc0:	f9000be1 	str	x1, [sp, #16]
    3dc4:	f9400fe0 	ldr	x0, [sp, #24]
    3dc8:	52800024 	mov	w4, #0x1                   	// #1
    3dcc:	52800023 	mov	w3, #0x1                   	// #1
    3dd0:	52800022 	mov	w2, #0x1                   	// #1
    3dd4:	52800441 	mov	w1, #0x22                  	// #34
    3dd8:	97fff2ef 	bl	994 <_ZN12_GLOBAL__N_116itanium_demangle4NodeC2ENS1_4KindENS1_5CacheES3_S3_>
    3ddc:	90000000 	adrp	x0, 0 <_ZN12_GLOBAL__N_116itanium_demangle10StringViewC1EPKcS3_>
    3de0:	91000001 	add	x1, x0, #0x0
    3de4:	f9400fe0 	ldr	x0, [sp, #24]
    3de8:	f9000001 	str	x1, [x0]
    3dec:	f9400fe0 	ldr	x0, [sp, #24]
    3df0:	f9400be1 	ldr	x1, [sp, #16]
    3df4:	f9000801 	str	x1, [x0, #16]
    3df8:	d503201f 	nop
    3dfc:	a8c27bfd 	ldp	x29, x30, [sp], #32
    3e00:	d65f03c0 	ret

0000000000003e04 <_ZNK12_GLOBAL__N_116itanium_demangle22ParameterPackExpansion9printLeftERNS0_12OutputStreamE>:
    3e04:	a9b77bfd 	stp	x29, x30, [sp, #-144]!
    3e08:	910003fd 	mov	x29, sp
    3e0c:	f9000bf3 	str	x19, [sp, #16]
    3e10:	f90017e0 	str	x0, [sp, #40]
    3e14:	f90013e1 	str	x1, [sp, #32]
    3e18:	12800000 	mov	w0, #0xffffffff            	// #-1
    3e1c:	b9008be0 	str	w0, [sp, #136]
    3e20:	f94013e0 	ldr	x0, [sp, #32]
    3e24:	91006001 	add	x1, x0, #0x18
    3e28:	910123e0 	add	x0, sp, #0x48
    3e2c:	12800002 	mov	w2, #0xffffffff            	// #-1
    3e30:	940010cc 	bl	8160 <_ZN12_GLOBAL__N_116itanium_demangle14SwapAndRestoreIjEC1ERjj>
    3e34:	f94013e0 	ldr	x0, [sp, #32]
    3e38:	91007001 	add	x1, x0, #0x1c
    3e3c:	9100e3e0 	add	x0, sp, #0x38
    3e40:	12800002 	mov	w2, #0xffffffff            	// #-1
    3e44:	940010c7 	bl	8160 <_ZN12_GLOBAL__N_116itanium_demangle14SwapAndRestoreIjEC1ERjj>
    3e48:	f94013e0 	ldr	x0, [sp, #32]
    3e4c:	97fff28e 	bl	884 <_ZNK12_GLOBAL__N_116itanium_demangle12OutputStream18getCurrentPositionEv>
    3e50:	f90043e0 	str	x0, [sp, #128]
    3e54:	f94017e0 	ldr	x0, [sp, #40]
    3e58:	f9400800 	ldr	x0, [x0, #16]
    3e5c:	f94013e1 	ldr	x1, [sp, #32]
    3e60:	97fff34e 	bl	b98 <_ZNK12_GLOBAL__N_116itanium_demangle4Node5printERNS0_12OutputStreamE>
    3e64:	f94013e0 	ldr	x0, [sp, #32]
    3e68:	b9401c00 	ldr	w0, [x0, #28]
    3e6c:	3100041f 	cmn	w0, #0x1
    3e70:	54000161 	b.ne	3e9c <_ZNK12_GLOBAL__N_116itanium_demangle22ParameterPackExpansion9printLeftERNS0_12OutputStreamE+0x98>  // b.any
    3e74:	910163e2 	add	x2, sp, #0x58
    3e78:	90000000 	adrp	x0, 0 <_ZN12_GLOBAL__N_116itanium_demangle10StringViewC1EPKcS3_>
    3e7c:	91000001 	add	x1, x0, #0x0
    3e80:	aa0203e0 	mov	x0, x2
    3e84:	97fff06c 	bl	34 <_ZN12_GLOBAL__N_116itanium_demangle10StringViewC1EPKc>
    3e88:	a9458be1 	ldp	x1, x2, [sp, #88]
    3e8c:	f94013e0 	ldr	x0, [sp, #32]
    3e90:	97fff21c 	bl	700 <_ZN12_GLOBAL__N_116itanium_demangle12OutputStreampLENS0_10StringViewE>
    3e94:	52800013 	mov	w19, #0x0                   	// #0
    3e98:	14000027 	b	3f34 <_ZNK12_GLOBAL__N_116itanium_demangle22ParameterPackExpansion9printLeftERNS0_12OutputStreamE+0x130>
    3e9c:	f94013e0 	ldr	x0, [sp, #32]
    3ea0:	b9401c00 	ldr	w0, [x0, #28]
    3ea4:	7100001f 	cmp	w0, #0x0
    3ea8:	540000c1 	b.ne	3ec0 <_ZNK12_GLOBAL__N_116itanium_demangle22ParameterPackExpansion9printLeftERNS0_12OutputStreamE+0xbc>  // b.any
    3eac:	f94043e1 	ldr	x1, [sp, #128]
    3eb0:	f94013e0 	ldr	x0, [sp, #32]
    3eb4:	97fff27a 	bl	89c <_ZN12_GLOBAL__N_116itanium_demangle12OutputStream18setCurrentPositionEm>
    3eb8:	52800013 	mov	w19, #0x0                   	// #0
    3ebc:	1400001e 	b	3f34 <_ZNK12_GLOBAL__N_116itanium_demangle22ParameterPackExpansion9printLeftERNS0_12OutputStreamE+0x130>
    3ec0:	52800020 	mov	w0, #0x1                   	// #1
    3ec4:	b9008fe0 	str	w0, [sp, #140]
    3ec8:	f94013e0 	ldr	x0, [sp, #32]
    3ecc:	b9401c00 	ldr	w0, [x0, #28]
    3ed0:	b9007fe0 	str	w0, [sp, #124]
    3ed4:	b9408fe1 	ldr	w1, [sp, #140]
    3ed8:	b9407fe0 	ldr	w0, [sp, #124]
    3edc:	6b00003f 	cmp	w1, w0
    3ee0:	54000282 	b.cs	3f30 <_ZNK12_GLOBAL__N_116itanium_demangle22ParameterPackExpansion9printLeftERNS0_12OutputStreamE+0x12c>  // b.hs, b.nlast
    3ee4:	9101a3e2 	add	x2, sp, #0x68
    3ee8:	90000000 	adrp	x0, 0 <_ZN12_GLOBAL__N_116itanium_demangle10StringViewC1EPKcS3_>
    3eec:	91000001 	add	x1, x0, #0x0
    3ef0:	aa0203e0 	mov	x0, x2
    3ef4:	97fff050 	bl	34 <_ZN12_GLOBAL__N_116itanium_demangle10StringViewC1EPKc>
    3ef8:	a9468be1 	ldp	x1, x2, [sp, #104]
    3efc:	f94013e0 	ldr	x0, [sp, #32]
    3f00:	97fff200 	bl	700 <_ZN12_GLOBAL__N_116itanium_demangle12OutputStreampLENS0_10StringViewE>
    3f04:	f94013e0 	ldr	x0, [sp, #32]
    3f08:	b9408fe1 	ldr	w1, [sp, #140]
    3f0c:	b9001801 	str	w1, [x0, #24]
    3f10:	f94017e0 	ldr	x0, [sp, #40]
    3f14:	f9400800 	ldr	x0, [x0, #16]
    3f18:	f94013e1 	ldr	x1, [sp, #32]
    3f1c:	97fff31f 	bl	b98 <_ZNK12_GLOBAL__N_116itanium_demangle4Node5printERNS0_12OutputStreamE>
    3f20:	b9408fe0 	ldr	w0, [sp, #140]
    3f24:	11000400 	add	w0, w0, #0x1
    3f28:	b9008fe0 	str	w0, [sp, #140]
    3f2c:	17ffffea 	b	3ed4 <_ZNK12_GLOBAL__N_116itanium_demangle22ParameterPackExpansion9printLeftERNS0_12OutputStreamE+0xd0>
    3f30:	52800033 	mov	w19, #0x1                   	// #1
    3f34:	9100e3e0 	add	x0, sp, #0x38
    3f38:	940010a1 	bl	81bc <_ZN12_GLOBAL__N_116itanium_demangle14SwapAndRestoreIjED1Ev>
    3f3c:	7100067f 	cmp	w19, #0x1
    3f40:	54000060 	b.eq	3f4c <_ZNK12_GLOBAL__N_116itanium_demangle22ParameterPackExpansion9printLeftERNS0_12OutputStreamE+0x148>  // b.none
    3f44:	52800013 	mov	w19, #0x0                   	// #0
    3f48:	14000002 	b	3f50 <_ZNK12_GLOBAL__N_116itanium_demangle22ParameterPackExpansion9printLeftERNS0_12OutputStreamE+0x14c>
    3f4c:	52800033 	mov	w19, #0x1                   	// #1
    3f50:	910123e0 	add	x0, sp, #0x48
    3f54:	9400109a 	bl	81bc <_ZN12_GLOBAL__N_116itanium_demangle14SwapAndRestoreIjED1Ev>
    3f58:	7100067f 	cmp	w19, #0x1
    3f5c:	14000008 	b	3f7c <_ZNK12_GLOBAL__N_116itanium_demangle22ParameterPackExpansion9printLeftERNS0_12OutputStreamE+0x178>
    3f60:	aa0003f3 	mov	x19, x0
    3f64:	9100e3e0 	add	x0, sp, #0x38
    3f68:	94001095 	bl	81bc <_ZN12_GLOBAL__N_116itanium_demangle14SwapAndRestoreIjED1Ev>
    3f6c:	910123e0 	add	x0, sp, #0x48
    3f70:	94001093 	bl	81bc <_ZN12_GLOBAL__N_116itanium_demangle14SwapAndRestoreIjED1Ev>
    3f74:	aa1303e0 	mov	x0, x19
    3f78:	94000000 	bl	0 <_Unwind_Resume>
    3f7c:	f9400bf3 	ldr	x19, [sp, #16]
    3f80:	a8c97bfd 	ldp	x29, x30, [sp], #144
    3f84:	d65f03c0 	ret

0000000000003f88 <_ZN12_GLOBAL__N_116itanium_demangle12TemplateArgsC1ENS0_9NodeArrayE>:
    3f88:	a9bd7bfd 	stp	x29, x30, [sp, #-48]!
    3f8c:	910003fd 	mov	x29, sp
    3f90:	f90017e0 	str	x0, [sp, #40]
    3f94:	a9018be1 	stp	x1, x2, [sp, #24]
    3f98:	f94017e0 	ldr	x0, [sp, #40]
    3f9c:	52800024 	mov	w4, #0x1                   	// #1
    3fa0:	52800023 	mov	w3, #0x1                   	// #1
    3fa4:	52800022 	mov	w2, #0x1                   	// #1
    3fa8:	52800461 	mov	w1, #0x23                  	// #35
    3fac:	97fff27a 	bl	994 <_ZN12_GLOBAL__N_116itanium_demangle4NodeC2ENS1_4KindENS1_5CacheES3_S3_>
    3fb0:	90000000 	adrp	x0, 0 <_ZN12_GLOBAL__N_116itanium_demangle10StringViewC1EPKcS3_>
    3fb4:	91000001 	add	x1, x0, #0x0
    3fb8:	f94017e0 	ldr	x0, [sp, #40]
    3fbc:	f9000001 	str	x1, [x0]
    3fc0:	f94017e2 	ldr	x2, [sp, #40]
    3fc4:	a94187e0 	ldp	x0, x1, [sp, #24]
    3fc8:	a9010440 	stp	x0, x1, [x2, #16]
    3fcc:	d503201f 	nop
    3fd0:	a8c37bfd 	ldp	x29, x30, [sp], #48
    3fd4:	d65f03c0 	ret

0000000000003fd8 <_ZNK12_GLOBAL__N_116itanium_demangle12TemplateArgs9printLeftERNS0_12OutputStreamE>:
    3fd8:	a9bb7bfd 	stp	x29, x30, [sp, #-80]!
    3fdc:	910003fd 	mov	x29, sp
    3fe0:	f9000fe0 	str	x0, [sp, #24]
    3fe4:	f9000be1 	str	x1, [sp, #16]
    3fe8:	910083e2 	add	x2, sp, #0x20
    3fec:	90000000 	adrp	x0, 0 <_ZN12_GLOBAL__N_116itanium_demangle10StringViewC1EPKcS3_>
    3ff0:	91000001 	add	x1, x0, #0x0
    3ff4:	aa0203e0 	mov	x0, x2
    3ff8:	97fff00f 	bl	34 <_ZN12_GLOBAL__N_116itanium_demangle10StringViewC1EPKc>
    3ffc:	a9420be1 	ldp	x1, x2, [sp, #32]
    4000:	f9400be0 	ldr	x0, [sp, #16]
    4004:	97fff1bf 	bl	700 <_ZN12_GLOBAL__N_116itanium_demangle12OutputStreampLENS0_10StringViewE>
    4008:	f9400fe0 	ldr	x0, [sp, #24]
    400c:	91004000 	add	x0, x0, #0x10
    4010:	f9400be1 	ldr	x1, [sp, #16]
    4014:	97fff348 	bl	d34 <_ZNK12_GLOBAL__N_116itanium_demangle9NodeArray14printWithCommaERNS0_12OutputStreamE>
    4018:	f9400be0 	ldr	x0, [sp, #16]
    401c:	97fff229 	bl	8c0 <_ZNK12_GLOBAL__N_116itanium_demangle12OutputStream4backEv>
    4020:	12001c00 	and	w0, w0, #0xff
    4024:	7100f81f 	cmp	w0, #0x3e
    4028:	1a9f17e0 	cset	w0, eq  // eq = none
    402c:	12001c00 	and	w0, w0, #0xff
    4030:	7100001f 	cmp	w0, #0x0
    4034:	54000120 	b.eq	4058 <_ZNK12_GLOBAL__N_116itanium_demangle12TemplateArgs9printLeftERNS0_12OutputStreamE+0x80>  // b.none
    4038:	9100c3e2 	add	x2, sp, #0x30
    403c:	90000000 	adrp	x0, 0 <_ZN12_GLOBAL__N_116itanium_demangle10StringViewC1EPKcS3_>
    4040:	91000001 	add	x1, x0, #0x0
    4044:	aa0203e0 	mov	x0, x2
    4048:	97ffeffb 	bl	34 <_ZN12_GLOBAL__N_116itanium_demangle10StringViewC1EPKc>
    404c:	a9430be1 	ldp	x1, x2, [sp, #48]
    4050:	f9400be0 	ldr	x0, [sp, #16]
    4054:	97fff1ab 	bl	700 <_ZN12_GLOBAL__N_116itanium_demangle12OutputStreampLENS0_10StringViewE>
    4058:	910103e2 	add	x2, sp, #0x40
    405c:	90000000 	adrp	x0, 0 <_ZN12_GLOBAL__N_116itanium_demangle10StringViewC1EPKcS3_>
    4060:	91000001 	add	x1, x0, #0x0
    4064:	aa0203e0 	mov	x0, x2
    4068:	97ffeff3 	bl	34 <_ZN12_GLOBAL__N_116itanium_demangle10StringViewC1EPKc>
    406c:	a9440be1 	ldp	x1, x2, [sp, #64]
    4070:	f9400be0 	ldr	x0, [sp, #16]
    4074:	97fff1a3 	bl	700 <_ZN12_GLOBAL__N_116itanium_demangle12OutputStreampLENS0_10StringViewE>
    4078:	d503201f 	nop
    407c:	a8c57bfd 	ldp	x29, x30, [sp], #80
    4080:	d65f03c0 	ret

0000000000004084 <_ZN12_GLOBAL__N_116itanium_demangle24ForwardTemplateReferenceC1Em>:
    4084:	a9be7bfd 	stp	x29, x30, [sp, #-32]!
    4088:	910003fd 	mov	x29, sp
    408c:	f9000fe0 	str	x0, [sp, #24]
    4090:	f9000be1 	str	x1, [sp, #16]
    4094:	f9400fe0 	ldr	x0, [sp, #24]
    4098:	52800044 	mov	w4, #0x2                   	// #2
    409c:	52800043 	mov	w3, #0x2                   	// #2
    40a0:	52800042 	mov	w2, #0x2                   	// #2
    40a4:	52800481 	mov	w1, #0x24                  	// #36
    40a8:	97fff23b 	bl	994 <_ZN12_GLOBAL__N_116itanium_demangle4NodeC2ENS1_4KindENS1_5CacheES3_S3_>
    40ac:	90000000 	adrp	x0, 0 <_ZN12_GLOBAL__N_116itanium_demangle10StringViewC1EPKcS3_>
    40b0:	91000001 	add	x1, x0, #0x0
    40b4:	f9400fe0 	ldr	x0, [sp, #24]
    40b8:	f9000001 	str	x1, [x0]
    40bc:	f9400fe0 	ldr	x0, [sp, #24]
    40c0:	f9400be1 	ldr	x1, [sp, #16]
    40c4:	f9000801 	str	x1, [x0, #16]
    40c8:	f9400fe0 	ldr	x0, [sp, #24]
    40cc:	f9000c1f 	str	xzr, [x0, #24]
    40d0:	f9400fe0 	ldr	x0, [sp, #24]
    40d4:	3900801f 	strb	wzr, [x0, #32]
    40d8:	d503201f 	nop
    40dc:	a8c27bfd 	ldp	x29, x30, [sp], #32
    40e0:	d65f03c0 	ret

00000000000040e4 <_ZNK12_GLOBAL__N_116itanium_demangle24ForwardTemplateReference19hasRHSComponentSlowERNS0_12OutputStreamE>:
    40e4:	a9bc7bfd 	stp	x29, x30, [sp, #-64]!
    40e8:	910003fd 	mov	x29, sp
    40ec:	f9000bf3 	str	x19, [sp, #16]
    40f0:	f90017e0 	str	x0, [sp, #40]
    40f4:	f90013e1 	str	x1, [sp, #32]
    40f8:	f94017e0 	ldr	x0, [sp, #40]
    40fc:	39408000 	ldrb	w0, [x0, #32]
    4100:	7100001f 	cmp	w0, #0x0
    4104:	54000060 	b.eq	4110 <_ZNK12_GLOBAL__N_116itanium_demangle24ForwardTemplateReference19hasRHSComponentSlowERNS0_12OutputStreamE+0x2c>  // b.none
    4108:	52800013 	mov	w19, #0x0                   	// #0
    410c:	1400000e 	b	4144 <_ZNK12_GLOBAL__N_116itanium_demangle24ForwardTemplateReference19hasRHSComponentSlowERNS0_12OutputStreamE+0x60>
    4110:	f94017e0 	ldr	x0, [sp, #40]
    4114:	91008001 	add	x1, x0, #0x20
    4118:	9100c3e0 	add	x0, sp, #0x30
    411c:	52800022 	mov	w2, #0x1                   	// #1
    4120:	94000fe8 	bl	80c0 <_ZN12_GLOBAL__N_116itanium_demangle14SwapAndRestoreIbEC1ERbb>
    4124:	f94017e0 	ldr	x0, [sp, #40]
    4128:	f9400c00 	ldr	x0, [x0, #24]
    412c:	f94013e1 	ldr	x1, [sp, #32]
    4130:	97fff232 	bl	9f8 <_ZNK12_GLOBAL__N_116itanium_demangle4Node15hasRHSComponentERNS0_12OutputStreamE>
    4134:	12001c13 	and	w19, w0, #0xff
    4138:	d503201f 	nop
    413c:	9100c3e0 	add	x0, sp, #0x30
    4140:	94000ff7 	bl	811c <_ZN12_GLOBAL__N_116itanium_demangle14SwapAndRestoreIbED1Ev>
    4144:	2a1303e0 	mov	w0, w19
    4148:	14000006 	b	4160 <_ZNK12_GLOBAL__N_116itanium_demangle24ForwardTemplateReference19hasRHSComponentSlowERNS0_12OutputStreamE+0x7c>
    414c:	aa0003f3 	mov	x19, x0
    4150:	9100c3e0 	add	x0, sp, #0x30
    4154:	94000ff2 	bl	811c <_ZN12_GLOBAL__N_116itanium_demangle14SwapAndRestoreIbED1Ev>
    4158:	aa1303e0 	mov	x0, x19
    415c:	94000000 	bl	0 <_Unwind_Resume>
    4160:	f9400bf3 	ldr	x19, [sp, #16]
    4164:	a8c47bfd 	ldp	x29, x30, [sp], #64
    4168:	d65f03c0 	ret

000000000000416c <_ZNK12_GLOBAL__N_116itanium_demangle24ForwardTemplateReference12hasArraySlowERNS0_12OutputStreamE>:
    416c:	a9bc7bfd 	stp	x29, x30, [sp, #-64]!
    4170:	910003fd 	mov	x29, sp
    4174:	f9000bf3 	str	x19, [sp, #16]
    4178:	f90017e0 	str	x0, [sp, #40]
    417c:	f90013e1 	str	x1, [sp, #32]
    4180:	f94017e0 	ldr	x0, [sp, #40]
    4184:	39408000 	ldrb	w0, [x0, #32]
    4188:	7100001f 	cmp	w0, #0x0
    418c:	54000060 	b.eq	4198 <_ZNK12_GLOBAL__N_116itanium_demangle24ForwardTemplateReference12hasArraySlowERNS0_12OutputStreamE+0x2c>  // b.none
    4190:	52800013 	mov	w19, #0x0                   	// #0
    4194:	1400000e 	b	41cc <_ZNK12_GLOBAL__N_116itanium_demangle24ForwardTemplateReference12hasArraySlowERNS0_12OutputStreamE+0x60>
    4198:	f94017e0 	ldr	x0, [sp, #40]
    419c:	91008001 	add	x1, x0, #0x20
    41a0:	9100c3e0 	add	x0, sp, #0x30
    41a4:	52800022 	mov	w2, #0x1                   	// #1
    41a8:	94000fc6 	bl	80c0 <_ZN12_GLOBAL__N_116itanium_demangle14SwapAndRestoreIbEC1ERbb>
    41ac:	f94017e0 	ldr	x0, [sp, #40]
    41b0:	f9400c00 	ldr	x0, [x0, #24]
    41b4:	f94013e1 	ldr	x1, [sp, #32]
    41b8:	97fff228 	bl	a58 <_ZNK12_GLOBAL__N_116itanium_demangle4Node8hasArrayERNS0_12OutputStreamE>
    41bc:	12001c13 	and	w19, w0, #0xff
    41c0:	d503201f 	nop
    41c4:	9100c3e0 	add	x0, sp, #0x30
    41c8:	94000fd5 	bl	811c <_ZN12_GLOBAL__N_116itanium_demangle14SwapAndRestoreIbED1Ev>
    41cc:	2a1303e0 	mov	w0, w19
    41d0:	14000006 	b	41e8 <_ZNK12_GLOBAL__N_116itanium_demangle24ForwardTemplateReference12hasArraySlowERNS0_12OutputStreamE+0x7c>
    41d4:	aa0003f3 	mov	x19, x0
    41d8:	9100c3e0 	add	x0, sp, #0x30
    41dc:	94000fd0 	bl	811c <_ZN12_GLOBAL__N_116itanium_demangle14SwapAndRestoreIbED1Ev>
    41e0:	aa1303e0 	mov	x0, x19
    41e4:	94000000 	bl	0 <_Unwind_Resume>
    41e8:	f9400bf3 	ldr	x19, [sp, #16]
    41ec:	a8c47bfd 	ldp	x29, x30, [sp], #64
    41f0:	d65f03c0 	ret

00000000000041f4 <_ZNK12_GLOBAL__N_116itanium_demangle24ForwardTemplateReference15hasFunctionSlowERNS0_12OutputStreamE>:
    41f4:	a9bc7bfd 	stp	x29, x30, [sp, #-64]!
    41f8:	910003fd 	mov	x29, sp
    41fc:	f9000bf3 	str	x19, [sp, #16]
    4200:	f90017e0 	str	x0, [sp, #40]
    4204:	f90013e1 	str	x1, [sp, #32]
    4208:	f94017e0 	ldr	x0, [sp, #40]
    420c:	39408000 	ldrb	w0, [x0, #32]
    4210:	7100001f 	cmp	w0, #0x0
    4214:	54000060 	b.eq	4220 <_ZNK12_GLOBAL__N_116itanium_demangle24ForwardTemplateReference15hasFunctionSlowERNS0_12OutputStreamE+0x2c>  // b.none
    4218:	52800013 	mov	w19, #0x0                   	// #0
    421c:	1400000e 	b	4254 <_ZNK12_GLOBAL__N_116itanium_demangle24ForwardTemplateReference15hasFunctionSlowERNS0_12OutputStreamE+0x60>
    4220:	f94017e0 	ldr	x0, [sp, #40]
    4224:	91008001 	add	x1, x0, #0x20
    4228:	9100c3e0 	add	x0, sp, #0x30
    422c:	52800022 	mov	w2, #0x1                   	// #1
    4230:	94000fa4 	bl	80c0 <_ZN12_GLOBAL__N_116itanium_demangle14SwapAndRestoreIbEC1ERbb>
    4234:	f94017e0 	ldr	x0, [sp, #40]
    4238:	f9400c00 	ldr	x0, [x0, #24]
    423c:	f94013e1 	ldr	x1, [sp, #32]
    4240:	97fff21f 	bl	abc <_ZNK12_GLOBAL__N_116itanium_demangle4Node11hasFunctionERNS0_12OutputStreamE>
    4244:	12001c13 	and	w19, w0, #0xff
    4248:	d503201f 	nop
    424c:	9100c3e0 	add	x0, sp, #0x30
    4250:	94000fb3 	bl	811c <_ZN12_GLOBAL__N_116itanium_demangle14SwapAndRestoreIbED1Ev>
    4254:	2a1303e0 	mov	w0, w19
    4258:	14000006 	b	4270 <_ZNK12_GLOBAL__N_116itanium_demangle24ForwardTemplateReference15hasFunctionSlowERNS0_12OutputStreamE+0x7c>
    425c:	aa0003f3 	mov	x19, x0
    4260:	9100c3e0 	add	x0, sp, #0x30
    4264:	94000fae 	bl	811c <_ZN12_GLOBAL__N_116itanium_demangle14SwapAndRestoreIbED1Ev>
    4268:	aa1303e0 	mov	x0, x19
    426c:	94000000 	bl	0 <_Unwind_Resume>
    4270:	f9400bf3 	ldr	x19, [sp, #16]
    4274:	a8c47bfd 	ldp	x29, x30, [sp], #64
    4278:	d65f03c0 	ret

000000000000427c <_ZNK12_GLOBAL__N_116itanium_demangle24ForwardTemplateReference13getSyntaxNodeERNS0_12OutputStreamE>:
    427c:	a9bc7bfd 	stp	x29, x30, [sp, #-64]!
    4280:	910003fd 	mov	x29, sp
    4284:	f9000bf3 	str	x19, [sp, #16]
    4288:	f90017e0 	str	x0, [sp, #40]
    428c:	f90013e1 	str	x1, [sp, #32]
    4290:	f94017e0 	ldr	x0, [sp, #40]
    4294:	39408000 	ldrb	w0, [x0, #32]
    4298:	7100001f 	cmp	w0, #0x0
    429c:	54000060 	b.eq	42a8 <_ZNK12_GLOBAL__N_116itanium_demangle24ForwardTemplateReference13getSyntaxNodeERNS0_12OutputStreamE+0x2c>  // b.none
    42a0:	f94017f3 	ldr	x19, [sp, #40]
    42a4:	14000013 	b	42f0 <_ZNK12_GLOBAL__N_116itanium_demangle24ForwardTemplateReference13getSyntaxNodeERNS0_12OutputStreamE+0x74>
    42a8:	f94017e0 	ldr	x0, [sp, #40]
    42ac:	91008001 	add	x1, x0, #0x20
    42b0:	9100c3e0 	add	x0, sp, #0x30
    42b4:	52800022 	mov	w2, #0x1                   	// #1
    42b8:	94000f82 	bl	80c0 <_ZN12_GLOBAL__N_116itanium_demangle14SwapAndRestoreIbEC1ERbb>
    42bc:	f94017e0 	ldr	x0, [sp, #40]
    42c0:	f9400c00 	ldr	x0, [x0, #24]
    42c4:	f9400000 	ldr	x0, [x0]
    42c8:	91006000 	add	x0, x0, #0x18
    42cc:	f9400002 	ldr	x2, [x0]
    42d0:	f94017e0 	ldr	x0, [sp, #40]
    42d4:	f9400c00 	ldr	x0, [x0, #24]
    42d8:	f94013e1 	ldr	x1, [sp, #32]
    42dc:	d63f0040 	blr	x2
    42e0:	aa0003f3 	mov	x19, x0
    42e4:	d503201f 	nop
    42e8:	9100c3e0 	add	x0, sp, #0x30
    42ec:	94000f8c 	bl	811c <_ZN12_GLOBAL__N_116itanium_demangle14SwapAndRestoreIbED1Ev>
    42f0:	aa1303e0 	mov	x0, x19
    42f4:	14000006 	b	430c <_ZNK12_GLOBAL__N_116itanium_demangle24ForwardTemplateReference13getSyntaxNodeERNS0_12OutputStreamE+0x90>
    42f8:	aa0003f3 	mov	x19, x0
    42fc:	9100c3e0 	add	x0, sp, #0x30
    4300:	94000f87 	bl	811c <_ZN12_GLOBAL__N_116itanium_demangle14SwapAndRestoreIbED1Ev>
    4304:	aa1303e0 	mov	x0, x19
    4308:	94000000 	bl	0 <_Unwind_Resume>
    430c:	f9400bf3 	ldr	x19, [sp, #16]
    4310:	a8c47bfd 	ldp	x29, x30, [sp], #64
    4314:	d65f03c0 	ret

0000000000004318 <_ZNK12_GLOBAL__N_116itanium_demangle24ForwardTemplateReference9printLeftERNS0_12OutputStreamE>:
    4318:	a9bc7bfd 	stp	x29, x30, [sp, #-64]!
    431c:	910003fd 	mov	x29, sp
    4320:	f9000bf3 	str	x19, [sp, #16]
    4324:	f90017e0 	str	x0, [sp, #40]
    4328:	f90013e1 	str	x1, [sp, #32]
    432c:	f94017e0 	ldr	x0, [sp, #40]
    4330:	39408000 	ldrb	w0, [x0, #32]
    4334:	7100001f 	cmp	w0, #0x0
    4338:	540002e1 	b.ne	4394 <_ZNK12_GLOBAL__N_116itanium_demangle24ForwardTemplateReference9printLeftERNS0_12OutputStreamE+0x7c>  // b.any
    433c:	f94017e0 	ldr	x0, [sp, #40]
    4340:	91008001 	add	x1, x0, #0x20
    4344:	9100c3e0 	add	x0, sp, #0x30
    4348:	52800022 	mov	w2, #0x1                   	// #1
    434c:	94000f5d 	bl	80c0 <_ZN12_GLOBAL__N_116itanium_demangle14SwapAndRestoreIbEC1ERbb>
    4350:	f94017e0 	ldr	x0, [sp, #40]
    4354:	f9400c00 	ldr	x0, [x0, #24]
    4358:	f9400000 	ldr	x0, [x0]
    435c:	91008000 	add	x0, x0, #0x20
    4360:	f9400002 	ldr	x2, [x0]
    4364:	f94017e0 	ldr	x0, [sp, #40]
    4368:	f9400c00 	ldr	x0, [x0, #24]
    436c:	f94013e1 	ldr	x1, [sp, #32]
    4370:	d63f0040 	blr	x2
    4374:	9100c3e0 	add	x0, sp, #0x30
    4378:	94000f69 	bl	811c <_ZN12_GLOBAL__N_116itanium_demangle14SwapAndRestoreIbED1Ev>
    437c:	14000007 	b	4398 <_ZNK12_GLOBAL__N_116itanium_demangle24ForwardTemplateReference9printLeftERNS0_12OutputStreamE+0x80>
    4380:	aa0003f3 	mov	x19, x0
    4384:	9100c3e0 	add	x0, sp, #0x30
    4388:	94000f65 	bl	811c <_ZN12_GLOBAL__N_116itanium_demangle14SwapAndRestoreIbED1Ev>
    438c:	aa1303e0 	mov	x0, x19
    4390:	94000000 	bl	0 <_Unwind_Resume>
    4394:	d503201f 	nop
    4398:	f9400bf3 	ldr	x19, [sp, #16]
    439c:	a8c47bfd 	ldp	x29, x30, [sp], #64
    43a0:	d65f03c0 	ret

00000000000043a4 <_ZNK12_GLOBAL__N_116itanium_demangle24ForwardTemplateReference10printRightERNS0_12OutputStreamE>:
    43a4:	a9bc7bfd 	stp	x29, x30, [sp, #-64]!
    43a8:	910003fd 	mov	x29, sp
    43ac:	f9000bf3 	str	x19, [sp, #16]
    43b0:	f90017e0 	str	x0, [sp, #40]
    43b4:	f90013e1 	str	x1, [sp, #32]
    43b8:	f94017e0 	ldr	x0, [sp, #40]
    43bc:	39408000 	ldrb	w0, [x0, #32]
    43c0:	7100001f 	cmp	w0, #0x0
    43c4:	540002e1 	b.ne	4420 <_ZNK12_GLOBAL__N_116itanium_demangle24ForwardTemplateReference10printRightERNS0_12OutputStreamE+0x7c>  // b.any
    43c8:	f94017e0 	ldr	x0, [sp, #40]
    43cc:	91008001 	add	x1, x0, #0x20
    43d0:	9100c3e0 	add	x0, sp, #0x30
    43d4:	52800022 	mov	w2, #0x1                   	// #1
    43d8:	94000f3a 	bl	80c0 <_ZN12_GLOBAL__N_116itanium_demangle14SwapAndRestoreIbEC1ERbb>
    43dc:	f94017e0 	ldr	x0, [sp, #40]
    43e0:	f9400c00 	ldr	x0, [x0, #24]
    43e4:	f9400000 	ldr	x0, [x0]
    43e8:	9100a000 	add	x0, x0, #0x28
    43ec:	f9400002 	ldr	x2, [x0]
    43f0:	f94017e0 	ldr	x0, [sp, #40]
    43f4:	f9400c00 	ldr	x0, [x0, #24]
    43f8:	f94013e1 	ldr	x1, [sp, #32]
    43fc:	d63f0040 	blr	x2
    4400:	9100c3e0 	add	x0, sp, #0x30
    4404:	94000f46 	bl	811c <_ZN12_GLOBAL__N_116itanium_demangle14SwapAndRestoreIbED1Ev>
    4408:	14000007 	b	4424 <_ZNK12_GLOBAL__N_116itanium_demangle24ForwardTemplateReference10printRightERNS0_12OutputStreamE+0x80>
    440c:	aa0003f3 	mov	x19, x0
    4410:	9100c3e0 	add	x0, sp, #0x30
    4414:	94000f42 	bl	811c <_ZN12_GLOBAL__N_116itanium_demangle14SwapAndRestoreIbED1Ev>
    4418:	aa1303e0 	mov	x0, x19
    441c:	94000000 	bl	0 <_Unwind_Resume>
    4420:	d503201f 	nop
    4424:	f9400bf3 	ldr	x19, [sp, #16]
    4428:	a8c47bfd 	ldp	x29, x30, [sp], #64
    442c:	d65f03c0 	ret

0000000000004430 <_ZN12_GLOBAL__N_116itanium_demangle20NameWithTemplateArgsC1EPNS0_4NodeES3_>:
    4430:	a9bd7bfd 	stp	x29, x30, [sp, #-48]!
    4434:	910003fd 	mov	x29, sp
    4438:	f90017e0 	str	x0, [sp, #40]
    443c:	f90013e1 	str	x1, [sp, #32]
    4440:	f9000fe2 	str	x2, [sp, #24]
    4444:	f94017e0 	ldr	x0, [sp, #40]
    4448:	52800024 	mov	w4, #0x1                   	// #1
    444c:	52800023 	mov	w3, #0x1                   	// #1
    4450:	52800022 	mov	w2, #0x1                   	// #1
    4454:	528004a1 	mov	w1, #0x25                  	// #37
    4458:	97fff14f 	bl	994 <_ZN12_GLOBAL__N_116itanium_demangle4NodeC2ENS1_4KindENS1_5CacheES3_S3_>
    445c:	90000000 	adrp	x0, 0 <_ZN12_GLOBAL__N_116itanium_demangle10StringViewC1EPKcS3_>
    4460:	91000001 	add	x1, x0, #0x0
    4464:	f94017e0 	ldr	x0, [sp, #40]
    4468:	f9000001 	str	x1, [x0]
    446c:	f94017e0 	ldr	x0, [sp, #40]
    4470:	f94013e1 	ldr	x1, [sp, #32]
    4474:	f9000801 	str	x1, [x0, #16]
    4478:	f94017e0 	ldr	x0, [sp, #40]
    447c:	f9400fe1 	ldr	x1, [sp, #24]
    4480:	f9000c01 	str	x1, [x0, #24]
    4484:	d503201f 	nop
    4488:	a8c37bfd 	ldp	x29, x30, [sp], #48
    448c:	d65f03c0 	ret

0000000000004490 <_ZNK12_GLOBAL__N_116itanium_demangle20NameWithTemplateArgs11getBaseNameEv>:
    4490:	a9be7bfd 	stp	x29, x30, [sp, #-32]!
    4494:	910003fd 	mov	x29, sp
    4498:	f9000fe0 	str	x0, [sp, #24]
    449c:	f9400fe0 	ldr	x0, [sp, #24]
    44a0:	f9400800 	ldr	x0, [x0, #16]
    44a4:	f9400000 	ldr	x0, [x0]
    44a8:	9100c000 	add	x0, x0, #0x30
    44ac:	f9400001 	ldr	x1, [x0]
    44b0:	f9400fe0 	ldr	x0, [sp, #24]
    44b4:	f9400800 	ldr	x0, [x0, #16]
    44b8:	d63f0020 	blr	x1
    44bc:	a8c27bfd 	ldp	x29, x30, [sp], #32
    44c0:	d65f03c0 	ret

00000000000044c4 <_ZNK12_GLOBAL__N_116itanium_demangle20NameWithTemplateArgs9printLeftERNS0_12OutputStreamE>:
    44c4:	a9be7bfd 	stp	x29, x30, [sp, #-32]!
    44c8:	910003fd 	mov	x29, sp
    44cc:	f9000fe0 	str	x0, [sp, #24]
    44d0:	f9000be1 	str	x1, [sp, #16]
    44d4:	f9400fe0 	ldr	x0, [sp, #24]
    44d8:	f9400800 	ldr	x0, [x0, #16]
    44dc:	f9400be1 	ldr	x1, [sp, #16]
    44e0:	97fff1ae 	bl	b98 <_ZNK12_GLOBAL__N_116itanium_demangle4Node5printERNS0_12OutputStreamE>
    44e4:	f9400fe0 	ldr	x0, [sp, #24]
    44e8:	f9400c00 	ldr	x0, [x0, #24]
    44ec:	f9400be1 	ldr	x1, [sp, #16]
    44f0:	97fff1aa 	bl	b98 <_ZNK12_GLOBAL__N_116itanium_demangle4Node5printERNS0_12OutputStreamE>
    44f4:	d503201f 	nop
    44f8:	a8c27bfd 	ldp	x29, x30, [sp], #32
    44fc:	d65f03c0 	ret

0000000000004500 <_ZN12_GLOBAL__N_116itanium_demangle19GlobalQualifiedNameC1EPNS0_4NodeE>:
    4500:	a9be7bfd 	stp	x29, x30, [sp, #-32]!
    4504:	910003fd 	mov	x29, sp
    4508:	f9000fe0 	str	x0, [sp, #24]
    450c:	f9000be1 	str	x1, [sp, #16]
    4510:	f9400fe0 	ldr	x0, [sp, #24]
    4514:	52800024 	mov	w4, #0x1                   	// #1
    4518:	52800023 	mov	w3, #0x1                   	// #1
    451c:	52800022 	mov	w2, #0x1                   	// #1
    4520:	528004c1 	mov	w1, #0x26                  	// #38
    4524:	97fff11c 	bl	994 <_ZN12_GLOBAL__N_116itanium_demangle4NodeC2ENS1_4KindENS1_5CacheES3_S3_>
    4528:	90000000 	adrp	x0, 0 <_ZN12_GLOBAL__N_116itanium_demangle10StringViewC1EPKcS3_>
    452c:	91000001 	add	x1, x0, #0x0
    4530:	f9400fe0 	ldr	x0, [sp, #24]
    4534:	f9000001 	str	x1, [x0]
    4538:	f9400fe0 	ldr	x0, [sp, #24]
    453c:	f9400be1 	ldr	x1, [sp, #16]
    4540:	f9000801 	str	x1, [x0, #16]
    4544:	d503201f 	nop
    4548:	a8c27bfd 	ldp	x29, x30, [sp], #32
    454c:	d65f03c0 	ret

0000000000004550 <_ZNK12_GLOBAL__N_116itanium_demangle19GlobalQualifiedName11getBaseNameEv>:
    4550:	a9be7bfd 	stp	x29, x30, [sp, #-32]!
    4554:	910003fd 	mov	x29, sp
    4558:	f9000fe0 	str	x0, [sp, #24]
    455c:	f9400fe0 	ldr	x0, [sp, #24]
    4560:	f9400800 	ldr	x0, [x0, #16]
    4564:	f9400000 	ldr	x0, [x0]
    4568:	9100c000 	add	x0, x0, #0x30
    456c:	f9400001 	ldr	x1, [x0]
    4570:	f9400fe0 	ldr	x0, [sp, #24]
    4574:	f9400800 	ldr	x0, [x0, #16]
    4578:	d63f0020 	blr	x1
    457c:	a8c27bfd 	ldp	x29, x30, [sp], #32
    4580:	d65f03c0 	ret

0000000000004584 <_ZNK12_GLOBAL__N_116itanium_demangle19GlobalQualifiedName9printLeftERNS0_12OutputStreamE>:
    4584:	a9bd7bfd 	stp	x29, x30, [sp, #-48]!
    4588:	910003fd 	mov	x29, sp
    458c:	f9000fe0 	str	x0, [sp, #24]
    4590:	f9000be1 	str	x1, [sp, #16]
    4594:	910083e2 	add	x2, sp, #0x20
    4598:	90000000 	adrp	x0, 0 <_ZN12_GLOBAL__N_116itanium_demangle10StringViewC1EPKcS3_>
    459c:	91000001 	add	x1, x0, #0x0
    45a0:	aa0203e0 	mov	x0, x2
    45a4:	97ffeea4 	bl	34 <_ZN12_GLOBAL__N_116itanium_demangle10StringViewC1EPKc>
    45a8:	a9420be1 	ldp	x1, x2, [sp, #32]
    45ac:	f9400be0 	ldr	x0, [sp, #16]
    45b0:	97fff054 	bl	700 <_ZN12_GLOBAL__N_116itanium_demangle12OutputStreampLENS0_10StringViewE>
    45b4:	f9400fe0 	ldr	x0, [sp, #24]
    45b8:	f9400800 	ldr	x0, [x0, #16]
    45bc:	f9400be1 	ldr	x1, [sp, #16]
    45c0:	97fff176 	bl	b98 <_ZNK12_GLOBAL__N_116itanium_demangle4Node5printERNS0_12OutputStreamE>
    45c4:	d503201f 	nop
    45c8:	a8c37bfd 	ldp	x29, x30, [sp], #48
    45cc:	d65f03c0 	ret

00000000000045d0 <_ZN12_GLOBAL__N_116itanium_demangle16StdQualifiedNameC1EPNS0_4NodeE>:
    45d0:	a9be7bfd 	stp	x29, x30, [sp, #-32]!
    45d4:	910003fd 	mov	x29, sp
    45d8:	f9000fe0 	str	x0, [sp, #24]
    45dc:	f9000be1 	str	x1, [sp, #16]
    45e0:	f9400fe0 	ldr	x0, [sp, #24]
    45e4:	52800024 	mov	w4, #0x1                   	// #1
    45e8:	52800023 	mov	w3, #0x1                   	// #1
    45ec:	52800022 	mov	w2, #0x1                   	// #1
    45f0:	528004e1 	mov	w1, #0x27                  	// #39
    45f4:	97fff0e8 	bl	994 <_ZN12_GLOBAL__N_116itanium_demangle4NodeC2ENS1_4KindENS1_5CacheES3_S3_>
    45f8:	90000000 	adrp	x0, 0 <_ZN12_GLOBAL__N_116itanium_demangle10StringViewC1EPKcS3_>
    45fc:	91000001 	add	x1, x0, #0x0
    4600:	f9400fe0 	ldr	x0, [sp, #24]
    4604:	f9000001 	str	x1, [x0]
    4608:	f9400fe0 	ldr	x0, [sp, #24]
    460c:	f9400be1 	ldr	x1, [sp, #16]
    4610:	f9000801 	str	x1, [x0, #16]
    4614:	d503201f 	nop
    4618:	a8c27bfd 	ldp	x29, x30, [sp], #32
    461c:	d65f03c0 	ret

0000000000004620 <_ZNK12_GLOBAL__N_116itanium_demangle16StdQualifiedName11getBaseNameEv>:
    4620:	a9be7bfd 	stp	x29, x30, [sp, #-32]!
    4624:	910003fd 	mov	x29, sp
    4628:	f9000fe0 	str	x0, [sp, #24]
    462c:	f9400fe0 	ldr	x0, [sp, #24]
    4630:	f9400800 	ldr	x0, [x0, #16]
    4634:	f9400000 	ldr	x0, [x0]
    4638:	9100c000 	add	x0, x0, #0x30
    463c:	f9400001 	ldr	x1, [x0]
    4640:	f9400fe0 	ldr	x0, [sp, #24]
    4644:	f9400800 	ldr	x0, [x0, #16]
    4648:	d63f0020 	blr	x1
    464c:	a8c27bfd 	ldp	x29, x30, [sp], #32
    4650:	d65f03c0 	ret

0000000000004654 <_ZNK12_GLOBAL__N_116itanium_demangle16StdQualifiedName9printLeftERNS0_12OutputStreamE>:
    4654:	a9bd7bfd 	stp	x29, x30, [sp, #-48]!
    4658:	910003fd 	mov	x29, sp
    465c:	f9000fe0 	str	x0, [sp, #24]
    4660:	f9000be1 	str	x1, [sp, #16]
    4664:	910083e2 	add	x2, sp, #0x20
    4668:	90000000 	adrp	x0, 0 <_ZN12_GLOBAL__N_116itanium_demangle10StringViewC1EPKcS3_>
    466c:	91000001 	add	x1, x0, #0x0
    4670:	aa0203e0 	mov	x0, x2
    4674:	97ffee70 	bl	34 <_ZN12_GLOBAL__N_116itanium_demangle10StringViewC1EPKc>
    4678:	a9420be1 	ldp	x1, x2, [sp, #32]
    467c:	f9400be0 	ldr	x0, [sp, #16]
    4680:	97fff020 	bl	700 <_ZN12_GLOBAL__N_116itanium_demangle12OutputStreampLENS0_10StringViewE>
    4684:	f9400fe0 	ldr	x0, [sp, #24]
    4688:	f9400800 	ldr	x0, [x0, #16]
    468c:	f9400be1 	ldr	x1, [sp, #16]
    4690:	97fff142 	bl	b98 <_ZNK12_GLOBAL__N_116itanium_demangle4Node5printERNS0_12OutputStreamE>
    4694:	d503201f 	nop
    4698:	a8c37bfd 	ldp	x29, x30, [sp], #48
    469c:	d65f03c0 	ret

00000000000046a0 <_ZN12_GLOBAL__N_116itanium_demangle27ExpandedSpecialSubstitutionC1ENS0_14SpecialSubKindE>:
    46a0:	a9be7bfd 	stp	x29, x30, [sp, #-32]!
    46a4:	910003fd 	mov	x29, sp
    46a8:	f9000fe0 	str	x0, [sp, #24]
    46ac:	b90017e1 	str	w1, [sp, #20]
    46b0:	f9400fe0 	ldr	x0, [sp, #24]
    46b4:	52800024 	mov	w4, #0x1                   	// #1
    46b8:	52800023 	mov	w3, #0x1                   	// #1
    46bc:	52800022 	mov	w2, #0x1                   	// #1
    46c0:	52800501 	mov	w1, #0x28                  	// #40
    46c4:	97fff0b4 	bl	994 <_ZN12_GLOBAL__N_116itanium_demangle4NodeC2ENS1_4KindENS1_5CacheES3_S3_>
    46c8:	90000000 	adrp	x0, 0 <_ZN12_GLOBAL__N_116itanium_demangle10StringViewC1EPKcS3_>
    46cc:	91000001 	add	x1, x0, #0x0
    46d0:	f9400fe0 	ldr	x0, [sp, #24]
    46d4:	f9000001 	str	x1, [x0]
    46d8:	f9400fe0 	ldr	x0, [sp, #24]
    46dc:	b94017e1 	ldr	w1, [sp, #20]
    46e0:	b9000c01 	str	w1, [x0, #12]
    46e4:	d503201f 	nop
    46e8:	a8c27bfd 	ldp	x29, x30, [sp], #32
    46ec:	d65f03c0 	ret

00000000000046f0 <_ZNK12_GLOBAL__N_116itanium_demangle27ExpandedSpecialSubstitution11getBaseNameEv>:
    46f0:	a9b87bfd 	stp	x29, x30, [sp, #-128]!
    46f4:	910003fd 	mov	x29, sp
    46f8:	f9000fe0 	str	x0, [sp, #24]
    46fc:	f9400fe0 	ldr	x0, [sp, #24]
    4700:	b9400c00 	ldr	w0, [x0, #12]
    4704:	7100141f 	cmp	w0, #0x5
    4708:	540006e0 	b.eq	47e4 <_ZNK12_GLOBAL__N_116itanium_demangle27ExpandedSpecialSubstitution11getBaseNameEv+0xf4>  // b.none
    470c:	7100141f 	cmp	w0, #0x5
    4710:	5400078c 	b.gt	4800 <_ZNK12_GLOBAL__N_116itanium_demangle27ExpandedSpecialSubstitution11getBaseNameEv+0x110>
    4714:	7100101f 	cmp	w0, #0x4
    4718:	54000580 	b.eq	47c8 <_ZNK12_GLOBAL__N_116itanium_demangle27ExpandedSpecialSubstitution11getBaseNameEv+0xd8>  // b.none
    471c:	7100101f 	cmp	w0, #0x4
    4720:	5400070c 	b.gt	4800 <_ZNK12_GLOBAL__N_116itanium_demangle27ExpandedSpecialSubstitution11getBaseNameEv+0x110>
    4724:	71000c1f 	cmp	w0, #0x3
    4728:	54000420 	b.eq	47ac <_ZNK12_GLOBAL__N_116itanium_demangle27ExpandedSpecialSubstitution11getBaseNameEv+0xbc>  // b.none
    472c:	71000c1f 	cmp	w0, #0x3
    4730:	5400068c 	b.gt	4800 <_ZNK12_GLOBAL__N_116itanium_demangle27ExpandedSpecialSubstitution11getBaseNameEv+0x110>
    4734:	7100081f 	cmp	w0, #0x2
    4738:	540002c0 	b.eq	4790 <_ZNK12_GLOBAL__N_116itanium_demangle27ExpandedSpecialSubstitution11getBaseNameEv+0xa0>  // b.none
    473c:	7100081f 	cmp	w0, #0x2
    4740:	5400060c 	b.gt	4800 <_ZNK12_GLOBAL__N_116itanium_demangle27ExpandedSpecialSubstitution11getBaseNameEv+0x110>
    4744:	7100001f 	cmp	w0, #0x0
    4748:	54000080 	b.eq	4758 <_ZNK12_GLOBAL__N_116itanium_demangle27ExpandedSpecialSubstitution11getBaseNameEv+0x68>  // b.none
    474c:	7100041f 	cmp	w0, #0x1
    4750:	54000120 	b.eq	4774 <_ZNK12_GLOBAL__N_116itanium_demangle27ExpandedSpecialSubstitution11getBaseNameEv+0x84>  // b.none
    4754:	1400002b 	b	4800 <_ZNK12_GLOBAL__N_116itanium_demangle27ExpandedSpecialSubstitution11getBaseNameEv+0x110>
    4758:	910083e2 	add	x2, sp, #0x20
    475c:	90000000 	adrp	x0, 0 <_ZN12_GLOBAL__N_116itanium_demangle10StringViewC1EPKcS3_>
    4760:	91000001 	add	x1, x0, #0x0
    4764:	aa0203e0 	mov	x0, x2
    4768:	97ffee33 	bl	34 <_ZN12_GLOBAL__N_116itanium_demangle10StringViewC1EPKc>
    476c:	a94207e0 	ldp	x0, x1, [sp, #32]
    4770:	14000024 	b	4800 <_ZNK12_GLOBAL__N_116itanium_demangle27ExpandedSpecialSubstitution11getBaseNameEv+0x110>
    4774:	9100c3e2 	add	x2, sp, #0x30
    4778:	90000000 	adrp	x0, 0 <_ZN12_GLOBAL__N_116itanium_demangle10StringViewC1EPKcS3_>
    477c:	91000001 	add	x1, x0, #0x0
    4780:	aa0203e0 	mov	x0, x2
    4784:	97ffee2c 	bl	34 <_ZN12_GLOBAL__N_116itanium_demangle10StringViewC1EPKc>
    4788:	a94307e0 	ldp	x0, x1, [sp, #48]
    478c:	1400001d 	b	4800 <_ZNK12_GLOBAL__N_116itanium_demangle27ExpandedSpecialSubstitution11getBaseNameEv+0x110>
    4790:	910103e2 	add	x2, sp, #0x40
    4794:	90000000 	adrp	x0, 0 <_ZN12_GLOBAL__N_116itanium_demangle10StringViewC1EPKcS3_>
    4798:	91000001 	add	x1, x0, #0x0
    479c:	aa0203e0 	mov	x0, x2
    47a0:	97ffee25 	bl	34 <_ZN12_GLOBAL__N_116itanium_demangle10StringViewC1EPKc>
    47a4:	a94407e0 	ldp	x0, x1, [sp, #64]
    47a8:	14000016 	b	4800 <_ZNK12_GLOBAL__N_116itanium_demangle27ExpandedSpecialSubstitution11getBaseNameEv+0x110>
    47ac:	910143e2 	add	x2, sp, #0x50
    47b0:	90000000 	adrp	x0, 0 <_ZN12_GLOBAL__N_116itanium_demangle10StringViewC1EPKcS3_>
    47b4:	91000001 	add	x1, x0, #0x0
    47b8:	aa0203e0 	mov	x0, x2
    47bc:	97ffee1e 	bl	34 <_ZN12_GLOBAL__N_116itanium_demangle10StringViewC1EPKc>
    47c0:	a94507e0 	ldp	x0, x1, [sp, #80]
    47c4:	1400000f 	b	4800 <_ZNK12_GLOBAL__N_116itanium_demangle27ExpandedSpecialSubstitution11getBaseNameEv+0x110>
    47c8:	910183e2 	add	x2, sp, #0x60
    47cc:	90000000 	adrp	x0, 0 <_ZN12_GLOBAL__N_116itanium_demangle10StringViewC1EPKcS3_>
    47d0:	91000001 	add	x1, x0, #0x0
    47d4:	aa0203e0 	mov	x0, x2
    47d8:	97ffee17 	bl	34 <_ZN12_GLOBAL__N_116itanium_demangle10StringViewC1EPKc>
    47dc:	a94607e0 	ldp	x0, x1, [sp, #96]
    47e0:	14000008 	b	4800 <_ZNK12_GLOBAL__N_116itanium_demangle27ExpandedSpecialSubstitution11getBaseNameEv+0x110>
    47e4:	9101c3e2 	add	x2, sp, #0x70
    47e8:	90000000 	adrp	x0, 0 <_ZN12_GLOBAL__N_116itanium_demangle10StringViewC1EPKcS3_>
    47ec:	91000001 	add	x1, x0, #0x0
    47f0:	aa0203e0 	mov	x0, x2
    47f4:	97ffee10 	bl	34 <_ZN12_GLOBAL__N_116itanium_demangle10StringViewC1EPKc>
    47f8:	a94707e0 	ldp	x0, x1, [sp, #112]
    47fc:	14000001 	b	4800 <_ZNK12_GLOBAL__N_116itanium_demangle27ExpandedSpecialSubstitution11getBaseNameEv+0x110>
    4800:	a8c87bfd 	ldp	x29, x30, [sp], #128
    4804:	d65f03c0 	ret

0000000000004808 <_ZNK12_GLOBAL__N_116itanium_demangle27ExpandedSpecialSubstitution9printLeftERNS0_12OutputStreamE>:
    4808:	a9b87bfd 	stp	x29, x30, [sp, #-128]!
    480c:	910003fd 	mov	x29, sp
    4810:	f9000fe0 	str	x0, [sp, #24]
    4814:	f9000be1 	str	x1, [sp, #16]
    4818:	f9400fe0 	ldr	x0, [sp, #24]
    481c:	b9400c00 	ldr	w0, [x0, #12]
    4820:	7100141f 	cmp	w0, #0x5
    4824:	54000820 	b.eq	4928 <_ZNK12_GLOBAL__N_116itanium_demangle27ExpandedSpecialSubstitution9printLeftERNS0_12OutputStreamE+0x120>  // b.none
    4828:	7100141f 	cmp	w0, #0x5
    482c:	5400090c 	b.gt	494c <_ZNK12_GLOBAL__N_116itanium_demangle27ExpandedSpecialSubstitution9printLeftERNS0_12OutputStreamE+0x144>
    4830:	7100101f 	cmp	w0, #0x4
    4834:	54000680 	b.eq	4904 <_ZNK12_GLOBAL__N_116itanium_demangle27ExpandedSpecialSubstitution9printLeftERNS0_12OutputStreamE+0xfc>  // b.none
    4838:	7100101f 	cmp	w0, #0x4
    483c:	5400088c 	b.gt	494c <_ZNK12_GLOBAL__N_116itanium_demangle27ExpandedSpecialSubstitution9printLeftERNS0_12OutputStreamE+0x144>
    4840:	71000c1f 	cmp	w0, #0x3
    4844:	540004e0 	b.eq	48e0 <_ZNK12_GLOBAL__N_116itanium_demangle27ExpandedSpecialSubstitution9printLeftERNS0_12OutputStreamE+0xd8>  // b.none
    4848:	71000c1f 	cmp	w0, #0x3
    484c:	5400080c 	b.gt	494c <_ZNK12_GLOBAL__N_116itanium_demangle27ExpandedSpecialSubstitution9printLeftERNS0_12OutputStreamE+0x144>
    4850:	7100081f 	cmp	w0, #0x2
    4854:	54000340 	b.eq	48bc <_ZNK12_GLOBAL__N_116itanium_demangle27ExpandedSpecialSubstitution9printLeftERNS0_12OutputStreamE+0xb4>  // b.none
    4858:	7100081f 	cmp	w0, #0x2
    485c:	5400078c 	b.gt	494c <_ZNK12_GLOBAL__N_116itanium_demangle27ExpandedSpecialSubstitution9printLeftERNS0_12OutputStreamE+0x144>
    4860:	7100001f 	cmp	w0, #0x0
    4864:	54000080 	b.eq	4874 <_ZNK12_GLOBAL__N_116itanium_demangle27ExpandedSpecialSubstitution9printLeftERNS0_12OutputStreamE+0x6c>  // b.none
    4868:	7100041f 	cmp	w0, #0x1
    486c:	54000160 	b.eq	4898 <_ZNK12_GLOBAL__N_116itanium_demangle27ExpandedSpecialSubstitution9printLeftERNS0_12OutputStreamE+0x90>  // b.none
    4870:	14000037 	b	494c <_ZNK12_GLOBAL__N_116itanium_demangle27ExpandedSpecialSubstitution9printLeftERNS0_12OutputStreamE+0x144>
    4874:	910083e2 	add	x2, sp, #0x20
    4878:	90000000 	adrp	x0, 0 <_ZN12_GLOBAL__N_116itanium_demangle10StringViewC1EPKcS3_>
    487c:	91000001 	add	x1, x0, #0x0
    4880:	aa0203e0 	mov	x0, x2
    4884:	97ffedec 	bl	34 <_ZN12_GLOBAL__N_116itanium_demangle10StringViewC1EPKc>
    4888:	a9420be1 	ldp	x1, x2, [sp, #32]
    488c:	f9400be0 	ldr	x0, [sp, #16]
    4890:	97ffef9c 	bl	700 <_ZN12_GLOBAL__N_116itanium_demangle12OutputStreampLENS0_10StringViewE>
    4894:	1400002e 	b	494c <_ZNK12_GLOBAL__N_116itanium_demangle27ExpandedSpecialSubstitution9printLeftERNS0_12OutputStreamE+0x144>
    4898:	9100c3e2 	add	x2, sp, #0x30
    489c:	90000000 	adrp	x0, 0 <_ZN12_GLOBAL__N_116itanium_demangle10StringViewC1EPKcS3_>
    48a0:	91000001 	add	x1, x0, #0x0
    48a4:	aa0203e0 	mov	x0, x2
    48a8:	97ffede3 	bl	34 <_ZN12_GLOBAL__N_116itanium_demangle10StringViewC1EPKc>
    48ac:	a9430be1 	ldp	x1, x2, [sp, #48]
    48b0:	f9400be0 	ldr	x0, [sp, #16]
    48b4:	97ffef93 	bl	700 <_ZN12_GLOBAL__N_116itanium_demangle12OutputStreampLENS0_10StringViewE>
    48b8:	14000025 	b	494c <_ZNK12_GLOBAL__N_116itanium_demangle27ExpandedSpecialSubstitution9printLeftERNS0_12OutputStreamE+0x144>
