
../out-br/build/optee_examples_ext-1.0/gpu_hello_world/ta/out/2c4493d0-ef85-11eb-9a03-0242ac130003.elf:     file format elf64-littleaarch64


Disassembly of section .text:

0000000000000020 <__addtf3>:
      20:	a9bd7bfd 	stp	x29, x30, [sp, #-48]!
      24:	910003fd 	mov	x29, sp
      28:	3d8007e0 	str	q0, [sp, #16]
      2c:	3d800be1 	str	q1, [sp, #32]
      30:	a94107e6 	ldp	x6, x1, [sp, #16]
      34:	a9420fe0 	ldp	x0, x3, [sp, #32]
      38:	d53b440f 	mrs	x15, fpcr
      3c:	d37ffc27 	lsr	x7, x1, #63
      40:	aa0003ea 	mov	x10, x0
      44:	d37dbc64 	ubfiz	x4, x3, #3, #48
      48:	d37ffc65 	lsr	x5, x3, #63
      4c:	aa0703ec 	mov	x12, x7
      50:	d37dbc22 	ubfiz	x2, x1, #3, #48
      54:	aa40f484 	orr	x4, x4, x0, lsr #61
      58:	d370f828 	ubfx	x8, x1, #48, #15
      5c:	d370f860 	ubfx	x0, x3, #48, #15
      60:	12001ce7 	and	w7, w7, #0xff
      64:	aa0c03f0 	mov	x16, x12
      68:	eb05019f 	cmp	x12, x5
      6c:	12001cab 	and	w11, w5, #0xff
      70:	aa46f442 	orr	x2, x2, x6, lsr #61
      74:	aa0803e1 	mov	x1, x8
      78:	d37df0c9 	lsl	x9, x6, #3
      7c:	aa0003e3 	mov	x3, x0
      80:	d37df14d 	lsl	x13, x10, #3
      84:	54000d60 	b.eq	230 <__addtf3+0x210>  // b.none
      88:	4b000100 	sub	w0, w8, w0
      8c:	7100001f 	cmp	w0, #0x0
      90:	54000a6d 	b.le	1dc <__addtf3+0x1bc>
      94:	b4000fe3 	cbz	x3, 290 <__addtf3+0x270>
      98:	b24d0084 	orr	x4, x4, #0x8000000000000
      9c:	d28fffe3 	mov	x3, #0x7fff                	// #32767
      a0:	eb03003f 	cmp	x1, x3
      a4:	54001f80 	b.eq	494 <__addtf3+0x474>  // b.none
      a8:	7101d01f 	cmp	w0, #0x74
      ac:	5400236c 	b.gt	518 <__addtf3+0x4f8>
      b0:	7100fc1f 	cmp	w0, #0x3f
      b4:	54002e2c 	b.gt	678 <__addtf3+0x658>
      b8:	52800803 	mov	w3, #0x40                  	// #64
      bc:	4b000063 	sub	w3, w3, w0
      c0:	9ac025a6 	lsr	x6, x13, x0
      c4:	9ac321ad 	lsl	x13, x13, x3
      c8:	f10001bf 	cmp	x13, #0x0
      cc:	9a9f07e5 	cset	x5, ne  // ne = any
      d0:	9ac32083 	lsl	x3, x4, x3
      d4:	aa060063 	orr	x3, x3, x6
      d8:	9ac02480 	lsr	x0, x4, x0
      dc:	aa050063 	orr	x3, x3, x5
      e0:	cb000042 	sub	x2, x2, x0
      e4:	eb030129 	subs	x9, x9, x3
      e8:	da1f0042 	sbc	x2, x2, xzr
      ec:	9240c843 	and	x3, x2, #0x7ffffffffffff
      f0:	b6980f02 	tbz	x2, #51, 2d0 <__addtf3+0x2b0>
      f4:	b4002043 	cbz	x3, 4fc <__addtf3+0x4dc>
      f8:	dac01060 	clz	x0, x3
      fc:	51003000 	sub	w0, w0, #0xc
     100:	4b0003e2 	neg	w2, w0
     104:	9ac02064 	lsl	x4, x3, x0
     108:	9ac02123 	lsl	x3, x9, x0
     10c:	9ac22529 	lsr	x9, x9, x2
     110:	aa040122 	orr	x2, x9, x4
     114:	eb20c03f 	cmp	x1, w0, sxtw
     118:	93407c04 	sxtw	x4, w0
     11c:	54001e0c 	b.gt	4dc <__addtf3+0x4bc>
     120:	4b010001 	sub	w1, w0, w1
     124:	11000420 	add	w0, w1, #0x1
     128:	7100fc1f 	cmp	w0, #0x3f
     12c:	540028ac 	b.gt	640 <__addtf3+0x620>
     130:	52800801 	mov	w1, #0x40                  	// #64
     134:	4b000021 	sub	w1, w1, w0
     138:	9ac02464 	lsr	x4, x3, x0
     13c:	9ac12063 	lsl	x3, x3, x1
     140:	f100007f 	cmp	x3, #0x0
     144:	9ac12049 	lsl	x9, x2, x1
     148:	9a9f07e1 	cset	x1, ne  // ne = any
     14c:	aa040129 	orr	x9, x9, x4
     150:	9ac02442 	lsr	x2, x2, x0
     154:	aa010129 	orr	x9, x9, x1
     158:	aa020128 	orr	x8, x9, x2
     15c:	b4000c48 	cbz	x8, 2e4 <__addtf3+0x2c4>
     160:	92400920 	and	x0, x9, #0x7
     164:	d2800001 	mov	x1, #0x0                   	// #0
     168:	52800025 	mov	w5, #0x1                   	// #1
     16c:	b4001de0 	cbz	x0, 528 <__addtf3+0x508>
     170:	926a05e3 	and	x3, x15, #0xc00000
     174:	f150007f 	cmp	x3, #0x400, lsl #12
     178:	540017a0 	b.eq	46c <__addtf3+0x44c>  // b.none
     17c:	f160007f 	cmp	x3, #0x800, lsl #12
     180:	54001660 	b.eq	44c <__addtf3+0x42c>  // b.none
     184:	b40017a3 	cbz	x3, 478 <__addtf3+0x458>
     188:	924d0043 	and	x3, x2, #0x8000000000000
     18c:	52800200 	mov	w0, #0x10                  	// #16
     190:	34000045 	cbz	w5, 198 <__addtf3+0x178>
     194:	321d0000 	orr	w0, w0, #0x8
     198:	b40018c3 	cbz	x3, 4b0 <__addtf3+0x490>
     19c:	91000421 	add	x1, x1, #0x1
     1a0:	d28fffe3 	mov	x3, #0x7fff                	// #32767
     1a4:	eb03003f 	cmp	x1, x3
     1a8:	54000f60 	b.eq	394 <__addtf3+0x374>  // b.none
     1ac:	12003821 	and	w1, w1, #0x7fff
     1b0:	93c90c48 	extr	x8, x2, x9, #3
     1b4:	d343c842 	ubfx	x2, x2, #3, #48
     1b8:	d2800005 	mov	x5, #0x0                   	// #0
     1bc:	2a073c21 	orr	w1, w1, w7, lsl #15
     1c0:	b340bc45 	bfxil	x5, x2, #0, #48
     1c4:	9e670100 	fmov	d0, x8
     1c8:	b3503c25 	bfi	x5, x1, #48, #16
     1cc:	9eaf00a0 	fmov	v0.d[1], x5
     1d0:	35001100 	cbnz	w0, 3f0 <__addtf3+0x3d0>
     1d4:	a8c37bfd 	ldp	x29, x30, [sp], #48
     1d8:	d65f03c0 	ret
     1dc:	aa0503ee 	mov	x14, x5
     1e0:	540008e0 	b.eq	2fc <__addtf3+0x2dc>  // b.none
     1e4:	b5001ce8 	cbnz	x8, 580 <__addtf3+0x560>
     1e8:	aa090041 	orr	x1, x2, x9
     1ec:	b4000601 	cbz	x1, 2ac <__addtf3+0x28c>
     1f0:	3100041f 	cmn	w0, #0x1
     1f4:	54003d40 	b.eq	99c <__addtf3+0x97c>  // b.none
     1f8:	d28fffe1 	mov	x1, #0x7fff                	// #32767
     1fc:	2a2003e0 	mvn	w0, w0
     200:	eb01007f 	cmp	x3, x1
     204:	54001c81 	b.ne	594 <__addtf3+0x574>  // b.any
     208:	aa0d0080 	orr	x0, x4, x13
     20c:	b5003740 	cbnz	x0, 8f4 <__addtf3+0x8d4>
     210:	aa0e03f0 	mov	x16, x14
     214:	d503201f 	nop
     218:	d2800004 	mov	x4, #0x0                   	// #0
     21c:	9e670080 	fmov	d0, x4
     220:	d3410210 	lsl	x16, x16, #63
     224:	b2503a05 	orr	x5, x16, #0x7fff000000000000
     228:	9eaf00a0 	fmov	v0.d[1], x5
     22c:	17ffffea 	b	1d4 <__addtf3+0x1b4>
     230:	4b000105 	sub	w5, w8, w0
     234:	710000bf 	cmp	w5, #0x0
     238:	54000e6d 	b.le	404 <__addtf3+0x3e4>
     23c:	b4000840 	cbz	x0, 344 <__addtf3+0x324>
     240:	b24d0084 	orr	x4, x4, #0x8000000000000
     244:	d28fffe0 	mov	x0, #0x7fff                	// #32767
     248:	eb00003f 	cmp	x1, x0
     24c:	54001240 	b.eq	494 <__addtf3+0x474>  // b.none
     250:	7101d0bf 	cmp	w5, #0x74
     254:	54001eac 	b.gt	628 <__addtf3+0x608>
     258:	7100fcbf 	cmp	w5, #0x3f
     25c:	5400266c 	b.gt	728 <__addtf3+0x708>
     260:	52800800 	mov	w0, #0x40                  	// #64
     264:	4b050000 	sub	w0, w0, w5
     268:	9ac525a6 	lsr	x6, x13, x5
     26c:	9ac021ad 	lsl	x13, x13, x0
     270:	f10001bf 	cmp	x13, #0x0
     274:	9ac02080 	lsl	x0, x4, x0
     278:	9a9f07e3 	cset	x3, ne  // ne = any
     27c:	aa060000 	orr	x0, x0, x6
     280:	9ac52484 	lsr	x4, x4, x5
     284:	aa030000 	orr	x0, x0, x3
     288:	8b040042 	add	x2, x2, x4
     28c:	140000ea 	b	634 <__addtf3+0x614>
     290:	aa0d0083 	orr	x3, x4, x13
     294:	b4001b83 	cbz	x3, 604 <__addtf3+0x5e4>
     298:	71000400 	subs	w0, w0, #0x1
     29c:	54fff001 	b.ne	9c <__addtf3+0x7c>  // b.any
     2a0:	eb0d0129 	subs	x9, x9, x13
     2a4:	da040042 	sbc	x2, x2, x4
     2a8:	17ffff91 	b	ec <__addtf3+0xcc>
     2ac:	d28fffe0 	mov	x0, #0x7fff                	// #32767
     2b0:	eb00007f 	cmp	x3, x0
     2b4:	540039a0 	b.eq	9e8 <__addtf3+0x9c8>  // b.none
     2b8:	2a0b03e7 	mov	w7, w11
     2bc:	aa0403e2 	mov	x2, x4
     2c0:	aa0d03e9 	mov	x9, x13
     2c4:	aa0303e1 	mov	x1, x3
     2c8:	aa0503ec 	mov	x12, x5
     2cc:	d503201f 	nop
     2d0:	aa020128 	orr	x8, x9, x2
     2d4:	92400920 	and	x0, x9, #0x7
     2d8:	52800005 	mov	w5, #0x0                   	// #0
     2dc:	b5fff481 	cbnz	x1, 16c <__addtf3+0x14c>
     2e0:	b5fff408 	cbnz	x8, 160 <__addtf3+0x140>
     2e4:	d2800002 	mov	x2, #0x0                   	// #0
     2e8:	d2800001 	mov	x1, #0x0                   	// #0
     2ec:	52800000 	mov	w0, #0x0                   	// #0
     2f0:	9240bc42 	and	x2, x2, #0xffffffffffff
     2f4:	12003821 	and	w1, w1, #0x7fff
     2f8:	17ffffb0 	b	1b8 <__addtf3+0x198>
     2fc:	91000505 	add	x5, x8, #0x1
     300:	f27f34bf 	tst	x5, #0x7ffe
     304:	54001681 	b.ne	5d4 <__addtf3+0x5b4>  // b.any
     308:	aa090045 	orr	x5, x2, x9
     30c:	aa0d0088 	orr	x8, x4, x13
     310:	b5002421 	cbnz	x1, 794 <__addtf3+0x774>
     314:	b4002945 	cbz	x5, 83c <__addtf3+0x81c>
     318:	b40029c8 	cbz	x8, 850 <__addtf3+0x830>
     31c:	eb0d0125 	subs	x5, x9, x13
     320:	eb0d013f 	cmp	x9, x13
     324:	da040043 	sbc	x3, x2, x4
     328:	b69837a3 	tbz	x3, #51, a1c <__addtf3+0x9fc>
     32c:	eb0901a9 	subs	x9, x13, x9
     330:	2a0b03e7 	mov	w7, w11
     334:	da020082 	sbc	x2, x4, x2
     338:	aa0e03ec 	mov	x12, x14
     33c:	aa020128 	orr	x8, x9, x2
     340:	17ffff87 	b	15c <__addtf3+0x13c>
     344:	aa0d0080 	orr	x0, x4, x13
     348:	b40026a0 	cbz	x0, 81c <__addtf3+0x7fc>
     34c:	710004a5 	subs	w5, w5, #0x1
     350:	54fff7a1 	b.ne	244 <__addtf3+0x224>  // b.any
     354:	ab0d0129 	adds	x9, x9, x13
     358:	9a020082 	adc	x2, x4, x2
     35c:	d503201f 	nop
     360:	b69ffb82 	tbz	x2, #51, 2d0 <__addtf3+0x2b0>
     364:	91000421 	add	x1, x1, #0x1
     368:	d28fffe0 	mov	x0, #0x7fff                	// #32767
     36c:	eb00003f 	cmp	x1, x0
     370:	54002760 	b.eq	85c <__addtf3+0x83c>  // b.none
     374:	92400120 	and	x0, x9, #0x1
     378:	924cf843 	and	x3, x2, #0xfff7ffffffffffff
     37c:	aa490409 	orr	x9, x0, x9, lsr #1
     380:	52800005 	mov	w5, #0x0                   	// #0
     384:	aa02fd29 	orr	x9, x9, x2, lsl #63
     388:	d341fc62 	lsr	x2, x3, #1
     38c:	92400920 	and	x0, x9, #0x7
     390:	17ffff77 	b	16c <__addtf3+0x14c>
     394:	926a05e3 	and	x3, x15, #0xc00000
     398:	b40001c3 	cbz	x3, 3d0 <__addtf3+0x3b0>
     39c:	f150007f 	cmp	x3, #0x400, lsl #12
     3a0:	54000140 	b.eq	3c8 <__addtf3+0x3a8>  // b.none
     3a4:	f160007f 	cmp	x3, #0x800, lsl #12
     3a8:	1a9f018c 	csel	w12, w12, wzr, eq  // eq = none
     3ac:	3500012c 	cbnz	w12, 3d0 <__addtf3+0x3b0>
     3b0:	52800281 	mov	w1, #0x14                  	// #20
     3b4:	92fc0002 	mov	x2, #0x1fffffffffffffff    	// #2305843009213693951
     3b8:	2a010000 	orr	w0, w0, w1
     3bc:	92800008 	mov	x8, #0xffffffffffffffff    	// #-1
     3c0:	d28fffc1 	mov	x1, #0x7ffe                	// #32766
     3c4:	17ffffcb 	b	2f0 <__addtf3+0x2d0>
     3c8:	b5ffff4c 	cbnz	x12, 3b0 <__addtf3+0x390>
     3cc:	d503201f 	nop
     3d0:	52800281 	mov	w1, #0x14                  	// #20
     3d4:	92401cf0 	and	x16, x7, #0xff
     3d8:	2a010000 	orr	w0, w0, w1
     3dc:	d2800004 	mov	x4, #0x0                   	// #0
     3e0:	9e670080 	fmov	d0, x4
     3e4:	d3410210 	lsl	x16, x16, #63
     3e8:	b2503a05 	orr	x5, x16, #0x7fff000000000000
     3ec:	9eaf00a0 	fmov	v0.d[1], x5
     3f0:	3d8007e0 	str	q0, [sp, #16]
     3f4:	940007cb 	bl	2320 <__sfp_handle_exceptions>
     3f8:	3dc007e0 	ldr	q0, [sp, #16]
     3fc:	a8c37bfd 	ldp	x29, x30, [sp], #48
     400:	d65f03c0 	ret
     404:	54000a00 	b.eq	544 <__addtf3+0x524>  // b.none
     408:	b5001608 	cbnz	x8, 6c8 <__addtf3+0x6a8>
     40c:	aa090040 	orr	x0, x2, x9
     410:	b4002920 	cbz	x0, 934 <__addtf3+0x914>
     414:	310004bf 	cmn	w5, #0x1
     418:	540033e0 	b.eq	a94 <__addtf3+0xa74>  // b.none
     41c:	d28fffe0 	mov	x0, #0x7fff                	// #32767
     420:	2a2503e5 	mvn	w5, w5
     424:	eb00007f 	cmp	x3, x0
     428:	540015a1 	b.ne	6dc <__addtf3+0x6bc>  // b.any
     42c:	aa0d0080 	orr	x0, x4, x13
     430:	b4ffef40 	cbz	x0, 218 <__addtf3+0x1f8>
     434:	d372fc85 	lsr	x5, x4, #50
     438:	aa0d03e9 	mov	x9, x13
     43c:	d24000a5 	eor	x5, x5, #0x1
     440:	aa0403e2 	mov	x2, x4
     444:	120000a5 	and	w5, w5, #0x1
     448:	14000018 	b	4a8 <__addtf3+0x488>
     44c:	52800200 	mov	w0, #0x10                  	// #16
     450:	b400006c 	cbz	x12, 45c <__addtf3+0x43c>
     454:	b1002129 	adds	x9, x9, #0x8
     458:	9a823442 	cinc	x2, x2, cs  // cs = hs, nlast
     45c:	924d0043 	and	x3, x2, #0x8000000000000
     460:	34ffe9c5 	cbz	w5, 198 <__addtf3+0x178>
     464:	321d0000 	orr	w0, w0, #0x8
     468:	17ffff4c 	b	198 <__addtf3+0x178>
     46c:	52800200 	mov	w0, #0x10                  	// #16
     470:	b5ffff6c 	cbnz	x12, 45c <__addtf3+0x43c>
     474:	17fffff8 	b	454 <__addtf3+0x434>
     478:	92400d23 	and	x3, x9, #0xf
     47c:	52800200 	mov	w0, #0x10                  	// #16
     480:	f100107f 	cmp	x3, #0x4
     484:	54fffec0 	b.eq	45c <__addtf3+0x43c>  // b.none
     488:	b1001129 	adds	x9, x9, #0x4
     48c:	9a823442 	cinc	x2, x2, cs  // cs = hs, nlast
     490:	17fffff3 	b	45c <__addtf3+0x43c>
     494:	aa090040 	orr	x0, x2, x9
     498:	b4ffec00 	cbz	x0, 218 <__addtf3+0x1f8>
     49c:	d372fc45 	lsr	x5, x2, #50
     4a0:	d24000a5 	eor	x5, x5, #0x1
     4a4:	120000a5 	and	w5, w5, #0x1
     4a8:	2a0503e0 	mov	w0, w5
     4ac:	d28fffe1 	mov	x1, #0x7fff                	// #32767
     4b0:	d28fffe3 	mov	x3, #0x7fff                	// #32767
     4b4:	93c90c48 	extr	x8, x2, x9, #3
     4b8:	eb03003f 	cmp	x1, x3
     4bc:	d343fc42 	lsr	x2, x2, #3
     4c0:	54fff181 	b.ne	2f0 <__addtf3+0x2d0>  // b.any
     4c4:	aa020101 	orr	x1, x8, x2
     4c8:	b4003361 	cbz	x1, b34 <__addtf3+0xb14>
     4cc:	b2510042 	orr	x2, x2, #0x800000000000
     4d0:	528fffe1 	mov	w1, #0x7fff                	// #32767
     4d4:	9240bc42 	and	x2, x2, #0xffffffffffff
     4d8:	17ffff38 	b	1b8 <__addtf3+0x198>
     4dc:	aa0303e9 	mov	x9, x3
     4e0:	924cf842 	and	x2, x2, #0xfff7ffffffffffff
     4e4:	cb040021 	sub	x1, x1, x4
     4e8:	aa020128 	orr	x8, x9, x2
     4ec:	92400920 	and	x0, x9, #0x7
     4f0:	52800005 	mov	w5, #0x0                   	// #0
     4f4:	b4ffef61 	cbz	x1, 2e0 <__addtf3+0x2c0>
     4f8:	17ffff1d 	b	16c <__addtf3+0x14c>
     4fc:	dac01122 	clz	x2, x9
     500:	1100d040 	add	w0, w2, #0x34
     504:	7100fc1f 	cmp	w0, #0x3f
     508:	54ffdfcd 	b.le	100 <__addtf3+0xe0>
     50c:	51003042 	sub	w2, w2, #0xc
     510:	9ac22122 	lsl	x2, x9, x2
     514:	17ffff00 	b	114 <__addtf3+0xf4>
     518:	aa0d0084 	orr	x4, x4, x13
     51c:	f100009f 	cmp	x4, #0x0
     520:	9a9f07e3 	cset	x3, ne  // ne = any
     524:	17fffef0 	b	e4 <__addtf3+0xc4>
     528:	924d0043 	and	x3, x2, #0x8000000000000
     52c:	52800000 	mov	w0, #0x0                   	// #0
     530:	34ffe345 	cbz	w5, 198 <__addtf3+0x178>
     534:	52800000 	mov	w0, #0x0                   	// #0
     538:	365fe30f 	tbz	w15, #11, 198 <__addtf3+0x178>
     53c:	321d0000 	orr	w0, w0, #0x8
     540:	17ffff16 	b	198 <__addtf3+0x178>
     544:	91000500 	add	x0, x8, #0x1
     548:	f27f341f 	tst	x0, #0x7ffe
     54c:	54001041 	b.ne	754 <__addtf3+0x734>  // b.any
     550:	aa090040 	orr	x0, x2, x9
     554:	b5001de8 	cbnz	x8, 910 <__addtf3+0x8f0>
     558:	aa0d0088 	orr	x8, x4, x13
     55c:	b4002040 	cbz	x0, 964 <__addtf3+0x944>
     560:	b4001788 	cbz	x8, 850 <__addtf3+0x830>
     564:	ab0d0129 	adds	x9, x9, x13
     568:	9a020082 	adc	x2, x4, x2
     56c:	b69fee82 	tbz	x2, #51, 33c <__addtf3+0x31c>
     570:	924cf842 	and	x2, x2, #0xfff7ffffffffffff
     574:	92400920 	and	x0, x9, #0x7
     578:	d2800021 	mov	x1, #0x1                   	// #1
     57c:	17fffefc 	b	16c <__addtf3+0x14c>
     580:	d28fffe1 	mov	x1, #0x7fff                	// #32767
     584:	4b0003e0 	neg	w0, w0
     588:	b24d0042 	orr	x2, x2, #0x8000000000000
     58c:	eb01007f 	cmp	x3, x1
     590:	54ffe3c0 	b.eq	208 <__addtf3+0x1e8>  // b.none
     594:	7101d01f 	cmp	w0, #0x74
     598:	5400086c 	b.gt	6a4 <__addtf3+0x684>
     59c:	7100fc1f 	cmp	w0, #0x3f
     5a0:	5400190c 	b.gt	8c0 <__addtf3+0x8a0>
     5a4:	52800801 	mov	w1, #0x40                  	// #64
     5a8:	4b000021 	sub	w1, w1, w0
     5ac:	9ac02525 	lsr	x5, x9, x0
     5b0:	9ac12129 	lsl	x9, x9, x1
     5b4:	f100013f 	cmp	x9, #0x0
     5b8:	9ac12049 	lsl	x9, x2, x1
     5bc:	9a9f07e1 	cset	x1, ne  // ne = any
     5c0:	aa050129 	orr	x9, x9, x5
     5c4:	9ac02440 	lsr	x0, x2, x0
     5c8:	aa010129 	orr	x9, x9, x1
     5cc:	cb000084 	sub	x4, x4, x0
     5d0:	14000038 	b	6b0 <__addtf3+0x690>
     5d4:	eb0d0125 	subs	x5, x9, x13
     5d8:	eb0d013f 	cmp	x9, x13
     5dc:	da040043 	sbc	x3, x2, x4
     5e0:	b7980ce3 	tbnz	x3, #51, 77c <__addtf3+0x75c>
     5e4:	aa0300a8 	orr	x8, x5, x3
     5e8:	b5001608 	cbnz	x8, 8a8 <__addtf3+0x888>
     5ec:	926a05ef 	and	x15, x15, #0xc00000
     5f0:	d2800002 	mov	x2, #0x0                   	// #0
     5f4:	f16001ff 	cmp	x15, #0x800, lsl #12
     5f8:	d2800001 	mov	x1, #0x0                   	// #0
     5fc:	1a9f17e7 	cset	w7, eq  // eq = none
     600:	17ffff3c 	b	2f0 <__addtf3+0x2d0>
     604:	d28fffe0 	mov	x0, #0x7fff                	// #32767
     608:	eb00011f 	cmp	x8, x0
     60c:	54ffe621 	b.ne	2d0 <__addtf3+0x2b0>  // b.any
     610:	aa090040 	orr	x0, x2, x9
     614:	b5fff440 	cbnz	x0, 49c <__addtf3+0x47c>
     618:	d2800002 	mov	x2, #0x0                   	// #0
     61c:	d2800008 	mov	x8, #0x0                   	// #0
     620:	52800000 	mov	w0, #0x0                   	// #0
     624:	17ffffa8 	b	4c4 <__addtf3+0x4a4>
     628:	aa0d0084 	orr	x4, x4, x13
     62c:	f100009f 	cmp	x4, #0x0
     630:	9a9f07e0 	cset	x0, ne  // ne = any
     634:	ab090009 	adds	x9, x0, x9
     638:	9a823442 	cinc	x2, x2, cs  // cs = hs, nlast
     63c:	17ffff49 	b	360 <__addtf3+0x340>
     640:	52801004 	mov	w4, #0x80                  	// #128
     644:	4b000084 	sub	w4, w4, w0
     648:	7101001f 	cmp	w0, #0x40
     64c:	5100fc29 	sub	w9, w1, #0x3f
     650:	9ac42040 	lsl	x0, x2, x4
     654:	aa000060 	orr	x0, x3, x0
     658:	9a831003 	csel	x3, x0, x3, ne  // ne = any
     65c:	9ac92449 	lsr	x9, x2, x9
     660:	f100007f 	cmp	x3, #0x0
     664:	d2800002 	mov	x2, #0x0                   	// #0
     668:	9a9f07e0 	cset	x0, ne  // ne = any
     66c:	aa090009 	orr	x9, x0, x9
     670:	aa0903e8 	mov	x8, x9
     674:	17fffeba 	b	15c <__addtf3+0x13c>
     678:	52801005 	mov	w5, #0x80                  	// #128
     67c:	4b0000a5 	sub	w5, w5, w0
     680:	71010000 	subs	w0, w0, #0x40
     684:	9ac52085 	lsl	x5, x4, x5
     688:	aa0501a5 	orr	x5, x13, x5
     68c:	9a8d10ad 	csel	x13, x5, x13, ne  // ne = any
     690:	9ac02484 	lsr	x4, x4, x0
     694:	f10001bf 	cmp	x13, #0x0
     698:	9a9f07e3 	cset	x3, ne  // ne = any
     69c:	aa040063 	orr	x3, x3, x4
     6a0:	17fffe91 	b	e4 <__addtf3+0xc4>
     6a4:	aa090042 	orr	x2, x2, x9
     6a8:	f100005f 	cmp	x2, #0x0
     6ac:	9a9f07e9 	cset	x9, ne  // ne = any
     6b0:	eb0901a9 	subs	x9, x13, x9
     6b4:	2a0b03e7 	mov	w7, w11
     6b8:	da1f0082 	sbc	x2, x4, xzr
     6bc:	aa0303e1 	mov	x1, x3
     6c0:	aa0e03ec 	mov	x12, x14
     6c4:	17fffe8a 	b	ec <__addtf3+0xcc>
     6c8:	d28fffe0 	mov	x0, #0x7fff                	// #32767
     6cc:	4b0503e5 	neg	w5, w5
     6d0:	b24d0042 	orr	x2, x2, #0x8000000000000
     6d4:	eb00007f 	cmp	x3, x0
     6d8:	54ffeaa0 	b.eq	42c <__addtf3+0x40c>  // b.none
     6dc:	7101d0bf 	cmp	w5, #0x74
     6e0:	54000e8c 	b.gt	8b0 <__addtf3+0x890>
     6e4:	7100fcbf 	cmp	w5, #0x3f
     6e8:	5400144c 	b.gt	970 <__addtf3+0x950>
     6ec:	52800801 	mov	w1, #0x40                  	// #64
     6f0:	4b050021 	sub	w1, w1, w5
     6f4:	9ac52526 	lsr	x6, x9, x5
     6f8:	9ac12129 	lsl	x9, x9, x1
     6fc:	f100013f 	cmp	x9, #0x0
     700:	9a9f07e0 	cset	x0, ne  // ne = any
     704:	9ac12049 	lsl	x9, x2, x1
     708:	aa060129 	orr	x9, x9, x6
     70c:	9ac52445 	lsr	x5, x2, x5
     710:	aa000129 	orr	x9, x9, x0
     714:	8b050084 	add	x4, x4, x5
     718:	ab0d0129 	adds	x9, x9, x13
     71c:	aa0303e1 	mov	x1, x3
     720:	9a843482 	cinc	x2, x4, cs  // cs = hs, nlast
     724:	17ffff0f 	b	360 <__addtf3+0x340>
     728:	52801000 	mov	w0, #0x80                  	// #128
     72c:	4b050000 	sub	w0, w0, w5
     730:	710100a5 	subs	w5, w5, #0x40
     734:	9ac02080 	lsl	x0, x4, x0
     738:	aa0001a0 	orr	x0, x13, x0
     73c:	9a8d100d 	csel	x13, x0, x13, ne  // ne = any
     740:	9ac52484 	lsr	x4, x4, x5
     744:	f10001bf 	cmp	x13, #0x0
     748:	9a9f07e0 	cset	x0, ne  // ne = any
     74c:	aa040000 	orr	x0, x0, x4
     750:	17ffffb9 	b	634 <__addtf3+0x614>
     754:	d28fffe1 	mov	x1, #0x7fff                	// #32767
     758:	eb01001f 	cmp	x0, x1
     75c:	540012e0 	b.eq	9b8 <__addtf3+0x998>  // b.none
     760:	ab0d0129 	adds	x9, x9, x13
     764:	aa0003e1 	mov	x1, x0
     768:	9a020082 	adc	x2, x4, x2
     76c:	d3410d20 	ubfx	x0, x9, #1, #3
     770:	93c90449 	extr	x9, x2, x9, #1
     774:	d341fc42 	lsr	x2, x2, #1
     778:	17fffe7d 	b	16c <__addtf3+0x14c>
     77c:	eb0901bf 	cmp	x13, x9
     780:	2a0b03e7 	mov	w7, w11
     784:	da020083 	sbc	x3, x4, x2
     788:	cb0901a9 	sub	x9, x13, x9
     78c:	aa0e03ec 	mov	x12, x14
     790:	17fffe59 	b	f4 <__addtf3+0xd4>
     794:	d28fffec 	mov	x12, #0x7fff                	// #32767
     798:	eb0c003f 	cmp	x1, x12
     79c:	54000160 	b.eq	7c8 <__addtf3+0x7a8>  // b.none
     7a0:	eb0c007f 	cmp	x3, x12
     7a4:	540012a0 	b.eq	9f8 <__addtf3+0x9d8>  // b.none
     7a8:	b50001c5 	cbnz	x5, 7e0 <__addtf3+0x7c0>
     7ac:	2a0003e5 	mov	w5, w0
     7b0:	b5001948 	cbnz	x8, ad8 <__addtf3+0xab8>
     7b4:	52800007 	mov	w7, #0x0                   	// #0
     7b8:	92ffffe2 	mov	x2, #0xffffffffffff        	// #281474976710655
     7bc:	52800020 	mov	w0, #0x1                   	// #1
     7c0:	92800008 	mov	x8, #0xffffffffffffffff    	// #-1
     7c4:	17ffff42 	b	4cc <__addtf3+0x4ac>
     7c8:	b4001965 	cbz	x5, af4 <__addtf3+0xad4>
     7cc:	d372fc40 	lsr	x0, x2, #50
     7d0:	eb01007f 	cmp	x3, x1
     7d4:	d2400000 	eor	x0, x0, #0x1
     7d8:	12000000 	and	w0, w0, #0x1
     7dc:	540010e0 	b.eq	9f8 <__addtf3+0x9d8>  // b.none
     7e0:	b40011a8 	cbz	x8, a14 <__addtf3+0x9f4>
     7e4:	b3430846 	bfi	x6, x2, #61, #3
     7e8:	d343fc43 	lsr	x3, x2, #3
     7ec:	b69000e2 	tbz	x2, #50, 808 <__addtf3+0x7e8>
     7f0:	d343fc81 	lsr	x1, x4, #3
     7f4:	b79000a4 	tbnz	x4, #50, 808 <__addtf3+0x7e8>
     7f8:	aa0a03e6 	mov	x6, x10
     7fc:	2a0b03e7 	mov	w7, w11
     800:	b3430886 	bfi	x6, x4, #61, #3
     804:	aa0103e3 	mov	x3, x1
     808:	93c6f462 	extr	x2, x3, x6, #61
     80c:	b3430846 	bfi	x6, x2, #61, #3
     810:	d343fc42 	lsr	x2, x2, #3
     814:	aa0603e8 	mov	x8, x6
     818:	17ffff2b 	b	4c4 <__addtf3+0x4a4>
     81c:	d28fffe0 	mov	x0, #0x7fff                	// #32767
     820:	eb00011f 	cmp	x8, x0
     824:	54ffd561 	b.ne	2d0 <__addtf3+0x2b0>  // b.any
     828:	aa090040 	orr	x0, x2, x9
     82c:	b4ffef60 	cbz	x0, 618 <__addtf3+0x5f8>
     830:	d372fc45 	lsr	x5, x2, #50
     834:	520000a5 	eor	w5, w5, #0x1
     838:	17ffff1c 	b	4a8 <__addtf3+0x488>
     83c:	b40008a8 	cbz	x8, 950 <__addtf3+0x930>
     840:	2a0b03e7 	mov	w7, w11
     844:	aa0403e2 	mov	x2, x4
     848:	aa0d03e9 	mov	x9, x13
     84c:	aa0e03ec 	mov	x12, x14
     850:	d2800001 	mov	x1, #0x0                   	// #0
     854:	d2800003 	mov	x3, #0x0                   	// #0
     858:	17ffff37 	b	534 <__addtf3+0x514>
     85c:	f26a05e3 	ands	x3, x15, #0xc00000
     860:	54000460 	b.eq	8ec <__addtf3+0x8cc>  // b.none
     864:	f150007f 	cmp	x3, #0x400, lsl #12
     868:	520000e0 	eor	w0, w7, #0x1
     86c:	1a9f17e1 	cset	w1, eq  // eq = none
     870:	6a00003f 	tst	w1, w0
     874:	540014e1 	b.ne	b10 <__addtf3+0xaf0>  // b.any
     878:	f160007f 	cmp	x3, #0x800, lsl #12
     87c:	54001200 	b.eq	abc <__addtf3+0xa9c>  // b.none
     880:	f150007f 	cmp	x3, #0x400, lsl #12
     884:	52800280 	mov	w0, #0x14                  	// #20
     888:	54ffd881 	b.ne	398 <__addtf3+0x378>  // b.any
     88c:	92800002 	mov	x2, #0xffffffffffffffff    	// #-1
     890:	d28fffc1 	mov	x1, #0x7ffe                	// #32766
     894:	aa0203e9 	mov	x9, x2
     898:	52800005 	mov	w5, #0x0                   	// #0
     89c:	52800280 	mov	w0, #0x14                  	// #20
     8a0:	b5ffddec 	cbnz	x12, 45c <__addtf3+0x43c>
     8a4:	17fffeec 	b	454 <__addtf3+0x434>
     8a8:	aa0503e9 	mov	x9, x5
     8ac:	17fffe12 	b	f4 <__addtf3+0xd4>
     8b0:	aa090042 	orr	x2, x2, x9
     8b4:	f100005f 	cmp	x2, #0x0
     8b8:	9a9f07e9 	cset	x9, ne  // ne = any
     8bc:	17ffff97 	b	718 <__addtf3+0x6f8>
     8c0:	52801001 	mov	w1, #0x80                  	// #128
     8c4:	4b000021 	sub	w1, w1, w0
     8c8:	71010000 	subs	w0, w0, #0x40
     8cc:	9ac12041 	lsl	x1, x2, x1
     8d0:	aa010121 	orr	x1, x9, x1
     8d4:	9a891029 	csel	x9, x1, x9, ne  // ne = any
     8d8:	9ac02442 	lsr	x2, x2, x0
     8dc:	f100013f 	cmp	x9, #0x0
     8e0:	9a9f07e9 	cset	x9, ne  // ne = any
     8e4:	aa020129 	orr	x9, x9, x2
     8e8:	17ffff72 	b	6b0 <__addtf3+0x690>
     8ec:	52800280 	mov	w0, #0x14                  	// #20
     8f0:	17fffebb 	b	3dc <__addtf3+0x3bc>
     8f4:	d372fc85 	lsr	x5, x4, #50
     8f8:	2a0b03e7 	mov	w7, w11
     8fc:	d24000a5 	eor	x5, x5, #0x1
     900:	aa0d03e9 	mov	x9, x13
     904:	120000a5 	and	w5, w5, #0x1
     908:	aa0403e2 	mov	x2, x4
     90c:	17fffee7 	b	4a8 <__addtf3+0x488>
     910:	d28fffe8 	mov	x8, #0x7fff                	// #32767
     914:	eb08003f 	cmp	x1, x8
     918:	54000900 	b.eq	a38 <__addtf3+0xa18>  // b.none
     91c:	eb08007f 	cmp	x3, x8
     920:	54000c60 	b.eq	aac <__addtf3+0xa8c>  // b.none
     924:	b5000960 	cbnz	x0, a50 <__addtf3+0xa30>
     928:	aa0403e2 	mov	x2, x4
     92c:	aa0d03e9 	mov	x9, x13
     930:	17fffede 	b	4a8 <__addtf3+0x488>
     934:	d28fffe0 	mov	x0, #0x7fff                	// #32767
     938:	eb00007f 	cmp	x3, x0
     93c:	54000d60 	b.eq	ae8 <__addtf3+0xac8>  // b.none
     940:	aa0403e2 	mov	x2, x4
     944:	aa0d03e9 	mov	x9, x13
     948:	aa0303e1 	mov	x1, x3
     94c:	17fffe61 	b	2d0 <__addtf3+0x2b0>
     950:	926a05ef 	and	x15, x15, #0xc00000
     954:	d2800002 	mov	x2, #0x0                   	// #0
     958:	f16001ff 	cmp	x15, #0x800, lsl #12
     95c:	1a9f17e7 	cset	w7, eq  // eq = none
     960:	17fffe64 	b	2f0 <__addtf3+0x2d0>
     964:	aa0403e2 	mov	x2, x4
     968:	aa0d03e9 	mov	x9, x13
     96c:	17fffdfc 	b	15c <__addtf3+0x13c>
     970:	52801000 	mov	w0, #0x80                  	// #128
     974:	4b050000 	sub	w0, w0, w5
     978:	710100a5 	subs	w5, w5, #0x40
     97c:	9ac02040 	lsl	x0, x2, x0
     980:	aa000120 	orr	x0, x9, x0
     984:	9a891009 	csel	x9, x0, x9, ne  // ne = any
     988:	9ac52442 	lsr	x2, x2, x5
     98c:	f100013f 	cmp	x9, #0x0
     990:	9a9f07e9 	cset	x9, ne  // ne = any
     994:	aa020129 	orr	x9, x9, x2
     998:	17ffff60 	b	718 <__addtf3+0x6f8>
     99c:	eb0901bf 	cmp	x13, x9
     9a0:	2a0b03e7 	mov	w7, w11
     9a4:	da020082 	sbc	x2, x4, x2
     9a8:	cb0901a9 	sub	x9, x13, x9
     9ac:	aa0303e1 	mov	x1, x3
     9b0:	aa0503ec 	mov	x12, x5
     9b4:	17fffdce 	b	ec <__addtf3+0xcc>
     9b8:	f26a05e3 	ands	x3, x15, #0xc00000
     9bc:	54fff980 	b.eq	8ec <__addtf3+0x8cc>  // b.none
     9c0:	f150007f 	cmp	x3, #0x400, lsl #12
     9c4:	520000e0 	eor	w0, w7, #0x1
     9c8:	1a9f0000 	csel	w0, w0, wzr, eq  // eq = none
     9cc:	35000a20 	cbnz	w0, b10 <__addtf3+0xaf0>
     9d0:	f160007f 	cmp	x3, #0x800, lsl #12
     9d4:	54fff561 	b.ne	880 <__addtf3+0x860>  // b.any
     9d8:	b400074c 	cbz	x12, ac0 <__addtf3+0xaa0>
     9dc:	52800280 	mov	w0, #0x14                  	// #20
     9e0:	d2800030 	mov	x16, #0x1                   	// #1
     9e4:	17fffe7e 	b	3dc <__addtf3+0x3bc>
     9e8:	aa0d0080 	orr	x0, x4, x13
     9ec:	b5fff840 	cbnz	x0, 8f4 <__addtf3+0x8d4>
     9f0:	2a0b03e7 	mov	w7, w11
     9f4:	17ffff09 	b	618 <__addtf3+0x5f8>
     9f8:	b4000868 	cbz	x8, b04 <__addtf3+0xae4>
     9fc:	f24e009f 	tst	x4, #0x4000000000000
     a00:	1a9f1400 	csinc	w0, w0, wzr, ne  // ne = any
     a04:	b5ffef05 	cbnz	x5, 7e4 <__addtf3+0x7c4>
     a08:	2a0b03e7 	mov	w7, w11
     a0c:	aa0403e2 	mov	x2, x4
     a10:	aa0d03e9 	mov	x9, x13
     a14:	2a0003e5 	mov	w5, w0
     a18:	17fffea4 	b	4a8 <__addtf3+0x488>
     a1c:	aa0300a8 	orr	x8, x5, x3
     a20:	b4fff988 	cbz	x8, 950 <__addtf3+0x930>
     a24:	924008a0 	and	x0, x5, #0x7
     a28:	aa0503e9 	mov	x9, x5
     a2c:	aa0303e2 	mov	x2, x3
     a30:	52800025 	mov	w5, #0x1                   	// #1
     a34:	17fffdce 	b	16c <__addtf3+0x14c>
     a38:	b4000360 	cbz	x0, aa4 <__addtf3+0xa84>
     a3c:	d372fc45 	lsr	x5, x2, #50
     a40:	eb01007f 	cmp	x3, x1
     a44:	d24000a5 	eor	x5, x5, #0x1
     a48:	120000a5 	and	w5, w5, #0x1
     a4c:	54000680 	b.eq	b1c <__addtf3+0xafc>  // b.none
     a50:	aa0d008d 	orr	x13, x4, x13
     a54:	b4ffd2ad 	cbz	x13, 4a8 <__addtf3+0x488>
     a58:	b3430846 	bfi	x6, x2, #61, #3
     a5c:	d343fc40 	lsr	x0, x2, #3
     a60:	b69000e2 	tbz	x2, #50, a7c <__addtf3+0xa5c>
     a64:	d343fc81 	lsr	x1, x4, #3
     a68:	b79000a4 	tbnz	x4, #50, a7c <__addtf3+0xa5c>
     a6c:	9240f146 	and	x6, x10, #0x1fffffffffffffff
     a70:	2a0b03e7 	mov	w7, w11
     a74:	aa04f4c6 	orr	x6, x6, x4, lsl #61
     a78:	aa0103e0 	mov	x0, x1
     a7c:	93c6f402 	extr	x2, x0, x6, #61
     a80:	2a0503e0 	mov	w0, w5
     a84:	b3430846 	bfi	x6, x2, #61, #3
     a88:	d343fc42 	lsr	x2, x2, #3
     a8c:	aa0603e8 	mov	x8, x6
     a90:	17fffe8d 	b	4c4 <__addtf3+0x4a4>
     a94:	ab0d0129 	adds	x9, x9, x13
     a98:	aa0303e1 	mov	x1, x3
     a9c:	9a020082 	adc	x2, x4, x2
     aa0:	17fffe30 	b	360 <__addtf3+0x340>
     aa4:	eb01007f 	cmp	x3, x1
     aa8:	54fff401 	b.ne	928 <__addtf3+0x908>  // b.any
     aac:	aa0d0081 	orr	x1, x4, x13
     ab0:	b50003a1 	cbnz	x1, b24 <__addtf3+0xb04>
     ab4:	b4ffdb20 	cbz	x0, 618 <__addtf3+0x5f8>
     ab8:	17fffe7c 	b	4a8 <__addtf3+0x488>
     abc:	b5fff910 	cbnz	x16, 9dc <__addtf3+0x9bc>
     ac0:	92800002 	mov	x2, #0xffffffffffffffff    	// #-1
     ac4:	52800007 	mov	w7, #0x0                   	// #0
     ac8:	aa0203e9 	mov	x9, x2
     acc:	d28fffc1 	mov	x1, #0x7ffe                	// #32766
     ad0:	52800280 	mov	w0, #0x14                  	// #20
     ad4:	17fffdb2 	b	19c <__addtf3+0x17c>
     ad8:	2a0b03e7 	mov	w7, w11
     adc:	aa0403e2 	mov	x2, x4
     ae0:	aa0d03e9 	mov	x9, x13
     ae4:	17fffe71 	b	4a8 <__addtf3+0x488>
     ae8:	aa0d0080 	orr	x0, x4, x13
     aec:	b4ffd960 	cbz	x0, 618 <__addtf3+0x5f8>
     af0:	17fffe51 	b	434 <__addtf3+0x414>
     af4:	eb01007f 	cmp	x3, x1
     af8:	54fff800 	b.eq	9f8 <__addtf3+0x9d8>  // b.none
     afc:	52800005 	mov	w5, #0x0                   	// #0
     b00:	17ffff2c 	b	7b0 <__addtf3+0x790>
     b04:	b5fff885 	cbnz	x5, a14 <__addtf3+0x9f4>
     b08:	2a0003e5 	mov	w5, w0
     b0c:	17ffff29 	b	7b0 <__addtf3+0x790>
     b10:	52800280 	mov	w0, #0x14                  	// #20
     b14:	d2800010 	mov	x16, #0x0                   	// #0
     b18:	17fffe31 	b	3dc <__addtf3+0x3bc>
     b1c:	aa0d0081 	orr	x1, x4, x13
     b20:	b4ffcc41 	cbz	x1, 4a8 <__addtf3+0x488>
     b24:	f24e009f 	tst	x4, #0x4000000000000
     b28:	1a9f14a5 	csinc	w5, w5, wzr, ne  // ne = any
     b2c:	b5fff960 	cbnz	x0, a58 <__addtf3+0xa38>
     b30:	17ffff7e 	b	928 <__addtf3+0x908>
     b34:	d2800008 	mov	x8, #0x0                   	// #0
     b38:	528fffe1 	mov	w1, #0x7fff                	// #32767
     b3c:	d2800002 	mov	x2, #0x0                   	// #0
     b40:	17fffd9e 	b	1b8 <__addtf3+0x198>
     b44:	00000000 	.inst	0x00000000 ; undefined

0000000000000b48 <__eqtf2>:
     b48:	a9bd7bfd 	stp	x29, x30, [sp, #-48]!
     b4c:	910003fd 	mov	x29, sp
     b50:	3d8007e0 	str	q0, [sp, #16]
     b54:	3d800be1 	str	q1, [sp, #32]
     b58:	a94107e6 	ldp	x6, x1, [sp, #16]
     b5c:	a94203e7 	ldp	x7, x0, [sp, #32]
     b60:	d53b4402 	mrs	x2, fpcr
     b64:	d370f824 	ubfx	x4, x1, #48, #15
     b68:	d37ffc22 	lsr	x2, x1, #63
     b6c:	d37ffc03 	lsr	x3, x0, #63
     b70:	d340bc09 	ubfx	x9, x0, #0, #48
     b74:	d28fffe5 	mov	x5, #0x7fff                	// #32767
     b78:	aa0603ea 	mov	x10, x6
     b7c:	eb05009f 	cmp	x4, x5
     b80:	12001c42 	and	w2, w2, #0xff
     b84:	d340bc21 	ubfx	x1, x1, #0, #48
     b88:	12001c63 	and	w3, w3, #0xff
     b8c:	d370f800 	ubfx	x0, x0, #48, #15
     b90:	540001a0 	b.eq	bc4 <__eqtf2+0x7c>  // b.none
     b94:	eb05001f 	cmp	x0, x5
     b98:	540000c0 	b.eq	bb0 <__eqtf2+0x68>  // b.none
     b9c:	eb00009f 	cmp	x4, x0
     ba0:	52800020 	mov	w0, #0x1                   	// #1
     ba4:	540001c0 	b.eq	bdc <__eqtf2+0x94>  // b.none
     ba8:	a8c37bfd 	ldp	x29, x30, [sp], #48
     bac:	d65f03c0 	ret
     bb0:	aa070128 	orr	x8, x9, x7
     bb4:	b5000468 	cbnz	x8, c40 <__eqtf2+0xf8>
     bb8:	52800020 	mov	w0, #0x1                   	// #1
     bbc:	a8c37bfd 	ldp	x29, x30, [sp], #48
     bc0:	d65f03c0 	ret
     bc4:	aa060025 	orr	x5, x1, x6
     bc8:	b5000245 	cbnz	x5, c10 <__eqtf2+0xc8>
     bcc:	eb04001f 	cmp	x0, x4
     bd0:	54ffff41 	b.ne	bb8 <__eqtf2+0x70>  // b.any
     bd4:	aa070128 	orr	x8, x9, x7
     bd8:	b5000348 	cbnz	x8, c40 <__eqtf2+0xf8>
     bdc:	eb09003f 	cmp	x1, x9
     be0:	52800020 	mov	w0, #0x1                   	// #1
     be4:	fa4700c0 	ccmp	x6, x7, #0x0, eq  // eq = none
     be8:	54fffe01 	b.ne	ba8 <__eqtf2+0x60>  // b.any
     bec:	6b03005f 	cmp	w2, w3
     bf0:	52800000 	mov	w0, #0x0                   	// #0
     bf4:	54fffda0 	b.eq	ba8 <__eqtf2+0x60>  // b.none
     bf8:	52800020 	mov	w0, #0x1                   	// #1
     bfc:	b5fffd64 	cbnz	x4, ba8 <__eqtf2+0x60>
     c00:	aa0a0021 	orr	x1, x1, x10
     c04:	f100003f 	cmp	x1, #0x0
     c08:	1a9f07e0 	cset	w0, ne  // ne = any
     c0c:	17ffffe7 	b	ba8 <__eqtf2+0x60>
     c10:	f251003f 	tst	x1, #0x800000000000
     c14:	540000c1 	b.ne	c2c <__eqtf2+0xe4>  // b.any
     c18:	52800020 	mov	w0, #0x1                   	// #1
     c1c:	940005c1 	bl	2320 <__sfp_handle_exceptions>
     c20:	52800020 	mov	w0, #0x1                   	// #1
     c24:	a8c37bfd 	ldp	x29, x30, [sp], #48
     c28:	d65f03c0 	ret
     c2c:	eb04001f 	cmp	x0, x4
     c30:	52800020 	mov	w0, #0x1                   	// #1
     c34:	54fffba1 	b.ne	ba8 <__eqtf2+0x60>  // b.any
     c38:	aa070128 	orr	x8, x9, x7
     c3c:	b4fffb68 	cbz	x8, ba8 <__eqtf2+0x60>
     c40:	f251013f 	tst	x9, #0x800000000000
     c44:	54fffea0 	b.eq	c18 <__eqtf2+0xd0>  // b.none
     c48:	17ffffdc 	b	bb8 <__eqtf2+0x70>
     c4c:	00000000 	.inst	0x00000000 ; undefined

0000000000000c50 <__multf3>:
     c50:	a9bb7bfd 	stp	x29, x30, [sp, #-80]!
     c54:	910003fd 	mov	x29, sp
     c58:	3d800fe0 	str	q0, [sp, #48]
     c5c:	3d8013e1 	str	q1, [sp, #64]
     c60:	a94303e1 	ldp	x1, x0, [sp, #48]
     c64:	a9440be6 	ldp	x6, x2, [sp, #64]
     c68:	d53b440b 	mrs	x11, fpcr
     c6c:	d37ffc03 	lsr	x3, x0, #63
     c70:	d340bc07 	ubfx	x7, x0, #0, #48
     c74:	12001c6c 	and	w12, w3, #0xff
     c78:	aa0303ee 	mov	x14, x3
     c7c:	d370f803 	ubfx	x3, x0, #48, #15
     c80:	34001d43 	cbz	w3, 1028 <__multf3+0x3d8>
     c84:	528fffe4 	mov	w4, #0x7fff                	// #32767
     c88:	6b04007f 	cmp	w3, w4
     c8c:	54002200 	b.eq	10cc <__multf3+0x47c>  // b.none
     c90:	92403c63 	and	x3, x3, #0xffff
     c94:	93c1f4e4 	extr	x4, x7, x1, #61
     c98:	9287ffd2 	mov	x18, #0xffffffffffffc001    	// #-16383
     c9c:	b24d0087 	orr	x7, x4, #0x8000000000000
     ca0:	8b120063 	add	x3, x3, x18
     ca4:	d37df025 	lsl	x5, x1, #3
     ca8:	d2800010 	mov	x16, #0x0                   	// #0
     cac:	d2800001 	mov	x1, #0x0                   	// #0
     cb0:	52800000 	mov	w0, #0x0                   	// #0
     cb4:	d37ffc48 	lsr	x8, x2, #63
     cb8:	d340bc44 	ubfx	x4, x2, #0, #48
     cbc:	12001d0f 	and	w15, w8, #0xff
     cc0:	aa0803ed 	mov	x13, x8
     cc4:	d370f849 	ubfx	x9, x2, #48, #15
     cc8:	34001e09 	cbz	w9, 1088 <__multf3+0x438>
     ccc:	528fffe8 	mov	w8, #0x7fff                	// #32767
     cd0:	6b08013f 	cmp	w9, w8
     cd4:	54000420 	b.eq	d58 <__multf3+0x108>  // b.none
     cd8:	92403d29 	and	x9, x9, #0xffff
     cdc:	9287ffd1 	mov	x17, #0xffffffffffffc001    	// #-16383
     ce0:	8b110129 	add	x9, x9, x17
     ce4:	93c6f482 	extr	x2, x4, x6, #61
     ce8:	8b030129 	add	x9, x9, x3
     cec:	d37df0c6 	lsl	x6, x6, #3
     cf0:	b24d0044 	orr	x4, x2, #0x8000000000000
     cf4:	d2800002 	mov	x2, #0x0                   	// #0
     cf8:	4a0f0188 	eor	w8, w12, w15
     cfc:	f100283f 	cmp	x1, #0xa
     d00:	12001d0a 	and	w10, w8, #0xff
     d04:	91000523 	add	x3, x9, #0x1
     d08:	92401d08 	and	x8, x8, #0xff
     d0c:	5400042d 	b.le	d90 <__multf3+0x140>
     d10:	f1002c3f 	cmp	x1, #0xb
     d14:	540038a0 	b.eq	1428 <__multf3+0x7d8>  // b.none
     d18:	2a0c03ef 	mov	w15, w12
     d1c:	aa0e03ed 	mov	x13, x14
     d20:	2a0f03ea 	mov	w10, w15
     d24:	f1000a1f 	cmp	x16, #0x2
     d28:	54001e20 	b.eq	10ec <__multf3+0x49c>  // b.none
     d2c:	aa0703e4 	mov	x4, x7
     d30:	aa0503e6 	mov	x6, x5
     d34:	aa1003e2 	mov	x2, x16
     d38:	aa0d03e8 	mov	x8, x13
     d3c:	f1000c5f 	cmp	x2, #0x3
     d40:	54000361 	b.ne	dac <__multf3+0x15c>  // b.any
     d44:	b2510084 	orr	x4, x4, #0x800000000000
     d48:	aa0603e5 	mov	x5, x6
     d4c:	9240bc84 	and	x4, x4, #0xffffffffffff
     d50:	528fffe1 	mov	w1, #0x7fff                	// #32767
     d54:	1400001b 	b	dc0 <__multf3+0x170>
     d58:	d28fffe8 	mov	x8, #0x7fff                	// #32767
     d5c:	aa060082 	orr	x2, x4, x6
     d60:	8b080069 	add	x9, x3, x8
     d64:	b5000402 	cbnz	x2, de4 <__multf3+0x194>
     d68:	4a0f0188 	eor	w8, w12, w15
     d6c:	b27f0021 	orr	x1, x1, #0x2
     d70:	12001d0a 	and	w10, w8, #0xff
     d74:	f100283f 	cmp	x1, #0xa
     d78:	91402063 	add	x3, x3, #0x8, lsl #12
     d7c:	92401d08 	and	x8, x8, #0xff
     d80:	d2800006 	mov	x6, #0x0                   	// #0
     d84:	540030cc 	b.gt	139c <__multf3+0x74c>
     d88:	d2800004 	mov	x4, #0x0                   	// #0
     d8c:	d2800042 	mov	x2, #0x2                   	// #2
     d90:	f100083f 	cmp	x1, #0x2
     d94:	540003cc 	b.gt	e0c <__multf3+0x1bc>
     d98:	d1000421 	sub	x1, x1, #0x1
     d9c:	f100043f 	cmp	x1, #0x1
     da0:	54000548 	b.hi	e48 <__multf3+0x1f8>  // b.pmore
     da4:	f100085f 	cmp	x2, #0x2
     da8:	54001a20 	b.eq	10ec <__multf3+0x49c>  // b.none
     dac:	f100045f 	cmp	x2, #0x1
     db0:	54000fc1 	b.ne	fa8 <__multf3+0x358>  // b.any
     db4:	52800001 	mov	w1, #0x0                   	// #0
     db8:	d2800004 	mov	x4, #0x0                   	// #0
     dbc:	d2800005 	mov	x5, #0x0                   	// #0
     dc0:	d2800003 	mov	x3, #0x0                   	// #0
     dc4:	2a0a3c21 	orr	w1, w1, w10, lsl #15
     dc8:	b340bc83 	bfxil	x3, x4, #0, #48
     dcc:	9e6700a0 	fmov	d0, x5
     dd0:	b3503c23 	bfi	x3, x1, #48, #16
     dd4:	9eaf0060 	fmov	v0.d[1], x3
     dd8:	35002200 	cbnz	w0, 1218 <__multf3+0x5c8>
     ddc:	a8c57bfd 	ldp	x29, x30, [sp], #80
     de0:	d65f03c0 	ret
     de4:	f251009f 	tst	x4, #0x800000000000
     de8:	4a0f0188 	eor	w8, w12, w15
     dec:	b2400421 	orr	x1, x1, #0x3
     df0:	1a9f1400 	csinc	w0, w0, wzr, ne  // ne = any
     df4:	12001d0a 	and	w10, w8, #0xff
     df8:	91402063 	add	x3, x3, #0x8, lsl #12
     dfc:	f100283f 	cmp	x1, #0xa
     e00:	92401d08 	and	x8, x8, #0xff
     e04:	d2800062 	mov	x2, #0x3                   	// #3
     e08:	540030ac 	b.gt	141c <__multf3+0x7cc>
     e0c:	d280002c 	mov	x12, #0x1                   	// #1
     e10:	d280a60e 	mov	x14, #0x530                 	// #1328
     e14:	9ac12181 	lsl	x1, x12, x1
     e18:	ea0e003f 	tst	x1, x14
     e1c:	54001001 	b.ne	101c <__multf3+0x3cc>  // b.any
     e20:	d280480e 	mov	x14, #0x240                 	// #576
     e24:	ea0e003f 	tst	x1, x14
     e28:	54000ee1 	b.ne	1004 <__multf3+0x3b4>  // b.any
     e2c:	d280110c 	mov	x12, #0x88                  	// #136
     e30:	ea0c003f 	tst	x1, x12
     e34:	540000a0 	b.eq	e48 <__multf3+0x1f8>  // b.none
     e38:	aa0403e7 	mov	x7, x4
     e3c:	aa0603e5 	mov	x5, x6
     e40:	aa0203f0 	mov	x16, x2
     e44:	17ffffb7 	b	d20 <__multf3+0xd0>
     e48:	d360fcad 	lsr	x13, x5, #32
     e4c:	92407ccc 	and	x12, x6, #0xffffffff
     e50:	92407caf 	and	x15, x5, #0xffffffff
     e54:	d360fcc6 	lsr	x6, x6, #32
     e58:	92407c92 	and	x18, x4, #0xffffffff
     e5c:	d360fc82 	lsr	x2, x4, #32
     e60:	9b0c7da4 	mul	x4, x13, x12
     e64:	a9025bf5 	stp	x21, x22, [sp, #32]
     e68:	d360fcf6 	lsr	x22, x7, #32
     e6c:	92407ce5 	and	x5, x7, #0xffffffff
     e70:	9b0f7d90 	mul	x16, x12, x15
     e74:	9b0f10c7 	madd	x7, x6, x15, x4
     e78:	a90153f3 	stp	x19, x20, [sp, #16]
     e7c:	9b127da1 	mul	x1, x13, x18
     e80:	9b127df1 	mul	x17, x15, x18
     e84:	92407e1e 	and	x30, x16, #0xffffffff
     e88:	9b0f044f 	madd	x15, x2, x15, x1
     e8c:	8b5080f0 	add	x16, x7, x16, lsr #32
     e90:	9b0c7ed5 	mul	x21, x22, x12
     e94:	eb10009f 	cmp	x4, x16
     e98:	9b127ed4 	mul	x20, x22, x18
     e9c:	d2c0002e 	mov	x14, #0x100000000           	// #4294967296
     ea0:	9b067db3 	mul	x19, x13, x6
     ea4:	8b5181ef 	add	x15, x15, x17, lsr #32
     ea8:	9b057d8c 	mul	x12, x12, x5
     eac:	92407e31 	and	x17, x17, #0xffffffff
     eb0:	9b127cb2 	mul	x18, x5, x18
     eb4:	8b0e0264 	add	x4, x19, x14
     eb8:	9b0554c7 	madd	x7, x6, x5, x21
     ebc:	9a938093 	csel	x19, x4, x19, hi  // hi = pmore
     ec0:	9b055045 	madd	x5, x2, x5, x20
     ec4:	eb0f003f 	cmp	x1, x15
     ec8:	9b027dad 	mul	x13, x13, x2
     ecc:	8b0f8231 	add	x17, x17, x15, lsl #32
     ed0:	9b167cc6 	mul	x6, x6, x22
     ed4:	8b4c80e7 	add	x7, x7, x12, lsr #32
     ed8:	8b5280a5 	add	x5, x5, x18, lsr #32
     edc:	8b0e01a4 	add	x4, x13, x14
     ee0:	9b167c42 	mul	x2, x2, x22
     ee4:	9a8d808d 	csel	x13, x4, x13, hi  // hi = pmore
     ee8:	92407e41 	and	x1, x18, #0xffffffff
     eec:	eb0702bf 	cmp	x21, x7
     ef0:	8b0e00c4 	add	x4, x6, x14
     ef4:	8b1083de 	add	x30, x30, x16, lsl #32
     ef8:	9a868086 	csel	x6, x4, x6, hi  // hi = pmore
     efc:	8b4f81ad 	add	x13, x13, x15, lsr #32
     f00:	eb05029f 	cmp	x20, x5
     f04:	8b058021 	add	x1, x1, x5, lsl #32
     f08:	8b508230 	add	x16, x17, x16, lsr #32
     f0c:	8b0e004e 	add	x14, x2, x14
     f10:	9a8281c2 	csel	x2, x14, x2, hi  // hi = pmore
     f14:	8b100270 	add	x16, x19, x16
     f18:	ab0d0021 	adds	x1, x1, x13
     f1c:	92407d8c 	and	x12, x12, #0xffffffff
     f20:	9a9f37ed 	cset	x13, cs  // cs = hs, nlast
     f24:	eb11021f 	cmp	x16, x17
     f28:	9a9f27e4 	cset	x4, cc  // cc = lo, ul, last
     f2c:	8b07818c 	add	x12, x12, x7, lsl #32
     f30:	ab040021 	adds	x1, x1, x4
     f34:	d360fca5 	lsr	x5, x5, #32
     f38:	9a9f37e4 	cset	x4, cs  // cs = hs, nlast
     f3c:	f10001bf 	cmp	x13, #0x0
     f40:	fa400880 	ccmp	x4, #0x0, #0x0, eq  // eq = none
     f44:	8b4780c7 	add	x7, x6, x7, lsr #32
     f48:	9a8504a5 	cinc	x5, x5, ne  // ne = any
     f4c:	ab0c0206 	adds	x6, x16, x12
     f50:	9a9f37e4 	cset	x4, cs  // cs = hs, nlast
     f54:	ab070021 	adds	x1, x1, x7
     f58:	9a9f37e7 	cset	x7, cs  // cs = hs, nlast
     f5c:	ab040024 	adds	x4, x1, x4
     f60:	9a9f37e1 	cset	x1, cs  // cs = hs, nlast
     f64:	f10000ff 	cmp	x7, #0x0
     f68:	aa0637de 	orr	x30, x30, x6, lsl #13
     f6c:	fa400820 	ccmp	x1, #0x0, #0x0, eq  // eq = none
     f70:	9a820441 	cinc	x1, x2, ne  // ne = any
     f74:	f10003df 	cmp	x30, #0x0
     f78:	8b050021 	add	x1, x1, x5
     f7c:	9a9f07e2 	cset	x2, ne  // ne = any
     f80:	aa46cc46 	orr	x6, x2, x6, lsr #51
     f84:	aa0434c6 	orr	x6, x6, x4, lsl #13
     f88:	93c4cc24 	extr	x4, x1, x4, #51
     f8c:	b63818a1 	tbz	x1, #39, 12a0 <__multf3+0x650>
     f90:	a94153f3 	ldp	x19, x20, [sp, #16]
     f94:	924000c1 	and	x1, x6, #0x1
     f98:	a9425bf5 	ldp	x21, x22, [sp, #32]
     f9c:	aa460426 	orr	x6, x1, x6, lsr #1
     fa0:	aa04fcc6 	orr	x6, x6, x4, lsl #63
     fa4:	d341fc84 	lsr	x4, x4, #1
     fa8:	d287ffe1 	mov	x1, #0x3fff                	// #16383
     fac:	8b010062 	add	x2, x3, x1
     fb0:	f100005f 	cmp	x2, #0x0
     fb4:	54000ccd 	b.le	114c <__multf3+0x4fc>
     fb8:	f24008df 	tst	x6, #0x7
     fbc:	54000100 	b.eq	fdc <__multf3+0x38c>  // b.none
     fc0:	926a0561 	and	x1, x11, #0xc00000
     fc4:	321c0000 	orr	w0, w0, #0x10
     fc8:	f150003f 	cmp	x1, #0x400, lsl #12
     fcc:	54001e40 	b.eq	1394 <__multf3+0x744>  // b.none
     fd0:	f160003f 	cmp	x1, #0x800, lsl #12
     fd4:	54001b40 	b.eq	133c <__multf3+0x6ec>  // b.none
     fd8:	b4001a61 	cbz	x1, 1324 <__multf3+0x6d4>
     fdc:	b6a00064 	tbz	x4, #52, fe8 <__multf3+0x398>
     fe0:	924bf884 	and	x4, x4, #0xffefffffffffffff
     fe4:	91401062 	add	x2, x3, #0x4, lsl #12
     fe8:	d28fffc1 	mov	x1, #0x7ffe                	// #32766
     fec:	eb01005f 	cmp	x2, x1
     ff0:	5400142c 	b.gt	1274 <__multf3+0x624>
     ff4:	12003841 	and	w1, w2, #0x7fff
     ff8:	93c60c85 	extr	x5, x4, x6, #3
     ffc:	d343c884 	ubfx	x4, x4, #3, #48
    1000:	17ffff70 	b	dc0 <__multf3+0x170>
    1004:	2a0c03e0 	mov	w0, w12
    1008:	5280000a 	mov	w10, #0x0                   	// #0
    100c:	92ffffe4 	mov	x4, #0xffffffffffff        	// #281474976710655
    1010:	92800005 	mov	x5, #0xffffffffffffffff    	// #-1
    1014:	528fffe1 	mov	w1, #0x7fff                	// #32767
    1018:	17ffff6a 	b	dc0 <__multf3+0x170>
    101c:	2a0a03ef 	mov	w15, w10
    1020:	aa0803ed 	mov	x13, x8
    1024:	17ffff3f 	b	d20 <__multf3+0xd0>
    1028:	aa0100e5 	orr	x5, x7, x1
    102c:	b4000845 	cbz	x5, 1134 <__multf3+0x4e4>
    1030:	b4001107 	cbz	x7, 1250 <__multf3+0x600>
    1034:	dac010e0 	clz	x0, x7
    1038:	d1003c04 	sub	x4, x0, #0xf
    103c:	11000c85 	add	w5, w4, #0x3
    1040:	528007a3 	mov	w3, #0x3d                  	// #61
    1044:	4b040063 	sub	w3, w3, w4
    1048:	9ac520e4 	lsl	x4, x7, x5
    104c:	9ac32423 	lsr	x3, x1, x3
    1050:	aa040067 	orr	x7, x3, x4
    1054:	9ac52025 	lsl	x5, x1, x5
    1058:	d37ffc48 	lsr	x8, x2, #63
    105c:	9287fdc3 	mov	x3, #0xffffffffffffc011    	// #-16367
    1060:	d340bc44 	ubfx	x4, x2, #0, #48
    1064:	cb000063 	sub	x3, x3, x0
    1068:	12001d0f 	and	w15, w8, #0xff
    106c:	aa0803ed 	mov	x13, x8
    1070:	d370f849 	ubfx	x9, x2, #48, #15
    1074:	d2800001 	mov	x1, #0x0                   	// #0
    1078:	d2800010 	mov	x16, #0x0                   	// #0
    107c:	52800000 	mov	w0, #0x0                   	// #0
    1080:	35ffe269 	cbnz	w9, ccc <__multf3+0x7c>
    1084:	d503201f 	nop
    1088:	aa060082 	orr	x2, x4, x6
    108c:	b4000382 	cbz	x2, 10fc <__multf3+0x4ac>
    1090:	b4000ce4 	cbz	x4, 122c <__multf3+0x5dc>
    1094:	dac01089 	clz	x9, x4
    1098:	d1003d22 	sub	x2, x9, #0xf
    109c:	11000c4a 	add	w10, w2, #0x3
    10a0:	528007a8 	mov	w8, #0x3d                  	// #61
    10a4:	4b020108 	sub	w8, w8, w2
    10a8:	9aca2082 	lsl	x2, x4, x10
    10ac:	9ac824c8 	lsr	x8, x6, x8
    10b0:	aa020104 	orr	x4, x8, x2
    10b4:	9aca20c6 	lsl	x6, x6, x10
    10b8:	cb090069 	sub	x9, x3, x9
    10bc:	9287fdca 	mov	x10, #0xffffffffffffc011    	// #-16367
    10c0:	d2800002 	mov	x2, #0x0                   	// #0
    10c4:	8b0a0129 	add	x9, x9, x10
    10c8:	17ffff0c 	b	cf8 <__multf3+0xa8>
    10cc:	aa0100e5 	orr	x5, x7, x1
    10d0:	b5000225 	cbnz	x5, 1114 <__multf3+0x4c4>
    10d4:	d2800007 	mov	x7, #0x0                   	// #0
    10d8:	d2800101 	mov	x1, #0x8                   	// #8
    10dc:	d28fffe3 	mov	x3, #0x7fff                	// #32767
    10e0:	d2800050 	mov	x16, #0x2                   	// #2
    10e4:	52800000 	mov	w0, #0x0                   	// #0
    10e8:	17fffef3 	b	cb4 <__multf3+0x64>
    10ec:	528fffe1 	mov	w1, #0x7fff                	// #32767
    10f0:	d2800004 	mov	x4, #0x0                   	// #0
    10f4:	d2800005 	mov	x5, #0x0                   	// #0
    10f8:	17ffff32 	b	dc0 <__multf3+0x170>
    10fc:	b2400021 	orr	x1, x1, #0x1
    1100:	aa0303e9 	mov	x9, x3
    1104:	d2800004 	mov	x4, #0x0                   	// #0
    1108:	d2800006 	mov	x6, #0x0                   	// #0
    110c:	d2800022 	mov	x2, #0x1                   	// #1
    1110:	17fffefa 	b	cf8 <__multf3+0xa8>
    1114:	d36ffce0 	lsr	x0, x7, #47
    1118:	aa0103e5 	mov	x5, x1
    111c:	d2400000 	eor	x0, x0, #0x1
    1120:	d2800181 	mov	x1, #0xc                   	// #12
    1124:	12000000 	and	w0, w0, #0x1
    1128:	d28fffe3 	mov	x3, #0x7fff                	// #32767
    112c:	d2800070 	mov	x16, #0x3                   	// #3
    1130:	17fffee1 	b	cb4 <__multf3+0x64>
    1134:	d2800007 	mov	x7, #0x0                   	// #0
    1138:	d2800081 	mov	x1, #0x4                   	// #4
    113c:	d2800003 	mov	x3, #0x0                   	// #0
    1140:	d2800030 	mov	x16, #0x1                   	// #1
    1144:	52800000 	mov	w0, #0x0                   	// #0
    1148:	17fffedb 	b	cb4 <__multf3+0x64>
    114c:	d2800021 	mov	x1, #0x1                   	// #1
    1150:	cb020022 	sub	x2, x1, x2
    1154:	f101d05f 	cmp	x2, #0x74
    1158:	540003cc 	b.gt	11d0 <__multf3+0x580>
    115c:	f100fc5f 	cmp	x2, #0x3f
    1160:	54000a8d 	b.le	12b0 <__multf3+0x660>
    1164:	52801001 	mov	w1, #0x80                  	// #128
    1168:	4b020021 	sub	w1, w1, w2
    116c:	f101005f 	cmp	x2, #0x40
    1170:	51010042 	sub	w2, w2, #0x40
    1174:	9ac12081 	lsl	x1, x4, x1
    1178:	aa0100c1 	orr	x1, x6, x1
    117c:	9a861026 	csel	x6, x1, x6, ne  // ne = any
    1180:	9ac22482 	lsr	x2, x4, x2
    1184:	f10000df 	cmp	x6, #0x0
    1188:	9a9f07e5 	cset	x5, ne  // ne = any
    118c:	aa0200a5 	orr	x5, x5, x2
    1190:	f24008a2 	ands	x2, x5, #0x7
    1194:	54000a80 	b.eq	12e4 <__multf3+0x694>  // b.none
    1198:	d2800002 	mov	x2, #0x0                   	// #0
    119c:	926a056b 	and	x11, x11, #0xc00000
    11a0:	321c0000 	orr	w0, w0, #0x10
    11a4:	f150017f 	cmp	x11, #0x400, lsl #12
    11a8:	54001260 	b.eq	13f4 <__multf3+0x7a4>  // b.none
    11ac:	f160017f 	cmp	x11, #0x800, lsl #12
    11b0:	540012c0 	b.eq	1408 <__multf3+0x7b8>  // b.none
    11b4:	b4000ccb 	cbz	x11, 134c <__multf3+0x6fc>
    11b8:	b7980d62 	tbnz	x2, #51, 1364 <__multf3+0x714>
    11bc:	d343c844 	ubfx	x4, x2, #3, #48
    11c0:	93c50c45 	extr	x5, x2, x5, #3
    11c4:	321d0000 	orr	w0, w0, #0x8
    11c8:	52800001 	mov	w1, #0x0                   	// #0
    11cc:	1400000d 	b	1200 <__multf3+0x5b0>
    11d0:	aa0400c5 	orr	x5, x6, x4
    11d4:	b4000105 	cbz	x5, 11f4 <__multf3+0x5a4>
    11d8:	926a056b 	and	x11, x11, #0xc00000
    11dc:	321c0000 	orr	w0, w0, #0x10
    11e0:	f150017f 	cmp	x11, #0x400, lsl #12
    11e4:	cb080025 	sub	x5, x1, x8
    11e8:	54000060 	b.eq	11f4 <__multf3+0x5a4>  // b.none
    11ec:	f160017f 	cmp	x11, #0x800, lsl #12
    11f0:	9a9f0105 	csel	x5, x8, xzr, eq  // eq = none
    11f4:	321d0000 	orr	w0, w0, #0x8
    11f8:	52800001 	mov	w1, #0x0                   	// #0
    11fc:	d2800004 	mov	x4, #0x0                   	// #0
    1200:	d2800003 	mov	x3, #0x0                   	// #0
    1204:	9e6700a0 	fmov	d0, x5
    1208:	b340bc83 	bfxil	x3, x4, #0, #48
    120c:	b3503823 	bfi	x3, x1, #48, #15
    1210:	b3410143 	bfi	x3, x10, #63, #1
    1214:	9eaf0060 	fmov	v0.d[1], x3
    1218:	3d800fe0 	str	q0, [sp, #48]
    121c:	94000441 	bl	2320 <__sfp_handle_exceptions>
    1220:	3dc00fe0 	ldr	q0, [sp, #48]
    1224:	a8c57bfd 	ldp	x29, x30, [sp], #80
    1228:	d65f03c0 	ret
    122c:	dac010c9 	clz	x9, x6
    1230:	9100c522 	add	x2, x9, #0x31
    1234:	91010129 	add	x9, x9, #0x40
    1238:	f100f05f 	cmp	x2, #0x3c
    123c:	54fff30d 	b.le	109c <__multf3+0x44c>
    1240:	5100f442 	sub	w2, w2, #0x3d
    1244:	9ac220c4 	lsl	x4, x6, x2
    1248:	d2800006 	mov	x6, #0x0                   	// #0
    124c:	17ffff9b 	b	10b8 <__multf3+0x468>
    1250:	dac01023 	clz	x3, x1
    1254:	9100c464 	add	x4, x3, #0x31
    1258:	91010060 	add	x0, x3, #0x40
    125c:	f100f09f 	cmp	x4, #0x3c
    1260:	54ffeeed 	b.le	103c <__multf3+0x3ec>
    1264:	5100f484 	sub	w4, w4, #0x3d
    1268:	d2800005 	mov	x5, #0x0                   	// #0
    126c:	9ac42027 	lsl	x7, x1, x4
    1270:	17ffff7a 	b	1058 <__multf3+0x408>
    1274:	926a0565 	and	x5, x11, #0xc00000
    1278:	f15000bf 	cmp	x5, #0x400, lsl #12
    127c:	540007e0 	b.eq	1378 <__multf3+0x728>  // b.none
    1280:	f16000bf 	cmp	x5, #0x800, lsl #12
    1284:	54000420 	b.eq	1308 <__multf3+0x6b8>  // b.none
    1288:	b40003a5 	cbz	x5, 12fc <__multf3+0x6ac>
    128c:	92ffffe4 	mov	x4, #0xffffffffffff        	// #281474976710655
    1290:	92800005 	mov	x5, #0xffffffffffffffff    	// #-1
    1294:	52800282 	mov	w2, #0x14                  	// #20
    1298:	2a020000 	orr	w0, w0, w2
    129c:	17ffffd9 	b	1200 <__multf3+0x5b0>
    12a0:	aa0903e3 	mov	x3, x9
    12a4:	a94153f3 	ldp	x19, x20, [sp, #16]
    12a8:	a9425bf5 	ldp	x21, x22, [sp, #32]
    12ac:	17ffff3f 	b	fa8 <__multf3+0x358>
    12b0:	52800801 	mov	w1, #0x40                  	// #64
    12b4:	4b020021 	sub	w1, w1, w2
    12b8:	9ac224c3 	lsr	x3, x6, x2
    12bc:	9ac120c6 	lsl	x6, x6, x1
    12c0:	f10000df 	cmp	x6, #0x0
    12c4:	9ac12085 	lsl	x5, x4, x1
    12c8:	9a9f07e1 	cset	x1, ne  // ne = any
    12cc:	aa0300a5 	orr	x5, x5, x3
    12d0:	9ac22482 	lsr	x2, x4, x2
    12d4:	aa0100a5 	orr	x5, x5, x1
    12d8:	f24008bf 	tst	x5, #0x7
    12dc:	54fff601 	b.ne	119c <__multf3+0x54c>  // b.any
    12e0:	b79809a2 	tbnz	x2, #51, 1414 <__multf3+0x7c4>
    12e4:	d343c844 	ubfx	x4, x2, #3, #48
    12e8:	93c50c45 	extr	x5, x2, x5, #3
    12ec:	52800001 	mov	w1, #0x0                   	// #0
    12f0:	365fd68b 	tbz	w11, #11, dc0 <__multf3+0x170>
    12f4:	321d0000 	orr	w0, w0, #0x8
    12f8:	17ffffc2 	b	1200 <__multf3+0x5b0>
    12fc:	528fffe1 	mov	w1, #0x7fff                	// #32767
    1300:	d2800004 	mov	x4, #0x0                   	// #0
    1304:	17ffffe4 	b	1294 <__multf3+0x644>
    1308:	f100011f 	cmp	x8, #0x0
    130c:	528fffe2 	mov	w2, #0x7fff                	// #32767
    1310:	92ffffe4 	mov	x4, #0xffffffffffff        	// #281474976710655
    1314:	1a820021 	csel	w1, w1, w2, eq  // eq = none
    1318:	9a9f0084 	csel	x4, x4, xzr, eq  // eq = none
    131c:	da9f13e5 	csetm	x5, eq  // eq = none
    1320:	17ffffdd 	b	1294 <__multf3+0x644>
    1324:	92400cc1 	and	x1, x6, #0xf
    1328:	f100103f 	cmp	x1, #0x4
    132c:	54ffe580 	b.eq	fdc <__multf3+0x38c>  // b.none
    1330:	b10010c6 	adds	x6, x6, #0x4
    1334:	9a843484 	cinc	x4, x4, cs  // cs = hs, nlast
    1338:	17ffff29 	b	fdc <__multf3+0x38c>
    133c:	b4ffe508 	cbz	x8, fdc <__multf3+0x38c>
    1340:	b10020c6 	adds	x6, x6, #0x8
    1344:	9a843484 	cinc	x4, x4, cs  // cs = hs, nlast
    1348:	17ffff25 	b	fdc <__multf3+0x38c>
    134c:	92400ca1 	and	x1, x5, #0xf
    1350:	f100103f 	cmp	x1, #0x4
    1354:	54000060 	b.eq	1360 <__multf3+0x710>  // b.none
    1358:	b10010a5 	adds	x5, x5, #0x4
    135c:	9a823442 	cinc	x2, x2, cs  // cs = hs, nlast
    1360:	b69ff2e2 	tbz	x2, #51, 11bc <__multf3+0x56c>
    1364:	321d0000 	orr	w0, w0, #0x8
    1368:	52800021 	mov	w1, #0x1                   	// #1
    136c:	d2800004 	mov	x4, #0x0                   	// #0
    1370:	d2800005 	mov	x5, #0x0                   	// #0
    1374:	17ffffa3 	b	1200 <__multf3+0x5b0>
    1378:	f100011f 	cmp	x8, #0x0
    137c:	528fffe2 	mov	w2, #0x7fff                	// #32767
    1380:	92ffffe4 	mov	x4, #0xffffffffffff        	// #281474976710655
    1384:	1a821021 	csel	w1, w1, w2, ne  // ne = any
    1388:	9a9f1084 	csel	x4, x4, xzr, ne  // ne = any
    138c:	da9f03e5 	csetm	x5, ne  // ne = any
    1390:	17ffffc1 	b	1294 <__multf3+0x644>
    1394:	b5ffe248 	cbnz	x8, fdc <__multf3+0x38c>
    1398:	17ffffea 	b	1340 <__multf3+0x6f0>
    139c:	d2800044 	mov	x4, #0x2                   	// #2
    13a0:	f1003c3f 	cmp	x1, #0xf
    13a4:	54000121 	b.ne	13c8 <__multf3+0x778>  // b.any
    13a8:	b67801c7 	tbz	x7, #47, 13e0 <__multf3+0x790>
    13ac:	b77801a2 	tbnz	x2, #47, 13e0 <__multf3+0x790>
    13b0:	b2510044 	orr	x4, x2, #0x800000000000
    13b4:	2a0f03ea 	mov	w10, w15
    13b8:	9240bc84 	and	x4, x4, #0xffffffffffff
    13bc:	aa0603e5 	mov	x5, x6
    13c0:	528fffe1 	mov	w1, #0x7fff                	// #32767
    13c4:	17fffe7f 	b	dc0 <__multf3+0x170>
    13c8:	f1002c3f 	cmp	x1, #0xb
    13cc:	54ffca61 	b.ne	d18 <__multf3+0xc8>  // b.any
    13d0:	aa0203e7 	mov	x7, x2
    13d4:	aa0603e5 	mov	x5, x6
    13d8:	aa0403f0 	mov	x16, x4
    13dc:	17fffe51 	b	d20 <__multf3+0xd0>
    13e0:	b25100e4 	orr	x4, x7, #0x800000000000
    13e4:	2a0c03ea 	mov	w10, w12
    13e8:	9240bc84 	and	x4, x4, #0xffffffffffff
    13ec:	528fffe1 	mov	w1, #0x7fff                	// #32767
    13f0:	17fffe74 	b	dc0 <__multf3+0x170>
    13f4:	b5fffb68 	cbnz	x8, 1360 <__multf3+0x710>
    13f8:	b10020a5 	adds	x5, x5, #0x8
    13fc:	9a823442 	cinc	x2, x2, cs  // cs = hs, nlast
    1400:	b79ffb22 	tbnz	x2, #51, 1364 <__multf3+0x714>
    1404:	17ffff6e 	b	11bc <__multf3+0x56c>
    1408:	b5ffff88 	cbnz	x8, 13f8 <__multf3+0x7a8>
    140c:	b79ffac2 	tbnz	x2, #51, 1364 <__multf3+0x714>
    1410:	17ffff6b 	b	11bc <__multf3+0x56c>
    1414:	321c0000 	orr	w0, w0, #0x10
    1418:	17ffffd3 	b	1364 <__multf3+0x714>
    141c:	aa0403e2 	mov	x2, x4
    1420:	d2800064 	mov	x4, #0x3                   	// #3
    1424:	17ffffdf 	b	13a0 <__multf3+0x750>
    1428:	2a0f03ea 	mov	w10, w15
    142c:	aa0d03e8 	mov	x8, x13
    1430:	17fffe43 	b	d3c <__multf3+0xec>
    1434:	00000000 	.inst	0x00000000 ; undefined

0000000000001438 <__subtf3>:
    1438:	a9bd7bfd 	stp	x29, x30, [sp, #-48]!
    143c:	910003fd 	mov	x29, sp
    1440:	3d8007e0 	str	q0, [sp, #16]
    1444:	3d800be1 	str	q1, [sp, #32]
    1448:	a94107e5 	ldp	x5, x1, [sp, #16]
    144c:	a9420be0 	ldp	x0, x2, [sp, #32]
    1450:	d53b440c 	mrs	x12, fpcr
    1454:	aa0003e9 	mov	x9, x0
    1458:	d370f840 	ubfx	x0, x2, #48, #15
    145c:	d37ffc26 	lsr	x6, x1, #63
    1460:	d370f827 	ubfx	x7, x1, #48, #15
    1464:	d37dbc23 	ubfiz	x3, x1, #3, #48
    1468:	aa0003ed 	mov	x13, x0
    146c:	d37ffc44 	lsr	x4, x2, #63
    1470:	d37dbc42 	ubfiz	x2, x2, #3, #48
    1474:	aa0603eb 	mov	x11, x6
    1478:	12001cc8 	and	w8, w6, #0xff
    147c:	aa0603ee 	mov	x14, x6
    1480:	4b0000e0 	sub	w0, w7, w0
    1484:	aa0703e1 	mov	x1, x7
    1488:	aa45f463 	orr	x3, x3, x5, lsr #61
    148c:	d28fffe7 	mov	x7, #0x7fff                	// #32767
    1490:	12001c84 	and	w4, w4, #0xff
    1494:	eb0701bf 	cmp	x13, x7
    1498:	aa49f442 	orr	x2, x2, x9, lsr #61
    149c:	d37df0a6 	lsl	x6, x5, #3
    14a0:	d37df12a 	lsl	x10, x9, #3
    14a4:	54000b80 	b.eq	1614 <__subtf3+0x1dc>  // b.none
    14a8:	52000084 	eor	w4, w4, #0x1
    14ac:	92401c84 	and	x4, x4, #0xff
    14b0:	eb04017f 	cmp	x11, x4
    14b4:	54000fc0 	b.eq	16ac <__subtf3+0x274>  // b.none
    14b8:	7100001f 	cmp	w0, #0x0
    14bc:	54000bad 	b.le	1630 <__subtf3+0x1f8>
    14c0:	b50016ed 	cbnz	x13, 179c <__subtf3+0x364>
    14c4:	aa0a0044 	orr	x4, x2, x10
    14c8:	b40025a4 	cbz	x4, 197c <__subtf3+0x544>
    14cc:	71000400 	subs	w0, w0, #0x1
    14d0:	54003c00 	b.eq	1c50 <__subtf3+0x818>  // b.none
    14d4:	d28fffe4 	mov	x4, #0x7fff                	// #32767
    14d8:	eb04003f 	cmp	x1, x4
    14dc:	540023a0 	b.eq	1950 <__subtf3+0x518>  // b.none
    14e0:	7101d01f 	cmp	w0, #0x74
    14e4:	5400244c 	b.gt	196c <__subtf3+0x534>
    14e8:	7100fc1f 	cmp	w0, #0x3f
    14ec:	5400314c 	b.gt	1b14 <__subtf3+0x6dc>
    14f0:	52800804 	mov	w4, #0x40                  	// #64
    14f4:	4b000084 	sub	w4, w4, w0
    14f8:	9ac02547 	lsr	x7, x10, x0
    14fc:	9ac4214a 	lsl	x10, x10, x4
    1500:	f100015f 	cmp	x10, #0x0
    1504:	9ac42044 	lsl	x4, x2, x4
    1508:	9a9f07e5 	cset	x5, ne  // ne = any
    150c:	aa070084 	orr	x4, x4, x7
    1510:	9ac02442 	lsr	x2, x2, x0
    1514:	aa050084 	orr	x4, x4, x5
    1518:	cb020063 	sub	x3, x3, x2
    151c:	eb0400c6 	subs	x6, x6, x4
    1520:	da1f0063 	sbc	x3, x3, xzr
    1524:	9240c865 	and	x5, x3, #0x7ffffffffffff
    1528:	b6981003 	tbz	x3, #51, 1728 <__subtf3+0x2f0>
    152c:	b4002045 	cbz	x5, 1934 <__subtf3+0x4fc>
    1530:	dac010a0 	clz	x0, x5
    1534:	51003000 	sub	w0, w0, #0xc
    1538:	4b0003e3 	neg	w3, w0
    153c:	9ac020a2 	lsl	x2, x5, x0
    1540:	9ac020c5 	lsl	x5, x6, x0
    1544:	9ac324c6 	lsr	x6, x6, x3
    1548:	aa0200c3 	orr	x3, x6, x2
    154c:	eb20c03f 	cmp	x1, w0, sxtw
    1550:	93407c02 	sxtw	x2, w0
    1554:	54001e0c 	b.gt	1914 <__subtf3+0x4dc>
    1558:	4b010001 	sub	w1, w0, w1
    155c:	11000420 	add	w0, w1, #0x1
    1560:	7100fc1f 	cmp	w0, #0x3f
    1564:	54002bcc 	b.gt	1adc <__subtf3+0x6a4>
    1568:	52800801 	mov	w1, #0x40                  	// #64
    156c:	4b000021 	sub	w1, w1, w0
    1570:	9ac024a2 	lsr	x2, x5, x0
    1574:	9ac120a5 	lsl	x5, x5, x1
    1578:	f10000bf 	cmp	x5, #0x0
    157c:	9ac12066 	lsl	x6, x3, x1
    1580:	9a9f07e1 	cset	x1, ne  // ne = any
    1584:	aa0200c6 	orr	x6, x6, x2
    1588:	9ac02463 	lsr	x3, x3, x0
    158c:	aa0100c6 	orr	x6, x6, x1
    1590:	aa0300c7 	orr	x7, x6, x3
    1594:	b4000d47 	cbz	x7, 173c <__subtf3+0x304>
    1598:	924008c0 	and	x0, x6, #0x7
    159c:	d2800001 	mov	x1, #0x0                   	// #0
    15a0:	52800024 	mov	w4, #0x1                   	// #1
    15a4:	b4001fe0 	cbz	x0, 19a0 <__subtf3+0x568>
    15a8:	926a0582 	and	x2, x12, #0xc00000
    15ac:	f150005f 	cmp	x2, #0x400, lsl #12
    15b0:	540019e0 	b.eq	18ec <__subtf3+0x4b4>  // b.none
    15b4:	f160005f 	cmp	x2, #0x800, lsl #12
    15b8:	540018a0 	b.eq	18cc <__subtf3+0x494>  // b.none
    15bc:	b40019e2 	cbz	x2, 18f8 <__subtf3+0x4c0>
    15c0:	924d0062 	and	x2, x3, #0x8000000000000
    15c4:	52800200 	mov	w0, #0x10                  	// #16
    15c8:	34000044 	cbz	w4, 15d0 <__subtf3+0x198>
    15cc:	321d0000 	orr	w0, w0, #0x8
    15d0:	b4000582 	cbz	x2, 1680 <__subtf3+0x248>
    15d4:	91000421 	add	x1, x1, #0x1
    15d8:	d28fffe2 	mov	x2, #0x7fff                	// #32767
    15dc:	eb02003f 	cmp	x1, x2
    15e0:	540010a0 	b.eq	17f4 <__subtf3+0x3bc>  // b.none
    15e4:	d343c867 	ubfx	x7, x3, #3, #48
    15e8:	93c60c65 	extr	x5, x3, x6, #3
    15ec:	12003821 	and	w1, w1, #0x7fff
    15f0:	d2800003 	mov	x3, #0x0                   	// #0
    15f4:	2a083c21 	orr	w1, w1, w8, lsl #15
    15f8:	b340bce3 	bfxil	x3, x7, #0, #48
    15fc:	9e6700a0 	fmov	d0, x5
    1600:	b3503c23 	bfi	x3, x1, #48, #16
    1604:	9eaf0060 	fmov	v0.d[1], x3
    1608:	35001240 	cbnz	w0, 1850 <__subtf3+0x418>
    160c:	a8c37bfd 	ldp	x29, x30, [sp], #48
    1610:	d65f03c0 	ret
    1614:	aa0a0047 	orr	x7, x2, x10
    1618:	b4fff487 	cbz	x7, 14a8 <__subtf3+0x70>
    161c:	92401c84 	and	x4, x4, #0xff
    1620:	eb04017f 	cmp	x11, x4
    1624:	54001200 	b.eq	1864 <__subtf3+0x42c>  // b.none
    1628:	7100001f 	cmp	w0, #0x0
    162c:	54000b8c 	b.gt	179c <__subtf3+0x364>
    1630:	34000920 	cbz	w0, 1754 <__subtf3+0x31c>
    1634:	2a0403e8 	mov	w8, w4
    1638:	b50021c1 	cbnz	x1, 1a70 <__subtf3+0x638>
    163c:	aa060061 	orr	x1, x3, x6
    1640:	b4000641 	cbz	x1, 1708 <__subtf3+0x2d0>
    1644:	3100041f 	cmn	w0, #0x1
    1648:	54003b40 	b.eq	1db0 <__subtf3+0x978>  // b.none
    164c:	d28fffe1 	mov	x1, #0x7fff                	// #32767
    1650:	2a2003e0 	mvn	w0, w0
    1654:	eb0101bf 	cmp	x13, x1
    1658:	54002161 	b.ne	1a84 <__subtf3+0x64c>  // b.any
    165c:	aa0a0040 	orr	x0, x2, x10
    1660:	92401d0b 	and	x11, x8, #0xff
    1664:	b4001c20 	cbz	x0, 19e8 <__subtf3+0x5b0>
    1668:	d372fc40 	lsr	x0, x2, #50
    166c:	aa0a03e6 	mov	x6, x10
    1670:	d2400000 	eor	x0, x0, #0x1
    1674:	aa0203e3 	mov	x3, x2
    1678:	12000000 	and	w0, w0, #0x1
    167c:	d28fffe1 	mov	x1, #0x7fff                	// #32767
    1680:	d28fffe2 	mov	x2, #0x7fff                	// #32767
    1684:	93c60c65 	extr	x5, x3, x6, #3
    1688:	d343fc67 	lsr	x7, x3, #3
    168c:	eb02003f 	cmp	x1, x2
    1690:	540005c1 	b.ne	1748 <__subtf3+0x310>  // b.any
    1694:	aa0500e1 	orr	x1, x7, x5
    1698:	b4004361 	cbz	x1, 1f04 <__subtf3+0xacc>
    169c:	b25100e7 	orr	x7, x7, #0x800000000000
    16a0:	528fffe1 	mov	w1, #0x7fff                	// #32767
    16a4:	9240bce7 	and	x7, x7, #0xffffffffffff
    16a8:	17ffffd2 	b	15f0 <__subtf3+0x1b8>
    16ac:	7100001f 	cmp	w0, #0x0
    16b0:	54000dad 	b.le	1864 <__subtf3+0x42c>
    16b4:	b400078d 	cbz	x13, 17a4 <__subtf3+0x36c>
    16b8:	b24d0042 	orr	x2, x2, #0x8000000000000
    16bc:	d28fffe4 	mov	x4, #0x7fff                	// #32767
    16c0:	eb04003f 	cmp	x1, x4
    16c4:	54001460 	b.eq	1950 <__subtf3+0x518>  // b.none
    16c8:	7101d01f 	cmp	w0, #0x74
    16cc:	54001fcc 	b.gt	1ac4 <__subtf3+0x68c>
    16d0:	7100fc1f 	cmp	w0, #0x3f
    16d4:	5400246c 	b.gt	1b60 <__subtf3+0x728>
    16d8:	52800804 	mov	w4, #0x40                  	// #64
    16dc:	4b000084 	sub	w4, w4, w0
    16e0:	9ac02547 	lsr	x7, x10, x0
    16e4:	9ac4214a 	lsl	x10, x10, x4
    16e8:	f100015f 	cmp	x10, #0x0
    16ec:	9ac42044 	lsl	x4, x2, x4
    16f0:	9a9f07e5 	cset	x5, ne  // ne = any
    16f4:	aa070084 	orr	x4, x4, x7
    16f8:	9ac02442 	lsr	x2, x2, x0
    16fc:	aa050080 	orr	x0, x4, x5
    1700:	8b020063 	add	x3, x3, x2
    1704:	140000f3 	b	1ad0 <__subtf3+0x698>
    1708:	d28fffe0 	mov	x0, #0x7fff                	// #32767
    170c:	eb0001bf 	cmp	x13, x0
    1710:	54003160 	b.eq	1d3c <__subtf3+0x904>  // b.none
    1714:	aa0203e3 	mov	x3, x2
    1718:	aa0a03e6 	mov	x6, x10
    171c:	aa0d03e1 	mov	x1, x13
    1720:	aa0403ee 	mov	x14, x4
    1724:	d503201f 	nop
    1728:	aa0300c7 	orr	x7, x6, x3
    172c:	924008c0 	and	x0, x6, #0x7
    1730:	52800004 	mov	w4, #0x0                   	// #0
    1734:	b5fff381 	cbnz	x1, 15a4 <__subtf3+0x16c>
    1738:	b5fff307 	cbnz	x7, 1598 <__subtf3+0x160>
    173c:	d2800005 	mov	x5, #0x0                   	// #0
    1740:	d2800001 	mov	x1, #0x0                   	// #0
    1744:	52800000 	mov	w0, #0x0                   	// #0
    1748:	9240bce7 	and	x7, x7, #0xffffffffffff
    174c:	12003821 	and	w1, w1, #0x7fff
    1750:	17ffffa8 	b	15f0 <__subtf3+0x1b8>
    1754:	91000427 	add	x7, x1, #0x1
    1758:	f27f34ff 	tst	x7, #0x7ffe
    175c:	54001721 	b.ne	1a40 <__subtf3+0x608>  // b.any
    1760:	aa06006b 	orr	x11, x3, x6
    1764:	aa0a0047 	orr	x7, x2, x10
    1768:	b5002341 	cbnz	x1, 1bd0 <__subtf3+0x798>
    176c:	b400278b 	cbz	x11, 1c5c <__subtf3+0x824>
    1770:	b4002807 	cbz	x7, 1c70 <__subtf3+0x838>
    1774:	eb0a00c9 	subs	x9, x6, x10
    1778:	eb0a00df 	cmp	x6, x10
    177c:	da020065 	sbc	x5, x3, x2
    1780:	b69834c5 	tbz	x5, #51, 1e18 <__subtf3+0x9e0>
    1784:	eb060146 	subs	x6, x10, x6
    1788:	2a0403e8 	mov	w8, w4
    178c:	da030043 	sbc	x3, x2, x3
    1790:	aa0403ee 	mov	x14, x4
    1794:	aa0300c7 	orr	x7, x6, x3
    1798:	17ffff7f 	b	1594 <__subtf3+0x15c>
    179c:	b24d0042 	orr	x2, x2, #0x8000000000000
    17a0:	17ffff4d 	b	14d4 <__subtf3+0x9c>
    17a4:	aa0a0044 	orr	x4, x2, x10
    17a8:	b4000ea4 	cbz	x4, 197c <__subtf3+0x544>
    17ac:	71000400 	subs	w0, w0, #0x1
    17b0:	54fff861 	b.ne	16bc <__subtf3+0x284>  // b.any
    17b4:	ab0a00c6 	adds	x6, x6, x10
    17b8:	9a030043 	adc	x3, x2, x3
    17bc:	d503201f 	nop
    17c0:	b69ffb43 	tbz	x3, #51, 1728 <__subtf3+0x2f0>
    17c4:	91000421 	add	x1, x1, #0x1
    17c8:	d28fffe0 	mov	x0, #0x7fff                	// #32767
    17cc:	eb00003f 	cmp	x1, x0
    17d0:	54002560 	b.eq	1c7c <__subtf3+0x844>  // b.none
    17d4:	924000c0 	and	x0, x6, #0x1
    17d8:	924cf862 	and	x2, x3, #0xfff7ffffffffffff
    17dc:	aa460406 	orr	x6, x0, x6, lsr #1
    17e0:	52800004 	mov	w4, #0x0                   	// #0
    17e4:	aa03fcc6 	orr	x6, x6, x3, lsl #63
    17e8:	d341fc43 	lsr	x3, x2, #1
    17ec:	924008c0 	and	x0, x6, #0x7
    17f0:	17ffff6d 	b	15a4 <__subtf3+0x16c>
    17f4:	926a0582 	and	x2, x12, #0xc00000
    17f8:	b40001c2 	cbz	x2, 1830 <__subtf3+0x3f8>
    17fc:	f150005f 	cmp	x2, #0x400, lsl #12
    1800:	54000160 	b.eq	182c <__subtf3+0x3f4>  // b.none
    1804:	f160005f 	cmp	x2, #0x800, lsl #12
    1808:	120001ce 	and	w14, w14, #0x1
    180c:	1a9f01ce 	csel	w14, w14, wzr, eq  // eq = none
    1810:	3500010e 	cbnz	w14, 1830 <__subtf3+0x3f8>
    1814:	52800281 	mov	w1, #0x14                  	// #20
    1818:	92800005 	mov	x5, #0xffffffffffffffff    	// #-1
    181c:	2a010000 	orr	w0, w0, w1
    1820:	92fc0007 	mov	x7, #0x1fffffffffffffff    	// #2305843009213693951
    1824:	d28fffc1 	mov	x1, #0x7ffe                	// #32766
    1828:	17ffffc8 	b	1748 <__subtf3+0x310>
    182c:	b5ffff4e 	cbnz	x14, 1814 <__subtf3+0x3dc>
    1830:	52800281 	mov	w1, #0x14                  	// #20
    1834:	92401d0b 	and	x11, x8, #0xff
    1838:	2a010000 	orr	w0, w0, w1
    183c:	d2800002 	mov	x2, #0x0                   	// #0
    1840:	9e670040 	fmov	d0, x2
    1844:	d341016b 	lsl	x11, x11, #63
    1848:	b2503963 	orr	x3, x11, #0x7fff000000000000
    184c:	9eaf0060 	fmov	v0.d[1], x3
    1850:	3d8007e0 	str	q0, [sp, #16]
    1854:	940002b3 	bl	2320 <__sfp_handle_exceptions>
    1858:	3dc007e0 	ldr	q0, [sp, #16]
    185c:	a8c37bfd 	ldp	x29, x30, [sp], #48
    1860:	d65f03c0 	ret
    1864:	34000ce0 	cbz	w0, 1a00 <__subtf3+0x5c8>
    1868:	b4000aa1 	cbz	x1, 19bc <__subtf3+0x584>
    186c:	d28fffe1 	mov	x1, #0x7fff                	// #32767
    1870:	4b0003e0 	neg	w0, w0
    1874:	b24d0063 	orr	x3, x3, #0x8000000000000
    1878:	eb0101bf 	cmp	x13, x1
    187c:	54000b00 	b.eq	19dc <__subtf3+0x5a4>  // b.none
    1880:	7101d01f 	cmp	w0, #0x74
    1884:	5400226c 	b.gt	1cd0 <__subtf3+0x898>
    1888:	7100fc1f 	cmp	w0, #0x3f
    188c:	540027cc 	b.gt	1d84 <__subtf3+0x94c>
    1890:	52800801 	mov	w1, #0x40                  	// #64
    1894:	4b000021 	sub	w1, w1, w0
    1898:	9ac024c4 	lsr	x4, x6, x0
    189c:	9ac120c6 	lsl	x6, x6, x1
    18a0:	f10000df 	cmp	x6, #0x0
    18a4:	9ac12066 	lsl	x6, x3, x1
    18a8:	9a9f07e1 	cset	x1, ne  // ne = any
    18ac:	aa0400c6 	orr	x6, x6, x4
    18b0:	9ac02460 	lsr	x0, x3, x0
    18b4:	aa0100c6 	orr	x6, x6, x1
    18b8:	8b000042 	add	x2, x2, x0
    18bc:	ab0a00c6 	adds	x6, x6, x10
    18c0:	aa0d03e1 	mov	x1, x13
    18c4:	9a823443 	cinc	x3, x2, cs  // cs = hs, nlast
    18c8:	17ffffbe 	b	17c0 <__subtf3+0x388>
    18cc:	52800200 	mov	w0, #0x10                  	// #16
    18d0:	b400006e 	cbz	x14, 18dc <__subtf3+0x4a4>
    18d4:	b10020c6 	adds	x6, x6, #0x8
    18d8:	9a833463 	cinc	x3, x3, cs  // cs = hs, nlast
    18dc:	924d0062 	and	x2, x3, #0x8000000000000
    18e0:	34ffe784 	cbz	w4, 15d0 <__subtf3+0x198>
    18e4:	321d0000 	orr	w0, w0, #0x8
    18e8:	17ffff3a 	b	15d0 <__subtf3+0x198>
    18ec:	52800200 	mov	w0, #0x10                  	// #16
    18f0:	b5ffff6e 	cbnz	x14, 18dc <__subtf3+0x4a4>
    18f4:	17fffff8 	b	18d4 <__subtf3+0x49c>
    18f8:	92400cc2 	and	x2, x6, #0xf
    18fc:	52800200 	mov	w0, #0x10                  	// #16
    1900:	f100105f 	cmp	x2, #0x4
    1904:	54fffec0 	b.eq	18dc <__subtf3+0x4a4>  // b.none
    1908:	b10010c6 	adds	x6, x6, #0x4
    190c:	9a833463 	cinc	x3, x3, cs  // cs = hs, nlast
    1910:	17fffff3 	b	18dc <__subtf3+0x4a4>
    1914:	aa0503e6 	mov	x6, x5
    1918:	924cf863 	and	x3, x3, #0xfff7ffffffffffff
    191c:	cb020021 	sub	x1, x1, x2
    1920:	aa0300c7 	orr	x7, x6, x3
    1924:	924008c0 	and	x0, x6, #0x7
    1928:	52800004 	mov	w4, #0x0                   	// #0
    192c:	b4fff061 	cbz	x1, 1738 <__subtf3+0x300>
    1930:	17ffff1d 	b	15a4 <__subtf3+0x16c>
    1934:	dac010c3 	clz	x3, x6
    1938:	1100d060 	add	w0, w3, #0x34
    193c:	7100fc1f 	cmp	w0, #0x3f
    1940:	54ffdfcd 	b.le	1538 <__subtf3+0x100>
    1944:	51003063 	sub	w3, w3, #0xc
    1948:	9ac320c3 	lsl	x3, x6, x3
    194c:	17ffff00 	b	154c <__subtf3+0x114>
    1950:	aa060060 	orr	x0, x3, x6
    1954:	b40004a0 	cbz	x0, 19e8 <__subtf3+0x5b0>
    1958:	d372fc60 	lsr	x0, x3, #50
    195c:	d28fffe1 	mov	x1, #0x7fff                	// #32767
    1960:	d2400000 	eor	x0, x0, #0x1
    1964:	12000000 	and	w0, w0, #0x1
    1968:	17ffff46 	b	1680 <__subtf3+0x248>
    196c:	aa0a0042 	orr	x2, x2, x10
    1970:	f100005f 	cmp	x2, #0x0
    1974:	9a9f07e4 	cset	x4, ne  // ne = any
    1978:	17fffee9 	b	151c <__subtf3+0xe4>
    197c:	d28fffe0 	mov	x0, #0x7fff                	// #32767
    1980:	eb00003f 	cmp	x1, x0
    1984:	54ffed21 	b.ne	1728 <__subtf3+0x2f0>  // b.any
    1988:	aa060060 	orr	x0, x3, x6
    198c:	b5fffe60 	cbnz	x0, 1958 <__subtf3+0x520>
    1990:	d2800005 	mov	x5, #0x0                   	// #0
    1994:	d2800007 	mov	x7, #0x0                   	// #0
    1998:	52800000 	mov	w0, #0x0                   	// #0
    199c:	17ffff3e 	b	1694 <__subtf3+0x25c>
    19a0:	924d0062 	and	x2, x3, #0x8000000000000
    19a4:	52800000 	mov	w0, #0x0                   	// #0
    19a8:	34ffe144 	cbz	w4, 15d0 <__subtf3+0x198>
    19ac:	52800000 	mov	w0, #0x0                   	// #0
    19b0:	365fe10c 	tbz	w12, #11, 15d0 <__subtf3+0x198>
    19b4:	321d0000 	orr	w0, w0, #0x8
    19b8:	17ffff06 	b	15d0 <__subtf3+0x198>
    19bc:	aa060061 	orr	x1, x3, x6
    19c0:	b4001c41 	cbz	x1, 1d48 <__subtf3+0x910>
    19c4:	3100041f 	cmn	w0, #0x1
    19c8:	54002680 	b.eq	1e98 <__subtf3+0xa60>  // b.none
    19cc:	d28fffe1 	mov	x1, #0x7fff                	// #32767
    19d0:	2a2003e0 	mvn	w0, w0
    19d4:	eb0101bf 	cmp	x13, x1
    19d8:	54fff541 	b.ne	1880 <__subtf3+0x448>  // b.any
    19dc:	aa0a0040 	orr	x0, x2, x10
    19e0:	b5ffe440 	cbnz	x0, 1668 <__subtf3+0x230>
    19e4:	d503201f 	nop
    19e8:	d2800002 	mov	x2, #0x0                   	// #0
    19ec:	9e670040 	fmov	d0, x2
    19f0:	d3410160 	lsl	x0, x11, #63
    19f4:	b2503803 	orr	x3, x0, #0x7fff000000000000
    19f8:	9eaf0060 	fmov	v0.d[1], x3
    19fc:	17ffff04 	b	160c <__subtf3+0x1d4>
    1a00:	91000427 	add	x7, x1, #0x1
    1a04:	f27f34ff 	tst	x7, #0x7ffe
    1a08:	54000c21 	b.ne	1b8c <__subtf3+0x754>  // b.any
    1a0c:	aa06006b 	orr	x11, x3, x6
    1a10:	b5001821 	cbnz	x1, 1d14 <__subtf3+0x8dc>
    1a14:	aa0a0047 	orr	x7, x2, x10
    1a18:	b4001b0b 	cbz	x11, 1d78 <__subtf3+0x940>
    1a1c:	b40012a7 	cbz	x7, 1c70 <__subtf3+0x838>
    1a20:	ab0a00c6 	adds	x6, x6, x10
    1a24:	9a030043 	adc	x3, x2, x3
    1a28:	b69fdb43 	tbz	x3, #51, 1590 <__subtf3+0x158>
    1a2c:	924cf863 	and	x3, x3, #0xfff7ffffffffffff
    1a30:	924008c0 	and	x0, x6, #0x7
    1a34:	52800004 	mov	w4, #0x0                   	// #0
    1a38:	d2800021 	mov	x1, #0x1                   	// #1
    1a3c:	17fffeda 	b	15a4 <__subtf3+0x16c>
    1a40:	eb0a00c9 	subs	x9, x6, x10
    1a44:	eb0a00df 	cmp	x6, x10
    1a48:	da020065 	sbc	x5, x3, x2
    1a4c:	b7980b65 	tbnz	x5, #51, 1bb8 <__subtf3+0x780>
    1a50:	aa050127 	orr	x7, x9, x5
    1a54:	b50013a7 	cbnz	x7, 1cc8 <__subtf3+0x890>
    1a58:	926a058c 	and	x12, x12, #0xc00000
    1a5c:	d2800005 	mov	x5, #0x0                   	// #0
    1a60:	f160019f 	cmp	x12, #0x800, lsl #12
    1a64:	d2800001 	mov	x1, #0x0                   	// #0
    1a68:	1a9f17e8 	cset	w8, eq  // eq = none
    1a6c:	17ffff37 	b	1748 <__subtf3+0x310>
    1a70:	d28fffe1 	mov	x1, #0x7fff                	// #32767
    1a74:	4b0003e0 	neg	w0, w0
    1a78:	b24d0063 	orr	x3, x3, #0x8000000000000
    1a7c:	eb0101bf 	cmp	x13, x1
    1a80:	54ffdee0 	b.eq	165c <__subtf3+0x224>  // b.none
    1a84:	7101d01f 	cmp	w0, #0x74
    1a88:	540005cc 	b.gt	1b40 <__subtf3+0x708>
    1a8c:	7100fc1f 	cmp	w0, #0x3f
    1a90:	5400128c 	b.gt	1ce0 <__subtf3+0x8a8>
    1a94:	52800801 	mov	w1, #0x40                  	// #64
    1a98:	4b000021 	sub	w1, w1, w0
    1a9c:	9ac024c5 	lsr	x5, x6, x0
    1aa0:	9ac120c6 	lsl	x6, x6, x1
    1aa4:	f10000df 	cmp	x6, #0x0
    1aa8:	9ac12066 	lsl	x6, x3, x1
    1aac:	9a9f07e1 	cset	x1, ne  // ne = any
    1ab0:	aa0500c6 	orr	x6, x6, x5
    1ab4:	9ac02460 	lsr	x0, x3, x0
    1ab8:	aa0100c6 	orr	x6, x6, x1
    1abc:	cb000042 	sub	x2, x2, x0
    1ac0:	14000023 	b	1b4c <__subtf3+0x714>
    1ac4:	aa0a0042 	orr	x2, x2, x10
    1ac8:	f100005f 	cmp	x2, #0x0
    1acc:	9a9f07e0 	cset	x0, ne  // ne = any
    1ad0:	ab060006 	adds	x6, x0, x6
    1ad4:	9a833463 	cinc	x3, x3, cs  // cs = hs, nlast
    1ad8:	17ffff3a 	b	17c0 <__subtf3+0x388>
    1adc:	52801002 	mov	w2, #0x80                  	// #128
    1ae0:	4b000042 	sub	w2, w2, w0
    1ae4:	7101001f 	cmp	w0, #0x40
    1ae8:	5100fc26 	sub	w6, w1, #0x3f
    1aec:	9ac22060 	lsl	x0, x3, x2
    1af0:	aa0000a0 	orr	x0, x5, x0
    1af4:	9a851005 	csel	x5, x0, x5, ne  // ne = any
    1af8:	9ac62466 	lsr	x6, x3, x6
    1afc:	f10000bf 	cmp	x5, #0x0
    1b00:	d2800003 	mov	x3, #0x0                   	// #0
    1b04:	9a9f07e0 	cset	x0, ne  // ne = any
    1b08:	aa060006 	orr	x6, x0, x6
    1b0c:	aa0603e7 	mov	x7, x6
    1b10:	17fffea1 	b	1594 <__subtf3+0x15c>
    1b14:	52801005 	mov	w5, #0x80                  	// #128
    1b18:	4b0000a5 	sub	w5, w5, w0
    1b1c:	71010000 	subs	w0, w0, #0x40
    1b20:	9ac52045 	lsl	x5, x2, x5
    1b24:	aa050145 	orr	x5, x10, x5
    1b28:	9a8a10aa 	csel	x10, x5, x10, ne  // ne = any
    1b2c:	9ac02442 	lsr	x2, x2, x0
    1b30:	f100015f 	cmp	x10, #0x0
    1b34:	9a9f07e4 	cset	x4, ne  // ne = any
    1b38:	aa020084 	orr	x4, x4, x2
    1b3c:	17fffe78 	b	151c <__subtf3+0xe4>
    1b40:	aa060063 	orr	x3, x3, x6
    1b44:	f100007f 	cmp	x3, #0x0
    1b48:	9a9f07e6 	cset	x6, ne  // ne = any
    1b4c:	eb060146 	subs	x6, x10, x6
    1b50:	aa0d03e1 	mov	x1, x13
    1b54:	da1f0043 	sbc	x3, x2, xzr
    1b58:	aa0403ee 	mov	x14, x4
    1b5c:	17fffe72 	b	1524 <__subtf3+0xec>
    1b60:	52801004 	mov	w4, #0x80                  	// #128
    1b64:	4b000084 	sub	w4, w4, w0
    1b68:	71010000 	subs	w0, w0, #0x40
    1b6c:	9ac42044 	lsl	x4, x2, x4
    1b70:	aa040144 	orr	x4, x10, x4
    1b74:	9a8a108a 	csel	x10, x4, x10, ne  // ne = any
    1b78:	9ac02442 	lsr	x2, x2, x0
    1b7c:	f100015f 	cmp	x10, #0x0
    1b80:	9a9f07e0 	cset	x0, ne  // ne = any
    1b84:	aa020000 	orr	x0, x0, x2
    1b88:	17ffffd2 	b	1ad0 <__subtf3+0x698>
    1b8c:	d28fffe0 	mov	x0, #0x7fff                	// #32767
    1b90:	eb0000ff 	cmp	x7, x0
    1b94:	540011a0 	b.eq	1dc8 <__subtf3+0x990>  // b.none
    1b98:	ab0a00c6 	adds	x6, x6, x10
    1b9c:	aa0703e1 	mov	x1, x7
    1ba0:	9a030043 	adc	x3, x2, x3
    1ba4:	52800004 	mov	w4, #0x0                   	// #0
    1ba8:	d3410cc0 	ubfx	x0, x6, #1, #3
    1bac:	93c60466 	extr	x6, x3, x6, #1
    1bb0:	d341fc63 	lsr	x3, x3, #1
    1bb4:	17fffe7c 	b	15a4 <__subtf3+0x16c>
    1bb8:	eb06015f 	cmp	x10, x6
    1bbc:	2a0403e8 	mov	w8, w4
    1bc0:	da030045 	sbc	x5, x2, x3
    1bc4:	cb060146 	sub	x6, x10, x6
    1bc8:	aa0403ee 	mov	x14, x4
    1bcc:	17fffe58 	b	152c <__subtf3+0xf4>
    1bd0:	d28fffec 	mov	x12, #0x7fff                	// #32767
    1bd4:	eb0c003f 	cmp	x1, x12
    1bd8:	54000140 	b.eq	1c00 <__subtf3+0x7c8>  // b.none
    1bdc:	eb0c01bf 	cmp	x13, x12
    1be0:	540010a0 	b.eq	1df4 <__subtf3+0x9bc>  // b.none
    1be4:	b50001ab 	cbnz	x11, 1c18 <__subtf3+0x7e0>
    1be8:	b50010e7 	cbnz	x7, 1e04 <__subtf3+0x9cc>
    1bec:	92800005 	mov	x5, #0xffffffffffffffff    	// #-1
    1bf0:	92ffffe7 	mov	x7, #0xffffffffffff        	// #281474976710655
    1bf4:	52800020 	mov	w0, #0x1                   	// #1
    1bf8:	52800008 	mov	w8, #0x0                   	// #0
    1bfc:	17fffea8 	b	169c <__subtf3+0x264>
    1c00:	b4000f6b 	cbz	x11, 1dec <__subtf3+0x9b4>
    1c04:	d372fc60 	lsr	x0, x3, #50
    1c08:	eb0101bf 	cmp	x13, x1
    1c0c:	d2400000 	eor	x0, x0, #0x1
    1c10:	12000000 	and	w0, w0, #0x1
    1c14:	54000f00 	b.eq	1df4 <__subtf3+0x9bc>  // b.none
    1c18:	b4ffd327 	cbz	x7, 167c <__subtf3+0x244>
    1c1c:	b3430865 	bfi	x5, x3, #61, #3
    1c20:	d343fc67 	lsr	x7, x3, #3
    1c24:	b69000e3 	tbz	x3, #50, 1c40 <__subtf3+0x808>
    1c28:	d343fc41 	lsr	x1, x2, #3
    1c2c:	b79000a2 	tbnz	x2, #50, 1c40 <__subtf3+0x808>
    1c30:	aa0903e5 	mov	x5, x9
    1c34:	2a0403e8 	mov	w8, w4
    1c38:	b3430845 	bfi	x5, x2, #61, #3
    1c3c:	aa0103e7 	mov	x7, x1
    1c40:	93c5f4e7 	extr	x7, x7, x5, #61
    1c44:	b34308e5 	bfi	x5, x7, #61, #3
    1c48:	d343fce7 	lsr	x7, x7, #3
    1c4c:	17fffe92 	b	1694 <__subtf3+0x25c>
    1c50:	eb0a00c6 	subs	x6, x6, x10
    1c54:	da020063 	sbc	x3, x3, x2
    1c58:	17fffe33 	b	1524 <__subtf3+0xec>
    1c5c:	b4000847 	cbz	x7, 1d64 <__subtf3+0x92c>
    1c60:	aa0203e3 	mov	x3, x2
    1c64:	aa0a03e6 	mov	x6, x10
    1c68:	2a0403e8 	mov	w8, w4
    1c6c:	aa0403ee 	mov	x14, x4
    1c70:	d2800001 	mov	x1, #0x0                   	// #0
    1c74:	d2800002 	mov	x2, #0x0                   	// #0
    1c78:	17ffff4d 	b	19ac <__subtf3+0x574>
    1c7c:	f26a0582 	ands	x2, x12, #0xc00000
    1c80:	54000460 	b.eq	1d0c <__subtf3+0x8d4>  // b.none
    1c84:	f150005f 	cmp	x2, #0x400, lsl #12
    1c88:	52000100 	eor	w0, w8, #0x1
    1c8c:	1a9f17e1 	cset	w1, eq  // eq = none
    1c90:	6a00003f 	tst	w1, w0
    1c94:	54000a61 	b.ne	1de0 <__subtf3+0x9a8>  // b.any
    1c98:	f160005f 	cmp	x2, #0x800, lsl #12
    1c9c:	54000cc0 	b.eq	1e34 <__subtf3+0x9fc>  // b.none
    1ca0:	f150005f 	cmp	x2, #0x400, lsl #12
    1ca4:	52800280 	mov	w0, #0x14                  	// #20
    1ca8:	54ffda81 	b.ne	17f8 <__subtf3+0x3c0>  // b.any
    1cac:	92800003 	mov	x3, #0xffffffffffffffff    	// #-1
    1cb0:	d28fffc1 	mov	x1, #0x7ffe                	// #32766
    1cb4:	aa0303e6 	mov	x6, x3
    1cb8:	52800004 	mov	w4, #0x0                   	// #0
    1cbc:	52800280 	mov	w0, #0x14                  	// #20
    1cc0:	b5ffe0ee 	cbnz	x14, 18dc <__subtf3+0x4a4>
    1cc4:	17ffff04 	b	18d4 <__subtf3+0x49c>
    1cc8:	aa0903e6 	mov	x6, x9
    1ccc:	17fffe18 	b	152c <__subtf3+0xf4>
    1cd0:	aa060063 	orr	x3, x3, x6
    1cd4:	f100007f 	cmp	x3, #0x0
    1cd8:	9a9f07e6 	cset	x6, ne  // ne = any
    1cdc:	17fffef8 	b	18bc <__subtf3+0x484>
    1ce0:	52801001 	mov	w1, #0x80                  	// #128
    1ce4:	4b000021 	sub	w1, w1, w0
    1ce8:	71010000 	subs	w0, w0, #0x40
    1cec:	9ac12061 	lsl	x1, x3, x1
    1cf0:	aa0100c1 	orr	x1, x6, x1
    1cf4:	9a861026 	csel	x6, x1, x6, ne  // ne = any
    1cf8:	9ac02463 	lsr	x3, x3, x0
    1cfc:	f10000df 	cmp	x6, #0x0
    1d00:	9a9f07e6 	cset	x6, ne  // ne = any
    1d04:	aa0300c6 	orr	x6, x6, x3
    1d08:	17ffff91 	b	1b4c <__subtf3+0x714>
    1d0c:	52800280 	mov	w0, #0x14                  	// #20
    1d10:	17fffecb 	b	183c <__subtf3+0x404>
    1d14:	d28fffe7 	mov	x7, #0x7fff                	// #32767
    1d18:	eb07003f 	cmp	x1, x7
    1d1c:	540009a0 	b.eq	1e50 <__subtf3+0xa18>  // b.none
    1d20:	eb0701bf 	cmp	x13, x7
    1d24:	54000c80 	b.eq	1eb4 <__subtf3+0xa7c>  // b.none
    1d28:	b5000a0b 	cbnz	x11, 1e68 <__subtf3+0xa30>
    1d2c:	aa0203e3 	mov	x3, x2
    1d30:	aa0a03e6 	mov	x6, x10
    1d34:	d28fffe1 	mov	x1, #0x7fff                	// #32767
    1d38:	17fffe52 	b	1680 <__subtf3+0x248>
    1d3c:	aa0a0040 	orr	x0, x2, x10
    1d40:	b4ffe280 	cbz	x0, 1990 <__subtf3+0x558>
    1d44:	17fffe49 	b	1668 <__subtf3+0x230>
    1d48:	d28fffe0 	mov	x0, #0x7fff                	// #32767
    1d4c:	eb0001bf 	cmp	x13, x0
    1d50:	54ffff60 	b.eq	1d3c <__subtf3+0x904>  // b.none
    1d54:	aa0203e3 	mov	x3, x2
    1d58:	aa0a03e6 	mov	x6, x10
    1d5c:	aa0d03e1 	mov	x1, x13
    1d60:	17fffe72 	b	1728 <__subtf3+0x2f0>
    1d64:	926a058c 	and	x12, x12, #0xc00000
    1d68:	d2800005 	mov	x5, #0x0                   	// #0
    1d6c:	f160019f 	cmp	x12, #0x800, lsl #12
    1d70:	1a9f17e8 	cset	w8, eq  // eq = none
    1d74:	17fffe75 	b	1748 <__subtf3+0x310>
    1d78:	aa0203e3 	mov	x3, x2
    1d7c:	aa0a03e6 	mov	x6, x10
    1d80:	17fffe05 	b	1594 <__subtf3+0x15c>
    1d84:	52801001 	mov	w1, #0x80                  	// #128
    1d88:	4b000021 	sub	w1, w1, w0
    1d8c:	71010000 	subs	w0, w0, #0x40
    1d90:	9ac12061 	lsl	x1, x3, x1
    1d94:	aa0100c1 	orr	x1, x6, x1
    1d98:	9a861026 	csel	x6, x1, x6, ne  // ne = any
    1d9c:	9ac02463 	lsr	x3, x3, x0
    1da0:	f10000df 	cmp	x6, #0x0
    1da4:	9a9f07e6 	cset	x6, ne  // ne = any
    1da8:	aa0300c6 	orr	x6, x6, x3
    1dac:	17fffec4 	b	18bc <__subtf3+0x484>
    1db0:	eb06015f 	cmp	x10, x6
    1db4:	aa0d03e1 	mov	x1, x13
    1db8:	da030043 	sbc	x3, x2, x3
    1dbc:	cb060146 	sub	x6, x10, x6
    1dc0:	aa0403ee 	mov	x14, x4
    1dc4:	17fffdd8 	b	1524 <__subtf3+0xec>
    1dc8:	f26a0582 	ands	x2, x12, #0xc00000
    1dcc:	54fffa00 	b.eq	1d0c <__subtf3+0x8d4>  // b.none
    1dd0:	f150005f 	cmp	x2, #0x400, lsl #12
    1dd4:	52000100 	eor	w0, w8, #0x1
    1dd8:	1a9f0000 	csel	w0, w0, wzr, eq  // eq = none
    1ddc:	34fff5e0 	cbz	w0, 1c98 <__subtf3+0x860>
    1de0:	52800280 	mov	w0, #0x14                  	// #20
    1de4:	d280000b 	mov	x11, #0x0                   	// #0
    1de8:	17fffe95 	b	183c <__subtf3+0x404>
    1dec:	eb0101bf 	cmp	x13, x1
    1df0:	54ffefc1 	b.ne	1be8 <__subtf3+0x7b0>  // b.any
    1df4:	b40005a7 	cbz	x7, 1ea8 <__subtf3+0xa70>
    1df8:	f24e005f 	tst	x2, #0x4000000000000
    1dfc:	1a9f1400 	csinc	w0, w0, wzr, ne  // ne = any
    1e00:	b5fff0eb 	cbnz	x11, 1c1c <__subtf3+0x7e4>
    1e04:	2a0403e8 	mov	w8, w4
    1e08:	aa0203e3 	mov	x3, x2
    1e0c:	aa0a03e6 	mov	x6, x10
    1e10:	d28fffe1 	mov	x1, #0x7fff                	// #32767
    1e14:	17fffe1b 	b	1680 <__subtf3+0x248>
    1e18:	aa050127 	orr	x7, x9, x5
    1e1c:	b4fffa47 	cbz	x7, 1d64 <__subtf3+0x92c>
    1e20:	aa0503e3 	mov	x3, x5
    1e24:	92400920 	and	x0, x9, #0x7
    1e28:	aa0903e6 	mov	x6, x9
    1e2c:	52800024 	mov	w4, #0x1                   	// #1
    1e30:	17fffddd 	b	15a4 <__subtf3+0x16c>
    1e34:	b50004ab 	cbnz	x11, 1ec8 <__subtf3+0xa90>
    1e38:	92800003 	mov	x3, #0xffffffffffffffff    	// #-1
    1e3c:	52800008 	mov	w8, #0x0                   	// #0
    1e40:	aa0303e6 	mov	x6, x3
    1e44:	d28fffc1 	mov	x1, #0x7ffe                	// #32766
    1e48:	52800280 	mov	w0, #0x14                  	// #20
    1e4c:	17fffde2 	b	15d4 <__subtf3+0x19c>
    1e50:	b400042b 	cbz	x11, 1ed4 <__subtf3+0xa9c>
    1e54:	d372fc60 	lsr	x0, x3, #50
    1e58:	eb0101bf 	cmp	x13, x1
    1e5c:	d2400000 	eor	x0, x0, #0x1
    1e60:	12000000 	and	w0, w0, #0x1
    1e64:	54000480 	b.eq	1ef4 <__subtf3+0xabc>  // b.none
    1e68:	aa0a004a 	orr	x10, x2, x10
    1e6c:	b4ffc08a 	cbz	x10, 167c <__subtf3+0x244>
    1e70:	b3430865 	bfi	x5, x3, #61, #3
    1e74:	d343fc67 	lsr	x7, x3, #3
    1e78:	b697ee43 	tbz	x3, #50, 1c40 <__subtf3+0x808>
    1e7c:	d343fc41 	lsr	x1, x2, #3
    1e80:	b797ee02 	tbnz	x2, #50, 1c40 <__subtf3+0x808>
    1e84:	9240f125 	and	x5, x9, #0x1fffffffffffffff
    1e88:	2a0403e8 	mov	w8, w4
    1e8c:	aa02f4a5 	orr	x5, x5, x2, lsl #61
    1e90:	aa0103e7 	mov	x7, x1
    1e94:	17ffff6b 	b	1c40 <__subtf3+0x808>
    1e98:	ab0a00c6 	adds	x6, x6, x10
    1e9c:	aa0d03e1 	mov	x1, x13
    1ea0:	9a030043 	adc	x3, x2, x3
    1ea4:	17fffe47 	b	17c0 <__subtf3+0x388>
    1ea8:	b4ffea2b 	cbz	x11, 1bec <__subtf3+0x7b4>
    1eac:	d28fffe1 	mov	x1, #0x7fff                	// #32767
    1eb0:	17fffdf4 	b	1680 <__subtf3+0x248>
    1eb4:	aa0a0041 	orr	x1, x2, x10
    1eb8:	b5000161 	cbnz	x1, 1ee4 <__subtf3+0xaac>
    1ebc:	b4ffd6ab 	cbz	x11, 1990 <__subtf3+0x558>
    1ec0:	d28fffe1 	mov	x1, #0x7fff                	// #32767
    1ec4:	17fffdef 	b	1680 <__subtf3+0x248>
    1ec8:	52800280 	mov	w0, #0x14                  	// #20
    1ecc:	d280002b 	mov	x11, #0x1                   	// #1
    1ed0:	17fffe5b 	b	183c <__subtf3+0x404>
    1ed4:	eb0101bf 	cmp	x13, x1
    1ed8:	54fff2a1 	b.ne	1d2c <__subtf3+0x8f4>  // b.any
    1edc:	aa0a0041 	orr	x1, x2, x10
    1ee0:	b4ffd581 	cbz	x1, 1990 <__subtf3+0x558>
    1ee4:	f24e005f 	tst	x2, #0x4000000000000
    1ee8:	1a9f1400 	csinc	w0, w0, wzr, ne  // ne = any
    1eec:	b5fffc2b 	cbnz	x11, 1e70 <__subtf3+0xa38>
    1ef0:	17ffff8f 	b	1d2c <__subtf3+0x8f4>
    1ef4:	aa0a0041 	orr	x1, x2, x10
    1ef8:	b5ffff61 	cbnz	x1, 1ee4 <__subtf3+0xaac>
    1efc:	d28fffe1 	mov	x1, #0x7fff                	// #32767
    1f00:	17fffde0 	b	1680 <__subtf3+0x248>
    1f04:	d2800005 	mov	x5, #0x0                   	// #0
    1f08:	528fffe1 	mov	w1, #0x7fff                	// #32767
    1f0c:	d2800007 	mov	x7, #0x0                   	// #0
    1f10:	17fffdb8 	b	15f0 <__subtf3+0x1b8>
    1f14:	00000000 	.inst	0x00000000 ; undefined

0000000000001f18 <__fixtfsi>:
    1f18:	a9bd7bfd 	stp	x29, x30, [sp, #-48]!
    1f1c:	910003fd 	mov	x29, sp
    1f20:	f9000bf3 	str	x19, [sp, #16]
    1f24:	3d800be0 	str	q0, [sp, #32]
    1f28:	a94207e0 	ldp	x0, x1, [sp, #32]
    1f2c:	d53b4402 	mrs	x2, fpcr
    1f30:	aa0003e3 	mov	x3, x0
    1f34:	d370f824 	ubfx	x4, x1, #48, #15
    1f38:	d287ffc0 	mov	x0, #0x3ffe                	// #16382
    1f3c:	eb00009f 	cmp	x4, x0
    1f40:	d340bc20 	ubfx	x0, x1, #0, #48
    1f44:	5400016c 	b.gt	1f70 <__fixtfsi+0x58>
    1f48:	b5000524 	cbnz	x4, 1fec <__fixtfsi+0xd4>
    1f4c:	aa030000 	orr	x0, x0, x3
    1f50:	52800013 	mov	w19, #0x0                   	// #0
    1f54:	b4000060 	cbz	x0, 1f60 <__fixtfsi+0x48>
    1f58:	52800200 	mov	w0, #0x10                  	// #16
    1f5c:	940000f1 	bl	2320 <__sfp_handle_exceptions>
    1f60:	2a1303e0 	mov	w0, w19
    1f64:	f9400bf3 	ldr	x19, [sp, #16]
    1f68:	a8c37bfd 	ldp	x29, x30, [sp], #48
    1f6c:	d65f03c0 	ret
    1f70:	d37ffc33 	lsr	x19, x1, #63
    1f74:	d28803a5 	mov	x5, #0x401d                	// #16413
    1f78:	12001e62 	and	w2, w19, #0xff
    1f7c:	eb05009f 	cmp	x4, x5
    1f80:	540001ad 	b.le	1fb4 <__fixtfsi+0x9c>
    1f84:	d28803c1 	mov	x1, #0x401e                	// #16414
    1f88:	eb01009f 	cmp	x4, x1
    1f8c:	12b00013 	mov	w19, #0x7fffffff            	// #2147483647
    1f90:	1a9f0041 	csel	w1, w2, wzr, eq  // eq = none
    1f94:	0b130053 	add	w19, w2, w19
    1f98:	34000321 	cbz	w1, 1ffc <__fixtfsi+0xe4>
    1f9c:	eb4047ff 	cmp	xzr, x0, lsr #17
    1fa0:	540002e1 	b.ne	1ffc <__fixtfsi+0xe4>  // b.any
    1fa4:	aa00bc60 	orr	x0, x3, x0, lsl #47
    1fa8:	b4fffdc0 	cbz	x0, 1f60 <__fixtfsi+0x48>
    1fac:	52800200 	mov	w0, #0x10                  	// #16
    1fb0:	17ffffeb 	b	1f5c <__fixtfsi+0x44>
    1fb4:	aa0403e1 	mov	x1, x4
    1fb8:	b2500000 	orr	x0, x0, #0x1000000000000
    1fbc:	528805f3 	mov	w19, #0x402f                	// #16431
    1fc0:	1287fdc4 	mov	w4, #0xffffc011            	// #-16367
    1fc4:	0b040024 	add	w4, w1, w4
    1fc8:	4b010261 	sub	w1, w19, w1
    1fcc:	7100005f 	cmp	w2, #0x0
    1fd0:	9ac12413 	lsr	x19, x0, x1
    1fd4:	5a930673 	cneg	w19, w19, ne  // ne = any
    1fd8:	9ac42000 	lsl	x0, x0, x4
    1fdc:	aa030000 	orr	x0, x0, x3
    1fe0:	b4fffc00 	cbz	x0, 1f60 <__fixtfsi+0x48>
    1fe4:	52800200 	mov	w0, #0x10                  	// #16
    1fe8:	17ffffdd 	b	1f5c <__fixtfsi+0x44>
    1fec:	52800013 	mov	w19, #0x0                   	// #0
    1ff0:	52800200 	mov	w0, #0x10                  	// #16
    1ff4:	940000cb 	bl	2320 <__sfp_handle_exceptions>
    1ff8:	17ffffda 	b	1f60 <__fixtfsi+0x48>
    1ffc:	52800020 	mov	w0, #0x1                   	// #1
    2000:	940000c8 	bl	2320 <__sfp_handle_exceptions>
    2004:	17ffffd7 	b	1f60 <__fixtfsi+0x48>

0000000000002008 <__fixunstfsi>:
    2008:	a9bd7bfd 	stp	x29, x30, [sp, #-48]!
    200c:	910003fd 	mov	x29, sp
    2010:	f9000bf3 	str	x19, [sp, #16]
    2014:	3d800be0 	str	q0, [sp, #32]
    2018:	a94207e0 	ldp	x0, x1, [sp, #32]
    201c:	d53b4402 	mrs	x2, fpcr
    2020:	d370f823 	ubfx	x3, x1, #48, #15
    2024:	d287ffc4 	mov	x4, #0x3ffe                	// #16382
    2028:	aa0003e2 	mov	x2, x0
    202c:	eb04007f 	cmp	x3, x4
    2030:	d340bc33 	ubfx	x19, x1, #0, #48
    2034:	5400020c 	b.gt	2074 <__fixunstfsi+0x6c>
    2038:	b5000103 	cbnz	x3, 2058 <__fixunstfsi+0x50>
    203c:	aa130000 	orr	x0, x0, x19
    2040:	52800013 	mov	w19, #0x0                   	// #0
    2044:	b50000a0 	cbnz	x0, 2058 <__fixunstfsi+0x50>
    2048:	2a1303e0 	mov	w0, w19
    204c:	f9400bf3 	ldr	x19, [sp, #16]
    2050:	a8c37bfd 	ldp	x29, x30, [sp], #48
    2054:	d65f03c0 	ret
    2058:	52800200 	mov	w0, #0x10                  	// #16
    205c:	52800013 	mov	w19, #0x0                   	// #0
    2060:	940000b0 	bl	2320 <__sfp_handle_exceptions>
    2064:	2a1303e0 	mov	w0, w19
    2068:	f9400bf3 	ldr	x19, [sp, #16]
    206c:	a8c37bfd 	ldp	x29, x30, [sp], #48
    2070:	d65f03c0 	ret
    2074:	d37ffc20 	lsr	x0, x1, #63
    2078:	d28803e4 	mov	x4, #0x401f                	// #16415
    207c:	12001c00 	and	w0, w0, #0xff
    2080:	d28803c5 	mov	x5, #0x401e                	// #16414
    2084:	f2401c06 	ands	x6, x0, #0xff
    2088:	9a850084 	csel	x4, x4, x5, eq  // eq = none
    208c:	eb03009f 	cmp	x4, x3
    2090:	540000cd 	b.le	20a8 <__fixunstfsi+0xa0>
    2094:	b4000126 	cbz	x6, 20b8 <__fixunstfsi+0xb0>
    2098:	52800020 	mov	w0, #0x1                   	// #1
    209c:	52800013 	mov	w19, #0x0                   	// #0
    20a0:	940000a0 	bl	2320 <__sfp_handle_exceptions>
    20a4:	17fffff0 	b	2064 <__fixunstfsi+0x5c>
    20a8:	51000413 	sub	w19, w0, #0x1
    20ac:	52800020 	mov	w0, #0x1                   	// #1
    20b0:	9400009c 	bl	2320 <__sfp_handle_exceptions>
    20b4:	17ffffec 	b	2064 <__fixunstfsi+0x5c>
    20b8:	aa0303e1 	mov	x1, x3
    20bc:	b2500260 	orr	x0, x19, #0x1000000000000
    20c0:	1287fdc3 	mov	w3, #0xffffc011            	// #-16367
    20c4:	528805f3 	mov	w19, #0x402f                	// #16431
    20c8:	0b030023 	add	w3, w1, w3
    20cc:	4b010261 	sub	w1, w19, w1
    20d0:	9ac32003 	lsl	x3, x0, x3
    20d4:	aa020062 	orr	x2, x3, x2
    20d8:	9ac12413 	lsr	x19, x0, x1
    20dc:	52800200 	mov	w0, #0x10                  	// #16
    20e0:	b5fffc02 	cbnz	x2, 2060 <__fixunstfsi+0x58>
    20e4:	17ffffd9 	b	2048 <__fixunstfsi+0x40>

00000000000020e8 <__floatsitf>:
    20e8:	7100001f 	cmp	w0, #0x0
    20ec:	34000260 	cbz	w0, 2138 <__floatsitf+0x50>
    20f0:	5a80a401 	cneg	w1, w0, lt  // lt = tstop
    20f4:	528807c4 	mov	w4, #0x403e                	// #16446
    20f8:	dac01023 	clz	x3, x1
    20fc:	528805e2 	mov	w2, #0x402f                	// #16431
    2100:	4b030084 	sub	w4, w4, w3
    2104:	531f7c00 	lsr	w0, w0, #31
    2108:	4b040042 	sub	w2, w2, w4
    210c:	d2800003 	mov	x3, #0x0                   	// #0
    2110:	12003884 	and	w4, w4, #0x7fff
    2114:	9ac22021 	lsl	x1, x1, x2
    2118:	9240bc21 	and	x1, x1, #0xffffffffffff
    211c:	2a003c80 	orr	w0, w4, w0, lsl #15
    2120:	d2800002 	mov	x2, #0x0                   	// #0
    2124:	b340bc23 	bfxil	x3, x1, #0, #48
    2128:	9e670040 	fmov	d0, x2
    212c:	b3503c03 	bfi	x3, x0, #48, #16
    2130:	9eaf0060 	fmov	v0.d[1], x3
    2134:	d65f03c0 	ret
    2138:	52800004 	mov	w4, #0x0                   	// #0
    213c:	d2800001 	mov	x1, #0x0                   	// #0
    2140:	52800000 	mov	w0, #0x0                   	// #0
    2144:	d2800003 	mov	x3, #0x0                   	// #0
    2148:	2a003c80 	orr	w0, w4, w0, lsl #15
    214c:	b340bc23 	bfxil	x3, x1, #0, #48
    2150:	d2800002 	mov	x2, #0x0                   	// #0
    2154:	9e670040 	fmov	d0, x2
    2158:	b3503c03 	bfi	x3, x0, #48, #16
    215c:	9eaf0060 	fmov	v0.d[1], x3
    2160:	d65f03c0 	ret
    2164:	00000000 	.inst	0x00000000 ; undefined

0000000000002168 <__floatunsitf>:
    2168:	34000220 	cbz	w0, 21ac <__floatunsitf+0x44>
    216c:	2a0003e0 	mov	w0, w0
    2170:	528807c1 	mov	w1, #0x403e                	// #16446
    2174:	dac01003 	clz	x3, x0
    2178:	528805e2 	mov	w2, #0x402f                	// #16431
    217c:	4b030021 	sub	w1, w1, w3
    2180:	d2800003 	mov	x3, #0x0                   	// #0
    2184:	4b010042 	sub	w2, w2, w1
    2188:	12003821 	and	w1, w1, #0x7fff
    218c:	9ac22000 	lsl	x0, x0, x2
    2190:	9240bc00 	and	x0, x0, #0xffffffffffff
    2194:	d2800002 	mov	x2, #0x0                   	// #0
    2198:	9e670040 	fmov	d0, x2
    219c:	b340bc03 	bfxil	x3, x0, #0, #48
    21a0:	b3503c23 	bfi	x3, x1, #48, #16
    21a4:	9eaf0060 	fmov	v0.d[1], x3
    21a8:	d65f03c0 	ret
    21ac:	d2800000 	mov	x0, #0x0                   	// #0
    21b0:	d2800003 	mov	x3, #0x0                   	// #0
    21b4:	b340bc03 	bfxil	x3, x0, #0, #48
    21b8:	d2800002 	mov	x2, #0x0                   	// #0
    21bc:	9e670040 	fmov	d0, x2
    21c0:	52800001 	mov	w1, #0x0                   	// #0
    21c4:	b3503c23 	bfi	x3, x1, #48, #16
    21c8:	9eaf0060 	fmov	v0.d[1], x3
    21cc:	d65f03c0 	ret

00000000000021d0 <__extenddftf2>:
    21d0:	d53b4400 	mrs	x0, fpcr
    21d4:	9e660000 	fmov	x0, d0
    21d8:	d374f801 	ubfx	x1, x0, #52, #11
    21dc:	d37ffc04 	lsr	x4, x0, #63
    21e0:	91000422 	add	x2, x1, #0x1
    21e4:	12001c84 	and	w4, w4, #0xff
    21e8:	f27f245f 	tst	x2, #0x7fe
    21ec:	d340cc00 	ubfx	x0, x0, #0, #52
    21f0:	540001a0 	b.eq	2224 <__extenddftf2+0x54>  // b.none
    21f4:	d344fc05 	lsr	x5, x0, #4
    21f8:	d2800003 	mov	x3, #0x0                   	// #0
    21fc:	9240bca5 	and	x5, x5, #0xffffffffffff
    2200:	52878002 	mov	w2, #0x3c00                	// #15360
    2204:	0b020021 	add	w1, w1, w2
    2208:	d3440c00 	lsl	x0, x0, #60
    220c:	b340bca3 	bfxil	x3, x5, #0, #48
    2210:	9e670000 	fmov	d0, x0
    2214:	b3503823 	bfi	x3, x1, #48, #15
    2218:	b3410083 	bfi	x3, x4, #63, #1
    221c:	9eaf0060 	fmov	v0.d[1], x3
    2220:	d65f03c0 	ret
    2224:	b50002a1 	cbnz	x1, 2278 <__extenddftf2+0xa8>
    2228:	b40004e0 	cbz	x0, 22c4 <__extenddftf2+0xf4>
    222c:	dac01002 	clz	x2, x0
    2230:	7100385f 	cmp	w2, #0xe
    2234:	540006ec 	b.gt	2310 <__extenddftf2+0x140>
    2238:	1100c441 	add	w1, w2, #0x31
    223c:	528001e5 	mov	w5, #0xf                   	// #15
    2240:	4b0200a5 	sub	w5, w5, w2
    2244:	9ac52405 	lsr	x5, x0, x5
    2248:	9ac12000 	lsl	x0, x0, x1
    224c:	9240bca5 	and	x5, x5, #0xffffffffffff
    2250:	52878181 	mov	w1, #0x3c0c                	// #15372
    2254:	d2800003 	mov	x3, #0x0                   	// #0
    2258:	4b020021 	sub	w1, w1, w2
    225c:	12003821 	and	w1, w1, #0x7fff
    2260:	b340bca3 	bfxil	x3, x5, #0, #48
    2264:	9e670000 	fmov	d0, x0
    2268:	b3503823 	bfi	x3, x1, #48, #15
    226c:	b3410083 	bfi	x3, x4, #63, #1
    2270:	9eaf0060 	fmov	v0.d[1], x3
    2274:	d65f03c0 	ret
    2278:	b4000380 	cbz	x0, 22e8 <__extenddftf2+0x118>
    227c:	d344fc01 	lsr	x1, x0, #4
    2280:	d2800003 	mov	x3, #0x0                   	// #0
    2284:	b2510021 	orr	x1, x1, #0x800000000000
    2288:	d3440c02 	lsl	x2, x0, #60
    228c:	9e670040 	fmov	d0, x2
    2290:	b340bc23 	bfxil	x3, x1, #0, #48
    2294:	b2503863 	orr	x3, x3, #0x7fff000000000000
    2298:	b3410083 	bfi	x3, x4, #63, #1
    229c:	9eaf0060 	fmov	v0.d[1], x3
    22a0:	b7980360 	tbnz	x0, #51, 230c <__extenddftf2+0x13c>
    22a4:	a9be7bfd 	stp	x29, x30, [sp, #-32]!
    22a8:	52800020 	mov	w0, #0x1                   	// #1
    22ac:	910003fd 	mov	x29, sp
    22b0:	3d8007e0 	str	q0, [sp, #16]
    22b4:	9400001b 	bl	2320 <__sfp_handle_exceptions>
    22b8:	3dc007e0 	ldr	q0, [sp, #16]
    22bc:	a8c27bfd 	ldp	x29, x30, [sp], #32
    22c0:	d65f03c0 	ret
    22c4:	d2800005 	mov	x5, #0x0                   	// #0
    22c8:	d2800003 	mov	x3, #0x0                   	// #0
    22cc:	b340bca3 	bfxil	x3, x5, #0, #48
    22d0:	52800001 	mov	w1, #0x0                   	// #0
    22d4:	9e670000 	fmov	d0, x0
    22d8:	b3503823 	bfi	x3, x1, #48, #15
    22dc:	b3410083 	bfi	x3, x4, #63, #1
    22e0:	9eaf0060 	fmov	v0.d[1], x3
    22e4:	d65f03c0 	ret
    22e8:	d2800005 	mov	x5, #0x0                   	// #0
    22ec:	d2800003 	mov	x3, #0x0                   	// #0
    22f0:	b340bca3 	bfxil	x3, x5, #0, #48
    22f4:	528fffe1 	mov	w1, #0x7fff                	// #32767
    22f8:	9e670000 	fmov	d0, x0
    22fc:	b3503823 	bfi	x3, x1, #48, #15
    2300:	b3410083 	bfi	x3, x4, #63, #1
    2304:	9eaf0060 	fmov	v0.d[1], x3
    2308:	d65f03c0 	ret
    230c:	d65f03c0 	ret
    2310:	51003c45 	sub	w5, w2, #0xf
    2314:	9ac52005 	lsl	x5, x0, x5
    2318:	d2800000 	mov	x0, #0x0                   	// #0
    231c:	17ffffcc 	b	224c <__extenddftf2+0x7c>

0000000000002320 <__sfp_handle_exceptions>:
    2320:	36000080 	tbz	w0, #0, 2330 <__sfp_handle_exceptions+0x10>
    2324:	0f000401 	movi	v1.2s, #0x0
    2328:	1e211820 	fdiv	s0, s1, s1
    232c:	d53b4421 	mrs	x1, fpsr
    2330:	360800a0 	tbz	w0, #1, 2344 <__sfp_handle_exceptions+0x24>
    2334:	1e2e1001 	fmov	s1, #1.000000000000000000e+00
    2338:	0f000402 	movi	v2.2s, #0x0
    233c:	1e221820 	fdiv	s0, s1, s2
    2340:	d53b4421 	mrs	x1, fpsr
    2344:	36100100 	tbz	w0, #2, 2364 <__sfp_handle_exceptions+0x44>
    2348:	5298b5c2 	mov	w2, #0xc5ae                	// #50606
    234c:	12b01001 	mov	w1, #0x7f7fffff            	// #2139095039
    2350:	72ae93a2 	movk	w2, #0x749d, lsl #16
    2354:	1e270021 	fmov	s1, w1
    2358:	1e270042 	fmov	s2, w2
    235c:	1e222820 	fadd	s0, s1, s2
    2360:	d53b4421 	mrs	x1, fpsr
    2364:	36180080 	tbz	w0, #3, 2374 <__sfp_handle_exceptions+0x54>
    2368:	0f044401 	movi	v1.2s, #0x80, lsl #16
    236c:	1e210820 	fmul	s0, s1, s1
    2370:	d53b4421 	mrs	x1, fpsr
    2374:	362000c0 	tbz	w0, #4, 238c <__sfp_handle_exceptions+0x6c>
    2378:	12b01000 	mov	w0, #0x7f7fffff            	// #2139095039
    237c:	1e2e1002 	fmov	s2, #1.000000000000000000e+00
    2380:	1e270001 	fmov	s1, w0
    2384:	1e223820 	fsub	s0, s1, s2
    2388:	d53b4420 	mrs	x0, fpsr
    238c:	d65f03c0 	ret

0000000000002390 <TA_CreateEntryPoint>:
    2390:	52800000 	mov	w0, #0x0                   	// #0
    2394:	d65f03c0 	ret

0000000000002398 <TA_DestroyEntryPoint>:
    2398:	d65f03c0 	ret

000000000000239c <TA_OpenSessionEntryPoint>:
    239c:	a9be7bfd 	stp	x29, x30, [sp, #-32]!
    23a0:	910003fd 	mov	x29, sp
    23a4:	f9000bf3 	str	x19, [sp, #16]
    23a8:	350001c0 	cbnz	w0, 23e0 <TA_OpenSessionEntryPoint+0x44>
    23ac:	2a0003f3 	mov	w19, w0
    23b0:	d0000064 	adrp	x4, 10000 <__text_end+0x1600>
    23b4:	d0000060 	adrp	x0, 10000 <__text_end+0x1600>
    23b8:	91286084 	add	x4, x4, #0xa18
    23bc:	912bcc00 	add	x0, x0, #0xaf3
    23c0:	52800023 	mov	w3, #0x1                   	// #1
    23c4:	52800042 	mov	w2, #0x2                   	// #2
    23c8:	52800aa1 	mov	w1, #0x55                  	// #85
    23cc:	94000ac9 	bl	4ef0 <trace_printf>
    23d0:	2a1303e0 	mov	w0, w19
    23d4:	f9400bf3 	ldr	x19, [sp, #16]
    23d8:	a8c27bfd 	ldp	x29, x30, [sp], #32
    23dc:	d65f03c0 	ret
    23e0:	129fff33 	mov	w19, #0xffff0006            	// #-65530
    23e4:	17fffffb 	b	23d0 <TA_OpenSessionEntryPoint+0x34>

00000000000023e8 <TA_CloseSessionEntryPoint>:
    23e8:	d0000060 	adrp	x0, 10000 <__text_end+0x1600>
    23ec:	912bcc00 	add	x0, x0, #0xaf3
    23f0:	91006400 	add	x0, x0, #0x19
    23f4:	d0000064 	adrp	x4, 10000 <__text_end+0x1600>
    23f8:	52800023 	mov	w3, #0x1                   	// #1
    23fc:	91289884 	add	x4, x4, #0xa26
    2400:	52800042 	mov	w2, #0x2                   	// #2
    2404:	52800c41 	mov	w1, #0x62                  	// #98
    2408:	14000aba 	b	4ef0 <trace_printf>

000000000000240c <TA_InvokeCommandEntryPoint>:
    240c:	a9b57bfd 	stp	x29, x30, [sp, #-176]!
    2410:	910003fd 	mov	x29, sp
    2414:	a90153f3 	stp	x19, x20, [sp, #16]
    2418:	2a0103f3 	mov	w19, w1
    241c:	aa0303f4 	mov	x20, x3
    2420:	a9025bf5 	stp	x21, x22, [sp, #32]
    2424:	2a0203f6 	mov	w22, w2
    2428:	a90363f7 	stp	x23, x24, [sp, #48]
    242c:	340000a1 	cbz	w1, 2440 <TA_InvokeCommandEntryPoint+0x34>
    2430:	7100043f 	cmp	w1, #0x1
    2434:	54000a60 	b.eq	2580 <TA_InvokeCommandEntryPoint+0x174>  // b.none
    2438:	129fff20 	mov	w0, #0xffff0006            	// #-65530
    243c:	14000046 	b	2554 <TA_InvokeCommandEntryPoint+0x148>
    2440:	d0000060 	adrp	x0, 10000 <__text_end+0x1600>
    2444:	9128c000 	add	x0, x0, #0xa30
    2448:	9400018b 	bl	2a74 <puts>
    244c:	71000edf 	cmp	w22, #0x3
    2450:	54000941 	b.ne	2578 <TA_InvokeCommandEntryPoint+0x16c>  // b.any
    2454:	d2800c82 	mov	x2, #0x64                  	// #100
    2458:	910123f8 	add	x24, sp, #0x48
    245c:	52800001 	mov	w1, #0x0                   	// #0
    2460:	aa1803e0 	mov	x0, x24
    2464:	9400096a 	bl	4a0c <memset>
    2468:	d0000075 	adrp	x21, 10000 <__text_end+0x1600>
    246c:	d0000061 	adrp	x1, 10000 <__text_end+0x1600>
    2470:	d0000060 	adrp	x0, 10000 <__text_end+0x1600>
    2474:	9128d421 	add	x1, x1, #0xa35
    2478:	9128dc00 	add	x0, x0, #0xa37
    247c:	940000e1 	bl	2800 <fopen>
    2480:	aa0003f7 	mov	x23, x0
    2484:	b4000720 	cbz	x0, 2568 <TA_InvokeCommandEntryPoint+0x15c>
    2488:	aa0003e3 	mov	x3, x0
    248c:	d2800142 	mov	x2, #0xa                   	// #10
    2490:	d2800021 	mov	x1, #0x1                   	// #1
    2494:	aa1803e0 	mov	x0, x24
    2498:	94000109 	bl	28bc <fread>
    249c:	aa1803e1 	mov	x1, x24
    24a0:	d0000060 	adrp	x0, 10000 <__text_end+0x1600>
    24a4:	91292800 	add	x0, x0, #0xa4a
    24a8:	94000151 	bl	29ec <printf>
    24ac:	aa1803e5 	mov	x5, x24
    24b0:	2a1603e2 	mov	w2, w22
    24b4:	d0000064 	adrp	x4, 10000 <__text_end+0x1600>
    24b8:	91298884 	add	x4, x4, #0xa62
    24bc:	912bcea0 	add	x0, x21, #0xaf3
    24c0:	52800023 	mov	w3, #0x1                   	// #1
    24c4:	52800f21 	mov	w1, #0x79                  	// #121
    24c8:	9100cc00 	add	x0, x0, #0x33
    24cc:	94000a89 	bl	4ef0 <trace_printf>
    24d0:	aa1703e0 	mov	x0, x23
    24d4:	9400004c 	bl	2604 <fclose>
    24d8:	912bceb5 	add	x21, x21, #0xaf3
    24dc:	d0000060 	adrp	x0, 10000 <__text_end+0x1600>
    24e0:	9100ceb5 	add	x21, x21, #0x33
    24e4:	912a3000 	add	x0, x0, #0xa8c
    24e8:	94000163 	bl	2a74 <puts>
    24ec:	aa1503e0 	mov	x0, x21
    24f0:	52800023 	mov	w3, #0x1                   	// #1
    24f4:	52800062 	mov	w2, #0x3                   	// #3
    24f8:	52801021 	mov	w1, #0x81                  	// #129
    24fc:	d0000064 	adrp	x4, 10000 <__text_end+0x1600>
    2500:	912a8484 	add	x4, x4, #0xaa1
    2504:	94000a7b 	bl	4ef0 <trace_printf>
    2508:	b9400285 	ldr	w5, [x20]
    250c:	aa1503e0 	mov	x0, x21
    2510:	52800023 	mov	w3, #0x1                   	// #1
    2514:	52800042 	mov	w2, #0x2                   	// #2
    2518:	52801061 	mov	w1, #0x83                  	// #131
    251c:	d0000064 	adrp	x4, 10000 <__text_end+0x1600>
    2520:	912ac484 	add	x4, x4, #0xab1
    2524:	94000a73 	bl	4ef0 <trace_printf>
    2528:	b9400285 	ldr	w5, [x20]
    252c:	d0000064 	adrp	x4, 10000 <__text_end+0x1600>
    2530:	aa1503e0 	mov	x0, x21
    2534:	912b1c84 	add	x4, x4, #0xac7
    2538:	110004a5 	add	w5, w5, #0x1
    253c:	b9000285 	str	w5, [x20]
    2540:	52800023 	mov	w3, #0x1                   	// #1
    2544:	52800042 	mov	w2, #0x2                   	// #2
    2548:	528010a1 	mov	w1, #0x85                  	// #133
    254c:	94000a69 	bl	4ef0 <trace_printf>
    2550:	2a1303e0 	mov	w0, w19
    2554:	a94153f3 	ldp	x19, x20, [sp, #16]
    2558:	a9425bf5 	ldp	x21, x22, [sp, #32]
    255c:	a94363f7 	ldp	x23, x24, [sp, #48]
    2560:	a8cb7bfd 	ldp	x29, x30, [sp], #176
    2564:	d65f03c0 	ret
    2568:	d0000060 	adrp	x0, 10000 <__text_end+0x1600>
    256c:	9129d800 	add	x0, x0, #0xa76
    2570:	94000141 	bl	2a74 <puts>
    2574:	17ffffd9 	b	24d8 <TA_InvokeCommandEntryPoint+0xcc>
    2578:	129fff33 	mov	w19, #0xffff0006            	// #-65530
    257c:	17fffff5 	b	2550 <TA_InvokeCommandEntryPoint+0x144>
    2580:	71000c5f 	cmp	w2, #0x3
    2584:	54fff5a1 	b.ne	2438 <TA_InvokeCommandEntryPoint+0x2c>  // b.any
    2588:	b9400285 	ldr	w5, [x20]
    258c:	d0000075 	adrp	x21, 10000 <__text_end+0x1600>
    2590:	912bceb5 	add	x21, x21, #0xaf3
    2594:	2a0103e3 	mov	w3, w1
    2598:	9100f6b5 	add	x21, x21, #0x3d
    259c:	52800042 	mov	w2, #0x2                   	// #2
    25a0:	aa1503e0 	mov	x0, x21
    25a4:	528012e1 	mov	w1, #0x97                  	// #151
    25a8:	d0000064 	adrp	x4, 10000 <__text_end+0x1600>
    25ac:	912ac484 	add	x4, x4, #0xab1
    25b0:	94000a50 	bl	4ef0 <trace_printf>
    25b4:	b9400285 	ldr	w5, [x20]
    25b8:	aa1503e0 	mov	x0, x21
    25bc:	2a1303e3 	mov	w3, w19
    25c0:	d0000064 	adrp	x4, 10000 <__text_end+0x1600>
    25c4:	510004a5 	sub	w5, w5, #0x1
    25c8:	b9000285 	str	w5, [x20]
    25cc:	912b7484 	add	x4, x4, #0xadd
    25d0:	52800042 	mov	w2, #0x2                   	// #2
    25d4:	52801321 	mov	w1, #0x99                  	// #153
    25d8:	94000a46 	bl	4ef0 <trace_printf>
    25dc:	52800000 	mov	w0, #0x0                   	// #0
    25e0:	17ffffdd 	b	2554 <TA_InvokeCommandEntryPoint+0x148>

00000000000025e4 <__ta_entry>:
    25e4:	a9bf7bfd 	stp	x29, x30, [sp, #-16]!
    25e8:	910003fd 	mov	x29, sp
    25ec:	9400156a 	bl	7b94 <__utee_entry>
    25f0:	2a0003e0 	mov	w0, w0
    25f4:	94001397 	bl	7450 <_utee_return>

00000000000025f8 <tahead_get_trace_level>:
    25f8:	52800080 	mov	w0, #0x4                   	// #4
    25fc:	d65f03c0 	ret

0000000000002600 <__unlist_locked_file>:
    2600:	d65f03c0 	ret

0000000000002604 <fclose>:
    2604:	a9be53f3 	stp	x19, x20, [sp, #-32]!
    2608:	aa0003f3 	mov	x19, x0
    260c:	b9408c01 	ldr	w1, [x0, #140]
    2610:	a9017bf5 	stp	x21, x30, [sp, #16]
    2614:	37f804c1 	tbnz	w1, #31, 26ac <fclose+0xa8>
    2618:	94000b4c 	bl	5348 <__lockfile>
    261c:	2a0003f5 	mov	w21, w0
    2620:	aa1303e0 	mov	x0, x19
    2624:	94000024 	bl	26b4 <fflush>
    2628:	f9400e61 	ldr	x1, [x19, #24]
    262c:	2a0003f4 	mov	w20, w0
    2630:	aa1303e0 	mov	x0, x19
    2634:	d63f0020 	blr	x1
    2638:	2a000294 	orr	w20, w20, w0
    263c:	34000075 	cbz	w21, 2648 <fclose+0x44>
    2640:	aa1303e0 	mov	x0, x19
    2644:	94000b76 	bl	541c <__unlockfile>
    2648:	b9400260 	ldr	w0, [x19]
    264c:	37000280 	tbnz	w0, #0, 269c <fclose+0x98>
    2650:	aa1303e0 	mov	x0, x19
    2654:	97ffffeb 	bl	2600 <__unlist_locked_file>
    2658:	940000da 	bl	29c0 <__ofl_lock>
    265c:	f9403662 	ldr	x2, [x19, #104]
    2660:	b4000062 	cbz	x2, 266c <fclose+0x68>
    2664:	f9403a61 	ldr	x1, [x19, #112]
    2668:	f9003841 	str	x1, [x2, #112]
    266c:	f9403a61 	ldr	x1, [x19, #112]
    2670:	b4000041 	cbz	x1, 2678 <fclose+0x74>
    2674:	f9003422 	str	x2, [x1, #104]
    2678:	f9400002 	ldr	x2, [x0]
    267c:	eb13005f 	cmp	x2, x19
    2680:	54000041 	b.ne	2688 <fclose+0x84>  // b.any
    2684:	f9000001 	str	x1, [x0]
    2688:	940000d6 	bl	29e0 <__ofl_unlock>
    268c:	f9405660 	ldr	x0, [x19, #168]
    2690:	94000a5a 	bl	4ff8 <free>
    2694:	aa1303e0 	mov	x0, x19
    2698:	94000a58 	bl	4ff8 <free>
    269c:	2a1403e0 	mov	w0, w20
    26a0:	a9417bf5 	ldp	x21, x30, [sp, #16]
    26a4:	a8c253f3 	ldp	x19, x20, [sp], #32
    26a8:	d65f03c0 	ret
    26ac:	52800015 	mov	w21, #0x0                   	// #0
    26b0:	17ffffdc 	b	2620 <fclose+0x1c>

00000000000026b4 <fflush>:
    26b4:	a9be53f3 	stp	x19, x20, [sp, #-32]!
    26b8:	a9017bf5 	stp	x21, x30, [sp, #16]
    26bc:	b5000540 	cbnz	x0, 2764 <fflush+0xb0>
    26c0:	b0000080 	adrp	x0, 13000 <_DYNAMIC>
    26c4:	f9428c01 	ldr	x1, [x0, #1304]
    26c8:	b4000241 	cbz	x1, 2710 <fflush+0x5c>
    26cc:	f9428c00 	ldr	x0, [x0, #1304]
    26d0:	97fffff9 	bl	26b4 <fflush>
    26d4:	2a0003f4 	mov	w20, w0
    26d8:	b0000080 	adrp	x0, 13000 <_DYNAMIC>
    26dc:	f9434c01 	ldr	x1, [x0, #1688]
    26e0:	b4000081 	cbz	x1, 26f0 <fflush+0x3c>
    26e4:	f9434c00 	ldr	x0, [x0, #1688]
    26e8:	97fffff3 	bl	26b4 <fflush>
    26ec:	2a000294 	orr	w20, w20, w0
    26f0:	940000b4 	bl	29c0 <__ofl_lock>
    26f4:	f9400013 	ldr	x19, [x0]
    26f8:	b5000113 	cbnz	x19, 2718 <fflush+0x64>
    26fc:	940000b9 	bl	29e0 <__ofl_unlock>
    2700:	2a1403e0 	mov	w0, w20
    2704:	a9417bf5 	ldp	x21, x30, [sp, #16]
    2708:	a8c253f3 	ldp	x19, x20, [sp], #32
    270c:	d65f03c0 	ret
    2710:	52800014 	mov	w20, #0x0                   	// #0
    2714:	17fffff1 	b	26d8 <fflush+0x24>
    2718:	b9408e60 	ldr	w0, [x19, #140]
    271c:	37f80200 	tbnz	w0, #31, 275c <fflush+0xa8>
    2720:	aa1303e0 	mov	x0, x19
    2724:	94000b09 	bl	5348 <__lockfile>
    2728:	2a0003f5 	mov	w21, w0
    272c:	f9401661 	ldr	x1, [x19, #40]
    2730:	f9401e60 	ldr	x0, [x19, #56]
    2734:	eb00003f 	cmp	x1, x0
    2738:	54000080 	b.eq	2748 <fflush+0x94>  // b.none
    273c:	aa1303e0 	mov	x0, x19
    2740:	97ffffdd 	bl	26b4 <fflush>
    2744:	2a000294 	orr	w20, w20, w0
    2748:	34000075 	cbz	w21, 2754 <fflush+0xa0>
    274c:	aa1303e0 	mov	x0, x19
    2750:	94000b33 	bl	541c <__unlockfile>
    2754:	f9403a73 	ldr	x19, [x19, #112]
    2758:	17ffffe8 	b	26f8 <fflush+0x44>
    275c:	52800015 	mov	w21, #0x0                   	// #0
    2760:	17fffff3 	b	272c <fflush+0x78>
    2764:	b9408c01 	ldr	w1, [x0, #140]
    2768:	aa0003f3 	mov	x19, x0
    276c:	37f80261 	tbnz	w1, #31, 27b8 <fflush+0x104>
    2770:	94000af6 	bl	5348 <__lockfile>
    2774:	2a0003f4 	mov	w20, w0
    2778:	f9401661 	ldr	x1, [x19, #40]
    277c:	f9401e60 	ldr	x0, [x19, #56]
    2780:	eb00003f 	cmp	x1, x0
    2784:	540001e0 	b.eq	27c0 <fflush+0x10c>  // b.none
    2788:	f9402663 	ldr	x3, [x19, #72]
    278c:	aa1303e0 	mov	x0, x19
    2790:	d2800002 	mov	x2, #0x0                   	// #0
    2794:	d2800001 	mov	x1, #0x0                   	// #0
    2798:	d63f0060 	blr	x3
    279c:	f9401660 	ldr	x0, [x19, #40]
    27a0:	b5000100 	cbnz	x0, 27c0 <fflush+0x10c>
    27a4:	34000074 	cbz	w20, 27b0 <fflush+0xfc>
    27a8:	aa1303e0 	mov	x0, x19
    27ac:	94000b1c 	bl	541c <__unlockfile>
    27b0:	12800014 	mov	w20, #0xffffffff            	// #-1
    27b4:	17ffffd3 	b	2700 <fflush+0x4c>
    27b8:	52800014 	mov	w20, #0x0                   	// #0
    27bc:	17ffffef 	b	2778 <fflush+0xc4>
    27c0:	a9408261 	ldp	x1, x0, [x19, #8]
    27c4:	eb00003f 	cmp	x1, x0
    27c8:	540000c0 	b.eq	27e0 <fflush+0x12c>  // b.none
    27cc:	f9402a63 	ldr	x3, [x19, #80]
    27d0:	cb000021 	sub	x1, x1, x0
    27d4:	52800022 	mov	w2, #0x1                   	// #1
    27d8:	aa1303e0 	mov	x0, x19
    27dc:	d63f0060 	blr	x3
    27e0:	a900fe7f 	stp	xzr, xzr, [x19, #8]
    27e4:	a9027e7f 	stp	xzr, xzr, [x19, #32]
    27e8:	f9001e7f 	str	xzr, [x19, #56]
    27ec:	34fff8b4 	cbz	w20, 2700 <fflush+0x4c>
    27f0:	aa1303e0 	mov	x0, x19
    27f4:	52800014 	mov	w20, #0x0                   	// #0
    27f8:	94000b09 	bl	541c <__unlockfile>
    27fc:	17ffffc1 	b	2700 <fflush+0x4c>

0000000000002800 <fopen>:
    2800:	a9be53f3 	stp	x19, x20, [sp, #-32]!
    2804:	aa0003f4 	mov	x20, x0
    2808:	d0000060 	adrp	x0, 10000 <__text_end+0x1600>
    280c:	a9017bf5 	stp	x21, x30, [sp, #16]
    2810:	aa0103f5 	mov	x21, x1
    2814:	91318800 	add	x0, x0, #0xc62
    2818:	39400021 	ldrb	w1, [x1]
    281c:	940008b1 	bl	4ae0 <strchr>
    2820:	b5000120 	cbnz	x0, 2844 <fopen+0x44>
    2824:	aa0003f3 	mov	x19, x0
    2828:	940009d1 	bl	4f6c <__errno_location>
    282c:	528002c1 	mov	w1, #0x16                  	// #22
    2830:	b9000001 	str	w1, [x0]
    2834:	aa1303e0 	mov	x0, x19
    2838:	a9417bf5 	ldp	x21, x30, [sp, #16]
    283c:	a8c253f3 	ldp	x19, x20, [sp], #32
    2840:	d65f03c0 	ret
    2844:	aa1503e0 	mov	x0, x21
    2848:	94000a9a 	bl	52b0 <__fmodeflags>
    284c:	320f0003 	orr	w3, w0, #0x20000
    2850:	aa1403e2 	mov	x2, x20
    2854:	d28036c4 	mov	x4, #0x1b6                 	// #438
    2858:	92800c61 	mov	x1, #0xffffffffffffff9c    	// #-100
    285c:	93407c63 	sxtw	x3, w3
    2860:	2a0003f3 	mov	w19, w0
    2864:	d2800700 	mov	x0, #0x38                  	// #56
    2868:	94001266 	bl	7200 <__syscall4>
    286c:	940009d2 	bl	4fb4 <__syscall_ret>
    2870:	aa0003f4 	mov	x20, x0
    2874:	37f80200 	tbnz	w0, #31, 28b4 <fopen+0xb4>
    2878:	369800d3 	tbz	w19, #19, 2890 <fopen+0x90>
    287c:	93407c01 	sxtw	x1, w0
    2880:	d2800023 	mov	x3, #0x1                   	// #1
    2884:	d2800042 	mov	x2, #0x2                   	// #2
    2888:	d2800320 	mov	x0, #0x19                  	// #25
    288c:	94001259 	bl	71f0 <__syscall3>
    2890:	aa1503e1 	mov	x1, x21
    2894:	2a1403e0 	mov	w0, w20
    2898:	94000a23 	bl	5124 <fdopen>
    289c:	aa0003f3 	mov	x19, x0
    28a0:	b5fffca0 	cbnz	x0, 2834 <fopen+0x34>
    28a4:	93407e81 	sxtw	x1, w20
    28a8:	d2800720 	mov	x0, #0x39                  	// #57
    28ac:	94001246 	bl	71c4 <__syscall1>
    28b0:	17ffffe1 	b	2834 <fopen+0x34>
    28b4:	d2800013 	mov	x19, #0x0                   	// #0
    28b8:	17ffffdf 	b	2834 <fopen+0x34>

00000000000028bc <fread>:
    28bc:	a9bc53f3 	stp	x19, x20, [sp, #-64]!
    28c0:	f100003f 	cmp	x1, #0x0
    28c4:	aa0303f4 	mov	x20, x3
    28c8:	a9015bf5 	stp	x21, x22, [sp, #16]
    28cc:	aa0003f5 	mov	x21, x0
    28d0:	b9408c60 	ldr	w0, [x3, #140]
    28d4:	a90263f7 	stp	x23, x24, [sp, #32]
    28d8:	9a9f1056 	csel	x22, x2, xzr, ne  // ne = any
    28dc:	aa0103f7 	mov	x23, x1
    28e0:	a9037bf9 	stp	x25, x30, [sp, #48]
    28e4:	9b027c39 	mul	x25, x1, x2
    28e8:	37f80360 	tbnz	w0, #31, 2954 <fread+0x98>
    28ec:	aa0303e0 	mov	x0, x3
    28f0:	94000a96 	bl	5348 <__lockfile>
    28f4:	2a0003f8 	mov	w24, w0
    28f8:	b9408a81 	ldr	w1, [x20, #136]
    28fc:	51000420 	sub	w0, w1, #0x1
    2900:	2a010000 	orr	w0, w0, w1
    2904:	b9008a80 	str	w0, [x20, #136]
    2908:	a940ce81 	ldp	x1, x19, [x20, #8]
    290c:	eb13003f 	cmp	x1, x19
    2910:	54000260 	b.eq	295c <fread+0xa0>  // b.none
    2914:	cb010273 	sub	x19, x19, x1
    2918:	aa1503e0 	mov	x0, x21
    291c:	eb19027f 	cmp	x19, x25
    2920:	9a999273 	csel	x19, x19, x25, ls  // ls = plast
    2924:	aa1303e2 	mov	x2, x19
    2928:	8b1302b5 	add	x21, x21, x19
    292c:	9400074f 	bl	4668 <memcpy>
    2930:	f9400680 	ldr	x0, [x20, #8]
    2934:	8b130000 	add	x0, x0, x19
    2938:	cb130333 	sub	x19, x25, x19
    293c:	f9000680 	str	x0, [x20, #8]
    2940:	b5000133 	cbnz	x19, 2964 <fread+0xa8>
    2944:	34000218 	cbz	w24, 2984 <fread+0xc8>
    2948:	aa1403e0 	mov	x0, x20
    294c:	94000ab4 	bl	541c <__unlockfile>
    2950:	1400000d 	b	2984 <fread+0xc8>
    2954:	52800018 	mov	w24, #0x0                   	// #0
    2958:	17ffffe8 	b	28f8 <fread+0x3c>
    295c:	aa1903f3 	mov	x19, x25
    2960:	17fffff8 	b	2940 <fread+0x84>
    2964:	aa1403e0 	mov	x0, x20
    2968:	94000b71 	bl	572c <__toread>
    296c:	34000180 	cbz	w0, 299c <fread+0xe0>
    2970:	34000078 	cbz	w24, 297c <fread+0xc0>
    2974:	aa1403e0 	mov	x0, x20
    2978:	94000aa9 	bl	541c <__unlockfile>
    297c:	cb130322 	sub	x2, x25, x19
    2980:	9ad70856 	udiv	x22, x2, x23
    2984:	aa1603e0 	mov	x0, x22
    2988:	a9415bf5 	ldp	x21, x22, [sp, #16]
    298c:	a94263f7 	ldp	x23, x24, [sp, #32]
    2990:	a9437bf9 	ldp	x25, x30, [sp, #48]
    2994:	a8c453f3 	ldp	x19, x20, [sp], #64
    2998:	d65f03c0 	ret
    299c:	f9402283 	ldr	x3, [x20, #64]
    29a0:	aa1303e2 	mov	x2, x19
    29a4:	aa1503e1 	mov	x1, x21
    29a8:	aa1403e0 	mov	x0, x20
    29ac:	d63f0060 	blr	x3
    29b0:	b4fffe00 	cbz	x0, 2970 <fread+0xb4>
    29b4:	cb000273 	sub	x19, x19, x0
    29b8:	8b0002b5 	add	x21, x21, x0
    29bc:	17ffffe1 	b	2940 <fread+0x84>

00000000000029c0 <__ofl_lock>:
    29c0:	f81f0ffe 	str	x30, [sp, #-16]!
    29c4:	900000a0 	adrp	x0, 16000 <data.4829+0x2800>
    29c8:	9126a000 	add	x0, x0, #0x9a8
    29cc:	94000896 	bl	4c24 <__lock>
    29d0:	b0000080 	adrp	x0, 13000 <_DYNAMIC>
    29d4:	911ba000 	add	x0, x0, #0x6e8
    29d8:	f84107fe 	ldr	x30, [sp], #16
    29dc:	d65f03c0 	ret

00000000000029e0 <__ofl_unlock>:
    29e0:	900000a0 	adrp	x0, 16000 <data.4829+0x2800>
    29e4:	9126a000 	add	x0, x0, #0x9a8
    29e8:	140008d9 	b	4d4c <__unlock>

00000000000029ec <printf>:
    29ec:	d10443ff 	sub	sp, sp, #0x110
    29f0:	a90d8be1 	stp	x1, x2, [sp, #216]
    29f4:	910443e1 	add	x1, sp, #0x110
    29f8:	a90307e1 	stp	x1, x1, [sp, #48]
    29fc:	910343e1 	add	x1, sp, #0xd0
    2a00:	f90023e1 	str	x1, [sp, #64]
    2a04:	128006e1 	mov	w1, #0xffffffc8            	// #-56
    2a08:	b9004be1 	str	w1, [sp, #72]
    2a0c:	12800fe1 	mov	w1, #0xffffff80            	// #-128
    2a10:	b9004fe1 	str	w1, [sp, #76]
    2a14:	aa0003e1 	mov	x1, x0
    2a18:	a90e93e3 	stp	x3, x4, [sp, #232]
    2a1c:	b0000080 	adrp	x0, 13000 <_DYNAMIC>
    2a20:	9110c000 	add	x0, x0, #0x430
    2a24:	a9430fe2 	ldp	x2, x3, [sp, #48]
    2a28:	a9010fe2 	stp	x2, x3, [sp, #16]
    2a2c:	a9440fe2 	ldp	x2, x3, [sp, #64]
    2a30:	f90003fe 	str	x30, [sp]
    2a34:	a9020fe2 	stp	x2, x3, [sp, #32]
    2a38:	910043e2 	add	x2, sp, #0x10
    2a3c:	3d8017e0 	str	q0, [sp, #80]
    2a40:	3d801be1 	str	q1, [sp, #96]
    2a44:	3d801fe2 	str	q2, [sp, #112]
    2a48:	3d8023e3 	str	q3, [sp, #128]
    2a4c:	3d8027e4 	str	q4, [sp, #144]
    2a50:	3d802be5 	str	q5, [sp, #160]
    2a54:	3d802fe6 	str	q6, [sp, #176]
    2a58:	3d8033e7 	str	q7, [sp, #192]
    2a5c:	a90f9be5 	stp	x5, x6, [sp, #248]
    2a60:	f90087e7 	str	x7, [sp, #264]
    2a64:	940006a5 	bl	44f8 <vfprintf>
    2a68:	f94003fe 	ldr	x30, [sp]
    2a6c:	910443ff 	add	sp, sp, #0x110
    2a70:	d65f03c0 	ret

0000000000002a74 <puts>:
    2a74:	a9bd53f3 	stp	x19, x20, [sp, #-48]!
    2a78:	b0000094 	adrp	x20, 13000 <_DYNAMIC>
    2a7c:	a9015bf5 	stp	x21, x22, [sp, #16]
    2a80:	aa0003f6 	mov	x22, x0
    2a84:	9110c280 	add	x0, x20, #0x430
    2a88:	b9408c01 	ldr	w1, [x0, #140]
    2a8c:	f90013fe 	str	x30, [sp, #32]
    2a90:	37f80381 	tbnz	w1, #31, 2b00 <puts+0x8c>
    2a94:	94000a2d 	bl	5348 <__lockfile>
    2a98:	2a0003f5 	mov	w21, w0
    2a9c:	9110c293 	add	x19, x20, #0x430
    2aa0:	aa1603e0 	mov	x0, x22
    2aa4:	aa1303e1 	mov	x1, x19
    2aa8:	94000b51 	bl	57ec <fputs>
    2aac:	37f80380 	tbnz	w0, #31, 2b1c <puts+0xa8>
    2ab0:	b9409260 	ldr	w0, [x19, #144]
    2ab4:	7100281f 	cmp	w0, #0xa
    2ab8:	54000280 	b.eq	2b08 <puts+0x94>  // b.none
    2abc:	a9420261 	ldp	x1, x0, [x19, #32]
    2ac0:	eb01001f 	cmp	x0, x1
    2ac4:	54000220 	b.eq	2b08 <puts+0x94>  // b.none
    2ac8:	91000401 	add	x1, x0, #0x1
    2acc:	f9001661 	str	x1, [x19, #40]
    2ad0:	52800141 	mov	w1, #0xa                   	// #10
    2ad4:	39000001 	strb	w1, [x0]
    2ad8:	52800001 	mov	w1, #0x0                   	// #0
    2adc:	4b0103f3 	neg	w19, w1
    2ae0:	34000075 	cbz	w21, 2aec <puts+0x78>
    2ae4:	9110c280 	add	x0, x20, #0x430
    2ae8:	94000a4d 	bl	541c <__unlockfile>
    2aec:	2a1303e0 	mov	w0, w19
    2af0:	a9415bf5 	ldp	x21, x22, [sp, #16]
    2af4:	f94013fe 	ldr	x30, [sp, #32]
    2af8:	a8c353f3 	ldp	x19, x20, [sp], #48
    2afc:	d65f03c0 	ret
    2b00:	52800015 	mov	w21, #0x0                   	// #0
    2b04:	17ffffe6 	b	2a9c <puts+0x28>
    2b08:	52800141 	mov	w1, #0xa                   	// #10
    2b0c:	9110c280 	add	x0, x20, #0x430
    2b10:	94000a59 	bl	5474 <__overflow>
    2b14:	531f7c01 	lsr	w1, w0, #31
    2b18:	17fffff1 	b	2adc <puts+0x68>
    2b1c:	52800021 	mov	w1, #0x1                   	// #1
    2b20:	17ffffef 	b	2adc <puts+0x68>

0000000000002b24 <pop_arg>:
    2b24:	51002421 	sub	w1, w1, #0x9
    2b28:	7100443f 	cmp	w1, #0x11
    2b2c:	540011a8 	b.hi	2d60 <pop_arg+0x23c>  // b.pmore
    2b30:	a9bf7bf3 	stp	x19, x30, [sp, #-16]!
    2b34:	aa0003f3 	mov	x19, x0
    2b38:	d0000060 	adrp	x0, 10000 <__text_end+0x1600>
    2b3c:	9115e000 	add	x0, x0, #0x578
    2b40:	f9400043 	ldr	x3, [x2]
    2b44:	38614800 	ldrb	w0, [x0, w1, uxtw]
    2b48:	10000061 	adr	x1, 2b54 <pop_arg+0x30>
    2b4c:	8b208820 	add	x0, x1, w0, sxtb #2
    2b50:	d61f0000 	br	x0
    2b54:	b9401840 	ldr	w0, [x2, #24]
    2b58:	37f80100 	tbnz	w0, #31, 2b78 <pop_arg+0x54>
    2b5c:	91002c60 	add	x0, x3, #0xb
    2b60:	927df000 	and	x0, x0, #0xfffffffffffffff8
    2b64:	f9000040 	str	x0, [x2]
    2b68:	b9800060 	ldrsw	x0, [x3]
    2b6c:	f9000260 	str	x0, [x19]
    2b70:	a8c17bf3 	ldp	x19, x30, [sp], #16
    2b74:	d65f03c0 	ret
    2b78:	11002001 	add	w1, w0, #0x8
    2b7c:	b9001841 	str	w1, [x2, #24]
    2b80:	7100003f 	cmp	w1, #0x0
    2b84:	54fffecc 	b.gt	2b5c <pop_arg+0x38>
    2b88:	f9400443 	ldr	x3, [x2, #8]
    2b8c:	8b20c063 	add	x3, x3, w0, sxtw
    2b90:	17fffff6 	b	2b68 <pop_arg+0x44>
    2b94:	b9401840 	ldr	w0, [x2, #24]
    2b98:	37f800c0 	tbnz	w0, #31, 2bb0 <pop_arg+0x8c>
    2b9c:	91002c60 	add	x0, x3, #0xb
    2ba0:	927df000 	and	x0, x0, #0xfffffffffffffff8
    2ba4:	f9000040 	str	x0, [x2]
    2ba8:	b9400060 	ldr	w0, [x3]
    2bac:	17fffff0 	b	2b6c <pop_arg+0x48>
    2bb0:	11002001 	add	w1, w0, #0x8
    2bb4:	b9001841 	str	w1, [x2, #24]
    2bb8:	7100003f 	cmp	w1, #0x0
    2bbc:	54ffff0c 	b.gt	2b9c <pop_arg+0x78>
    2bc0:	f9400443 	ldr	x3, [x2, #8]
    2bc4:	8b20c063 	add	x3, x3, w0, sxtw
    2bc8:	17fffff8 	b	2ba8 <pop_arg+0x84>
    2bcc:	b9401840 	ldr	w0, [x2, #24]
    2bd0:	37f800c0 	tbnz	w0, #31, 2be8 <pop_arg+0xc4>
    2bd4:	91002c60 	add	x0, x3, #0xb
    2bd8:	927df000 	and	x0, x0, #0xfffffffffffffff8
    2bdc:	f9000040 	str	x0, [x2]
    2be0:	79800060 	ldrsh	x0, [x3]
    2be4:	17ffffe2 	b	2b6c <pop_arg+0x48>
    2be8:	11002001 	add	w1, w0, #0x8
    2bec:	b9001841 	str	w1, [x2, #24]
    2bf0:	7100003f 	cmp	w1, #0x0
    2bf4:	54ffff0c 	b.gt	2bd4 <pop_arg+0xb0>
    2bf8:	f9400443 	ldr	x3, [x2, #8]
    2bfc:	8b20c063 	add	x3, x3, w0, sxtw
    2c00:	17fffff8 	b	2be0 <pop_arg+0xbc>
    2c04:	b9401840 	ldr	w0, [x2, #24]
    2c08:	37f800c0 	tbnz	w0, #31, 2c20 <pop_arg+0xfc>
    2c0c:	91002c60 	add	x0, x3, #0xb
    2c10:	927df000 	and	x0, x0, #0xfffffffffffffff8
    2c14:	f9000040 	str	x0, [x2]
    2c18:	79400060 	ldrh	w0, [x3]
    2c1c:	17ffffd4 	b	2b6c <pop_arg+0x48>
    2c20:	11002001 	add	w1, w0, #0x8
    2c24:	b9001841 	str	w1, [x2, #24]
    2c28:	7100003f 	cmp	w1, #0x0
    2c2c:	54ffff0c 	b.gt	2c0c <pop_arg+0xe8>
    2c30:	f9400443 	ldr	x3, [x2, #8]
    2c34:	8b20c063 	add	x3, x3, w0, sxtw
    2c38:	17fffff8 	b	2c18 <pop_arg+0xf4>
    2c3c:	b9401840 	ldr	w0, [x2, #24]
    2c40:	37f800c0 	tbnz	w0, #31, 2c58 <pop_arg+0x134>
    2c44:	91002c60 	add	x0, x3, #0xb
    2c48:	927df000 	and	x0, x0, #0xfffffffffffffff8
    2c4c:	f9000040 	str	x0, [x2]
    2c50:	39800060 	ldrsb	x0, [x3]
    2c54:	17ffffc6 	b	2b6c <pop_arg+0x48>
    2c58:	11002001 	add	w1, w0, #0x8
    2c5c:	b9001841 	str	w1, [x2, #24]
    2c60:	7100003f 	cmp	w1, #0x0
    2c64:	54ffff0c 	b.gt	2c44 <pop_arg+0x120>
    2c68:	f9400443 	ldr	x3, [x2, #8]
    2c6c:	8b20c063 	add	x3, x3, w0, sxtw
    2c70:	17fffff8 	b	2c50 <pop_arg+0x12c>
    2c74:	b9401840 	ldr	w0, [x2, #24]
    2c78:	37f800c0 	tbnz	w0, #31, 2c90 <pop_arg+0x16c>
    2c7c:	91002c60 	add	x0, x3, #0xb
    2c80:	927df000 	and	x0, x0, #0xfffffffffffffff8
    2c84:	f9000040 	str	x0, [x2]
    2c88:	39400060 	ldrb	w0, [x3]
    2c8c:	17ffffb8 	b	2b6c <pop_arg+0x48>
    2c90:	11002001 	add	w1, w0, #0x8
    2c94:	b9001841 	str	w1, [x2, #24]
    2c98:	7100003f 	cmp	w1, #0x0
    2c9c:	54ffff0c 	b.gt	2c7c <pop_arg+0x158>
    2ca0:	f9400443 	ldr	x3, [x2, #8]
    2ca4:	8b20c063 	add	x3, x3, w0, sxtw
    2ca8:	17fffff8 	b	2c88 <pop_arg+0x164>
    2cac:	b9401840 	ldr	w0, [x2, #24]
    2cb0:	37f800c0 	tbnz	w0, #31, 2cc8 <pop_arg+0x1a4>
    2cb4:	91003c60 	add	x0, x3, #0xf
    2cb8:	927df000 	and	x0, x0, #0xfffffffffffffff8
    2cbc:	f9000040 	str	x0, [x2]
    2cc0:	f9400060 	ldr	x0, [x3]
    2cc4:	17ffffaa 	b	2b6c <pop_arg+0x48>
    2cc8:	11002001 	add	w1, w0, #0x8
    2ccc:	b9001841 	str	w1, [x2, #24]
    2cd0:	7100003f 	cmp	w1, #0x0
    2cd4:	54ffff0c 	b.gt	2cb4 <pop_arg+0x190>
    2cd8:	f9400443 	ldr	x3, [x2, #8]
    2cdc:	8b20c063 	add	x3, x3, w0, sxtw
    2ce0:	17fffff8 	b	2cc0 <pop_arg+0x19c>
    2ce4:	b9401c40 	ldr	w0, [x2, #28]
    2ce8:	37f80100 	tbnz	w0, #31, 2d08 <pop_arg+0x1e4>
    2cec:	91003c60 	add	x0, x3, #0xf
    2cf0:	927df000 	and	x0, x0, #0xfffffffffffffff8
    2cf4:	f9000040 	str	x0, [x2]
    2cf8:	fd400060 	ldr	d0, [x3]
    2cfc:	97fffd35 	bl	21d0 <__extenddftf2>
    2d00:	3d800260 	str	q0, [x19]
    2d04:	17ffff9b 	b	2b70 <pop_arg+0x4c>
    2d08:	11004001 	add	w1, w0, #0x10
    2d0c:	b9001c41 	str	w1, [x2, #28]
    2d10:	7100003f 	cmp	w1, #0x0
    2d14:	54fffecc 	b.gt	2cec <pop_arg+0x1c8>
    2d18:	f9400843 	ldr	x3, [x2, #16]
    2d1c:	8b20c063 	add	x3, x3, w0, sxtw
    2d20:	17fffff6 	b	2cf8 <pop_arg+0x1d4>
    2d24:	b9401c40 	ldr	w0, [x2, #28]
    2d28:	37f800e0 	tbnz	w0, #31, 2d44 <pop_arg+0x220>
    2d2c:	91003c63 	add	x3, x3, #0xf
    2d30:	927cec63 	and	x3, x3, #0xfffffffffffffff0
    2d34:	91004060 	add	x0, x3, #0x10
    2d38:	f9000040 	str	x0, [x2]
    2d3c:	3dc00060 	ldr	q0, [x3]
    2d40:	17fffff0 	b	2d00 <pop_arg+0x1dc>
    2d44:	11004001 	add	w1, w0, #0x10
    2d48:	b9001c41 	str	w1, [x2, #28]
    2d4c:	7100003f 	cmp	w1, #0x0
    2d50:	54fffeec 	b.gt	2d2c <pop_arg+0x208>
    2d54:	f9400843 	ldr	x3, [x2, #16]
    2d58:	8b20c063 	add	x3, x3, w0, sxtw
    2d5c:	17fffff8 	b	2d3c <pop_arg+0x218>
    2d60:	d65f03c0 	ret

0000000000002d64 <fmt_u>:
    2d64:	aa0003e2 	mov	x2, x0
    2d68:	aa0103e0 	mov	x0, x1
    2d6c:	d2800141 	mov	x1, #0xa                   	// #10
    2d70:	b5000042 	cbnz	x2, 2d78 <fmt_u+0x14>
    2d74:	d65f03c0 	ret
    2d78:	9ac10843 	udiv	x3, x2, x1
    2d7c:	9b018862 	msub	x2, x3, x1, x2
    2d80:	1100c042 	add	w2, w2, #0x30
    2d84:	381ffc02 	strb	w2, [x0, #-1]!
    2d88:	aa0303e2 	mov	x2, x3
    2d8c:	17fffff9 	b	2d70 <fmt_u+0xc>

0000000000002d90 <getint>:
    2d90:	52999984 	mov	w4, #0xcccc                	// #52428
    2d94:	aa0003e3 	mov	x3, x0
    2d98:	72a19984 	movk	w4, #0xccc, lsl #16
    2d9c:	52800000 	mov	w0, #0x0                   	// #0
    2da0:	12800005 	mov	w5, #0xffffffff            	// #-1
    2da4:	12800126 	mov	w6, #0xfffffff6            	// #-10
    2da8:	12b00007 	mov	w7, #0x7fffffff            	// #2147483647
    2dac:	52800148 	mov	w8, #0xa                   	// #10
    2db0:	f9400062 	ldr	x2, [x3]
    2db4:	39400041 	ldrb	w1, [x2]
    2db8:	5100c021 	sub	w1, w1, #0x30
    2dbc:	7100243f 	cmp	w1, #0x9
    2dc0:	54000049 	b.ls	2dc8 <getint+0x38>  // b.plast
    2dc4:	d65f03c0 	ret
    2dc8:	6b04001f 	cmp	w0, w4
    2dcc:	54000108 	b.hi	2dec <getint+0x5c>  // b.pmore
    2dd0:	1b061c09 	madd	w9, w0, w6, w7
    2dd4:	1b080400 	madd	w0, w0, w8, w1
    2dd8:	6b09003f 	cmp	w1, w9
    2ddc:	1a85d000 	csel	w0, w0, w5, le
    2de0:	91000442 	add	x2, x2, #0x1
    2de4:	f9000062 	str	x2, [x3]
    2de8:	17fffff2 	b	2db0 <getint+0x20>
    2dec:	12800000 	mov	w0, #0xffffffff            	// #-1
    2df0:	17fffffc 	b	2de0 <getint+0x50>

0000000000002df4 <out>:
    2df4:	aa0003e3 	mov	x3, x0
    2df8:	aa0103e0 	mov	x0, x1
    2dfc:	aa0203e1 	mov	x1, x2
    2e00:	b9400062 	ldr	w2, [x3]
    2e04:	37280062 	tbnz	w2, #5, 2e10 <out+0x1c>
    2e08:	aa0303e2 	mov	x2, x3
    2e0c:	14000a88 	b	582c <__fwritex>
    2e10:	d65f03c0 	ret

0000000000002e14 <pad>:
    2e14:	12130c84 	and	w4, w4, #0x1e000
    2e18:	12107484 	and	w4, w4, #0xffff3fff
    2e1c:	35000484 	cbnz	w4, 2eac <pad+0x98>
    2e20:	6b02007f 	cmp	w3, w2
    2e24:	5400044a 	b.ge	2eac <pad+0x98>  // b.tcont
    2e28:	a9ad53f3 	stp	x19, x20, [sp, #-304]!
    2e2c:	4b030053 	sub	w19, w2, w3
    2e30:	7104027f 	cmp	w19, #0x100
    2e34:	52802002 	mov	w2, #0x100                 	// #256
    2e38:	1a82d262 	csel	w2, w19, w2, le
    2e3c:	a9015bf5 	stp	x21, x22, [sp, #16]
    2e40:	9100c3f5 	add	x21, sp, #0x30
    2e44:	aa0003f4 	mov	x20, x0
    2e48:	12001c21 	and	w1, w1, #0xff
    2e4c:	93407c42 	sxtw	x2, w2
    2e50:	aa1503e0 	mov	x0, x21
    2e54:	2a1303f6 	mov	w22, w19
    2e58:	f90013fe 	str	x30, [sp, #32]
    2e5c:	940006ec 	bl	4a0c <memset>
    2e60:	7103fedf 	cmp	w22, #0xff
    2e64:	5400018c 	b.gt	2e94 <pad+0x80>
    2e68:	53087e62 	lsr	w2, w19, #8
    2e6c:	12801fe3 	mov	w3, #0xffffff00            	// #-256
    2e70:	aa1503e1 	mov	x1, x21
    2e74:	aa1403e0 	mov	x0, x20
    2e78:	1b034c42 	madd	w2, w2, w3, w19
    2e7c:	93407c42 	sxtw	x2, w2
    2e80:	97ffffdd 	bl	2df4 <out>
    2e84:	a9415bf5 	ldp	x21, x22, [sp, #16]
    2e88:	f94013fe 	ldr	x30, [sp, #32]
    2e8c:	a8d353f3 	ldp	x19, x20, [sp], #304
    2e90:	d65f03c0 	ret
    2e94:	aa1503e1 	mov	x1, x21
    2e98:	aa1403e0 	mov	x0, x20
    2e9c:	d2802002 	mov	x2, #0x100                 	// #256
    2ea0:	510402d6 	sub	w22, w22, #0x100
    2ea4:	97ffffd4 	bl	2df4 <out>
    2ea8:	17ffffee 	b	2e60 <pad+0x4c>
    2eac:	d65f03c0 	ret

0000000000002eb0 <fmt_fp>:
    2eb0:	d283ba0c 	mov	x12, #0x1dd0                	// #7632
    2eb4:	cb2c63ff 	sub	sp, sp, x12
    2eb8:	a90053f3 	stp	x19, x20, [sp]
    2ebc:	aa0003f4 	mov	x20, x0
    2ec0:	2a0203f3 	mov	w19, w2
    2ec4:	a9015bf5 	stp	x21, x22, [sp, #16]
    2ec8:	2a0103f6 	mov	w22, w1
    2ecc:	a90263f7 	stp	x23, x24, [sp, #32]
    2ed0:	2a0403f7 	mov	w23, w4
    2ed4:	a9036bf9 	stp	x25, x26, [sp, #48]
    2ed8:	2a0303f9 	mov	w25, w3
    2edc:	a90473fb 	stp	x27, x28, [sp, #64]
    2ee0:	f9002bfe 	str	x30, [sp, #80]
    2ee4:	3d801be0 	str	q0, [sp, #96]
    2ee8:	b900cfff 	str	wzr, [sp, #204]
    2eec:	a9466ffc 	ldp	x28, x27, [sp, #96]
    2ef0:	94000858 	bl	5050 <__signbitl>
    2ef4:	34000560 	cbz	w0, 2fa0 <fmt_fp+0xf0>
    2ef8:	d0000078 	adrp	x24, 10000 <__text_end+0x1600>
    2efc:	d241037b 	eor	x27, x27, #0x8000000000000000
    2f00:	91319b18 	add	x24, x24, #0xc66
    2f04:	52800035 	mov	w21, #0x1                   	// #1
    2f08:	a9066ffc 	stp	x28, x27, [sp, #96]
    2f0c:	3dc01be0 	ldr	q0, [sp, #96]
    2f10:	9400083b 	bl	4ffc <__fpclassifyl>
    2f14:	7100041f 	cmp	w0, #0x1
    2f18:	5400060c 	b.gt	2fd8 <fmt_fp+0x128>
    2f1c:	a9066ffc 	stp	x28, x27, [sp, #96]
    2f20:	721b02f7 	ands	w23, w23, #0x20
    2f24:	d0000060 	adrp	x0, 10000 <__text_end+0x1600>
    2f28:	9131f400 	add	x0, x0, #0xc7d
    2f2c:	3dc01be1 	ldr	q1, [sp, #96]
    2f30:	d0000073 	adrp	x19, 10000 <__text_end+0x1600>
    2f34:	9131e673 	add	x19, x19, #0xc79
    2f38:	9a801273 	csel	x19, x19, x0, ne  // ne = any
    2f3c:	4ea11c20 	mov	v0.16b, v1.16b
    2f40:	97fff702 	bl	b48 <__eqtf2>
    2f44:	340000e0 	cbz	w0, 2f60 <fmt_fp+0xb0>
    2f48:	710002ff 	cmp	w23, #0x0
    2f4c:	d0000060 	adrp	x0, 10000 <__text_end+0x1600>
    2f50:	d0000073 	adrp	x19, 10000 <__text_end+0x1600>
    2f54:	91321400 	add	x0, x0, #0xc85
    2f58:	91320673 	add	x19, x19, #0xc81
    2f5c:	9a801273 	csel	x19, x19, x0, ne  // ne = any
    2f60:	11000eb7 	add	w23, w21, #0x3
    2f64:	120f7b24 	and	w4, w25, #0xfffeffff
    2f68:	2a1703e3 	mov	w3, w23
    2f6c:	2a1603e2 	mov	w2, w22
    2f70:	aa1403e0 	mov	x0, x20
    2f74:	52800401 	mov	w1, #0x20                  	// #32
    2f78:	97ffffa7 	bl	2e14 <pad>
    2f7c:	93407ea2 	sxtw	x2, w21
    2f80:	aa1803e1 	mov	x1, x24
    2f84:	aa1403e0 	mov	x0, x20
    2f88:	97ffff9b 	bl	2df4 <out>
    2f8c:	aa1303e1 	mov	x1, x19
    2f90:	d2800062 	mov	x2, #0x3                   	// #3
    2f94:	aa1403e0 	mov	x0, x20
    2f98:	97ffff97 	bl	2df4 <out>
    2f9c:	1400027e 	b	3994 <fmt_fp+0xae4>
    2fa0:	375800d9 	tbnz	w25, #11, 2fb8 <fmt_fp+0x108>
    2fa4:	37000139 	tbnz	w25, #0, 2fc8 <fmt_fp+0x118>
    2fa8:	d0000078 	adrp	x24, 10000 <__text_end+0x1600>
    2fac:	2a0003f5 	mov	w21, w0
    2fb0:	91319f18 	add	x24, x24, #0xc67
    2fb4:	17ffffd5 	b	2f08 <fmt_fp+0x58>
    2fb8:	d0000078 	adrp	x24, 10000 <__text_end+0x1600>
    2fbc:	52800035 	mov	w21, #0x1                   	// #1
    2fc0:	9131a718 	add	x24, x24, #0xc69
    2fc4:	17ffffd1 	b	2f08 <fmt_fp+0x58>
    2fc8:	d0000078 	adrp	x24, 10000 <__text_end+0x1600>
    2fcc:	52800035 	mov	w21, #0x1                   	// #1
    2fd0:	9131b318 	add	x24, x24, #0xc6c
    2fd4:	17ffffcd 	b	2f08 <fmt_fp+0x58>
    2fd8:	a9066ffc 	stp	x28, x27, [sp, #96]
    2fdc:	910333e0 	add	x0, sp, #0xcc
    2fe0:	3dc01be0 	ldr	q0, [sp, #96]
    2fe4:	94000822 	bl	506c <frexpl>
    2fe8:	4ea01c01 	mov	v1.16b, v0.16b
    2fec:	97fff40d 	bl	20 <__addtf3>
    2ff0:	3d801be0 	str	q0, [sp, #96]
    2ff4:	a9460fe5 	ldp	x5, x3, [sp, #96]
    2ff8:	6f00e401 	movi	v1.2d, #0x0
    2ffc:	aa0503fc 	mov	x28, x5
    3000:	aa0303fb 	mov	x27, x3
    3004:	97fff6d1 	bl	b48 <__eqtf2>
    3008:	34000080 	cbz	w0, 3018 <fmt_fp+0x168>
    300c:	b940cfe0 	ldr	w0, [sp, #204]
    3010:	51000400 	sub	w0, w0, #0x1
    3014:	b900cfe0 	str	w0, [sp, #204]
    3018:	321b02e0 	orr	w0, w23, #0x20
    301c:	b90063e0 	str	w0, [sp, #96]
    3020:	7101841f 	cmp	w0, #0x61
    3024:	54001981 	b.ne	3354 <fmt_fp+0x4a4>  // b.any
    3028:	121b02e0 	and	w0, w23, #0x20
    302c:	b900a3e0 	str	w0, [sp, #160]
    3030:	36280057 	tbz	w23, #5, 3038 <fmt_fp+0x188>
    3034:	91002718 	add	x24, x24, #0x9
    3038:	11000ab5 	add	w21, w21, #0x2
    303c:	71006a7f 	cmp	w19, #0x1a
    3040:	54000348 	b.hi	30a8 <fmt_fp+0x1f8>  // b.pmore
    3044:	b0000060 	adrp	x0, 10000 <__text_end+0x1600>
    3048:	91140000 	add	x0, x0, #0x500
    304c:	5280037a 	mov	w26, #0x1b                  	// #27
    3050:	4b13035a 	sub	w26, w26, w19
    3054:	3dc00002 	ldr	q2, [x0]
    3058:	5100075a 	sub	w26, w26, #0x1
    305c:	3100075f 	cmn	w26, #0x1
    3060:	54000e81 	b.ne	3230 <fmt_fp+0x380>  // b.any
    3064:	39400300 	ldrb	w0, [x24]
    3068:	7100b41f 	cmp	w0, #0x2d
    306c:	54000f01 	b.ne	324c <fmt_fp+0x39c>  // b.any
    3070:	d2410363 	eor	x3, x27, #0x8000000000000000
    3074:	a9060ffc 	stp	x28, x3, [sp, #96]
    3078:	4ea21c41 	mov	v1.16b, v2.16b
    307c:	3dc01be0 	ldr	q0, [sp, #96]
    3080:	3d801fe2 	str	q2, [sp, #112]
    3084:	97fff8ed 	bl	1438 <__subtf3>
    3088:	4ea01c01 	mov	v1.16b, v0.16b
    308c:	3dc01fe2 	ldr	q2, [sp, #112]
    3090:	4ea21c40 	mov	v0.16b, v2.16b
    3094:	97fff3e3 	bl	20 <__addtf3>
    3098:	3d801be0 	str	q0, [sp, #96]
    309c:	a9460fe5 	ldp	x5, x3, [sp, #96]
    30a0:	aa0503fc 	mov	x28, x5
    30a4:	d241007b 	eor	x27, x3, #0x8000000000000000
    30a8:	910343e0 	add	x0, sp, #0xd0
    30ac:	f90033e0 	str	x0, [sp, #96]
    30b0:	91003004 	add	x4, x0, #0xc
    30b4:	b940cfe0 	ldr	w0, [sp, #204]
    30b8:	aa0403e1 	mov	x1, x4
    30bc:	7100001f 	cmp	w0, #0x0
    30c0:	5a80a400 	cneg	w0, w0, lt  // lt = tstop
    30c4:	93407c00 	sxtw	x0, w0
    30c8:	97ffff27 	bl	2d64 <fmt_u>
    30cc:	eb04001f 	cmp	x0, x4
    30d0:	540000a1 	b.ne	30e4 <fmt_fp+0x234>  // b.any
    30d4:	52800600 	mov	w0, #0x30                  	// #48
    30d8:	39036fe0 	strb	w0, [sp, #219]
    30dc:	f94033e0 	ldr	x0, [sp, #96]
    30e0:	91002c00 	add	x0, x0, #0xb
    30e4:	b940cfe1 	ldr	w1, [sp, #204]
    30e8:	52800562 	mov	w2, #0x2b                  	// #43
    30ec:	11003ef7 	add	w23, w23, #0xf
    30f0:	381fe017 	sturb	w23, [x0, #-2]
    30f4:	7100003f 	cmp	w1, #0x0
    30f8:	528005a1 	mov	w1, #0x2d                  	// #45
    30fc:	1a82b021 	csel	w1, w1, w2, lt  // lt = tstop
    3100:	381ff001 	sturb	w1, [x0, #-1]
    3104:	d1000801 	sub	x1, x0, #0x2
    3108:	b0000060 	adrp	x0, 10000 <__text_end+0x1600>
    310c:	9139b000 	add	x0, x0, #0xe6c
    3110:	910383fa 	add	x26, sp, #0xe0
    3114:	f90043fa 	str	x26, [sp, #128]
    3118:	f9004fe1 	str	x1, [sp, #152]
    311c:	f90057e0 	str	x0, [sp, #168]
    3120:	121d0320 	and	w0, w25, #0x8
    3124:	b900b3e0 	str	w0, [sp, #176]
    3128:	a9076ffc 	stp	x28, x27, [sp, #112]
    312c:	aa1a03f7 	mov	x23, x26
    3130:	3dc01fe0 	ldr	q0, [sp, #112]
    3134:	97fffb79 	bl	1f18 <__fixtfsi>
    3138:	f94057e1 	ldr	x1, [sp, #168]
    313c:	3860c824 	ldrb	w4, [x1, w0, sxtw]
    3140:	b940a3e1 	ldr	w1, [sp, #160]
    3144:	2a040024 	orr	w4, w1, w4
    3148:	380016e4 	strb	w4, [x23], #1
    314c:	97fffbe7 	bl	20e8 <__floatsitf>
    3150:	a9076ffc 	stp	x28, x27, [sp, #112]
    3154:	4ea01c01 	mov	v1.16b, v0.16b
    3158:	3dc01fe0 	ldr	q0, [sp, #112]
    315c:	97fff8b7 	bl	1438 <__subtf3>
    3160:	b0000060 	adrp	x0, 10000 <__text_end+0x1600>
    3164:	91140000 	add	x0, x0, #0x500
    3168:	3dc00001 	ldr	q1, [x0]
    316c:	97fff6b9 	bl	c50 <__multf3>
    3170:	3d801fe0 	str	q0, [sp, #112]
    3174:	a9470fe5 	ldp	x5, x3, [sp, #112]
    3178:	f94043e0 	ldr	x0, [sp, #128]
    317c:	cb0002e0 	sub	x0, x23, x0
    3180:	aa0503fc 	mov	x28, x5
    3184:	aa0303fb 	mov	x27, x3
    3188:	f100041f 	cmp	x0, #0x1
    318c:	540001c1 	b.ne	31c4 <fmt_fp+0x314>  // b.any
    3190:	6f00e401 	movi	v1.2d, #0x0
    3194:	97fff66d 	bl	b48 <__eqtf2>
    3198:	7100001f 	cmp	w0, #0x0
    319c:	1a9f07e4 	cset	w4, ne  // ne = any
    31a0:	7100027f 	cmp	w19, #0x0
    31a4:	1a9fd7e0 	cset	w0, gt
    31a8:	2a040000 	orr	w0, w0, w4
    31ac:	37000060 	tbnz	w0, #0, 31b8 <fmt_fp+0x308>
    31b0:	b940b3e0 	ldr	w0, [sp, #176]
    31b4:	34000120 	cbz	w0, 31d8 <fmt_fp+0x328>
    31b8:	91000b57 	add	x23, x26, #0x2
    31bc:	528005c0 	mov	w0, #0x2e                  	// #46
    31c0:	39000740 	strb	w0, [x26, #1]
    31c4:	6f00e401 	movi	v1.2d, #0x0
    31c8:	a9076ffc 	stp	x28, x27, [sp, #112]
    31cc:	3dc01fe0 	ldr	q0, [sp, #112]
    31d0:	97fff65e 	bl	b48 <__eqtf2>
    31d4:	35000560 	cbnz	w0, 3280 <fmt_fp+0x3d0>
    31d8:	f94033e0 	ldr	x0, [sp, #96]
    31dc:	93407e61 	sxtw	x1, w19
    31e0:	93407ebc 	sxtw	x28, w21
    31e4:	9100301a 	add	x26, x0, #0xc
    31e8:	f9404fe0 	ldr	x0, [sp, #152]
    31ec:	cb00035a 	sub	x26, x26, x0
    31f0:	d29fffa0 	mov	x0, #0xfffd                	// #65533
    31f4:	f2afffe0 	movk	x0, #0x7fff, lsl #16
    31f8:	cb1a0000 	sub	x0, x0, x26
    31fc:	cb35c000 	sub	x0, x0, w21, sxtw
    3200:	eb33c01f 	cmp	x0, w19, sxtw
    3204:	5400042a 	b.ge	3288 <fmt_fp+0x3d8>  // b.tcont
    3208:	12800000 	mov	w0, #0xffffffff            	// #-1
    320c:	d283ba0c 	mov	x12, #0x1dd0                	// #7632
    3210:	a94053f3 	ldp	x19, x20, [sp]
    3214:	a9415bf5 	ldp	x21, x22, [sp, #16]
    3218:	a94263f7 	ldp	x23, x24, [sp, #32]
    321c:	a9436bf9 	ldp	x25, x26, [sp, #48]
    3220:	a94473fb 	ldp	x27, x28, [sp, #64]
    3224:	f9402bfe 	ldr	x30, [sp, #80]
    3228:	8b2c63ff 	add	sp, sp, x12
    322c:	d65f03c0 	ret
    3230:	b0000060 	adrp	x0, 10000 <__text_end+0x1600>
    3234:	91140000 	add	x0, x0, #0x500
    3238:	4ea21c40 	mov	v0.16b, v2.16b
    323c:	3dc00001 	ldr	q1, [x0]
    3240:	97fff684 	bl	c50 <__multf3>
    3244:	4ea01c02 	mov	v2.16b, v0.16b
    3248:	17ffff84 	b	3058 <fmt_fp+0x1a8>
    324c:	a9066ffc 	stp	x28, x27, [sp, #96]
    3250:	4ea21c40 	mov	v0.16b, v2.16b
    3254:	3dc01be1 	ldr	q1, [sp, #96]
    3258:	3d801be2 	str	q2, [sp, #96]
    325c:	97fff371 	bl	20 <__addtf3>
    3260:	3dc01be2 	ldr	q2, [sp, #96]
    3264:	4ea21c41 	mov	v1.16b, v2.16b
    3268:	97fff874 	bl	1438 <__subtf3>
    326c:	3d801be0 	str	q0, [sp, #96]
    3270:	a9460fe5 	ldp	x5, x3, [sp, #96]
    3274:	aa0503fc 	mov	x28, x5
    3278:	aa0303fb 	mov	x27, x3
    327c:	17ffff8b 	b	30a8 <fmt_fp+0x1f8>
    3280:	aa1703fa 	mov	x26, x23
    3284:	17ffffa9 	b	3128 <fmt_fp+0x278>
    3288:	f94043e0 	ldr	x0, [sp, #128]
    328c:	cb0002f7 	sub	x23, x23, x0
    3290:	0b17035b 	add	w27, w26, w23
    3294:	340005d3 	cbz	w19, 334c <fmt_fp+0x49c>
    3298:	d10006e0 	sub	x0, x23, #0x1
    329c:	eb00003f 	cmp	x1, x0
    32a0:	5400056b 	b.lt	334c <fmt_fp+0x49c>  // b.tstop
    32a4:	11000a73 	add	w19, w19, #0x2
    32a8:	0b1a0273 	add	w19, w19, w26
    32ac:	0b150275 	add	w21, w19, w21
    32b0:	2a1903e4 	mov	w4, w25
    32b4:	2a1503e3 	mov	w3, w21
    32b8:	2a1603e2 	mov	w2, w22
    32bc:	aa1403e0 	mov	x0, x20
    32c0:	52800401 	mov	w1, #0x20                  	// #32
    32c4:	97fffed4 	bl	2e14 <pad>
    32c8:	aa1c03e2 	mov	x2, x28
    32cc:	aa1803e1 	mov	x1, x24
    32d0:	aa1403e0 	mov	x0, x20
    32d4:	97fffec8 	bl	2df4 <out>
    32d8:	52100324 	eor	w4, w25, #0x10000
    32dc:	2a1503e3 	mov	w3, w21
    32e0:	2a1603e2 	mov	w2, w22
    32e4:	aa1403e0 	mov	x0, x20
    32e8:	52800601 	mov	w1, #0x30                  	// #48
    32ec:	97fffeca 	bl	2e14 <pad>
    32f0:	f94043e1 	ldr	x1, [sp, #128]
    32f4:	aa1703e2 	mov	x2, x23
    32f8:	aa1403e0 	mov	x0, x20
    32fc:	97fffebe 	bl	2df4 <out>
    3300:	52800004 	mov	w4, #0x0                   	// #0
    3304:	52800003 	mov	w3, #0x0                   	// #0
    3308:	4b1b0262 	sub	w2, w19, w27
    330c:	aa1403e0 	mov	x0, x20
    3310:	52800601 	mov	w1, #0x30                  	// #48
    3314:	97fffec0 	bl	2e14 <pad>
    3318:	f9404fe1 	ldr	x1, [sp, #152]
    331c:	aa1a03e2 	mov	x2, x26
    3320:	aa1403e0 	mov	x0, x20
    3324:	97fffeb4 	bl	2df4 <out>
    3328:	aa1403e0 	mov	x0, x20
    332c:	52130324 	eor	w4, w25, #0x2000
    3330:	2a1503e3 	mov	w3, w21
    3334:	2a1603e2 	mov	w2, w22
    3338:	52800401 	mov	w1, #0x20                  	// #32
    333c:	97fffeb6 	bl	2e14 <pad>
    3340:	6b1602bf 	cmp	w21, w22
    3344:	1a96a2a0 	csel	w0, w21, w22, ge  // ge = tcont
    3348:	17ffffb1 	b	320c <fmt_fp+0x35c>
    334c:	2a1b03f3 	mov	w19, w27
    3350:	17ffffd7 	b	32ac <fmt_fp+0x3fc>
    3354:	a9086ffc 	stp	x28, x27, [sp, #128]
    3358:	7100027f 	cmp	w19, #0x0
    335c:	528000c0 	mov	w0, #0x6                   	// #6
    3360:	6f00e401 	movi	v1.2d, #0x0
    3364:	3dc023e0 	ldr	q0, [sp, #128]
    3368:	1a80a273 	csel	w19, w19, w0, ge  // ge = tcont
    336c:	97fff5f7 	bl	b48 <__eqtf2>
    3370:	340001c0 	cbz	w0, 33a8 <fmt_fp+0x4f8>
    3374:	b0000060 	adrp	x0, 10000 <__text_end+0x1600>
    3378:	91144000 	add	x0, x0, #0x510
    337c:	a9086ffc 	stp	x28, x27, [sp, #128]
    3380:	3dc00001 	ldr	q1, [x0]
    3384:	3dc023e0 	ldr	q0, [sp, #128]
    3388:	97fff632 	bl	c50 <__multf3>
    338c:	3d8023e0 	str	q0, [sp, #128]
    3390:	a9480fe5 	ldp	x5, x3, [sp, #128]
    3394:	b940cfe0 	ldr	w0, [sp, #204]
    3398:	51007000 	sub	w0, w0, #0x1c
    339c:	b900cfe0 	str	w0, [sp, #204]
    33a0:	aa0503fc 	mov	x28, x5
    33a4:	aa0303fb 	mov	x27, x3
    33a8:	b940cfe6 	ldr	w6, [sp, #204]
    33ac:	910423e7 	add	x7, sp, #0x108
    33b0:	d2838103 	mov	x3, #0x1c08                	// #7176
    33b4:	8b2363e0 	add	x0, sp, x3
    33b8:	710000df 	cmp	w6, #0x0
    33bc:	9a87a007 	csel	x7, x0, x7, ge  // ge = tcont
    33c0:	aa0703fa 	mov	x26, x7
    33c4:	a9086ffc 	stp	x28, x27, [sp, #128]
    33c8:	3dc023e0 	ldr	q0, [sp, #128]
    33cc:	b9009be6 	str	w6, [sp, #152]
    33d0:	f90053e7 	str	x7, [sp, #160]
    33d4:	97fffb0d 	bl	2008 <__fixunstfsi>
    33d8:	b8004740 	str	w0, [x26], #4
    33dc:	97fffb63 	bl	2168 <__floatunsitf>
    33e0:	a9086ffc 	stp	x28, x27, [sp, #128]
    33e4:	4ea01c01 	mov	v1.16b, v0.16b
    33e8:	3dc023e0 	ldr	q0, [sp, #128]
    33ec:	97fff813 	bl	1438 <__subtf3>
    33f0:	b0000060 	adrp	x0, 10000 <__text_end+0x1600>
    33f4:	91148000 	add	x0, x0, #0x520
    33f8:	3dc00001 	ldr	q1, [x0]
    33fc:	97fff615 	bl	c50 <__multf3>
    3400:	3d8023e0 	str	q0, [sp, #128]
    3404:	a9480fe5 	ldp	x5, x3, [sp, #128]
    3408:	6f00e401 	movi	v1.2d, #0x0
    340c:	aa0503fc 	mov	x28, x5
    3410:	aa0303fb 	mov	x27, x3
    3414:	97fff5cd 	bl	b48 <__eqtf2>
    3418:	b9409be6 	ldr	w6, [sp, #152]
    341c:	f94053e7 	ldr	x7, [sp, #160]
    3420:	35fffd20 	cbnz	w0, 33c4 <fmt_fp+0x514>
    3424:	d2994004 	mov	x4, #0xca00                	// #51712
    3428:	aa0703fb 	mov	x27, x7
    342c:	528003a9 	mov	w9, #0x1d                  	// #29
    3430:	f2a77344 	movk	x4, #0x3b9a, lsl #16
    3434:	710000df 	cmp	w6, #0x0
    3438:	5400106c 	b.gt	3644 <fmt_fp+0x794>
    343c:	34000040 	cbz	w0, 3444 <fmt_fp+0x594>
    3440:	b900cfe6 	str	w6, [sp, #204]
    3444:	1100b660 	add	w0, w19, #0x2d
    3448:	52800121 	mov	w1, #0x9                   	// #9
    344c:	b940cfe8 	ldr	w8, [sp, #204]
    3450:	5299400d 	mov	w13, #0xca00                	// #51712
    3454:	5280002c 	mov	w12, #0x1                   	// #1
    3458:	72a7734d 	movk	w13, #0x3b9a, lsl #16
    345c:	1ac10800 	udiv	w0, w0, w1
    3460:	11000409 	add	w9, w0, #0x1
    3464:	52800000 	mov	w0, #0x0                   	// #0
    3468:	d37ef52b 	lsl	x11, x9, #2
    346c:	37f81208 	tbnz	w8, #31, 36ac <fmt_fp+0x7fc>
    3470:	34000040 	cbz	w0, 3478 <fmt_fp+0x5c8>
    3474:	b900cfe8 	str	w8, [sp, #204]
    3478:	eb1a037f 	cmp	x27, x26
    347c:	54001662 	b.cs	3748 <fmt_fp+0x898>  // b.hs, b.nlast
    3480:	cb1b00e4 	sub	x4, x7, x27
    3484:	b9400361 	ldr	w1, [x27]
    3488:	52800140 	mov	w0, #0xa                   	// #10
    348c:	2a0003e2 	mov	w2, w0
    3490:	9342fc84 	asr	x4, x4, #2
    3494:	0b040c84 	add	w4, w4, w4, lsl #3
    3498:	6b00003f 	cmp	w1, w0
    349c:	54001502 	b.cs	373c <fmt_fp+0x88c>  // b.hs, b.nlast
    34a0:	b94063e0 	ldr	w0, [sp, #96]
    34a4:	b94063e1 	ldr	w1, [sp, #96]
    34a8:	7101981f 	cmp	w0, #0x66
    34ac:	1a9f1080 	csel	w0, w4, wzr, ne  // ne = any
    34b0:	71019c3f 	cmp	w1, #0x67
    34b4:	4b000260 	sub	w0, w19, w0
    34b8:	540014c1 	b.ne	3750 <fmt_fp+0x8a0>  // b.any
    34bc:	7100027f 	cmp	w19, #0x0
    34c0:	1a9f07e1 	cset	w1, ne  // ne = any
    34c4:	4b010000 	sub	w0, w0, w1
    34c8:	cb070341 	sub	x1, x26, x7
    34cc:	9342fc21 	asr	x1, x1, #2
    34d0:	d1000421 	sub	x1, x1, #0x1
    34d4:	8b010c21 	add	x1, x1, x1, lsl #3
    34d8:	eb20c03f 	cmp	x1, w0, sxtw
    34dc:	5400088d 	b.le	35ec <fmt_fp+0x73c>
    34e0:	11409000 	add	w0, w0, #0x24, lsl #12
    34e4:	52800121 	mov	w1, #0x9                   	// #9
    34e8:	929fff62 	mov	x2, #0xffffffffffff0004    	// #-65532
    34ec:	1ac10c01 	sdiv	w1, w0, w1
    34f0:	8b21c8fc 	add	x28, x7, w1, sxtw #2
    34f4:	0b010c21 	add	w1, w1, w1, lsl #3
    34f8:	4b010000 	sub	w0, w0, w1
    34fc:	8b02039c 	add	x28, x28, x2
    3500:	52800141 	mov	w1, #0xa                   	// #10
    3504:	11000400 	add	w0, w0, #0x1
    3508:	2a0103e2 	mov	w2, w1
    350c:	7100241f 	cmp	w0, #0x9
    3510:	54001241 	b.ne	3758 <fmt_fp+0x8a8>  // b.any
    3514:	b9400382 	ldr	w2, [x28]
    3518:	1ac10840 	udiv	w0, w2, w1
    351c:	1b018809 	msub	w9, w0, w1, w2
    3520:	35000089 	cbnz	w9, 3530 <fmt_fp+0x680>
    3524:	91001383 	add	x3, x28, #0x4
    3528:	eb03035f 	cmp	x26, x3
    352c:	540005a0 	b.eq	35e0 <fmt_fp+0x730>  // b.none
    3530:	370011a0 	tbnz	w0, #0, 3764 <fmt_fp+0x8b4>
    3534:	52994000 	mov	w0, #0xca00                	// #51712
    3538:	72a77340 	movk	w0, #0x3b9a, lsl #16
    353c:	6b00003f 	cmp	w1, w0
    3540:	fa5c0362 	ccmp	x27, x28, #0x2, eq  // eq = none
    3544:	54001142 	b.cs	376c <fmt_fp+0x8bc>  // b.hs, b.nlast
    3548:	b85fc383 	ldur	w3, [x28, #-4]
    354c:	92400063 	and	x3, x3, #0x1
    3550:	13017c20 	asr	w0, w1, #1
    3554:	d2e80e08 	mov	x8, #0x4070000000000000    	// #4643211215818981376
    3558:	6b09001f 	cmp	w0, w9
    355c:	540010c8 	b.hi	3774 <fmt_fp+0x8c4>  // b.pmore
    3560:	540010e1 	b.ne	377c <fmt_fp+0x8cc>  // b.any
    3564:	91001380 	add	x0, x28, #0x4
    3568:	b2513bea 	mov	x10, #0x3fff800000000000    	// #4611545280939032576
    356c:	eb00035f 	cmp	x26, x0
    3570:	d2e7ffe0 	mov	x0, #0x3fff000000000000    	// #4611404543450677248
    3574:	9a8a0000 	csel	x0, x0, x10, eq  // eq = none
    3578:	340000d5 	cbz	w21, 3590 <fmt_fp+0x6e0>
    357c:	3940030a 	ldrb	w10, [x24]
    3580:	7100b55f 	cmp	w10, #0x2d
    3584:	54000061 	b.ne	3590 <fmt_fp+0x6e0>  // b.any
    3588:	d2410000 	eor	x0, x0, #0x8000000000000000
    358c:	d2f80e08 	mov	x8, #0xc070000000000000    	// #-4580160821035794432
    3590:	a90803ff 	stp	xzr, x0, [sp, #128]
    3594:	4b090042 	sub	w2, w2, w9
    3598:	3dc023e1 	ldr	q1, [sp, #128]
    359c:	a90823e3 	stp	x3, x8, [sp, #128]
    35a0:	3dc023e0 	ldr	q0, [sp, #128]
    35a4:	a9098fe8 	stp	x8, x3, [sp, #152]
    35a8:	b900abe2 	str	w2, [sp, #168]
    35ac:	291607e4 	stp	w4, w1, [sp, #176]
    35b0:	f9005fe7 	str	x7, [sp, #184]
    35b4:	97fff29b 	bl	20 <__addtf3>
    35b8:	a9498fe8 	ldp	x8, x3, [sp, #152]
    35bc:	a90823e3 	stp	x3, x8, [sp, #128]
    35c0:	3dc023e1 	ldr	q1, [sp, #128]
    35c4:	97fff561 	bl	b48 <__eqtf2>
    35c8:	b940abe2 	ldr	w2, [sp, #168]
    35cc:	b940b7e1 	ldr	w1, [sp, #180]
    35d0:	f9405fe7 	ldr	x7, [sp, #184]
    35d4:	35000d80 	cbnz	w0, 3784 <fmt_fp+0x8d4>
    35d8:	b940b3e4 	ldr	w4, [sp, #176]
    35dc:	b9000382 	str	w2, [x28]
    35e0:	9100139c 	add	x28, x28, #0x4
    35e4:	eb1c035f 	cmp	x26, x28
    35e8:	9a9c935a 	csel	x26, x26, x28, ls  // ls = plast
    35ec:	eb1b035f 	cmp	x26, x27
    35f0:	54000069 	b.ls	35fc <fmt_fp+0x74c>  // b.plast
    35f4:	b85fc340 	ldur	w0, [x26, #-4]
    35f8:	34000fc0 	cbz	w0, 37f0 <fmt_fp+0x940>
    35fc:	b94063e0 	ldr	w0, [sp, #96]
    3600:	71019c1f 	cmp	w0, #0x67
    3604:	54001241 	b.ne	384c <fmt_fp+0x99c>  // b.any
    3608:	7100027f 	cmp	w19, #0x0
    360c:	1a9f1673 	csinc	w19, w19, wzr, ne  // ne = any
    3610:	6b04027f 	cmp	w19, w4
    3614:	3a44c881 	ccmn	w4, #0x4, #0x1, gt
    3618:	54000f0b 	b.lt	37f8 <fmt_fp+0x948>  // b.tstop
    361c:	11000480 	add	w0, w4, #0x1
    3620:	510006f7 	sub	w23, w23, #0x1
    3624:	4b000273 	sub	w19, w19, w0
    3628:	37181139 	tbnz	w25, #3, 384c <fmt_fp+0x99c>
    362c:	eb1b035f 	cmp	x26, x27
    3630:	54000069 	b.ls	363c <fmt_fp+0x78c>  // b.plast
    3634:	b85fc343 	ldur	w3, [x26, #-4]
    3638:	35001c03 	cbnz	w3, 39b8 <fmt_fp+0xb08>
    363c:	52800122 	mov	w2, #0x9                   	// #9
    3640:	14000076 	b	3818 <fmt_fp+0x968>
    3644:	710074df 	cmp	w6, #0x1d
    3648:	d1001343 	sub	x3, x26, #0x4
    364c:	1a89d0c8 	csel	w8, w6, w9, le
    3650:	52800001 	mov	w1, #0x0                   	// #0
    3654:	eb03037f 	cmp	x27, x3
    3658:	54000169 	b.ls	3684 <fmt_fp+0x7d4>  // b.plast
    365c:	34000061 	cbz	w1, 3668 <fmt_fp+0x7b8>
    3660:	d100137b 	sub	x27, x27, #0x4
    3664:	b9000361 	str	w1, [x27]
    3668:	eb1b035f 	cmp	x26, x27
    366c:	54000069 	b.ls	3678 <fmt_fp+0x7c8>  // b.plast
    3670:	b85fc340 	ldur	w0, [x26, #-4]
    3674:	34000180 	cbz	w0, 36a4 <fmt_fp+0x7f4>
    3678:	4b0800c6 	sub	w6, w6, w8
    367c:	52800020 	mov	w0, #0x1                   	// #1
    3680:	17ffff6d 	b	3434 <fmt_fp+0x584>
    3684:	b9400060 	ldr	w0, [x3]
    3688:	9ac82000 	lsl	x0, x0, x8
    368c:	8b214000 	add	x0, x0, w1, uxtw
    3690:	9ac40802 	udiv	x2, x0, x4
    3694:	9b048041 	msub	x1, x2, x4, x0
    3698:	b81fc461 	str	w1, [x3], #-4
    369c:	2a0203e1 	mov	w1, w2
    36a0:	17ffffed 	b	3654 <fmt_fp+0x7a4>
    36a4:	d100135a 	sub	x26, x26, #0x4
    36a8:	17fffff0 	b	3668 <fmt_fp+0x7b8>
    36ac:	3100251f 	cmn	w8, #0x9
    36b0:	5400034b 	b.lt	3718 <fmt_fp+0x868>  // b.tstop
    36b4:	4b0803ea 	neg	w10, w8
    36b8:	1aca2183 	lsl	w3, w12, w10
    36bc:	aa1b03e1 	mov	x1, x27
    36c0:	51000463 	sub	w3, w3, #0x1
    36c4:	1aca29ae 	asr	w14, w13, w10
    36c8:	52800000 	mov	w0, #0x0                   	// #0
    36cc:	eb1a003f 	cmp	x1, x26
    36d0:	54000283 	b.cc	3720 <fmt_fp+0x870>  // b.lo, b.ul, b.last
    36d4:	b9400361 	ldr	w1, [x27]
    36d8:	35000041 	cbnz	w1, 36e0 <fmt_fp+0x830>
    36dc:	9100137b 	add	x27, x27, #0x4
    36e0:	34000080 	cbz	w0, 36f0 <fmt_fp+0x840>
    36e4:	aa1a03e6 	mov	x6, x26
    36e8:	b80044c0 	str	w0, [x6], #4
    36ec:	aa0603fa 	mov	x26, x6
    36f0:	b94063e0 	ldr	w0, [sp, #96]
    36f4:	7101981f 	cmp	w0, #0x66
    36f8:	9a9b00e0 	csel	x0, x7, x27, eq  // eq = none
    36fc:	cb000341 	sub	x1, x26, x0
    3700:	eb81093f 	cmp	x9, x1, asr #2
    3704:	5400004a 	b.ge	370c <fmt_fp+0x85c>  // b.tcont
    3708:	8b0b001a 	add	x26, x0, x11
    370c:	0b0a0108 	add	w8, w8, w10
    3710:	52800020 	mov	w0, #0x1                   	// #1
    3714:	17ffff56 	b	346c <fmt_fp+0x5bc>
    3718:	5280012a 	mov	w10, #0x9                   	// #9
    371c:	17ffffe7 	b	36b8 <fmt_fp+0x808>
    3720:	b9400022 	ldr	w2, [x1]
    3724:	1aca2444 	lsr	w4, w2, w10
    3728:	0b000080 	add	w0, w4, w0
    372c:	b8004420 	str	w0, [x1], #4
    3730:	0a030040 	and	w0, w2, w3
    3734:	1b0e7c00 	mul	w0, w0, w14
    3738:	17ffffe5 	b	36cc <fmt_fp+0x81c>
    373c:	1b027c00 	mul	w0, w0, w2
    3740:	11000484 	add	w4, w4, #0x1
    3744:	17ffff55 	b	3498 <fmt_fp+0x5e8>
    3748:	52800004 	mov	w4, #0x0                   	// #0
    374c:	17ffff55 	b	34a0 <fmt_fp+0x5f0>
    3750:	52800001 	mov	w1, #0x0                   	// #0
    3754:	17ffff5c 	b	34c4 <fmt_fp+0x614>
    3758:	1b027c21 	mul	w1, w1, w2
    375c:	11000400 	add	w0, w0, #0x1
    3760:	17ffff6b 	b	350c <fmt_fp+0x65c>
    3764:	d2800023 	mov	x3, #0x1                   	// #1
    3768:	17ffff7a 	b	3550 <fmt_fp+0x6a0>
    376c:	d2800003 	mov	x3, #0x0                   	// #0
    3770:	17ffff78 	b	3550 <fmt_fp+0x6a0>
    3774:	d2e7ffc0 	mov	x0, #0x3ffe000000000000    	// #4611123068473966592
    3778:	17ffff80 	b	3578 <fmt_fp+0x6c8>
    377c:	b2513be0 	mov	x0, #0x3fff800000000000    	// #4611545280939032576
    3780:	17ffff7e 	b	3578 <fmt_fp+0x6c8>
    3784:	0b020021 	add	w1, w1, w2
    3788:	b9000381 	str	w1, [x28]
    378c:	52993fe1 	mov	w1, #0xc9ff                	// #51711
    3790:	72a77341 	movk	w1, #0x3b9a, lsl #16
    3794:	b9400380 	ldr	w0, [x28]
    3798:	6b01001f 	cmp	w0, w1
    379c:	54000188 	b.hi	37cc <fmt_fp+0x91c>  // b.pmore
    37a0:	cb1b00e4 	sub	x4, x7, x27
    37a4:	b9400361 	ldr	w1, [x27]
    37a8:	52800140 	mov	w0, #0xa                   	// #10
    37ac:	2a0003e2 	mov	w2, w0
    37b0:	9342fc84 	asr	x4, x4, #2
    37b4:	0b040c84 	add	w4, w4, w4, lsl #3
    37b8:	6b00003f 	cmp	w1, w0
    37bc:	54fff123 	b.cc	35e0 <fmt_fp+0x730>  // b.lo, b.ul, b.last
    37c0:	1b027c00 	mul	w0, w0, w2
    37c4:	11000484 	add	w4, w4, #0x1
    37c8:	17fffffc 	b	37b8 <fmt_fp+0x908>
    37cc:	b81fc79f 	str	wzr, [x28], #-4
    37d0:	eb1c037f 	cmp	x27, x28
    37d4:	54000069 	b.ls	37e0 <fmt_fp+0x930>  // b.plast
    37d8:	d100137b 	sub	x27, x27, #0x4
    37dc:	b900037f 	str	wzr, [x27]
    37e0:	b9400380 	ldr	w0, [x28]
    37e4:	11000400 	add	w0, w0, #0x1
    37e8:	b9000380 	str	w0, [x28]
    37ec:	17ffffea 	b	3794 <fmt_fp+0x8e4>
    37f0:	d100135a 	sub	x26, x26, #0x4
    37f4:	17ffff7e 	b	35ec <fmt_fp+0x73c>
    37f8:	51000af7 	sub	w23, w23, #0x2
    37fc:	51000673 	sub	w19, w19, #0x1
    3800:	17ffff8a 	b	3628 <fmt_fp+0x778>
    3804:	1b087c00 	mul	w0, w0, w8
    3808:	11000442 	add	w2, w2, #0x1
    380c:	1ac00861 	udiv	w1, w3, w0
    3810:	1b008c21 	msub	w1, w1, w0, w3
    3814:	34ffff81 	cbz	w1, 3804 <fmt_fp+0x954>
    3818:	cb070340 	sub	x0, x26, x7
    381c:	321b02e1 	orr	w1, w23, #0x20
    3820:	93407c42 	sxtw	x2, w2
    3824:	93407e73 	sxtw	x19, w19
    3828:	9342fc00 	asr	x0, x0, #2
    382c:	7101983f 	cmp	w1, #0x66
    3830:	d1000400 	sub	x0, x0, #0x1
    3834:	8b000c00 	add	x0, x0, x0, lsl #3
    3838:	54000c81 	b.ne	39c8 <fmt_fp+0xb18>  // b.any
    383c:	eb020000 	subs	x0, x0, x2
    3840:	9a9f5000 	csel	x0, x0, xzr, pl  // pl = nfrst
    3844:	eb13001f 	cmp	x0, x19
    3848:	9a93d013 	csel	x19, x0, x19, le
    384c:	321f77e0 	mov	w0, #0x7ffffffe            	// #2147483646
    3850:	6b00027f 	cmp	w19, w0
    3854:	54ffcdaa 	b.ge	3208 <fmt_fp+0x358>  // b.tcont
    3858:	121d0320 	and	w0, w25, #0x8
    385c:	b90083e0 	str	w0, [sp, #128]
    3860:	2a000260 	orr	w0, w19, w0
    3864:	11000668 	add	w8, w19, #0x1
    3868:	7100001f 	cmp	w0, #0x0
    386c:	b90063e0 	str	w0, [sp, #96]
    3870:	1a880508 	cinc	w8, w8, ne  // ne = any
    3874:	321b02fc 	orr	w28, w23, #0x20
    3878:	12b0000b 	mov	w11, #0x7fffffff            	// #2147483647
    387c:	71019b9f 	cmp	w28, #0x66
    3880:	4b08016b 	sub	w11, w11, w8
    3884:	54000a61 	b.ne	39d0 <fmt_fp+0xb20>  // b.any
    3888:	6b0b009f 	cmp	w4, w11
    388c:	54ffcbec 	b.gt	3208 <fmt_fp+0x358>
    3890:	7100009f 	cmp	w4, #0x0
    3894:	5400004d 	b.le	389c <fmt_fp+0x9ec>
    3898:	0b040108 	add	w8, w8, w4
    389c:	710002bf 	cmp	w21, #0x0
    38a0:	f9004fe7 	str	x7, [sp, #152]
    38a4:	12b00000 	mov	w0, #0x7fffffff            	// #2147483647
    38a8:	321f77e1 	mov	w1, #0x7ffffffe            	// #2147483646
    38ac:	1a810000 	csel	w0, w0, w1, eq  // eq = none
    38b0:	6b08001f 	cmp	w0, w8
    38b4:	54ffcaab 	b.lt	3208 <fmt_fp+0x358>  // b.tstop
    38b8:	0b150117 	add	w23, w8, w21
    38bc:	2a1903e4 	mov	w4, w25
    38c0:	2a1703e3 	mov	w3, w23
    38c4:	2a1603e2 	mov	w2, w22
    38c8:	aa1403e0 	mov	x0, x20
    38cc:	52800401 	mov	w1, #0x20                  	// #32
    38d0:	97fffd51 	bl	2e14 <pad>
    38d4:	93407ea2 	sxtw	x2, w21
    38d8:	aa1803e1 	mov	x1, x24
    38dc:	aa1403e0 	mov	x0, x20
    38e0:	97fffd45 	bl	2df4 <out>
    38e4:	52100324 	eor	w4, w25, #0x10000
    38e8:	2a1703e3 	mov	w3, w23
    38ec:	2a1603e2 	mov	w2, w22
    38f0:	aa1403e0 	mov	x0, x20
    38f4:	52800601 	mov	w1, #0x30                  	// #48
    38f8:	97fffd47 	bl	2e14 <pad>
    38fc:	71019b9f 	cmp	w28, #0x66
    3900:	f9404fe7 	ldr	x7, [sp, #152]
    3904:	540010e1 	b.ne	3b20 <fmt_fp+0xc70>  // b.any
    3908:	eb1b00ff 	cmp	x7, x27
    390c:	910383f8 	add	x24, sp, #0xe0
    3910:	9a9b90fb 	csel	x27, x7, x27, ls  // ls = plast
    3914:	91002715 	add	x21, x24, #0x9
    3918:	aa1b03fc 	mov	x28, x27
    391c:	f9003bf5 	str	x21, [sp, #112]
    3920:	eb07039f 	cmp	x28, x7
    3924:	54000949 	b.ls	3a4c <fmt_fp+0xb9c>  // b.plast
    3928:	910010e0 	add	x0, x7, #0x4
    392c:	d1000f61 	sub	x1, x27, #0x3
    3930:	cb1b0000 	sub	x0, x0, x27
    3934:	910004e7 	add	x7, x7, #0x1
    3938:	927ef400 	and	x0, x0, #0xfffffffffffffffc
    393c:	eb0100ff 	cmp	x7, x1
    3940:	9a9f2000 	csel	x0, x0, xzr, cs  // cs = hs, nlast
    3944:	8b000375 	add	x21, x27, x0
    3948:	b94063e0 	ldr	w0, [sp, #96]
    394c:	34000e60 	cbz	w0, 3b18 <fmt_fp+0xc68>
    3950:	910383fb 	add	x27, sp, #0xe0
    3954:	5280061c 	mov	w28, #0x30                  	// #48
    3958:	91002778 	add	x24, x27, #0x9
    395c:	aa1403e0 	mov	x0, x20
    3960:	d2800022 	mov	x2, #0x1                   	// #1
    3964:	b0000061 	adrp	x1, 10000 <__text_end+0x1600>
    3968:	91322421 	add	x1, x1, #0xc89
    396c:	97fffd22 	bl	2df4 <out>
    3970:	7100027f 	cmp	w19, #0x0
    3974:	fa5ac2a2 	ccmp	x21, x26, #0x2, gt
    3978:	54000a63 	b.cc	3ac4 <fmt_fp+0xc14>  // b.lo, b.ul, b.last
    397c:	52800123 	mov	w3, #0x9                   	// #9
    3980:	aa1403e0 	mov	x0, x20
    3984:	0b030262 	add	w2, w19, w3
    3988:	52800004 	mov	w4, #0x0                   	// #0
    398c:	52800601 	mov	w1, #0x30                  	// #48
    3990:	97fffd21 	bl	2e14 <pad>
    3994:	aa1403e0 	mov	x0, x20
    3998:	52130324 	eor	w4, w25, #0x2000
    399c:	2a1703e3 	mov	w3, w23
    39a0:	2a1603e2 	mov	w2, w22
    39a4:	52800401 	mov	w1, #0x20                  	// #32
    39a8:	97fffd1b 	bl	2e14 <pad>
    39ac:	6b1602ff 	cmp	w23, w22
    39b0:	1a96a2e0 	csel	w0, w23, w22, ge  // ge = tcont
    39b4:	17fffe16 	b	320c <fmt_fp+0x35c>
    39b8:	52800140 	mov	w0, #0xa                   	// #10
    39bc:	52800002 	mov	w2, #0x0                   	// #0
    39c0:	2a0003e8 	mov	w8, w0
    39c4:	17ffff92 	b	380c <fmt_fp+0x95c>
    39c8:	8b24c000 	add	x0, x0, w4, sxtw
    39cc:	17ffff9c 	b	383c <fmt_fp+0x98c>
    39d0:	910343ea 	add	x10, sp, #0xd0
    39d4:	7100009f 	cmp	w4, #0x0
    39d8:	91003149 	add	x9, x10, #0xc
    39dc:	5a84a480 	cneg	w0, w4, lt  // lt = tstop
    39e0:	aa0903e1 	mov	x1, x9
    39e4:	b90073e4 	str	w4, [sp, #112]
    39e8:	93407c00 	sxtw	x0, w0
    39ec:	f9004fe7 	str	x7, [sp, #152]
    39f0:	97fffcdd 	bl	2d64 <fmt_u>
    39f4:	b94073e4 	ldr	w4, [sp, #112]
    39f8:	52800602 	mov	w2, #0x30                  	// #48
    39fc:	f9404fe7 	ldr	x7, [sp, #152]
    3a00:	cb000121 	sub	x1, x9, x0
    3a04:	f100043f 	cmp	x1, #0x1
    3a08:	540001ed 	b.le	3a44 <fmt_fp+0xb94>
    3a0c:	7100009f 	cmp	w4, #0x0
    3a10:	528005a1 	mov	w1, #0x2d                  	// #45
    3a14:	52800562 	mov	w2, #0x2b                  	// #43
    3a18:	1a82b021 	csel	w1, w1, w2, lt  // lt = tstop
    3a1c:	381fe017 	sturb	w23, [x0, #-2]
    3a20:	381ff001 	sturb	w1, [x0, #-1]
    3a24:	d1000801 	sub	x1, x0, #0x2
    3a28:	91003140 	add	x0, x10, #0xc
    3a2c:	f9003be1 	str	x1, [sp, #112]
    3a30:	cb010000 	sub	x0, x0, x1
    3a34:	eb2bc01f 	cmp	x0, w11, sxtw
    3a38:	54ffbe8c 	b.gt	3208 <fmt_fp+0x358>
    3a3c:	0b000108 	add	w8, w8, w0
    3a40:	17ffff97 	b	389c <fmt_fp+0x9ec>
    3a44:	381ffc02 	strb	w2, [x0, #-1]!
    3a48:	17ffffee 	b	3a00 <fmt_fp+0xb50>
    3a4c:	b9400380 	ldr	w0, [x28]
    3a50:	aa1503e1 	mov	x1, x21
    3a54:	f90043e7 	str	x7, [sp, #128]
    3a58:	97fffcc3 	bl	2d64 <fmt_u>
    3a5c:	aa0003e1 	mov	x1, x0
    3a60:	eb1b039f 	cmp	x28, x27
    3a64:	f94043e7 	ldr	x7, [sp, #128]
    3a68:	54000121 	b.ne	3a8c <fmt_fp+0xbdc>  // b.any
    3a6c:	eb15001f 	cmp	x0, x21
    3a70:	540001a1 	b.ne	3aa4 <fmt_fp+0xbf4>  // b.any
    3a74:	52800600 	mov	w0, #0x30                  	// #48
    3a78:	91002301 	add	x1, x24, #0x8
    3a7c:	3903a3e0 	strb	w0, [sp, #232]
    3a80:	14000009 	b	3aa4 <fmt_fp+0xbf4>
    3a84:	52800602 	mov	w2, #0x30                  	// #48
    3a88:	381ffc02 	strb	w2, [x0, #-1]!
    3a8c:	eb18001f 	cmp	x0, x24
    3a90:	54ffffa8 	b.hi	3a84 <fmt_fp+0xbd4>  // b.pmore
    3a94:	cb010300 	sub	x0, x24, x1
    3a98:	eb18003f 	cmp	x1, x24
    3a9c:	9a9f2000 	csel	x0, x0, xzr, cs  // cs = hs, nlast
    3aa0:	8b000021 	add	x1, x1, x0
    3aa4:	f9403be0 	ldr	x0, [sp, #112]
    3aa8:	f90043e7 	str	x7, [sp, #128]
    3aac:	9100139c 	add	x28, x28, #0x4
    3ab0:	cb010002 	sub	x2, x0, x1
    3ab4:	aa1403e0 	mov	x0, x20
    3ab8:	97fffccf 	bl	2df4 <out>
    3abc:	f94043e7 	ldr	x7, [sp, #128]
    3ac0:	17ffff98 	b	3920 <fmt_fp+0xa70>
    3ac4:	b94002a0 	ldr	w0, [x21]
    3ac8:	aa1803e1 	mov	x1, x24
    3acc:	97fffca6 	bl	2d64 <fmt_u>
    3ad0:	aa0003e1 	mov	x1, x0
    3ad4:	eb1b003f 	cmp	x1, x27
    3ad8:	540001c8 	b.hi	3b10 <fmt_fp+0xc60>  // b.pmore
    3adc:	eb1b001f 	cmp	x0, x27
    3ae0:	cb000361 	sub	x1, x27, x0
    3ae4:	9a9f2021 	csel	x1, x1, xzr, cs  // cs = hs, nlast
    3ae8:	7100267f 	cmp	w19, #0x9
    3aec:	52800122 	mov	w2, #0x9                   	// #9
    3af0:	1a82d262 	csel	w2, w19, w2, le
    3af4:	8b010001 	add	x1, x0, x1
    3af8:	910012b5 	add	x21, x21, #0x4
    3afc:	93407c42 	sxtw	x2, w2
    3b00:	aa1403e0 	mov	x0, x20
    3b04:	51002673 	sub	w19, w19, #0x9
    3b08:	97fffcbb 	bl	2df4 <out>
    3b0c:	17ffff99 	b	3970 <fmt_fp+0xac0>
    3b10:	381ffc3c 	strb	w28, [x1, #-1]!
    3b14:	17fffff0 	b	3ad4 <fmt_fp+0xc24>
    3b18:	52800013 	mov	w19, #0x0                   	// #0
    3b1c:	17ffff98 	b	397c <fmt_fp+0xacc>
    3b20:	eb1b035f 	cmp	x26, x27
    3b24:	54000048 	b.hi	3b2c <fmt_fp+0xc7c>  // b.pmore
    3b28:	9100137a 	add	x26, x27, #0x4
    3b2c:	910383f5 	add	x21, sp, #0xe0
    3b30:	b0000060 	adrp	x0, 10000 <__text_end+0x1600>
    3b34:	aa1b03f8 	mov	x24, x27
    3b38:	91322400 	add	x0, x0, #0xc89
    3b3c:	f90033e0 	str	x0, [sp, #96]
    3b40:	910026a0 	add	x0, x21, #0x9
    3b44:	f9004fe0 	str	x0, [sp, #152]
    3b48:	7100027f 	cmp	w19, #0x0
    3b4c:	fa5aa302 	ccmp	x24, x26, #0x2, ge  // ge = tcont
    3b50:	54000183 	b.cc	3b80 <fmt_fp+0xcd0>  // b.lo, b.ul, b.last
    3b54:	aa1403e0 	mov	x0, x20
    3b58:	52800243 	mov	w3, #0x12                  	// #18
    3b5c:	52800601 	mov	w1, #0x30                  	// #48
    3b60:	0b030262 	add	w2, w19, w3
    3b64:	52800004 	mov	w4, #0x0                   	// #0
    3b68:	97fffcab 	bl	2e14 <pad>
    3b6c:	f9403be0 	ldr	x0, [sp, #112]
    3b70:	910373e2 	add	x2, sp, #0xdc
    3b74:	cb000042 	sub	x2, x2, x0
    3b78:	aa0003e1 	mov	x1, x0
    3b7c:	17fffd06 	b	2f94 <fmt_fp+0xe4>
    3b80:	b9400300 	ldr	w0, [x24]
    3b84:	910026a4 	add	x4, x21, #0x9
    3b88:	aa0403e1 	mov	x1, x4
    3b8c:	97fffc76 	bl	2d64 <fmt_u>
    3b90:	aa0003e1 	mov	x1, x0
    3b94:	eb04001f 	cmp	x0, x4
    3b98:	54000081 	b.ne	3ba8 <fmt_fp+0xcf8>  // b.any
    3b9c:	910022a1 	add	x1, x21, #0x8
    3ba0:	52800600 	mov	w0, #0x30                  	// #48
    3ba4:	3903a3e0 	strb	w0, [sp, #232]
    3ba8:	eb1b031f 	cmp	x24, x27
    3bac:	54000421 	b.ne	3c30 <fmt_fp+0xd80>  // b.any
    3bb0:	aa1403e0 	mov	x0, x20
    3bb4:	9100043c 	add	x28, x1, #0x1
    3bb8:	d2800022 	mov	x2, #0x1                   	// #1
    3bbc:	97fffc8e 	bl	2df4 <out>
    3bc0:	b94083e0 	ldr	w0, [sp, #128]
    3bc4:	2a130000 	orr	w0, w0, w19
    3bc8:	340001a0 	cbz	w0, 3bfc <fmt_fp+0xd4c>
    3bcc:	f94033e1 	ldr	x1, [sp, #96]
    3bd0:	aa1403e0 	mov	x0, x20
    3bd4:	d2800022 	mov	x2, #0x1                   	// #1
    3bd8:	97fffc87 	bl	2df4 <out>
    3bdc:	14000008 	b	3bfc <fmt_fp+0xd4c>
    3be0:	381ffc02 	strb	w2, [x0, #-1]!
    3be4:	eb15001f 	cmp	x0, x21
    3be8:	54ffffc8 	b.hi	3be0 <fmt_fp+0xd30>  // b.pmore
    3bec:	cb0102a3 	sub	x3, x21, x1
    3bf0:	eb15003f 	cmp	x1, x21
    3bf4:	9a9f2063 	csel	x3, x3, xzr, cs  // cs = hs, nlast
    3bf8:	8b03003c 	add	x28, x1, x3
    3bfc:	f9404fe0 	ldr	x0, [sp, #152]
    3c00:	93407e62 	sxtw	x2, w19
    3c04:	aa1c03e1 	mov	x1, x28
    3c08:	91001318 	add	x24, x24, #0x4
    3c0c:	cb1c0004 	sub	x4, x0, x28
    3c10:	aa1403e0 	mov	x0, x20
    3c14:	eb33c09f 	cmp	x4, w19, sxtw
    3c18:	f90053e4 	str	x4, [sp, #160]
    3c1c:	9a84a042 	csel	x2, x2, x4, ge  // ge = tcont
    3c20:	97fffc75 	bl	2df4 <out>
    3c24:	f94053e4 	ldr	x4, [sp, #160]
    3c28:	4b040273 	sub	w19, w19, w4
    3c2c:	17ffffc7 	b	3b48 <fmt_fp+0xc98>
    3c30:	aa0103e0 	mov	x0, x1
    3c34:	52800602 	mov	w2, #0x30                  	// #48
    3c38:	17ffffeb 	b	3be4 <fmt_fp+0xd34>

0000000000003c3c <printf_core>:
    3c3c:	a9af53f3 	stp	x19, x20, [sp, #-272]!
    3c40:	52800014 	mov	w20, #0x0                   	// #0
    3c44:	a9015bf5 	stp	x21, x22, [sp, #16]
    3c48:	aa0003f5 	mov	x21, x0
    3c4c:	910363e0 	add	x0, sp, #0xd8
    3c50:	a90263f7 	stp	x23, x24, [sp, #32]
    3c54:	aa0203f7 	mov	x23, x2
    3c58:	52800016 	mov	w22, #0x0                   	// #0
    3c5c:	a9036bf9 	stp	x25, x26, [sp, #48]
    3c60:	9100dc19 	add	x25, x0, #0x37
    3c64:	a90473fb 	stp	x27, x28, [sp, #64]
    3c68:	f9002bfe 	str	x30, [sp, #80]
    3c6c:	b90067ff 	str	wzr, [sp, #100]
    3c70:	a90683e4 	stp	x4, x0, [sp, #104]
    3c74:	9102a3e0 	add	x0, sp, #0xa8
    3c78:	f9003fe3 	str	x3, [sp, #120]
    3c7c:	f90047e0 	str	x0, [sp, #136]
    3c80:	f9005be1 	str	x1, [sp, #176]
    3c84:	f9405bfc 	ldr	x28, [sp, #176]
    3c88:	0b1402d6 	add	w22, w22, w20
    3c8c:	39400380 	ldrb	w0, [x28]
    3c90:	35000220 	cbnz	w0, 3cd4 <printf_core+0x98>
    3c94:	b5001c75 	cbnz	x21, 4020 <printf_core+0x3e4>
    3c98:	b94067e0 	ldr	w0, [sp, #100]
    3c9c:	34001c00 	cbz	w0, 401c <printf_core+0x3e0>
    3ca0:	d2800033 	mov	x19, #0x1                   	// #1
    3ca4:	f94037e0 	ldr	x0, [sp, #104]
    3ca8:	b8737801 	ldr	w1, [x0, x19, lsl #2]
    3cac:	35004141 	cbnz	w1, 44d4 <printf_core+0x898>
    3cb0:	f94037e0 	ldr	x0, [sp, #104]
    3cb4:	b8737800 	ldr	w0, [x0, x19, lsl #2]
    3cb8:	35001260 	cbnz	w0, 3f04 <printf_core+0x2c8>
    3cbc:	91000673 	add	x19, x19, #0x1
    3cc0:	f1002a7f 	cmp	x19, #0xa
    3cc4:	54ffff61 	b.ne	3cb0 <printf_core+0x74>  // b.any
    3cc8:	1400020a 	b	44f0 <printf_core+0x8b4>
    3ccc:	910004c6 	add	x6, x6, #0x1
    3cd0:	f9005be6 	str	x6, [sp, #176]
    3cd4:	f9405be6 	ldr	x6, [sp, #176]
    3cd8:	394000c0 	ldrb	w0, [x6]
    3cdc:	7100941f 	cmp	w0, #0x25
    3ce0:	7a401804 	ccmp	w0, #0x0, #0x4, ne  // ne = any
    3ce4:	54ffff41 	b.ne	3ccc <printf_core+0x90>  // b.any
    3ce8:	f9405be0 	ldr	x0, [sp, #176]
    3cec:	39400001 	ldrb	w1, [x0]
    3cf0:	7100943f 	cmp	w1, #0x25
    3cf4:	54000081 	b.ne	3d04 <printf_core+0xc8>  // b.any
    3cf8:	39400401 	ldrb	w1, [x0, #1]
    3cfc:	7100943f 	cmp	w1, #0x25
    3d00:	54000e60 	b.eq	3ecc <printf_core+0x290>  // b.none
    3d04:	12b00000 	mov	w0, #0x7fffffff            	// #2147483647
    3d08:	4b160000 	sub	w0, w0, w22
    3d0c:	b90083e0 	str	w0, [sp, #128]
    3d10:	cb1c00d8 	sub	x24, x6, x28
    3d14:	eb20c31f 	cmp	x24, w0, sxtw
    3d18:	5400398c 	b.gt	4448 <printf_core+0x80c>
    3d1c:	2a1803f4 	mov	w20, w24
    3d20:	b40000b5 	cbz	x21, 3d34 <printf_core+0xf8>
    3d24:	93407f02 	sxtw	x2, w24
    3d28:	aa1c03e1 	mov	x1, x28
    3d2c:	aa1503e0 	mov	x0, x21
    3d30:	97fffc31 	bl	2df4 <out>
    3d34:	35003858 	cbnz	w24, 443c <printf_core+0x800>
    3d38:	f9405be2 	ldr	x2, [sp, #176]
    3d3c:	39400441 	ldrb	w1, [x2, #1]
    3d40:	5100c021 	sub	w1, w1, #0x30
    3d44:	7100243f 	cmp	w1, #0x9
    3d48:	54000ca8 	b.hi	3edc <printf_core+0x2a0>  // b.pmore
    3d4c:	39400840 	ldrb	w0, [x2, #2]
    3d50:	7100901f 	cmp	w0, #0x24
    3d54:	54000c41 	b.ne	3edc <printf_core+0x2a0>  // b.any
    3d58:	2a0103ea 	mov	w10, w1
    3d5c:	91000c42 	add	x2, x2, #0x3
    3d60:	52800020 	mov	w0, #0x1                   	// #1
    3d64:	b90067e0 	str	w0, [sp, #100]
    3d68:	52851124 	mov	w4, #0x2889                	// #10377
    3d6c:	5280001b 	mov	w27, #0x0                   	// #0
    3d70:	72a00024 	movk	w4, #0x1, lsl #16
    3d74:	52800025 	mov	w5, #0x1                   	// #1
    3d78:	f9005be2 	str	x2, [sp, #176]
    3d7c:	f9405be1 	ldr	x1, [sp, #176]
    3d80:	39400022 	ldrb	w2, [x1]
    3d84:	51008040 	sub	w0, w2, #0x20
    3d88:	71007c1f 	cmp	w0, #0x1f
    3d8c:	54000068 	b.hi	3d98 <printf_core+0x15c>  // b.pmore
    3d90:	1ac02483 	lsr	w3, w4, w0
    3d94:	37000aa3 	tbnz	w3, #0, 3ee8 <printf_core+0x2ac>
    3d98:	7100a85f 	cmp	w2, #0x2a
    3d9c:	54000e61 	b.ne	3f68 <printf_core+0x32c>  // b.any
    3da0:	39400420 	ldrb	w0, [x1, #1]
    3da4:	5100c002 	sub	w2, w0, #0x30
    3da8:	7100245f 	cmp	w2, #0x9
    3dac:	54000a88 	b.hi	3efc <printf_core+0x2c0>  // b.pmore
    3db0:	39400822 	ldrb	w2, [x1, #2]
    3db4:	7100905f 	cmp	w2, #0x24
    3db8:	54000a21 	b.ne	3efc <printf_core+0x2c0>  // b.any
    3dbc:	f94037e2 	ldr	x2, [sp, #104]
    3dc0:	91000c21 	add	x1, x1, #0x3
    3dc4:	8b200840 	add	x0, x2, w0, uxtb #2
    3dc8:	52800142 	mov	w2, #0xa                   	// #10
    3dcc:	b8140002 	stur	w2, [x0, #-192]
    3dd0:	92805fe2 	mov	x2, #0xfffffffffffffd00    	// #-768
    3dd4:	385fe020 	ldurb	w0, [x1, #-2]
    3dd8:	f9005be1 	str	x1, [sp, #176]
    3ddc:	8b205040 	add	x0, x2, w0, uxtw #4
    3de0:	f9403fe2 	ldr	x2, [sp, #120]
    3de4:	b8606853 	ldr	w19, [x2, x0]
    3de8:	52800020 	mov	w0, #0x1                   	// #1
    3dec:	b90067e0 	str	w0, [sp, #100]
    3df0:	36f80073 	tbz	w19, #31, 3dfc <printf_core+0x1c0>
    3df4:	3213037b 	orr	w27, w27, #0x2000
    3df8:	4b1303f3 	neg	w19, w19
    3dfc:	f9405be1 	ldr	x1, [sp, #176]
    3e00:	39400020 	ldrb	w0, [x1]
    3e04:	7100b81f 	cmp	w0, #0x2e
    3e08:	54000ee1 	b.ne	3fe4 <printf_core+0x3a8>  // b.any
    3e0c:	39400420 	ldrb	w0, [x1, #1]
    3e10:	7100a81f 	cmp	w0, #0x2a
    3e14:	54000da1 	b.ne	3fc8 <printf_core+0x38c>  // b.any
    3e18:	39400820 	ldrb	w0, [x1, #2]
    3e1c:	5100c002 	sub	w2, w0, #0x30
    3e20:	7100245f 	cmp	w2, #0x9
    3e24:	54000ac8 	b.hi	3f7c <printf_core+0x340>  // b.pmore
    3e28:	39400c22 	ldrb	w2, [x1, #3]
    3e2c:	7100905f 	cmp	w2, #0x24
    3e30:	54000a61 	b.ne	3f7c <printf_core+0x340>  // b.any
    3e34:	f94037e2 	ldr	x2, [sp, #104]
    3e38:	91001021 	add	x1, x1, #0x4
    3e3c:	8b200840 	add	x0, x2, w0, uxtb #2
    3e40:	52800142 	mov	w2, #0xa                   	// #10
    3e44:	b8140002 	stur	w2, [x0, #-192]
    3e48:	92805fe2 	mov	x2, #0xfffffffffffffd00    	// #-768
    3e4c:	385fe020 	ldurb	w0, [x1, #-2]
    3e50:	8b205040 	add	x0, x2, w0, uxtw #4
    3e54:	f9403fe2 	ldr	x2, [sp, #120]
    3e58:	b8606858 	ldr	w24, [x2, x0]
    3e5c:	2a3803e3 	mvn	w3, w24
    3e60:	f9005be1 	str	x1, [sp, #176]
    3e64:	531f7c7a 	lsr	w26, w3, #31
    3e68:	b0000062 	adrp	x2, 10000 <__text_end+0x1600>
    3e6c:	91327042 	add	x2, x2, #0xc9c
    3e70:	52800005 	mov	w5, #0x0                   	// #0
    3e74:	d2800744 	mov	x4, #0x3a                  	// #58
    3e78:	f9405be0 	ldr	x0, [sp, #176]
    3e7c:	39400001 	ldrb	w1, [x0]
    3e80:	51010421 	sub	w1, w1, #0x41
    3e84:	7100e43f 	cmp	w1, #0x39
    3e88:	540003e8 	b.hi	3f04 <printf_core+0x2c8>  // b.pmore
    3e8c:	91000401 	add	x1, x0, #0x1
    3e90:	f9005be1 	str	x1, [sp, #176]
    3e94:	39400001 	ldrb	w1, [x0]
    3e98:	2a0503e0 	mov	w0, w5
    3e9c:	51010421 	sub	w1, w1, #0x41
    3ea0:	9b040800 	madd	x0, x0, x4, x2
    3ea4:	3861c801 	ldrb	w1, [x0, w1, sxtw]
    3ea8:	51000420 	sub	w0, w1, #0x1
    3eac:	71001c1f 	cmp	w0, #0x7
    3eb0:	54000a09 	b.ls	3ff0 <printf_core+0x3b4>  // b.plast
    3eb4:	34000281 	cbz	w1, 3f04 <printf_core+0x2c8>
    3eb8:	71006c3f 	cmp	w1, #0x1b
    3ebc:	540009e1 	b.ne	3ff8 <printf_core+0x3bc>  // b.any
    3ec0:	36f8022a 	tbz	w10, #31, 3f04 <printf_core+0x2c8>
    3ec4:	b5000c95 	cbnz	x21, 4054 <printf_core+0x418>
    3ec8:	17ffff6f 	b	3c84 <printf_core+0x48>
    3ecc:	91000800 	add	x0, x0, #0x2
    3ed0:	910004c6 	add	x6, x6, #0x1
    3ed4:	f9005be0 	str	x0, [sp, #176]
    3ed8:	17ffff84 	b	3ce8 <printf_core+0xac>
    3edc:	91000442 	add	x2, x2, #0x1
    3ee0:	1280000a 	mov	w10, #0xffffffff            	// #-1
    3ee4:	17ffffa1 	b	3d68 <printf_core+0x12c>
    3ee8:	91000421 	add	x1, x1, #0x1
    3eec:	1ac020a0 	lsl	w0, w5, w0
    3ef0:	2a00037b 	orr	w27, w27, w0
    3ef4:	f9005be1 	str	x1, [sp, #176]
    3ef8:	17ffffa1 	b	3d7c <printf_core+0x140>
    3efc:	b94067e0 	ldr	w0, [sp, #100]
    3f00:	340000c0 	cbz	w0, 3f18 <printf_core+0x2dc>
    3f04:	9400041a 	bl	4f6c <__errno_location>
    3f08:	528002c1 	mov	w1, #0x16                  	// #22
    3f0c:	b9000001 	str	w1, [x0]
    3f10:	12800016 	mov	w22, #0xffffffff            	// #-1
    3f14:	14000043 	b	4020 <printf_core+0x3e4>
    3f18:	b4000255 	cbz	x21, 3f60 <printf_core+0x324>
    3f1c:	b9401ae0 	ldr	w0, [x23, #24]
    3f20:	f94002e2 	ldr	x2, [x23]
    3f24:	37f80100 	tbnz	w0, #31, 3f44 <printf_core+0x308>
    3f28:	91002c40 	add	x0, x2, #0xb
    3f2c:	927df000 	and	x0, x0, #0xfffffffffffffff8
    3f30:	f90002e0 	str	x0, [x23]
    3f34:	b9400053 	ldr	w19, [x2]
    3f38:	91000421 	add	x1, x1, #0x1
    3f3c:	f9005be1 	str	x1, [sp, #176]
    3f40:	17ffffac 	b	3df0 <printf_core+0x1b4>
    3f44:	11002003 	add	w3, w0, #0x8
    3f48:	b9001ae3 	str	w3, [x23, #24]
    3f4c:	7100007f 	cmp	w3, #0x0
    3f50:	54fffecc 	b.gt	3f28 <printf_core+0x2ec>
    3f54:	f94006e2 	ldr	x2, [x23, #8]
    3f58:	8b20c042 	add	x2, x2, w0, sxtw
    3f5c:	17fffff6 	b	3f34 <printf_core+0x2f8>
    3f60:	2a1803f3 	mov	w19, w24
    3f64:	17fffff5 	b	3f38 <printf_core+0x2fc>
    3f68:	9102c3e0 	add	x0, sp, #0xb0
    3f6c:	97fffb89 	bl	2d90 <getint>
    3f70:	2a0003f3 	mov	w19, w0
    3f74:	36fff440 	tbz	w0, #31, 3dfc <printf_core+0x1c0>
    3f78:	14000134 	b	4448 <printf_core+0x80c>
    3f7c:	b94067e0 	ldr	w0, [sp, #100]
    3f80:	35fffc20 	cbnz	w0, 3f04 <printf_core+0x2c8>
    3f84:	b4000115 	cbz	x21, 3fa4 <printf_core+0x368>
    3f88:	b9401ae2 	ldr	w2, [x23, #24]
    3f8c:	f94002e0 	ldr	x0, [x23]
    3f90:	37f800e2 	tbnz	w2, #31, 3fac <printf_core+0x370>
    3f94:	91002c02 	add	x2, x0, #0xb
    3f98:	927df042 	and	x2, x2, #0xfffffffffffffff8
    3f9c:	f90002e2 	str	x2, [x23]
    3fa0:	b9400018 	ldr	w24, [x0]
    3fa4:	91000821 	add	x1, x1, #0x2
    3fa8:	17ffffad 	b	3e5c <printf_core+0x220>
    3fac:	11002043 	add	w3, w2, #0x8
    3fb0:	b9001ae3 	str	w3, [x23, #24]
    3fb4:	7100007f 	cmp	w3, #0x0
    3fb8:	54fffeec 	b.gt	3f94 <printf_core+0x358>
    3fbc:	f94006e0 	ldr	x0, [x23, #8]
    3fc0:	8b22c000 	add	x0, x0, w2, sxtw
    3fc4:	17fffff7 	b	3fa0 <printf_core+0x364>
    3fc8:	91000421 	add	x1, x1, #0x1
    3fcc:	9102c3e0 	add	x0, sp, #0xb0
    3fd0:	5280003a 	mov	w26, #0x1                   	// #1
    3fd4:	f9005be1 	str	x1, [sp, #176]
    3fd8:	97fffb6e 	bl	2d90 <getint>
    3fdc:	2a0003f8 	mov	w24, w0
    3fe0:	17ffffa2 	b	3e68 <printf_core+0x22c>
    3fe4:	2a1803fa 	mov	w26, w24
    3fe8:	12800018 	mov	w24, #0xffffffff            	// #-1
    3fec:	17ffff9f 	b	3e68 <printf_core+0x22c>
    3ff0:	2a0103e5 	mov	w5, w1
    3ff4:	17ffffa1 	b	3e78 <printf_core+0x23c>
    3ff8:	37f8010a 	tbnz	w10, #31, 4018 <printf_core+0x3dc>
    3ffc:	f94037e0 	ldr	x0, [sp, #104]
    4000:	b82ad801 	str	w1, [x0, w10, sxtw #2]
    4004:	f9403fe0 	ldr	x0, [sp, #120]
    4008:	8b2ad001 	add	x1, x0, w10, sxtw #4
    400c:	a9400420 	ldp	x0, x1, [x1]
    4010:	a90c07e0 	stp	x0, x1, [sp, #192]
    4014:	17ffffac 	b	3ec4 <printf_core+0x288>
    4018:	b5000155 	cbnz	x21, 4040 <printf_core+0x404>
    401c:	52800016 	mov	w22, #0x0                   	// #0
    4020:	2a1603e0 	mov	w0, w22
    4024:	a9415bf5 	ldp	x21, x22, [sp, #16]
    4028:	a94263f7 	ldp	x23, x24, [sp, #32]
    402c:	a9436bf9 	ldp	x25, x26, [sp, #48]
    4030:	a94473fb 	ldp	x27, x28, [sp, #64]
    4034:	f9402bfe 	ldr	x30, [sp, #80]
    4038:	a8d153f3 	ldp	x19, x20, [sp], #272
    403c:	d65f03c0 	ret
    4040:	aa1703e2 	mov	x2, x23
    4044:	910303e0 	add	x0, sp, #0xc0
    4048:	b90093e5 	str	w5, [sp, #144]
    404c:	97fffab6 	bl	2b24 <pop_arg>
    4050:	b94093e5 	ldr	w5, [sp, #144]
    4054:	f9405be0 	ldr	x0, [sp, #176]
    4058:	385ff004 	ldurb	w4, [x0, #-1]
    405c:	340000a5 	cbz	w5, 4070 <printf_core+0x434>
    4060:	12000c80 	and	w0, w4, #0xf
    4064:	71000c1f 	cmp	w0, #0x3
    4068:	54000041 	b.ne	4070 <printf_core+0x434>  // b.any
    406c:	121a7884 	and	w4, w4, #0xffffffdf
    4070:	3668005b 	tbz	w27, #13, 4078 <printf_core+0x43c>
    4074:	120f7b7b 	and	w27, w27, #0xfffeffff
    4078:	51010481 	sub	w1, w4, #0x41
    407c:	7100dc3f 	cmp	w1, #0x37
    4080:	540021e8 	b.hi	44bc <printf_core+0x880>  // b.pmore
    4084:	90000060 	adrp	x0, 10000 <__text_end+0x1600>
    4088:	91163000 	add	x0, x0, #0x58c
    408c:	78615800 	ldrh	w0, [x0, w1, uxtw #1]
    4090:	10000061 	adr	x1, 409c <printf_core+0x460>
    4094:	8b20a820 	add	x0, x1, w0, sxth #2
    4098:	d61f0000 	br	x0
    409c:	71001cbf 	cmp	w5, #0x7
    40a0:	54001ce8 	b.hi	443c <printf_core+0x800>  // b.pmore
    40a4:	90000060 	adrp	x0, 10000 <__text_end+0x1600>
    40a8:	9117f000 	add	x0, x0, #0x5fc
    40ac:	78655800 	ldrh	w0, [x0, w5, uxtw #1]
    40b0:	10000061 	adr	x1, 40bc <printf_core+0x480>
    40b4:	8b20a820 	add	x0, x1, w0, sxth #2
    40b8:	d61f0000 	br	x0
    40bc:	f94063e0 	ldr	x0, [sp, #192]
    40c0:	b9000016 	str	w22, [x0]
    40c4:	17fffef0 	b	3c84 <printf_core+0x48>
    40c8:	f94063e0 	ldr	x0, [sp, #192]
    40cc:	79000016 	strh	w22, [x0]
    40d0:	17fffeed 	b	3c84 <printf_core+0x48>
    40d4:	f94063e0 	ldr	x0, [sp, #192]
    40d8:	39000016 	strb	w22, [x0]
    40dc:	17fffeea 	b	3c84 <printf_core+0x48>
    40e0:	f94063e1 	ldr	x1, [sp, #192]
    40e4:	93407ec0 	sxtw	x0, w22
    40e8:	f9000020 	str	x0, [x1]
    40ec:	17fffee6 	b	3c84 <printf_core+0x48>
    40f0:	7100431f 	cmp	w24, #0x10
    40f4:	52800200 	mov	w0, #0x10                  	// #16
    40f8:	321d037b 	orr	w27, w27, #0x8
    40fc:	1a802318 	csel	w24, w24, w0, cs  // cs = hs, nlast
    4100:	52800f04 	mov	w4, #0x78                  	// #120
    4104:	f9403be1 	ldr	x1, [sp, #112]
    4108:	121b0085 	and	w5, w4, #0x20
    410c:	f94063e9 	ldr	x9, [sp, #192]
    4110:	9100dc3c 	add	x28, x1, #0x37
    4114:	90000061 	adrp	x1, 10000 <__text_end+0x1600>
    4118:	9139b021 	add	x1, x1, #0xe6c
    411c:	aa0903e0 	mov	x0, x9
    4120:	b50002e0 	cbnz	x0, 417c <printf_core+0x540>
    4124:	90000065 	adrp	x5, 10000 <__text_end+0x1600>
    4128:	b40004e9 	cbz	x9, 41c4 <printf_core+0x588>
    412c:	361804db 	tbz	w27, #3, 41c4 <printf_core+0x588>
    4130:	d3441c84 	ubfx	x4, x4, #4, #4
    4134:	91322ca5 	add	x5, x5, #0xc8b
    4138:	8b050085 	add	x5, x4, x5
    413c:	52800054 	mov	w20, #0x2                   	// #2
    4140:	6a587f5f 	tst	w26, w24, lsr #31
    4144:	54001821 	b.ne	4448 <printf_core+0x80c>  // b.any
    4148:	3400005a 	cbz	w26, 4150 <printf_core+0x514>
    414c:	120f7b7b 	and	w27, w27, #0xfffeffff
    4150:	f94063e1 	ldr	x1, [sp, #192]
    4154:	b5000041 	cbnz	x1, 415c <printf_core+0x520>
    4158:	34001b98 	cbz	w24, 44c8 <printf_core+0x88c>
    415c:	f100003f 	cmp	x1, #0x0
    4160:	cb1c0320 	sub	x0, x25, x28
    4164:	9a801400 	cinc	x0, x0, eq  // eq = none
    4168:	93407f01 	sxtw	x1, w24
    416c:	eb38c01f 	cmp	x0, w24, sxtw
    4170:	9a81a018 	csel	x24, x0, x1, ge  // ge = tcont
    4174:	aa1903e2 	mov	x2, x25
    4178:	1400003b 	b	4264 <printf_core+0x628>
    417c:	92400c02 	and	x2, x0, #0xf
    4180:	d344fc00 	lsr	x0, x0, #4
    4184:	38626822 	ldrb	w2, [x1, x2]
    4188:	2a0200a2 	orr	w2, w5, w2
    418c:	381fff82 	strb	w2, [x28, #-1]!
    4190:	17ffffe4 	b	4120 <printf_core+0x4e4>
    4194:	f9403be1 	ldr	x1, [sp, #112]
    4198:	f94063e0 	ldr	x0, [sp, #192]
    419c:	9100dc3c 	add	x28, x1, #0x37
    41a0:	b5000160 	cbnz	x0, 41cc <printf_core+0x590>
    41a4:	90000065 	adrp	x5, 10000 <__text_end+0x1600>
    41a8:	361800fb 	tbz	w27, #3, 41c4 <printf_core+0x588>
    41ac:	f9403be0 	ldr	x0, [sp, #112]
    41b0:	9100dc00 	add	x0, x0, #0x37
    41b4:	cb1c0000 	sub	x0, x0, x28
    41b8:	eb38c01f 	cmp	x0, w24, sxtw
    41bc:	5400004b 	b.lt	41c4 <printf_core+0x588>  // b.tstop
    41c0:	11000418 	add	w24, w0, #0x1
    41c4:	91322ca5 	add	x5, x5, #0xc8b
    41c8:	17ffffde 	b	4140 <printf_core+0x504>
    41cc:	12000801 	and	w1, w0, #0x7
    41d0:	d343fc00 	lsr	x0, x0, #3
    41d4:	1100c021 	add	w1, w1, #0x30
    41d8:	381fff81 	strb	w1, [x28, #-1]!
    41dc:	17fffff1 	b	41a0 <printf_core+0x564>
    41e0:	f94063e0 	ldr	x0, [sp, #192]
    41e4:	b6f801a0 	tbz	x0, #63, 4218 <printf_core+0x5dc>
    41e8:	cb0003e0 	neg	x0, x0
    41ec:	52800034 	mov	w20, #0x1                   	// #1
    41f0:	f90063e0 	str	x0, [sp, #192]
    41f4:	90000065 	adrp	x5, 10000 <__text_end+0x1600>
    41f8:	91322ca5 	add	x5, x5, #0xc8b
    41fc:	f94063e0 	ldr	x0, [sp, #192]
    4200:	aa1903e1 	mov	x1, x25
    4204:	f9004be5 	str	x5, [sp, #144]
    4208:	97fffad7 	bl	2d64 <fmt_u>
    420c:	aa0003fc 	mov	x28, x0
    4210:	f9404be5 	ldr	x5, [sp, #144]
    4214:	17ffffcb 	b	4140 <printf_core+0x504>
    4218:	375800db 	tbnz	w27, #11, 4230 <printf_core+0x5f4>
    421c:	3607fedb 	tbz	w27, #0, 41f4 <printf_core+0x5b8>
    4220:	90000065 	adrp	x5, 10000 <__text_end+0x1600>
    4224:	52800034 	mov	w20, #0x1                   	// #1
    4228:	913234a5 	add	x5, x5, #0xc8d
    422c:	17fffff4 	b	41fc <printf_core+0x5c0>
    4230:	90000065 	adrp	x5, 10000 <__text_end+0x1600>
    4234:	52800034 	mov	w20, #0x1                   	// #1
    4238:	913230a5 	add	x5, x5, #0xc8c
    423c:	17fffff0 	b	41fc <printf_core+0x5c0>
    4240:	f94063e0 	ldr	x0, [sp, #192]
    4244:	39043be0 	strb	w0, [sp, #270]
    4248:	f9403be0 	ldr	x0, [sp, #112]
    424c:	90000065 	adrp	x5, 10000 <__text_end+0x1600>
    4250:	120f7b7b 	and	w27, w27, #0xfffeffff
    4254:	91322ca5 	add	x5, x5, #0xc8b
    4258:	aa1903e2 	mov	x2, x25
    425c:	9100d81c 	add	x28, x0, #0x36
    4260:	52800038 	mov	w24, #0x1                   	// #1
    4264:	cb1c0049 	sub	x9, x2, x28
    4268:	a90917e9 	stp	x9, x5, [sp, #144]
    426c:	eb38c13f 	cmp	x9, w24, sxtw
    4270:	1a89d318 	csel	w24, w24, w9, le
    4274:	12b00000 	mov	w0, #0x7fffffff            	// #2147483647
    4278:	4b140000 	sub	w0, w0, w20
    427c:	6b18001f 	cmp	w0, w24
    4280:	54000e4b 	b.lt	4448 <printf_core+0x80c>  // b.tstop
    4284:	0b14031a 	add	w26, w24, w20
    4288:	b94083e0 	ldr	w0, [sp, #128]
    428c:	6b13035f 	cmp	w26, w19
    4290:	1a93a353 	csel	w19, w26, w19, ge  // ge = tcont
    4294:	6b13001f 	cmp	w0, w19
    4298:	54000d8b 	b.lt	4448 <printf_core+0x80c>  // b.tstop
    429c:	2a1b03e4 	mov	w4, w27
    42a0:	2a1a03e3 	mov	w3, w26
    42a4:	2a1303e2 	mov	w2, w19
    42a8:	aa1503e0 	mov	x0, x21
    42ac:	52800401 	mov	w1, #0x20                  	// #32
    42b0:	97fffad9 	bl	2e14 <pad>
    42b4:	f9404fe5 	ldr	x5, [sp, #152]
    42b8:	93407e82 	sxtw	x2, w20
    42bc:	aa1503e0 	mov	x0, x21
    42c0:	2a1303f4 	mov	w20, w19
    42c4:	aa0503e1 	mov	x1, x5
    42c8:	97fffacb 	bl	2df4 <out>
    42cc:	52100364 	eor	w4, w27, #0x10000
    42d0:	2a1a03e3 	mov	w3, w26
    42d4:	2a1303e2 	mov	w2, w19
    42d8:	aa1503e0 	mov	x0, x21
    42dc:	52800601 	mov	w1, #0x30                  	// #48
    42e0:	97fffacd 	bl	2e14 <pad>
    42e4:	f9404be9 	ldr	x9, [sp, #144]
    42e8:	2a1803e2 	mov	w2, w24
    42ec:	aa1503e0 	mov	x0, x21
    42f0:	52800004 	mov	w4, #0x0                   	// #0
    42f4:	2a0903e3 	mov	w3, w9
    42f8:	52800601 	mov	w1, #0x30                  	// #48
    42fc:	f90043e9 	str	x9, [sp, #128]
    4300:	97fffac5 	bl	2e14 <pad>
    4304:	f94043e9 	ldr	x9, [sp, #128]
    4308:	aa1c03e1 	mov	x1, x28
    430c:	aa1503e0 	mov	x0, x21
    4310:	aa0903e2 	mov	x2, x9
    4314:	97fffab8 	bl	2df4 <out>
    4318:	52130364 	eor	w4, w27, #0x2000
    431c:	2a1a03e3 	mov	w3, w26
    4320:	2a1303e2 	mov	w2, w19
    4324:	aa1503e0 	mov	x0, x21
    4328:	52800401 	mov	w1, #0x20                  	// #32
    432c:	97fffaba 	bl	2e14 <pad>
    4330:	17fffe55 	b	3c84 <printf_core+0x48>
    4334:	9400030e 	bl	4f6c <__errno_location>
    4338:	b9400000 	ldr	w0, [x0]
    433c:	9400031a 	bl	4fa4 <strerror>
    4340:	aa0003fc 	mov	x28, x0
    4344:	7100031f 	cmp	w24, #0x0
    4348:	12b00001 	mov	w1, #0x7fffffff            	// #2147483647
    434c:	1a81a301 	csel	w1, w24, w1, ge  // ge = tcont
    4350:	aa1c03e0 	mov	x0, x28
    4354:	93407c21 	sxtw	x1, w1
    4358:	94000226 	bl	4bf0 <strnlen>
    435c:	8b000382 	add	x2, x28, x0
    4360:	36f80078 	tbz	w24, #31, 436c <printf_core+0x730>
    4364:	38606b81 	ldrb	w1, [x28, x0]
    4368:	35000701 	cbnz	w1, 4448 <printf_core+0x80c>
    436c:	90000065 	adrp	x5, 10000 <__text_end+0x1600>
    4370:	2a0003f8 	mov	w24, w0
    4374:	120f7b7b 	and	w27, w27, #0xfffeffff
    4378:	91322ca5 	add	x5, x5, #0xc8b
    437c:	17ffffba 	b	4264 <printf_core+0x628>
    4380:	f94063fc 	ldr	x28, [sp, #192]
    4384:	b5fffe1c 	cbnz	x28, 4344 <printf_core+0x708>
    4388:	90000067 	adrp	x7, 10000 <__text_end+0x1600>
    438c:	913254fc 	add	x28, x7, #0xc95
    4390:	17ffffed 	b	4344 <printf_core+0x708>
    4394:	f94063e0 	ldr	x0, [sp, #192]
    4398:	12800018 	mov	w24, #0xffffffff            	// #-1
    439c:	29177fe0 	stp	w0, wzr, [sp, #184]
    43a0:	9102e3e0 	add	x0, sp, #0xb8
    43a4:	f90063e0 	str	x0, [sp, #192]
    43a8:	f94063f4 	ldr	x20, [sp, #192]
    43ac:	93407f18 	sxtw	x24, w24
    43b0:	d280001a 	mov	x26, #0x0                   	// #0
    43b4:	eb1a031f 	cmp	x24, x26
    43b8:	54000169 	b.ls	43e4 <printf_core+0x7a8>  // b.plast
    43bc:	b9400281 	ldr	w1, [x20]
    43c0:	34000121 	cbz	w1, 43e4 <printf_core+0x7a8>
    43c4:	f94047e0 	ldr	x0, [sp, #136]
    43c8:	91001294 	add	x20, x20, #0x4
    43cc:	9400034e 	bl	5104 <wctomb>
    43d0:	37ffda00 	tbnz	w0, #31, 3f10 <printf_core+0x2d4>
    43d4:	cb1a0301 	sub	x1, x24, x26
    43d8:	93407c02 	sxtw	x2, w0
    43dc:	eb20c03f 	cmp	x1, w0, sxtw
    43e0:	540003a2 	b.cs	4454 <printf_core+0x818>  // b.hs, b.nlast
    43e4:	b2407be0 	mov	x0, #0x7fffffff            	// #2147483647
    43e8:	eb00035f 	cmp	x26, x0
    43ec:	540002e8 	b.hi	4448 <printf_core+0x80c>  // b.pmore
    43f0:	2a1b03e4 	mov	w4, w27
    43f4:	2a1a03e3 	mov	w3, w26
    43f8:	2a1303e2 	mov	w2, w19
    43fc:	aa1503e0 	mov	x0, x21
    4400:	52800401 	mov	w1, #0x20                  	// #32
    4404:	97fffa84 	bl	2e14 <pad>
    4408:	f94063fc 	ldr	x28, [sp, #192]
    440c:	2a1a03f4 	mov	w20, w26
    4410:	d2800018 	mov	x24, #0x0                   	// #0
    4414:	eb18035f 	cmp	x26, x24
    4418:	54000228 	b.hi	445c <printf_core+0x820>  // b.pmore
    441c:	2a1403e3 	mov	w3, w20
    4420:	52130364 	eor	w4, w27, #0x2000
    4424:	2a1303e2 	mov	w2, w19
    4428:	aa1503e0 	mov	x0, x21
    442c:	52800401 	mov	w1, #0x20                  	// #32
    4430:	97fffa79 	bl	2e14 <pad>
    4434:	6b14027f 	cmp	w19, w20
    4438:	1a94a274 	csel	w20, w19, w20, ge  // ge = tcont
    443c:	b94083e0 	ldr	w0, [sp, #128]
    4440:	6b14001f 	cmp	w0, w20
    4444:	54ffc20a 	b.ge	3c84 <printf_core+0x48>  // b.tcont
    4448:	940002c9 	bl	4f6c <__errno_location>
    444c:	52800961 	mov	w1, #0x4b                  	// #75
    4450:	17fffeaf 	b	3f0c <printf_core+0x2d0>
    4454:	8b02035a 	add	x26, x26, x2
    4458:	17ffffd7 	b	43b4 <printf_core+0x778>
    445c:	b9400381 	ldr	w1, [x28]
    4460:	34fffde1 	cbz	w1, 441c <printf_core+0x7e0>
    4464:	f94047e0 	ldr	x0, [sp, #136]
    4468:	9100139c 	add	x28, x28, #0x4
    446c:	94000326 	bl	5104 <wctomb>
    4470:	8b20c318 	add	x24, x24, w0, sxtw
    4474:	93407c02 	sxtw	x2, w0
    4478:	eb1a031f 	cmp	x24, x26
    447c:	54fffd08 	b.hi	441c <printf_core+0x7e0>  // b.pmore
    4480:	f94047e1 	ldr	x1, [sp, #136]
    4484:	aa1503e0 	mov	x0, x21
    4488:	97fffa5b 	bl	2df4 <out>
    448c:	17ffffe2 	b	4414 <printf_core+0x7d8>
    4490:	6a587f5f 	tst	w26, w24, lsr #31
    4494:	54fffda1 	b.ne	4448 <printf_core+0x80c>  // b.any
    4498:	3dc033e0 	ldr	q0, [sp, #192]
    449c:	2a1b03e3 	mov	w3, w27
    44a0:	2a1803e2 	mov	w2, w24
    44a4:	2a1303e1 	mov	w1, w19
    44a8:	aa1503e0 	mov	x0, x21
    44ac:	97fffa81 	bl	2eb0 <fmt_fp>
    44b0:	2a0003f4 	mov	w20, w0
    44b4:	36fffc40 	tbz	w0, #31, 443c <printf_core+0x800>
    44b8:	17ffffe4 	b	4448 <printf_core+0x80c>
    44bc:	90000065 	adrp	x5, 10000 <__text_end+0x1600>
    44c0:	91322ca5 	add	x5, x5, #0xc8b
    44c4:	17ffff2c 	b	4174 <printf_core+0x538>
    44c8:	aa1903e2 	mov	x2, x25
    44cc:	aa1903fc 	mov	x28, x25
    44d0:	17ffff65 	b	4264 <printf_core+0x628>
    44d4:	f9403fe0 	ldr	x0, [sp, #120]
    44d8:	aa1703e2 	mov	x2, x23
    44dc:	8b131000 	add	x0, x0, x19, lsl #4
    44e0:	91000673 	add	x19, x19, #0x1
    44e4:	97fff990 	bl	2b24 <pop_arg>
    44e8:	f1002a7f 	cmp	x19, #0xa
    44ec:	54ffbdc1 	b.ne	3ca4 <printf_core+0x68>  // b.any
    44f0:	52800036 	mov	w22, #0x1                   	// #1
    44f4:	17fffecb 	b	4020 <printf_core+0x3e4>

00000000000044f8 <vfprintf>:
    44f8:	a9a753f3 	stp	x19, x20, [sp, #-400]!
    44fc:	aa0103f4 	mov	x20, x1
    4500:	aa0003f3 	mov	x19, x0
    4504:	a90263f7 	stp	x23, x24, [sp, #32]
    4508:	910163f8 	add	x24, sp, #0x58
    450c:	aa0203e1 	mov	x1, x2
    4510:	aa1803e0 	mov	x0, x24
    4514:	d2800402 	mov	x2, #0x20                  	// #32
    4518:	a9015bf5 	stp	x21, x22, [sp, #16]
    451c:	a9036bf9 	stp	x25, x26, [sp, #48]
    4520:	9101e3fa 	add	x26, sp, #0x78
    4524:	9103c3f9 	add	x25, sp, #0xf0
    4528:	f90023fe 	str	x30, [sp, #64]
    452c:	a907ffff 	stp	xzr, xzr, [sp, #120]
    4530:	a908ffff 	stp	xzr, xzr, [sp, #136]
    4534:	f9004fff 	str	xzr, [sp, #152]
    4538:	9400004c 	bl	4668 <memcpy>
    453c:	aa1a03e4 	mov	x4, x26
    4540:	aa1903e3 	mov	x3, x25
    4544:	aa1803e2 	mov	x2, x24
    4548:	aa1403e1 	mov	x1, x20
    454c:	d2800000 	mov	x0, #0x0                   	// #0
    4550:	97fffdbb 	bl	3c3c <printf_core>
    4554:	37f80860 	tbnz	w0, #31, 4660 <vfprintf+0x168>
    4558:	b9408e60 	ldr	w0, [x19, #140]
    455c:	37f80720 	tbnz	w0, #31, 4640 <vfprintf+0x148>
    4560:	aa1303e0 	mov	x0, x19
    4564:	94000379 	bl	5348 <__lockfile>
    4568:	2a0003f6 	mov	w22, w0
    456c:	b9400260 	ldr	w0, [x19]
    4570:	b9408a61 	ldr	w1, [x19, #136]
    4574:	121b0017 	and	w23, w0, #0x20
    4578:	7100003f 	cmp	w1, #0x0
    457c:	5400006c 	b.gt	4588 <vfprintf+0x90>
    4580:	121a7800 	and	w0, w0, #0xffffffdf
    4584:	b9000260 	str	w0, [x19]
    4588:	f9403260 	ldr	x0, [x19, #96]
    458c:	b50005e0 	cbnz	x0, 4648 <vfprintf+0x150>
    4590:	910283e0 	add	x0, sp, #0xa0
    4594:	a9027e7f 	stp	xzr, xzr, [x19, #32]
    4598:	f9001e7f 	str	xzr, [x19, #56]
    459c:	f9402e75 	ldr	x21, [x19, #88]
    45a0:	f9002e60 	str	x0, [x19, #88]
    45a4:	d2800a00 	mov	x0, #0x50                  	// #80
    45a8:	f9003260 	str	x0, [x19, #96]
    45ac:	aa1303e0 	mov	x0, x19
    45b0:	9400047c 	bl	57a0 <__towrite>
    45b4:	35000520 	cbnz	w0, 4658 <vfprintf+0x160>
    45b8:	aa1403e1 	mov	x1, x20
    45bc:	aa1a03e4 	mov	x4, x26
    45c0:	aa1903e3 	mov	x3, x25
    45c4:	aa1803e2 	mov	x2, x24
    45c8:	aa1303e0 	mov	x0, x19
    45cc:	97fffd9c 	bl	3c3c <printf_core>
    45d0:	2a0003f4 	mov	w20, w0
    45d4:	b4000195 	cbz	x21, 4604 <vfprintf+0x10c>
    45d8:	f9402663 	ldr	x3, [x19, #72]
    45dc:	aa1303e0 	mov	x0, x19
    45e0:	d2800002 	mov	x2, #0x0                   	// #0
    45e4:	d2800001 	mov	x1, #0x0                   	// #0
    45e8:	d63f0060 	blr	x3
    45ec:	f9001e7f 	str	xzr, [x19, #56]
    45f0:	f9401660 	ldr	x0, [x19, #40]
    45f4:	a9027e7f 	stp	xzr, xzr, [x19, #32]
    45f8:	f100001f 	cmp	x0, #0x0
    45fc:	a905fe75 	stp	x21, xzr, [x19, #88]
    4600:	5a9f1294 	csinv	w20, w20, wzr, ne  // ne = any
    4604:	b9400260 	ldr	w0, [x19]
    4608:	2a0002f7 	orr	w23, w23, w0
    460c:	b9000277 	str	w23, [x19]
    4610:	f27b001f 	tst	x0, #0x20
    4614:	5a9f0294 	csinv	w20, w20, wzr, eq  // eq = none
    4618:	34000076 	cbz	w22, 4624 <vfprintf+0x12c>
    461c:	aa1303e0 	mov	x0, x19
    4620:	9400037f 	bl	541c <__unlockfile>
    4624:	2a1403e0 	mov	w0, w20
    4628:	a9415bf5 	ldp	x21, x22, [sp, #16]
    462c:	a94263f7 	ldp	x23, x24, [sp, #32]
    4630:	a9436bf9 	ldp	x25, x26, [sp, #48]
    4634:	f94023fe 	ldr	x30, [sp, #64]
    4638:	a8d953f3 	ldp	x19, x20, [sp], #400
    463c:	d65f03c0 	ret
    4640:	52800016 	mov	w22, #0x0                   	// #0
    4644:	17ffffca 	b	456c <vfprintf+0x74>
    4648:	f9401275 	ldr	x21, [x19, #32]
    464c:	b4fffb15 	cbz	x21, 45ac <vfprintf+0xb4>
    4650:	d2800015 	mov	x21, #0x0                   	// #0
    4654:	17ffffd9 	b	45b8 <vfprintf+0xc0>
    4658:	12800014 	mov	w20, #0xffffffff            	// #-1
    465c:	17ffffde 	b	45d4 <vfprintf+0xdc>
    4660:	12800014 	mov	w20, #0xffffffff            	// #-1
    4664:	17fffff0 	b	4624 <vfprintf+0x12c>

0000000000004668 <memcpy>:
    4668:	aa0003e3 	mov	x3, x0
    466c:	f240043f 	tst	x1, #0x3
    4670:	54000040 	b.eq	4678 <memcpy+0x10>  // b.none
    4674:	b5000462 	cbnz	x2, 4700 <memcpy+0x98>
    4678:	f2400465 	ands	x5, x3, #0x3
    467c:	54000601 	b.ne	473c <memcpy+0xd4>  // b.any
    4680:	927cec46 	and	x6, x2, #0xfffffffffffffff0
    4684:	d344fc45 	lsr	x5, x2, #4
    4688:	8b060027 	add	x7, x1, x6
    468c:	aa0303e4 	mov	x4, x3
    4690:	eb0100ff 	cmp	x7, x1
    4694:	540003e1 	b.ne	4710 <memcpy+0xa8>  // b.any
    4698:	928001e4 	mov	x4, #0xfffffffffffffff0    	// #-16
    469c:	9b0408a5 	madd	x5, x5, x4, x2
    46a0:	8b060064 	add	x4, x3, x6
    46a4:	361800e2 	tbz	w2, #3, 46c0 <memcpy+0x58>
    46a8:	b9400022 	ldr	w2, [x1]
    46ac:	91002084 	add	x4, x4, #0x8
    46b0:	b8266862 	str	w2, [x3, x6]
    46b4:	91002021 	add	x1, x1, #0x8
    46b8:	b85fc022 	ldur	w2, [x1, #-4]
    46bc:	b81fc082 	stur	w2, [x4, #-4]
    46c0:	36100065 	tbz	w5, #2, 46cc <memcpy+0x64>
    46c4:	b8404422 	ldr	w2, [x1], #4
    46c8:	b8004482 	str	w2, [x4], #4
    46cc:	36080125 	tbz	w5, #1, 46f0 <memcpy+0x88>
    46d0:	aa0103e3 	mov	x3, x1
    46d4:	aa0403e2 	mov	x2, x4
    46d8:	39400421 	ldrb	w1, [x1, #1]
    46dc:	38402466 	ldrb	w6, [x3], #2
    46e0:	38002446 	strb	w6, [x2], #2
    46e4:	39000481 	strb	w1, [x4, #1]
    46e8:	aa0303e1 	mov	x1, x3
    46ec:	aa0203e4 	mov	x4, x2
    46f0:	36000065 	tbz	w5, #0, 46fc <memcpy+0x94>
    46f4:	39400021 	ldrb	w1, [x1]
    46f8:	39000081 	strb	w1, [x4]
    46fc:	d65f03c0 	ret
    4700:	38401424 	ldrb	w4, [x1], #1
    4704:	d1000442 	sub	x2, x2, #0x1
    4708:	38001464 	strb	w4, [x3], #1
    470c:	17ffffd8 	b	466c <memcpy+0x4>
    4710:	b9400028 	ldr	w8, [x1]
    4714:	91004084 	add	x4, x4, #0x10
    4718:	b81f0088 	stur	w8, [x4, #-16]
    471c:	91004021 	add	x1, x1, #0x10
    4720:	b85f4028 	ldur	w8, [x1, #-12]
    4724:	b81f4088 	stur	w8, [x4, #-12]
    4728:	b85f8028 	ldur	w8, [x1, #-8]
    472c:	b81f8088 	stur	w8, [x4, #-8]
    4730:	b85fc028 	ldur	w8, [x1, #-4]
    4734:	b81fc088 	stur	w8, [x4, #-4]
    4738:	17ffffd6 	b	4690 <memcpy+0x28>
    473c:	f1007c5f 	cmp	x2, #0x1f
    4740:	54000549 	b.ls	47e8 <memcpy+0x180>  // b.plast
    4744:	39400026 	ldrb	w6, [x1]
    4748:	f10008bf 	cmp	x5, #0x2
    474c:	b9400024 	ldr	w4, [x1]
    4750:	8b020068 	add	x8, x3, x2
    4754:	54000e60 	b.eq	4920 <memcpy+0x2b8>  // b.none
    4758:	f1000cbf 	cmp	x5, #0x3
    475c:	54001200 	b.eq	499c <memcpy+0x334>  // b.none
    4760:	39400425 	ldrb	w5, [x1, #1]
    4764:	91000c27 	add	x7, x1, #0x3
    4768:	39400821 	ldrb	w1, [x1, #2]
    476c:	39000066 	strb	w6, [x3]
    4770:	91000c66 	add	x6, x3, #0x3
    4774:	39000465 	strb	w5, [x3, #1]
    4778:	39000861 	strb	w1, [x3, #2]
    477c:	aa0703e3 	mov	x3, x7
    4780:	aa0603e1 	mov	x1, x6
    4784:	b8401065 	ldur	w5, [x3, #1]
    4788:	91004021 	add	x1, x1, #0x10
    478c:	91004063 	add	x3, x3, #0x10
    4790:	138460a4 	extr	w4, w5, w4, #24
    4794:	b81f0024 	stur	w4, [x1, #-16]
    4798:	b85f5064 	ldur	w4, [x3, #-11]
    479c:	13856085 	extr	w5, w4, w5, #24
    47a0:	b81f4025 	stur	w5, [x1, #-12]
    47a4:	b85f9065 	ldur	w5, [x3, #-7]
    47a8:	138460a4 	extr	w4, w5, w4, #24
    47ac:	b81f8024 	stur	w4, [x1, #-8]
    47b0:	b85fd064 	ldur	w4, [x3, #-3]
    47b4:	13856085 	extr	w5, w4, w5, #24
    47b8:	b81fc025 	stur	w5, [x1, #-4]
    47bc:	cb010105 	sub	x5, x8, x1
    47c0:	f10040bf 	cmp	x5, #0x10
    47c4:	54fffe08 	b.hi	4784 <memcpy+0x11c>  // b.pmore
    47c8:	d1005044 	sub	x4, x2, #0x14
    47cc:	d1004c42 	sub	x2, x2, #0x13
    47d0:	d344fc84 	lsr	x4, x4, #4
    47d4:	91000483 	add	x3, x4, #0x1
    47d8:	8b0310e1 	add	x1, x7, x3, lsl #4
    47dc:	8b0310c3 	add	x3, x6, x3, lsl #4
    47e0:	928001e5 	mov	x5, #0xfffffffffffffff0    	// #-16
    47e4:	9b050882 	madd	x2, x4, x5, x2
    47e8:	36200462 	tbz	w2, #4, 4874 <memcpy+0x20c>
    47ec:	39400024 	ldrb	w4, [x1]
    47f0:	91004063 	add	x3, x3, #0x10
    47f4:	381f0064 	sturb	w4, [x3, #-16]
    47f8:	91004021 	add	x1, x1, #0x10
    47fc:	385f1024 	ldurb	w4, [x1, #-15]
    4800:	381f1064 	sturb	w4, [x3, #-15]
    4804:	385f2024 	ldurb	w4, [x1, #-14]
    4808:	381f2064 	sturb	w4, [x3, #-14]
    480c:	385f3024 	ldurb	w4, [x1, #-13]
    4810:	381f3064 	sturb	w4, [x3, #-13]
    4814:	385f4024 	ldurb	w4, [x1, #-12]
    4818:	381f4064 	sturb	w4, [x3, #-12]
    481c:	385f5024 	ldurb	w4, [x1, #-11]
    4820:	381f5064 	sturb	w4, [x3, #-11]
    4824:	385f6024 	ldurb	w4, [x1, #-10]
    4828:	381f6064 	sturb	w4, [x3, #-10]
    482c:	385f7024 	ldurb	w4, [x1, #-9]
    4830:	381f7064 	sturb	w4, [x3, #-9]
    4834:	385f8024 	ldurb	w4, [x1, #-8]
    4838:	381f8064 	sturb	w4, [x3, #-8]
    483c:	385f9024 	ldurb	w4, [x1, #-7]
    4840:	381f9064 	sturb	w4, [x3, #-7]
    4844:	385fa024 	ldurb	w4, [x1, #-6]
    4848:	381fa064 	sturb	w4, [x3, #-6]
    484c:	385fb024 	ldurb	w4, [x1, #-5]
    4850:	381fb064 	sturb	w4, [x3, #-5]
    4854:	385fc024 	ldurb	w4, [x1, #-4]
    4858:	381fc064 	sturb	w4, [x3, #-4]
    485c:	385fd024 	ldurb	w4, [x1, #-3]
    4860:	381fd064 	sturb	w4, [x3, #-3]
    4864:	385fe024 	ldurb	w4, [x1, #-2]
    4868:	381fe064 	sturb	w4, [x3, #-2]
    486c:	385ff024 	ldurb	w4, [x1, #-1]
    4870:	381ff064 	sturb	w4, [x3, #-1]
    4874:	36180262 	tbz	w2, #3, 48c0 <memcpy+0x258>
    4878:	39400024 	ldrb	w4, [x1]
    487c:	91002063 	add	x3, x3, #0x8
    4880:	381f8064 	sturb	w4, [x3, #-8]
    4884:	91002021 	add	x1, x1, #0x8
    4888:	385f9024 	ldurb	w4, [x1, #-7]
    488c:	381f9064 	sturb	w4, [x3, #-7]
    4890:	385fa024 	ldurb	w4, [x1, #-6]
    4894:	381fa064 	sturb	w4, [x3, #-6]
    4898:	385fb024 	ldurb	w4, [x1, #-5]
    489c:	381fb064 	sturb	w4, [x3, #-5]
    48a0:	385fc024 	ldurb	w4, [x1, #-4]
    48a4:	381fc064 	sturb	w4, [x3, #-4]
    48a8:	385fd024 	ldurb	w4, [x1, #-3]
    48ac:	381fd064 	sturb	w4, [x3, #-3]
    48b0:	385fe024 	ldurb	w4, [x1, #-2]
    48b4:	381fe064 	sturb	w4, [x3, #-2]
    48b8:	385ff024 	ldurb	w4, [x1, #-1]
    48bc:	381ff064 	sturb	w4, [x3, #-1]
    48c0:	36100162 	tbz	w2, #2, 48ec <memcpy+0x284>
    48c4:	39400024 	ldrb	w4, [x1]
    48c8:	91001063 	add	x3, x3, #0x4
    48cc:	381fc064 	sturb	w4, [x3, #-4]
    48d0:	91001021 	add	x1, x1, #0x4
    48d4:	385fd024 	ldurb	w4, [x1, #-3]
    48d8:	381fd064 	sturb	w4, [x3, #-3]
    48dc:	385fe024 	ldurb	w4, [x1, #-2]
    48e0:	381fe064 	sturb	w4, [x3, #-2]
    48e4:	385ff024 	ldurb	w4, [x1, #-1]
    48e8:	381ff064 	sturb	w4, [x3, #-1]
    48ec:	36080122 	tbz	w2, #1, 4910 <memcpy+0x2a8>
    48f0:	aa0103e5 	mov	x5, x1
    48f4:	aa0303e4 	mov	x4, x3
    48f8:	39400421 	ldrb	w1, [x1, #1]
    48fc:	384024a6 	ldrb	w6, [x5], #2
    4900:	38002486 	strb	w6, [x4], #2
    4904:	39000461 	strb	w1, [x3, #1]
    4908:	aa0503e1 	mov	x1, x5
    490c:	aa0403e3 	mov	x3, x4
    4910:	3607ef62 	tbz	w2, #0, 46fc <memcpy+0x94>
    4914:	39400021 	ldrb	w1, [x1]
    4918:	39000061 	strb	w1, [x3]
    491c:	17ffff78 	b	46fc <memcpy+0x94>
    4920:	aa0303e5 	mov	x5, x3
    4924:	91000827 	add	x7, x1, #0x2
    4928:	39400421 	ldrb	w1, [x1, #1]
    492c:	380024a6 	strb	w6, [x5], #2
    4930:	39000461 	strb	w1, [x3, #1]
    4934:	aa0703e3 	mov	x3, x7
    4938:	aa0503e1 	mov	x1, x5
    493c:	b8402066 	ldur	w6, [x3, #2]
    4940:	91004021 	add	x1, x1, #0x10
    4944:	91004063 	add	x3, x3, #0x10
    4948:	138440c4 	extr	w4, w6, w4, #16
    494c:	b81f0024 	stur	w4, [x1, #-16]
    4950:	b85f6064 	ldur	w4, [x3, #-10]
    4954:	13864086 	extr	w6, w4, w6, #16
    4958:	b81f4026 	stur	w6, [x1, #-12]
    495c:	b85fa066 	ldur	w6, [x3, #-6]
    4960:	138440c4 	extr	w4, w6, w4, #16
    4964:	b81f8024 	stur	w4, [x1, #-8]
    4968:	b85fe064 	ldur	w4, [x3, #-2]
    496c:	13864086 	extr	w6, w4, w6, #16
    4970:	b81fc026 	stur	w6, [x1, #-4]
    4974:	cb010106 	sub	x6, x8, x1
    4978:	f10044df 	cmp	x6, #0x11
    497c:	54fffe08 	b.hi	493c <memcpy+0x2d4>  // b.pmore
    4980:	d1005044 	sub	x4, x2, #0x14
    4984:	d1004842 	sub	x2, x2, #0x12
    4988:	d344fc84 	lsr	x4, x4, #4
    498c:	91000483 	add	x3, x4, #0x1
    4990:	8b0310e1 	add	x1, x7, x3, lsl #4
    4994:	8b0310a3 	add	x3, x5, x3, lsl #4
    4998:	17ffff92 	b	47e0 <memcpy+0x178>
    499c:	38001466 	strb	w6, [x3], #1
    49a0:	91000421 	add	x1, x1, #0x1
    49a4:	aa0103e6 	mov	x6, x1
    49a8:	aa0303e5 	mov	x5, x3
    49ac:	b84030c7 	ldur	w7, [x6, #3]
    49b0:	910040a5 	add	x5, x5, #0x10
    49b4:	910040c6 	add	x6, x6, #0x10
    49b8:	138420e4 	extr	w4, w7, w4, #8
    49bc:	b81f00a4 	stur	w4, [x5, #-16]
    49c0:	b85f70c4 	ldur	w4, [x6, #-9]
    49c4:	13872087 	extr	w7, w4, w7, #8
    49c8:	b81f40a7 	stur	w7, [x5, #-12]
    49cc:	b85fb0c7 	ldur	w7, [x6, #-5]
    49d0:	138420e4 	extr	w4, w7, w4, #8
    49d4:	b81f80a4 	stur	w4, [x5, #-8]
    49d8:	b85ff0c4 	ldur	w4, [x6, #-1]
    49dc:	13872087 	extr	w7, w4, w7, #8
    49e0:	b81fc0a7 	stur	w7, [x5, #-4]
    49e4:	cb050107 	sub	x7, x8, x5
    49e8:	f10048ff 	cmp	x7, #0x12
    49ec:	54fffe08 	b.hi	49ac <memcpy+0x344>  // b.pmore
    49f0:	d1005044 	sub	x4, x2, #0x14
    49f4:	d1004442 	sub	x2, x2, #0x11
    49f8:	d344fc84 	lsr	x4, x4, #4
    49fc:	91000485 	add	x5, x4, #0x1
    4a00:	8b051021 	add	x1, x1, x5, lsl #4
    4a04:	8b051063 	add	x3, x3, x5, lsl #4
    4a08:	17ffff76 	b	47e0 <memcpy+0x178>

0000000000004a0c <memset>:
    4a0c:	b4000602 	cbz	x2, 4acc <memset+0xc0>
    4a10:	8b020004 	add	x4, x0, x2
    4a14:	12001c23 	and	w3, w1, #0xff
    4a18:	39000003 	strb	w3, [x0]
    4a1c:	f100085f 	cmp	x2, #0x2
    4a20:	381ff083 	sturb	w3, [x4, #-1]
    4a24:	54000549 	b.ls	4acc <memset+0xc0>  // b.plast
    4a28:	39000403 	strb	w3, [x0, #1]
    4a2c:	f100185f 	cmp	x2, #0x6
    4a30:	39000803 	strb	w3, [x0, #2]
    4a34:	381fd083 	sturb	w3, [x4, #-3]
    4a38:	381fe083 	sturb	w3, [x4, #-2]
    4a3c:	54000489 	b.ls	4acc <memset+0xc0>  // b.plast
    4a40:	39000c03 	strb	w3, [x0, #3]
    4a44:	f100205f 	cmp	x2, #0x8
    4a48:	381fc083 	sturb	w3, [x4, #-4]
    4a4c:	54000409 	b.ls	4acc <memset+0xc0>  // b.plast
    4a50:	cb0003e4 	neg	x4, x0
    4a54:	12001c21 	and	w1, w1, #0xff
    4a58:	92400484 	and	x4, x4, #0x3
    4a5c:	3200c3e5 	mov	w5, #0x1010101             	// #16843009
    4a60:	cb040042 	sub	x2, x2, x4
    4a64:	8b040003 	add	x3, x0, x4
    4a68:	1b057c21 	mul	w1, w1, w5
    4a6c:	927ef442 	and	x2, x2, #0xfffffffffffffffc
    4a70:	b8246801 	str	w1, [x0, x4]
    4a74:	8b020064 	add	x4, x3, x2
    4a78:	f100205f 	cmp	x2, #0x8
    4a7c:	b81fc081 	stur	w1, [x4, #-4]
    4a80:	54000269 	b.ls	4acc <memset+0xc0>  // b.plast
    4a84:	29008461 	stp	w1, w1, [x3, #4]
    4a88:	f100605f 	cmp	x2, #0x18
    4a8c:	293e8481 	stp	w1, w1, [x4, #-12]
    4a90:	540001e9 	b.ls	4acc <memset+0xc0>  // b.plast
    4a94:	29018461 	stp	w1, w1, [x3, #12]
    4a98:	2a0103e5 	mov	w5, w1
    4a9c:	29028461 	stp	w1, w1, [x3, #20]
    4aa0:	293c8481 	stp	w1, w1, [x4, #-28]
    4aa4:	293d8481 	stp	w1, w1, [x4, #-20]
    4aa8:	927e0064 	and	x4, x3, #0x4
    4aac:	91006084 	add	x4, x4, #0x18
    4ab0:	aa0180a1 	orr	x1, x5, x1, lsl #32
    4ab4:	cb040042 	sub	x2, x2, x4
    4ab8:	8b040063 	add	x3, x3, x4
    4abc:	927be842 	and	x2, x2, #0xffffffffffffffe0
    4ac0:	8b020062 	add	x2, x3, x2
    4ac4:	eb02007f 	cmp	x3, x2
    4ac8:	54000041 	b.ne	4ad0 <memset+0xc4>  // b.any
    4acc:	d65f03c0 	ret
    4ad0:	a9000461 	stp	x1, x1, [x3]
    4ad4:	a9010461 	stp	x1, x1, [x3, #16]
    4ad8:	91008063 	add	x3, x3, #0x20
    4adc:	17fffffa 	b	4ac4 <memset+0xb8>

0000000000004ae0 <strchr>:
    4ae0:	a9bf7bf3 	stp	x19, x30, [sp, #-16]!
    4ae4:	2a0103f3 	mov	w19, w1
    4ae8:	94000006 	bl	4b00 <strchrnul>
    4aec:	39400001 	ldrb	w1, [x0]
    4af0:	6b33003f 	cmp	w1, w19, uxtb
    4af4:	9a9f0000 	csel	x0, x0, xzr, eq  // eq = none
    4af8:	a8c17bf3 	ldp	x19, x30, [sp], #16
    4afc:	d65f03c0 	ret

0000000000004b00 <strchrnul>:
    4b00:	a9bf7bf3 	stp	x19, x30, [sp, #-16]!
    4b04:	72001c21 	ands	w1, w1, #0xff
    4b08:	aa0003f3 	mov	x19, x0
    4b0c:	54000161 	b.ne	4b38 <strchrnul+0x38>  // b.any
    4b10:	94000022 	bl	4b98 <strlen>
    4b14:	8b000273 	add	x19, x19, x0
    4b18:	aa1303e0 	mov	x0, x19
    4b1c:	a8c17bf3 	ldp	x19, x30, [sp], #16
    4b20:	d65f03c0 	ret
    4b24:	39400260 	ldrb	w0, [x19]
    4b28:	34ffff80 	cbz	w0, 4b18 <strchrnul+0x18>
    4b2c:	6b01001f 	cmp	w0, w1
    4b30:	54ffff40 	b.eq	4b18 <strchrnul+0x18>  // b.none
    4b34:	91000673 	add	x19, x19, #0x1
    4b38:	f2400a7f 	tst	x19, #0x7
    4b3c:	54ffff41 	b.ne	4b24 <strchrnul+0x24>  // b.any
    4b40:	93407c23 	sxtw	x3, w1
    4b44:	b200c3e0 	mov	x0, #0x101010101010101     	// #72340172838076673
    4b48:	b207dbe4 	mov	x4, #0xfefefefefefefefe    	// #-72340172838076674
    4b4c:	f29fdfe4 	movk	x4, #0xfeff
    4b50:	9b007c63 	mul	x3, x3, x0
    4b54:	f9400260 	ldr	x0, [x19]
    4b58:	ca030002 	eor	x2, x0, x3
    4b5c:	8b040005 	add	x5, x0, x4
    4b60:	8a2000a0 	bic	x0, x5, x0
    4b64:	8b040045 	add	x5, x2, x4
    4b68:	8a2200a2 	bic	x2, x5, x2
    4b6c:	aa020000 	orr	x0, x0, x2
    4b70:	f201c01f 	tst	x0, #0x8080808080808080
    4b74:	540000e0 	b.eq	4b90 <strchrnul+0x90>  // b.none
    4b78:	39400260 	ldrb	w0, [x19]
    4b7c:	34fffce0 	cbz	w0, 4b18 <strchrnul+0x18>
    4b80:	6b01001f 	cmp	w0, w1
    4b84:	54fffca0 	b.eq	4b18 <strchrnul+0x18>  // b.none
    4b88:	91000673 	add	x19, x19, #0x1
    4b8c:	17fffffb 	b	4b78 <strchrnul+0x78>
    4b90:	91002273 	add	x19, x19, #0x8
    4b94:	17fffff0 	b	4b54 <strchrnul+0x54>

0000000000004b98 <strlen>:
    4b98:	aa0003e1 	mov	x1, x0
    4b9c:	f240083f 	tst	x1, #0x7
    4ba0:	54000181 	b.ne	4bd0 <strlen+0x38>  // b.any
    4ba4:	b207dbe4 	mov	x4, #0xfefefefefefefefe    	// #-72340172838076674
    4ba8:	f29fdfe4 	movk	x4, #0xfeff
    4bac:	f9400022 	ldr	x2, [x1]
    4bb0:	8b040043 	add	x3, x2, x4
    4bb4:	8a220062 	bic	x2, x3, x2
    4bb8:	f201c05f 	tst	x2, #0x8080808080808080
    4bbc:	54000160 	b.eq	4be8 <strlen+0x50>  // b.none
    4bc0:	39400022 	ldrb	w2, [x1]
    4bc4:	340000a2 	cbz	w2, 4bd8 <strlen+0x40>
    4bc8:	91000421 	add	x1, x1, #0x1
    4bcc:	17fffffd 	b	4bc0 <strlen+0x28>
    4bd0:	39400022 	ldrb	w2, [x1]
    4bd4:	35000062 	cbnz	w2, 4be0 <strlen+0x48>
    4bd8:	cb000020 	sub	x0, x1, x0
    4bdc:	d65f03c0 	ret
    4be0:	91000421 	add	x1, x1, #0x1
    4be4:	17ffffee 	b	4b9c <strlen+0x4>
    4be8:	91002021 	add	x1, x1, #0x8
    4bec:	17fffff0 	b	4bac <strlen+0x14>

0000000000004bf0 <strnlen>:
    4bf0:	a9be53f3 	stp	x19, x20, [sp, #-32]!
    4bf4:	aa0103e2 	mov	x2, x1
    4bf8:	aa0103f3 	mov	x19, x1
    4bfc:	aa0003f4 	mov	x20, x0
    4c00:	52800001 	mov	w1, #0x0                   	// #0
    4c04:	f9000bfe 	str	x30, [sp, #16]
    4c08:	940003f0 	bl	5bc8 <memchr>
    4c0c:	b4000040 	cbz	x0, 4c14 <strnlen+0x24>
    4c10:	cb140013 	sub	x19, x0, x20
    4c14:	aa1303e0 	mov	x0, x19
    4c18:	f9400bfe 	ldr	x30, [sp, #16]
    4c1c:	a8c253f3 	ldp	x19, x20, [sp], #32
    4c20:	d65f03c0 	ret

0000000000004c24 <__lock>:
    4c24:	a9bd53f3 	stp	x19, x20, [sp, #-48]!
    4c28:	aa0003f4 	mov	x20, x0
    4c2c:	f0000060 	adrp	x0, 13000 <_DYNAMIC>
    4c30:	911c2001 	add	x1, x0, #0x708
    4c34:	a9015bf5 	stp	x21, x22, [sp, #16]
    4c38:	a9027bf7 	stp	x23, x30, [sp, #32]
    4c3c:	39400c22 	ldrb	w2, [x1, #3]
    4c40:	13001c42 	sxtb	w2, w2
    4c44:	34000702 	cbz	w2, 4d24 <__lock+0x100>
    4c48:	320107e3 	mov	w3, #0x80000001            	// #-2147483647
    4c4c:	885ffe81 	ldaxr	w1, [x20]
    4c50:	34000601 	cbz	w1, 4d10 <__lock+0xec>
    4c54:	d5033bbf 	dmb	ish
    4c58:	36f80062 	tbz	w2, #31, 4c64 <__lock+0x40>
    4c5c:	911c2000 	add	x0, x0, #0x708
    4c60:	39000c1f 	strb	wzr, [x0, #3]
    4c64:	52800142 	mov	w2, #0xa                   	// #10
    4c68:	12b00004 	mov	w4, #0x7fffffff            	// #2147483647
    4c6c:	320107e5 	mov	w5, #0x80000001            	// #-2147483647
    4c70:	0b040020 	add	w0, w1, w4
    4c74:	7100003f 	cmp	w1, #0x0
    4c78:	1a81b000 	csel	w0, w0, w1, lt  // lt = tstop
    4c7c:	0b050003 	add	w3, w0, w5
    4c80:	885ffe81 	ldaxr	w1, [x20]
    4c84:	6b01001f 	cmp	w0, w1
    4c88:	54000560 	b.eq	4d34 <__lock+0x110>  // b.none
    4c8c:	d5033bbf 	dmb	ish
    4c90:	71000442 	subs	w2, w2, #0x1
    4c94:	54fffee1 	b.ne	4c70 <__lock+0x4c>  // b.any
    4c98:	885ffe93 	ldaxr	w19, [x20]
    4c9c:	11000673 	add	w19, w19, #0x1
    4ca0:	8800fe93 	stlxr	w0, w19, [x20]
    4ca4:	35ffffa0 	cbnz	w0, 4c98 <__lock+0x74>
    4ca8:	12b00017 	mov	w23, #0x7fffffff            	// #2147483647
    4cac:	52b00016 	mov	w22, #0x80000000            	// #-2147483648
    4cb0:	36f80233 	tbz	w19, #31, 4cf4 <__lock+0xd0>
    4cb4:	93407e75 	sxtw	x21, w19
    4cb8:	aa1403e1 	mov	x1, x20
    4cbc:	aa1503e3 	mov	x3, x21
    4cc0:	d2800004 	mov	x4, #0x0                   	// #0
    4cc4:	d2801002 	mov	x2, #0x80                  	// #128
    4cc8:	d2800c40 	mov	x0, #0x62                  	// #98
    4ccc:	9400094d 	bl	7200 <__syscall4>
    4cd0:	b100981f 	cmn	x0, #0x26
    4cd4:	540000e1 	b.ne	4cf0 <__lock+0xcc>  // b.any
    4cd8:	aa1503e3 	mov	x3, x21
    4cdc:	aa1403e1 	mov	x1, x20
    4ce0:	d2800004 	mov	x4, #0x0                   	// #0
    4ce4:	d2800002 	mov	x2, #0x0                   	// #0
    4ce8:	d2800c40 	mov	x0, #0x62                  	// #98
    4cec:	94000945 	bl	7200 <__syscall4>
    4cf0:	0b170273 	add	w19, w19, w23
    4cf4:	0b160260 	add	w0, w19, w22
    4cf8:	885ffe81 	ldaxr	w1, [x20]
    4cfc:	6b01027f 	cmp	w19, w1
    4d00:	54000200 	b.eq	4d40 <__lock+0x11c>  // b.none
    4d04:	d5033bbf 	dmb	ish
    4d08:	2a0103f3 	mov	w19, w1
    4d0c:	17ffffe9 	b	4cb0 <__lock+0x8c>
    4d10:	8801fe83 	stlxr	w1, w3, [x20]
    4d14:	35fff9c1 	cbnz	w1, 4c4c <__lock+0x28>
    4d18:	36f80062 	tbz	w2, #31, 4d24 <__lock+0x100>
    4d1c:	911c2000 	add	x0, x0, #0x708
    4d20:	39000c1f 	strb	wzr, [x0, #3]
    4d24:	a9415bf5 	ldp	x21, x22, [sp, #16]
    4d28:	a9427bf7 	ldp	x23, x30, [sp, #32]
    4d2c:	a8c353f3 	ldp	x19, x20, [sp], #48
    4d30:	d65f03c0 	ret
    4d34:	8801fe83 	stlxr	w1, w3, [x20]
    4d38:	35fffa41 	cbnz	w1, 4c80 <__lock+0x5c>
    4d3c:	17fffffa 	b	4d24 <__lock+0x100>
    4d40:	8801fe80 	stlxr	w1, w0, [x20]
    4d44:	35fffda1 	cbnz	w1, 4cf8 <__lock+0xd4>
    4d48:	17fffff7 	b	4d24 <__lock+0x100>

0000000000004d4c <__unlock>:
    4d4c:	a9bf7bf3 	stp	x19, x30, [sp, #-16]!
    4d50:	aa0003f3 	mov	x19, x0
    4d54:	b9400000 	ldr	w0, [x0]
    4d58:	36f802c0 	tbz	w0, #31, 4db0 <__unlock+0x64>
    4d5c:	12b00003 	mov	w3, #0x7fffffff            	// #2147483647
    4d60:	885ffe60 	ldaxr	w0, [x19]
    4d64:	0b030001 	add	w1, w0, w3
    4d68:	8802fe61 	stlxr	w2, w1, [x19]
    4d6c:	35ffffa2 	cbnz	w2, 4d60 <__unlock+0x14>
    4d70:	320107e1 	mov	w1, #0x80000001            	// #-2147483647
    4d74:	6b01001f 	cmp	w0, w1
    4d78:	540001c0 	b.eq	4db0 <__unlock+0x64>  // b.none
    4d7c:	aa1303e1 	mov	x1, x19
    4d80:	d2800023 	mov	x3, #0x1                   	// #1
    4d84:	d2801022 	mov	x2, #0x81                  	// #129
    4d88:	d2800c40 	mov	x0, #0x62                  	// #98
    4d8c:	94000919 	bl	71f0 <__syscall3>
    4d90:	b100981f 	cmn	x0, #0x26
    4d94:	540000e1 	b.ne	4db0 <__unlock+0x64>  // b.any
    4d98:	aa1303e1 	mov	x1, x19
    4d9c:	d2800023 	mov	x3, #0x1                   	// #1
    4da0:	a8c17bf3 	ldp	x19, x30, [sp], #16
    4da4:	aa0303e2 	mov	x2, x3
    4da8:	d2800c40 	mov	x0, #0x62                  	// #98
    4dac:	14000911 	b	71f0 <__syscall3>
    4db0:	a8c17bf3 	ldp	x19, x30, [sp], #16
    4db4:	d65f03c0 	ret

0000000000004db8 <trace_set_level>:
    4db8:	f0000061 	adrp	x1, 13000 <_DYNAMIC>
    4dbc:	f940a421 	ldr	x1, [x1, #328]
    4dc0:	b9000020 	str	w0, [x1]
    4dc4:	d65f03c0 	ret

0000000000004dc8 <trace_vprintf>:
    4dc8:	a9ab53f3 	stp	x19, x20, [sp, #-336]!
    4dcc:	72001c7f 	tst	w3, #0xff
    4dd0:	a9015bf5 	stp	x21, x22, [sp, #16]
    4dd4:	aa0403f5 	mov	x21, x4
    4dd8:	aa0503f6 	mov	x22, x5
    4ddc:	a9027bf7 	stp	x23, x30, [sp, #32]
    4de0:	54000840 	b.eq	4ee8 <trace_vprintf+0x120>  // b.none
    4de4:	f0000060 	adrp	x0, 13000 <_DYNAMIC>
    4de8:	f940a400 	ldr	x0, [x0, #328]
    4dec:	b9400000 	ldr	w0, [x0]
    4df0:	6b02001f 	cmp	w0, w2
    4df4:	5400072b 	b.lt	4ed8 <trace_vprintf+0x110>  // b.tstop
    4df8:	7100145f 	cmp	w2, #0x5
    4dfc:	90000060 	adrp	x0, 10000 <__text_end+0x1600>
    4e00:	1a9f3042 	csel	w2, w2, wzr, cc  // cc = lo, ul, last
    4e04:	913a1000 	add	x0, x0, #0xe84
    4e08:	3862c803 	ldrb	w3, [x0, w2, sxtw]
    4e0c:	910143f4 	add	x20, sp, #0x50
    4e10:	90000062 	adrp	x2, 10000 <__text_end+0x1600>
    4e14:	aa1403e0 	mov	x0, x20
    4e18:	9139f042 	add	x2, x2, #0xe7c
    4e1c:	d2802001 	mov	x1, #0x100                 	// #256
    4e20:	940002ec 	bl	59d0 <snprintf>
    4e24:	37f805a0 	tbnz	w0, #31, 4ed8 <trace_vprintf+0x110>
    4e28:	f0000063 	adrp	x3, 13000 <_DYNAMIC>
    4e2c:	d2802017 	mov	x23, #0x100                 	// #256
    4e30:	93407c13 	sxtw	x19, w0
    4e34:	cb20c2e1 	sub	x1, x23, w0, sxtw
    4e38:	f940a863 	ldr	x3, [x3, #336]
    4e3c:	90000062 	adrp	x2, 10000 <__text_end+0x1600>
    4e40:	8b20c280 	add	x0, x20, w0, sxtw
    4e44:	913a0042 	add	x2, x2, #0xe80
    4e48:	940002e2 	bl	59d0 <snprintf>
    4e4c:	37f80460 	tbnz	w0, #31, 4ed8 <trace_vprintf+0x110>
    4e50:	8b20c260 	add	x0, x19, w0, sxtw
    4e54:	f103f81f 	cmp	x0, #0xfe
    4e58:	54000408 	b.hi	4ed8 <trace_vprintf+0x110>  // b.pmore
    4e5c:	91000413 	add	x19, x0, #0x1
    4e60:	9100c3e3 	add	x3, sp, #0x30
    4e64:	52800401 	mov	w1, #0x20                  	// #32
    4e68:	38206a81 	strb	w1, [x20, x0]
    4e6c:	d2800402 	mov	x2, #0x20                  	// #32
    4e70:	aa1603e1 	mov	x1, x22
    4e74:	aa0303e0 	mov	x0, x3
    4e78:	38336a9f 	strb	wzr, [x20, x19]
    4e7c:	97fffdfb 	bl	4668 <memcpy>
    4e80:	aa0003e3 	mov	x3, x0
    4e84:	aa1503e2 	mov	x2, x21
    4e88:	cb1302e1 	sub	x1, x23, x19
    4e8c:	8b130280 	add	x0, x20, x19
    4e90:	94000319 	bl	5af4 <vsnprintf>
    4e94:	7100001f 	cmp	w0, #0x0
    4e98:	5400004d 	b.le	4ea0 <trace_vprintf+0xd8>
    4e9c:	8b20c273 	add	x19, x19, w0, sxtw
    4ea0:	f103fa7f 	cmp	x19, #0xfe
    4ea4:	d2801fc0 	mov	x0, #0xfe                  	// #254
    4ea8:	9a809273 	csel	x19, x19, x0, ls  // ls = plast
    4eac:	52800140 	mov	w0, #0xa                   	// #10
    4eb0:	38336a80 	strb	w0, [x20, x19]
    4eb4:	f1000673 	subs	x19, x19, #0x1
    4eb8:	54000080 	b.eq	4ec8 <trace_vprintf+0x100>  // b.none
    4ebc:	38736a80 	ldrb	w0, [x20, x19]
    4ec0:	7100281f 	cmp	w0, #0xa
    4ec4:	54ffff80 	b.eq	4eb4 <trace_vprintf+0xec>  // b.none
    4ec8:	91014be0 	add	x0, sp, #0x52
    4ecc:	3833681f 	strb	wzr, [x0, x19]
    4ed0:	aa1403e0 	mov	x0, x20
    4ed4:	97fff6e8 	bl	2a74 <puts>
    4ed8:	a9415bf5 	ldp	x21, x22, [sp, #16]
    4edc:	a9427bf7 	ldp	x23, x30, [sp, #32]
    4ee0:	a8d553f3 	ldp	x19, x20, [sp], #336
    4ee4:	d65f03c0 	ret
    4ee8:	528009a3 	mov	w3, #0x4d                  	// #77
    4eec:	17ffffc8 	b	4e0c <trace_vprintf+0x44>

0000000000004ef0 <trace_printf>:
    4ef0:	f8110ffe 	str	x30, [sp, #-240]!
    4ef4:	a90d9be5 	stp	x5, x6, [sp, #216]
    4ef8:	9103c3e5 	add	x5, sp, #0xf0
    4efc:	a90317e5 	stp	x5, x5, [sp, #48]
    4f00:	910343e5 	add	x5, sp, #0xd0
    4f04:	f90023e5 	str	x5, [sp, #64]
    4f08:	128002e5 	mov	w5, #0xffffffe8            	// #-24
    4f0c:	b9004be5 	str	w5, [sp, #72]
    4f10:	12800fe5 	mov	w5, #0xffffff80            	// #-128
    4f14:	b9004fe5 	str	w5, [sp, #76]
    4f18:	910043e5 	add	x5, sp, #0x10
    4f1c:	f90077e7 	str	x7, [sp, #232]
    4f20:	a9431fe6 	ldp	x6, x7, [sp, #48]
    4f24:	a9011fe6 	stp	x6, x7, [sp, #16]
    4f28:	a9441fe6 	ldp	x6, x7, [sp, #64]
    4f2c:	a9021fe6 	stp	x6, x7, [sp, #32]
    4f30:	3d8017e0 	str	q0, [sp, #80]
    4f34:	3d801be1 	str	q1, [sp, #96]
    4f38:	3d801fe2 	str	q2, [sp, #112]
    4f3c:	3d8023e3 	str	q3, [sp, #128]
    4f40:	3d8027e4 	str	q4, [sp, #144]
    4f44:	3d802be5 	str	q5, [sp, #160]
    4f48:	3d802fe6 	str	q6, [sp, #176]
    4f4c:	3d8033e7 	str	q7, [sp, #192]
    4f50:	97ffff9e 	bl	4dc8 <trace_vprintf>
    4f54:	f84f07fe 	ldr	x30, [sp], #240
    4f58:	d65f03c0 	ret

0000000000004f5c <trace_get_level>:
    4f5c:	f0000060 	adrp	x0, 13000 <_DYNAMIC>
    4f60:	f940a400 	ldr	x0, [x0, #328]
    4f64:	b9400000 	ldr	w0, [x0]
    4f68:	d65f03c0 	ret

0000000000004f6c <__errno_location>:
    4f6c:	d53bd040 	mrs	x0, tpidr_el0
    4f70:	f9400000 	ldr	x0, [x0]
    4f74:	91009000 	add	x0, x0, #0x24
    4f78:	d65f03c0 	ret

0000000000004f7c <__strerror_l>:
    4f7c:	7102101f 	cmp	w0, #0x84
    4f80:	90000062 	adrp	x2, 10000 <__text_end+0x1600>
    4f84:	1a9f3000 	csel	w0, w0, wzr, cc  // cc = lo, ul, last
    4f88:	91244042 	add	x2, x2, #0x910
    4f8c:	f9401421 	ldr	x1, [x1, #40]
    4f90:	7860d842 	ldrh	w2, [x2, w0, sxtw #1]
    4f94:	90000060 	adrp	x0, 10000 <__text_end+0x1600>
    4f98:	913a2400 	add	x0, x0, #0xe89
    4f9c:	8b020000 	add	x0, x0, x2
    4fa0:	14000010 	b	4fe0 <__lctrans>

0000000000004fa4 <strerror>:
    4fa4:	d53bd041 	mrs	x1, tpidr_el0
    4fa8:	f9400021 	ldr	x1, [x1]
    4fac:	f9404c21 	ldr	x1, [x1, #152]
    4fb0:	17fffff3 	b	4f7c <__strerror_l>

0000000000004fb4 <__syscall_ret>:
    4fb4:	a9bf7bf3 	stp	x19, x30, [sp, #-16]!
    4fb8:	b140041f 	cmn	x0, #0x1, lsl #12
    4fbc:	aa0003f3 	mov	x19, x0
    4fc0:	540000a9 	b.ls	4fd4 <__syscall_ret+0x20>  // b.plast
    4fc4:	97ffffea 	bl	4f6c <__errno_location>
    4fc8:	4b1303f3 	neg	w19, w19
    4fcc:	b9000013 	str	w19, [x0]
    4fd0:	92800000 	mov	x0, #0xffffffffffffffff    	// #-1
    4fd4:	a8c17bf3 	ldp	x19, x30, [sp], #16
    4fd8:	d65f03c0 	ret

0000000000004fdc <__lctrans_impl>:
    4fdc:	d65f03c0 	ret

0000000000004fe0 <__lctrans>:
    4fe0:	17ffffff 	b	4fdc <__lctrans_impl>

0000000000004fe4 <__lctrans_cur>:
    4fe4:	d53bd041 	mrs	x1, tpidr_el0
    4fe8:	f9400021 	ldr	x1, [x1]
    4fec:	f9404c21 	ldr	x1, [x1, #152]
    4ff0:	f9401421 	ldr	x1, [x1, #40]
    4ff4:	17fffffa 	b	4fdc <__lctrans_impl>

0000000000004ff8 <free>:
    4ff8:	140005a3 	b	6684 <__libc_free>

0000000000004ffc <__fpclassifyl>:
    4ffc:	d10043ff 	sub	sp, sp, #0x10
    5000:	3d8003e0 	str	q0, [sp]
    5004:	a94003e1 	ldp	x1, x0, [sp]
    5008:	d370f802 	ubfx	x2, x0, #48, #15
    500c:	9240bc00 	and	x0, x0, #0xffffffffffff
    5010:	350000e2 	cbnz	w2, 502c <__fpclassifyl+0x30>
    5014:	aa010000 	orr	x0, x0, x1
    5018:	f100001f 	cmp	x0, #0x0
    501c:	1a9f07e0 	cset	w0, ne  // ne = any
    5020:	11000800 	add	w0, w0, #0x2
    5024:	910043ff 	add	sp, sp, #0x10
    5028:	d65f03c0 	ret
    502c:	528fffe3 	mov	w3, #0x7fff                	// #32767
    5030:	6b03005f 	cmp	w2, w3
    5034:	540000a1 	b.ne	5048 <__fpclassifyl+0x4c>  // b.any
    5038:	aa010000 	orr	x0, x0, x1
    503c:	f100001f 	cmp	x0, #0x0
    5040:	1a9f17e0 	cset	w0, eq  // eq = none
    5044:	17fffff8 	b	5024 <__fpclassifyl+0x28>
    5048:	52800080 	mov	w0, #0x4                   	// #4
    504c:	17fffff6 	b	5024 <__fpclassifyl+0x28>

0000000000005050 <__signbitl>:
    5050:	d10043ff 	sub	sp, sp, #0x10
    5054:	3d8003e0 	str	q0, [sp]
    5058:	f94007e0 	ldr	x0, [sp, #8]
    505c:	910043ff 	add	sp, sp, #0x10
    5060:	d370fc00 	lsr	x0, x0, #48
    5064:	530f7c00 	lsr	w0, w0, #15
    5068:	d65f03c0 	ret

000000000000506c <frexpl>:
    506c:	a9be7bf3 	stp	x19, x30, [sp, #-32]!
    5070:	aa0003f3 	mov	x19, x0
    5074:	3d8007e0 	str	q0, [sp, #16]
    5078:	f9400fe1 	ldr	x1, [sp, #24]
    507c:	a9410fe2 	ldp	x2, x3, [sp, #16]
    5080:	d370fc20 	lsr	x0, x1, #48
    5084:	d370f821 	ubfx	x1, x1, #48, #15
    5088:	35000281 	cbnz	w1, 50d8 <frexpl+0x6c>
    508c:	6f00e401 	movi	v1.2d, #0x0
    5090:	97ffeeae 	bl	b48 <__eqtf2>
    5094:	340001e0 	cbz	w0, 50d0 <frexpl+0x64>
    5098:	f0000040 	adrp	x0, 10000 <__text_end+0x1600>
    509c:	9114c000 	add	x0, x0, #0x530
    50a0:	3dc007e0 	ldr	q0, [sp, #16]
    50a4:	3dc00001 	ldr	q1, [x0]
    50a8:	97ffeeea 	bl	c50 <__multf3>
    50ac:	aa1303e0 	mov	x0, x19
    50b0:	97ffffef 	bl	506c <frexpl>
    50b4:	b9400260 	ldr	w0, [x19]
    50b8:	3d8007e0 	str	q0, [sp, #16]
    50bc:	5101e000 	sub	w0, w0, #0x78
    50c0:	b9000260 	str	w0, [x19]
    50c4:	3dc007e0 	ldr	q0, [sp, #16]
    50c8:	a8c27bf3 	ldp	x19, x30, [sp], #32
    50cc:	d65f03c0 	ret
    50d0:	b900027f 	str	wzr, [x19]
    50d4:	17fffffc 	b	50c4 <frexpl+0x58>
    50d8:	528fffe4 	mov	w4, #0x7fff                	// #32767
    50dc:	6b04003f 	cmp	w1, w4
    50e0:	54ffff20 	b.eq	50c4 <frexpl+0x58>  // b.none
    50e4:	12114000 	and	w0, w0, #0xffff8000
    50e8:	1287ffa4 	mov	w4, #0xffffc002            	// #-16382
    50ec:	321f3000 	orr	w0, w0, #0x3ffe
    50f0:	0b040021 	add	w1, w1, w4
    50f4:	b9000261 	str	w1, [x19]
    50f8:	b3503c03 	bfi	x3, x0, #48, #16
    50fc:	a9010fe2 	stp	x2, x3, [sp, #16]
    5100:	17fffff1 	b	50c4 <frexpl+0x58>

0000000000005104 <wctomb>:
    5104:	b40000c0 	cbz	x0, 511c <wctomb+0x18>
    5108:	f81f0ffe 	str	x30, [sp, #-16]!
    510c:	d2800002 	mov	x2, #0x0                   	// #0
    5110:	940006fb 	bl	6cfc <wcrtomb>
    5114:	f84107fe 	ldr	x30, [sp], #16
    5118:	d65f03c0 	ret
    511c:	52800000 	mov	w0, #0x0                   	// #0
    5120:	d65f03c0 	ret

0000000000005124 <fdopen>:
    5124:	a9bd53f3 	stp	x19, x20, [sp, #-48]!
    5128:	aa0103f4 	mov	x20, x1
    512c:	a9017bf5 	stp	x21, x30, [sp, #16]
    5130:	2a0003f5 	mov	w21, w0
    5134:	f0000040 	adrp	x0, 10000 <__text_end+0x1600>
    5138:	39400021 	ldrb	w1, [x1]
    513c:	91318800 	add	x0, x0, #0xc62
    5140:	97fffe68 	bl	4ae0 <strchr>
    5144:	b5000120 	cbnz	x0, 5168 <fdopen+0x44>
    5148:	aa0003f3 	mov	x19, x0
    514c:	97ffff88 	bl	4f6c <__errno_location>
    5150:	528002c1 	mov	w1, #0x16                  	// #22
    5154:	b9000001 	str	w1, [x0]
    5158:	aa1303e0 	mov	x0, x19
    515c:	a9417bf5 	ldp	x21, x30, [sp, #16]
    5160:	a8c353f3 	ldp	x19, x20, [sp], #48
    5164:	d65f03c0 	ret
    5168:	d2809e00 	mov	x0, #0x4f0                 	// #1264
    516c:	940006b1 	bl	6c30 <malloc>
    5170:	aa0003f3 	mov	x19, x0
    5174:	b4ffff20 	cbz	x0, 5158 <fdopen+0x34>
    5178:	d2801d02 	mov	x2, #0xe8                  	// #232
    517c:	52800001 	mov	w1, #0x0                   	// #0
    5180:	97fffe23 	bl	4a0c <memset>
    5184:	aa1403e0 	mov	x0, x20
    5188:	52800561 	mov	w1, #0x2b                  	// #43
    518c:	97fffe55 	bl	4ae0 <strchr>
    5190:	b50000e0 	cbnz	x0, 51ac <fdopen+0x88>
    5194:	39400280 	ldrb	w0, [x20]
    5198:	52800081 	mov	w1, #0x4                   	// #4
    519c:	7101c81f 	cmp	w0, #0x72
    51a0:	52800100 	mov	w0, #0x8                   	// #8
    51a4:	1a810000 	csel	w0, w0, w1, eq  // eq = none
    51a8:	b9000260 	str	w0, [x19]
    51ac:	aa1403e0 	mov	x0, x20
    51b0:	52800ca1 	mov	w1, #0x65                  	// #101
    51b4:	97fffe4b 	bl	4ae0 <strchr>
    51b8:	b40000c0 	cbz	x0, 51d0 <fdopen+0xac>
    51bc:	93407ea1 	sxtw	x1, w21
    51c0:	d2800023 	mov	x3, #0x1                   	// #1
    51c4:	d2800042 	mov	x2, #0x2                   	// #2
    51c8:	d2800320 	mov	x0, #0x19                  	// #25
    51cc:	94000809 	bl	71f0 <__syscall3>
    51d0:	39400280 	ldrb	w0, [x20]
    51d4:	7101841f 	cmp	w0, #0x61
    51d8:	54000201 	b.ne	5218 <fdopen+0xf4>  // b.any
    51dc:	93407eb4 	sxtw	x20, w21
    51e0:	d2800062 	mov	x2, #0x3                   	// #3
    51e4:	aa1403e1 	mov	x1, x20
    51e8:	d2800320 	mov	x0, #0x19                  	// #25
    51ec:	940007fc 	bl	71dc <__syscall2>
    51f0:	375000e0 	tbnz	w0, #10, 520c <fdopen+0xe8>
    51f4:	32160000 	orr	w0, w0, #0x400
    51f8:	aa1403e1 	mov	x1, x20
    51fc:	d2800082 	mov	x2, #0x4                   	// #4
    5200:	93407c03 	sxtw	x3, w0
    5204:	d2800320 	mov	x0, #0x19                  	// #25
    5208:	940007fa 	bl	71f0 <__syscall3>
    520c:	b9400260 	ldr	w0, [x19]
    5210:	32190000 	orr	w0, w0, #0x80
    5214:	b9000260 	str	w0, [x19]
    5218:	9103c260 	add	x0, x19, #0xf0
    521c:	f9002e60 	str	x0, [x19, #88]
    5220:	d2808000 	mov	x0, #0x400                 	// #1024
    5224:	f9003260 	str	x0, [x19, #96]
    5228:	12800000 	mov	w0, #0xffffffff            	// #-1
    522c:	b9009260 	str	w0, [x19, #144]
    5230:	b9400260 	ldr	w0, [x19]
    5234:	b9007a75 	str	w21, [x19, #120]
    5238:	37180120 	tbnz	w0, #3, 525c <fdopen+0x138>
    523c:	9100a3e3 	add	x3, sp, #0x28
    5240:	93407ea1 	sxtw	x1, w21
    5244:	d28a8262 	mov	x2, #0x5413                	// #21523
    5248:	d28003a0 	mov	x0, #0x1d                  	// #29
    524c:	940007e9 	bl	71f0 <__syscall3>
    5250:	b5000060 	cbnz	x0, 525c <fdopen+0x138>
    5254:	52800140 	mov	w0, #0xa                   	// #10
    5258:	b9009260 	str	w0, [x19, #144]
    525c:	90000000 	adrp	x0, 5000 <__fpclassifyl+0x4>
    5260:	91145000 	add	x0, x0, #0x514
    5264:	f9002260 	str	x0, [x19, #64]
    5268:	90000000 	adrp	x0, 5000 <__fpclassifyl+0x4>
    526c:	91179000 	add	x0, x0, #0x5e4
    5270:	f9002660 	str	x0, [x19, #72]
    5274:	90000000 	adrp	x0, 5000 <__fpclassifyl+0x4>
    5278:	91177000 	add	x0, x0, #0x5dc
    527c:	f9002a60 	str	x0, [x19, #80]
    5280:	90000000 	adrp	x0, 5000 <__fpclassifyl+0x4>
    5284:	9113c000 	add	x0, x0, #0x4f0
    5288:	f9000e60 	str	x0, [x19, #24]
    528c:	d0000060 	adrp	x0, 13000 <_DYNAMIC>
    5290:	395c2400 	ldrb	w0, [x0, #1801]
    5294:	35000060 	cbnz	w0, 52a0 <fdopen+0x17c>
    5298:	12800000 	mov	w0, #0xffffffff            	// #-1
    529c:	b9008e60 	str	w0, [x19, #140]
    52a0:	aa1303e0 	mov	x0, x19
    52a4:	940001bf 	bl	59a0 <__ofl_add>
    52a8:	aa0003f3 	mov	x19, x0
    52ac:	17ffffab 	b	5158 <fdopen+0x34>

00000000000052b0 <__fmodeflags>:
    52b0:	a9be53f3 	stp	x19, x20, [sp, #-32]!
    52b4:	52800561 	mov	w1, #0x2b                  	// #43
    52b8:	aa0003f4 	mov	x20, x0
    52bc:	f9000bfe 	str	x30, [sp, #16]
    52c0:	97fffe08 	bl	4ae0 <strchr>
    52c4:	b5000380 	cbnz	x0, 5334 <__fmodeflags+0x84>
    52c8:	39400280 	ldrb	w0, [x20]
    52cc:	7101c81f 	cmp	w0, #0x72
    52d0:	1a9f07f3 	cset	w19, ne  // ne = any
    52d4:	aa1403e0 	mov	x0, x20
    52d8:	52800f01 	mov	w1, #0x78                  	// #120
    52dc:	97fffe01 	bl	4ae0 <strchr>
    52e0:	b4000040 	cbz	x0, 52e8 <__fmodeflags+0x38>
    52e4:	32190273 	orr	w19, w19, #0x80
    52e8:	aa1403e0 	mov	x0, x20
    52ec:	52800ca1 	mov	w1, #0x65                  	// #101
    52f0:	97fffdfc 	bl	4ae0 <strchr>
    52f4:	b4000040 	cbz	x0, 52fc <__fmodeflags+0x4c>
    52f8:	320d0273 	orr	w19, w19, #0x80000
    52fc:	39400280 	ldrb	w0, [x20]
    5300:	7101c81f 	cmp	w0, #0x72
    5304:	54000100 	b.eq	5324 <__fmodeflags+0x74>  // b.none
    5308:	7101dc1f 	cmp	w0, #0x77
    530c:	54000180 	b.eq	533c <__fmodeflags+0x8c>  // b.none
    5310:	321a0261 	orr	w1, w19, #0x40
    5314:	7101841f 	cmp	w0, #0x61
    5318:	52808802 	mov	w2, #0x440                 	// #1088
    531c:	2a020273 	orr	w19, w19, w2
    5320:	1a810273 	csel	w19, w19, w1, eq  // eq = none
    5324:	2a1303e0 	mov	w0, w19
    5328:	f9400bfe 	ldr	x30, [sp, #16]
    532c:	a8c253f3 	ldp	x19, x20, [sp], #32
    5330:	d65f03c0 	ret
    5334:	52800053 	mov	w19, #0x2                   	// #2
    5338:	17ffffe7 	b	52d4 <__fmodeflags+0x24>
    533c:	52804800 	mov	w0, #0x240                 	// #576
    5340:	2a000273 	orr	w19, w19, w0
    5344:	17fffff8 	b	5324 <__fmodeflags+0x74>

0000000000005348 <__lockfile>:
    5348:	d53bd041 	mrs	x1, tpidr_el0
    534c:	f9400021 	ldr	x1, [x1]
    5350:	b9408c02 	ldr	w2, [x0, #140]
    5354:	b9402021 	ldr	w1, [x1, #32]
    5358:	12017842 	and	w2, w2, #0xbfffffff
    535c:	6b01005f 	cmp	w2, w1
    5360:	540005a0 	b.eq	5414 <__lockfile+0xcc>  // b.none
    5364:	a9be53f3 	stp	x19, x20, [sp, #-32]!
    5368:	91023013 	add	x19, x0, #0x8c
    536c:	a9017bf5 	stp	x21, x30, [sp, #16]
    5370:	885ffe60 	ldaxr	w0, [x19]
    5374:	340001a0 	cbz	w0, 53a8 <__lockfile+0x60>
    5378:	d5033bbf 	dmb	ish
    537c:	32020034 	orr	w20, w1, #0x40000000
    5380:	885ffe60 	ldaxr	w0, [x19]
    5384:	34000420 	cbz	w0, 5408 <__lockfile+0xc0>
    5388:	d5033bbf 	dmb	ish
    538c:	32020003 	orr	w3, w0, #0x40000000
    5390:	37f001c0 	tbnz	w0, #30, 53c8 <__lockfile+0x80>
    5394:	885ffe61 	ldaxr	w1, [x19]
    5398:	6b00003f 	cmp	w1, w0
    539c:	54000120 	b.eq	53c0 <__lockfile+0x78>  // b.none
    53a0:	d5033bbf 	dmb	ish
    53a4:	17fffff7 	b	5380 <__lockfile+0x38>
    53a8:	8800fe61 	stlxr	w0, w1, [x19]
    53ac:	35fffe20 	cbnz	w0, 5370 <__lockfile+0x28>
    53b0:	52800020 	mov	w0, #0x1                   	// #1
    53b4:	a9417bf5 	ldp	x21, x30, [sp, #16]
    53b8:	a8c253f3 	ldp	x19, x20, [sp], #32
    53bc:	d65f03c0 	ret
    53c0:	8801fe63 	stlxr	w1, w3, [x19]
    53c4:	35fffe81 	cbnz	w1, 5394 <__lockfile+0x4c>
    53c8:	93407c75 	sxtw	x21, w3
    53cc:	aa1303e1 	mov	x1, x19
    53d0:	aa1503e3 	mov	x3, x21
    53d4:	d2800004 	mov	x4, #0x0                   	// #0
    53d8:	d2801002 	mov	x2, #0x80                  	// #128
    53dc:	d2800c40 	mov	x0, #0x62                  	// #98
    53e0:	94000788 	bl	7200 <__syscall4>
    53e4:	b100981f 	cmn	x0, #0x26
    53e8:	54fffcc1 	b.ne	5380 <__lockfile+0x38>  // b.any
    53ec:	aa1503e3 	mov	x3, x21
    53f0:	aa1303e1 	mov	x1, x19
    53f4:	d2800004 	mov	x4, #0x0                   	// #0
    53f8:	d2800002 	mov	x2, #0x0                   	// #0
    53fc:	d2800c40 	mov	x0, #0x62                  	// #98
    5400:	94000780 	bl	7200 <__syscall4>
    5404:	17ffffdf 	b	5380 <__lockfile+0x38>
    5408:	8800fe74 	stlxr	w0, w20, [x19]
    540c:	35fffba0 	cbnz	w0, 5380 <__lockfile+0x38>
    5410:	17ffffe8 	b	53b0 <__lockfile+0x68>
    5414:	52800000 	mov	w0, #0x0                   	// #0
    5418:	d65f03c0 	ret

000000000000541c <__unlockfile>:
    541c:	a9bf7bf3 	stp	x19, x30, [sp, #-16]!
    5420:	91023013 	add	x19, x0, #0x8c
    5424:	52800000 	mov	w0, #0x0                   	// #0
    5428:	885ffe61 	ldaxr	w1, [x19]
    542c:	8802fe60 	stlxr	w2, w0, [x19]
    5430:	35ffffc2 	cbnz	w2, 5428 <__unlockfile+0xc>
    5434:	36f001c1 	tbz	w1, #30, 546c <__unlockfile+0x50>
    5438:	aa1303e1 	mov	x1, x19
    543c:	d2800023 	mov	x3, #0x1                   	// #1
    5440:	d2801022 	mov	x2, #0x81                  	// #129
    5444:	d2800c40 	mov	x0, #0x62                  	// #98
    5448:	9400076a 	bl	71f0 <__syscall3>
    544c:	b100981f 	cmn	x0, #0x26
    5450:	540000e1 	b.ne	546c <__unlockfile+0x50>  // b.any
    5454:	aa1303e1 	mov	x1, x19
    5458:	d2800023 	mov	x3, #0x1                   	// #1
    545c:	a8c17bf3 	ldp	x19, x30, [sp], #16
    5460:	aa0303e2 	mov	x2, x3
    5464:	d2800c40 	mov	x0, #0x62                  	// #98
    5468:	14000762 	b	71f0 <__syscall3>
    546c:	a8c17bf3 	ldp	x19, x30, [sp], #16
    5470:	d65f03c0 	ret

0000000000005474 <__overflow>:
    5474:	a9be7bf3 	stp	x19, x30, [sp, #-32]!
    5478:	aa0003f3 	mov	x19, x0
    547c:	39007fe1 	strb	w1, [sp, #31]
    5480:	f9401001 	ldr	x1, [x0, #32]
    5484:	b40001a1 	cbz	x1, 54b8 <__overflow+0x44>
    5488:	a9420660 	ldp	x0, x1, [x19, #32]
    548c:	eb00003f 	cmp	x1, x0
    5490:	540001e1 	b.ne	54cc <__overflow+0x58>  // b.any
    5494:	f9402663 	ldr	x3, [x19, #72]
    5498:	91007fe1 	add	x1, sp, #0x1f
    549c:	aa1303e0 	mov	x0, x19
    54a0:	d2800022 	mov	x2, #0x1                   	// #1
    54a4:	d63f0060 	blr	x3
    54a8:	f100041f 	cmp	x0, #0x1
    54ac:	540000a1 	b.ne	54c0 <__overflow+0x4c>  // b.any
    54b0:	39407fe0 	ldrb	w0, [sp, #31]
    54b4:	14000004 	b	54c4 <__overflow+0x50>
    54b8:	940000ba 	bl	57a0 <__towrite>
    54bc:	34fffe60 	cbz	w0, 5488 <__overflow+0x14>
    54c0:	12800000 	mov	w0, #0xffffffff            	// #-1
    54c4:	a8c27bf3 	ldp	x19, x30, [sp], #32
    54c8:	d65f03c0 	ret
    54cc:	39407fe0 	ldrb	w0, [sp, #31]
    54d0:	b9409262 	ldr	w2, [x19, #144]
    54d4:	6b02001f 	cmp	w0, w2
    54d8:	54fffde0 	b.eq	5494 <__overflow+0x20>  // b.none
    54dc:	91000422 	add	x2, x1, #0x1
    54e0:	f9001662 	str	x2, [x19, #40]
    54e4:	39000020 	strb	w0, [x1]
    54e8:	17fffff7 	b	54c4 <__overflow+0x50>

00000000000054ec <__aio_close>:
    54ec:	d65f03c0 	ret

00000000000054f0 <__stdio_close>:
    54f0:	b9407800 	ldr	w0, [x0, #120]
    54f4:	f81f0ffe 	str	x30, [sp, #-16]!
    54f8:	97fffffd 	bl	54ec <__aio_close>
    54fc:	93407c01 	sxtw	x1, w0
    5500:	d2800720 	mov	x0, #0x39                  	// #57
    5504:	94000730 	bl	71c4 <__syscall1>
    5508:	97fffeab 	bl	4fb4 <__syscall_ret>
    550c:	f84107fe 	ldr	x30, [sp], #16
    5510:	d65f03c0 	ret

0000000000005514 <__stdio_read>:
    5514:	a9bc53f3 	stp	x19, x20, [sp, #-64]!
    5518:	aa0003f3 	mov	x19, x0
    551c:	aa0203f4 	mov	x20, x2
    5520:	f9403003 	ldr	x3, [x0, #96]
    5524:	a9017bf5 	stp	x21, x30, [sp, #16]
    5528:	aa0103f5 	mov	x21, x1
    552c:	f100007f 	cmp	x3, #0x0
    5530:	9a9f07e0 	cset	x0, ne  // ne = any
    5534:	cb000040 	sub	x0, x2, x0
    5538:	a90203e1 	stp	x1, x0, [sp, #32]
    553c:	b9807a61 	ldrsw	x1, [x19, #120]
    5540:	f9402e62 	ldr	x2, [x19, #88]
    5544:	a9030fe2 	stp	x2, x3, [sp, #48]
    5548:	b4000260 	cbz	x0, 5594 <__stdio_read+0x80>
    554c:	910083e2 	add	x2, sp, #0x20
    5550:	d2800043 	mov	x3, #0x2                   	// #2
    5554:	d2800820 	mov	x0, #0x41                  	// #65
    5558:	94000726 	bl	71f0 <__syscall3>
    555c:	97fffe96 	bl	4fb4 <__syscall_ret>
    5560:	f100001f 	cmp	x0, #0x0
    5564:	540001cc 	b.gt	559c <__stdio_read+0x88>
    5568:	b9400260 	ldr	w0, [x19]
    556c:	52800401 	mov	w1, #0x20                  	// #32
    5570:	52800202 	mov	w2, #0x10                  	// #16
    5574:	1a821021 	csel	w1, w1, w2, ne  // ne = any
    5578:	2a010000 	orr	w0, w0, w1
    557c:	d2800014 	mov	x20, #0x0                   	// #0
    5580:	b9000260 	str	w0, [x19]
    5584:	aa1403e0 	mov	x0, x20
    5588:	a9417bf5 	ldp	x21, x30, [sp, #16]
    558c:	a8c453f3 	ldp	x19, x20, [sp], #64
    5590:	d65f03c0 	ret
    5594:	d28007e0 	mov	x0, #0x3f                  	// #63
    5598:	17fffff0 	b	5558 <__stdio_read+0x44>
    559c:	f94017e3 	ldr	x3, [sp, #40]
    55a0:	eb00007f 	cmp	x3, x0
    55a4:	54000182 	b.cs	55d4 <__stdio_read+0xc0>  // b.hs, b.nlast
    55a8:	cb030003 	sub	x3, x0, x3
    55ac:	a9458261 	ldp	x1, x0, [x19, #88]
    55b0:	8b030023 	add	x3, x1, x3
    55b4:	a9008e61 	stp	x1, x3, [x19, #8]
    55b8:	b4fffe60 	cbz	x0, 5584 <__stdio_read+0x70>
    55bc:	91000420 	add	x0, x1, #0x1
    55c0:	8b1402b5 	add	x21, x21, x20
    55c4:	f9000660 	str	x0, [x19, #8]
    55c8:	39400020 	ldrb	w0, [x1]
    55cc:	381ff2a0 	sturb	w0, [x21, #-1]
    55d0:	17ffffed 	b	5584 <__stdio_read+0x70>
    55d4:	aa0003f4 	mov	x20, x0
    55d8:	17ffffeb 	b	5584 <__stdio_read+0x70>

00000000000055dc <__stdio_seek>:
    55dc:	b9407800 	ldr	w0, [x0, #120]
    55e0:	140001a3 	b	5c6c <lseek>

00000000000055e4 <__stdio_write>:
    55e4:	a9bb53f3 	stp	x19, x20, [sp, #-80]!
    55e8:	aa0003f3 	mov	x19, x0
    55ec:	a9015bf5 	stp	x21, x22, [sp, #16]
    55f0:	9100c3f4 	add	x20, sp, #0x30
    55f4:	aa0203f5 	mov	x21, x2
    55f8:	f9401416 	ldr	x22, [x0, #40]
    55fc:	a9027bf7 	stp	x23, x30, [sp, #32]
    5600:	52800057 	mov	w23, #0x2                   	// #2
    5604:	f9401c00 	ldr	x0, [x0, #56]
    5608:	a9040be1 	stp	x1, x2, [sp, #64]
    560c:	cb0002d6 	sub	x22, x22, x0
    5610:	a9035be0 	stp	x0, x22, [sp, #48]
    5614:	8b0202d6 	add	x22, x22, x2
    5618:	b9807a61 	ldrsw	x1, [x19, #120]
    561c:	93407ee3 	sxtw	x3, w23
    5620:	aa1403e2 	mov	x2, x20
    5624:	d2800840 	mov	x0, #0x42                  	// #66
    5628:	940006f2 	bl	71f0 <__syscall3>
    562c:	97fffe62 	bl	4fb4 <__syscall_ret>
    5630:	eb0002df 	cmp	x22, x0
    5634:	54000141 	b.ne	565c <__stdio_write+0x78>  // b.any
    5638:	a9458660 	ldp	x0, x1, [x19, #88]
    563c:	f9001e60 	str	x0, [x19, #56]
    5640:	8b010001 	add	x1, x0, x1
    5644:	a9020261 	stp	x1, x0, [x19, #32]
    5648:	aa1503e0 	mov	x0, x21
    564c:	a9415bf5 	ldp	x21, x22, [sp, #16]
    5650:	a9427bf7 	ldp	x23, x30, [sp, #32]
    5654:	a8c553f3 	ldp	x19, x20, [sp], #80
    5658:	d65f03c0 	ret
    565c:	b6f80160 	tbz	x0, #63, 5688 <__stdio_write+0xa4>
    5660:	b9400260 	ldr	w0, [x19]
    5664:	71000aff 	cmp	w23, #0x2
    5668:	a9027e7f 	stp	xzr, xzr, [x19, #32]
    566c:	321b0000 	orr	w0, w0, #0x20
    5670:	b9000260 	str	w0, [x19]
    5674:	f9001e7f 	str	xzr, [x19, #56]
    5678:	54000240 	b.eq	56c0 <__stdio_write+0xdc>  // b.none
    567c:	f9400680 	ldr	x0, [x20, #8]
    5680:	cb0002b5 	sub	x21, x21, x0
    5684:	17fffff1 	b	5648 <__stdio_write+0x64>
    5688:	f9400681 	ldr	x1, [x20, #8]
    568c:	cb0002d6 	sub	x22, x22, x0
    5690:	eb01001f 	cmp	x0, x1
    5694:	54000089 	b.ls	56a4 <__stdio_write+0xc0>  // b.plast
    5698:	cb010000 	sub	x0, x0, x1
    569c:	91004294 	add	x20, x20, #0x10
    56a0:	510006f7 	sub	w23, w23, #0x1
    56a4:	f9400281 	ldr	x1, [x20]
    56a8:	8b000021 	add	x1, x1, x0
    56ac:	f9000281 	str	x1, [x20]
    56b0:	f9400681 	ldr	x1, [x20, #8]
    56b4:	cb000020 	sub	x0, x1, x0
    56b8:	f9000680 	str	x0, [x20, #8]
    56bc:	17ffffd7 	b	5618 <__stdio_write+0x34>
    56c0:	d2800015 	mov	x21, #0x0                   	// #0
    56c4:	17ffffe1 	b	5648 <__stdio_write+0x64>

00000000000056c8 <__stdout_write>:
    56c8:	a9bd53f3 	stp	x19, x20, [sp, #-48]!
    56cc:	aa0003f3 	mov	x19, x0
    56d0:	90000000 	adrp	x0, 5000 <__fpclassifyl+0x4>
    56d4:	91179000 	add	x0, x0, #0x5e4
    56d8:	a9017bf5 	stp	x21, x30, [sp, #16]
    56dc:	aa0103f4 	mov	x20, x1
    56e0:	f9002660 	str	x0, [x19, #72]
    56e4:	aa0203f5 	mov	x21, x2
    56e8:	b9400260 	ldr	w0, [x19]
    56ec:	37300120 	tbnz	w0, #6, 5710 <__stdout_write+0x48>
    56f0:	b9807a61 	ldrsw	x1, [x19, #120]
    56f4:	9100a3e3 	add	x3, sp, #0x28
    56f8:	d28a8262 	mov	x2, #0x5413                	// #21523
    56fc:	d28003a0 	mov	x0, #0x1d                  	// #29
    5700:	940006bc 	bl	71f0 <__syscall3>
    5704:	b4000060 	cbz	x0, 5710 <__stdout_write+0x48>
    5708:	12800000 	mov	w0, #0xffffffff            	// #-1
    570c:	b9009260 	str	w0, [x19, #144]
    5710:	aa1503e2 	mov	x2, x21
    5714:	aa1403e1 	mov	x1, x20
    5718:	aa1303e0 	mov	x0, x19
    571c:	97ffffb2 	bl	55e4 <__stdio_write>
    5720:	a9417bf5 	ldp	x21, x30, [sp, #16]
    5724:	a8c353f3 	ldp	x19, x20, [sp], #48
    5728:	d65f03c0 	ret

000000000000572c <__toread>:
    572c:	a9bf7bf3 	stp	x19, x30, [sp, #-16]!
    5730:	aa0003f3 	mov	x19, x0
    5734:	b9408802 	ldr	w2, [x0, #136]
    5738:	51000441 	sub	w1, w2, #0x1
    573c:	2a020021 	orr	w1, w1, w2
    5740:	b9008801 	str	w1, [x0, #136]
    5744:	f9401402 	ldr	x2, [x0, #40]
    5748:	f9401c01 	ldr	x1, [x0, #56]
    574c:	eb01005f 	cmp	x2, x1
    5750:	540000a0 	b.eq	5764 <__toread+0x38>  // b.none
    5754:	f9402403 	ldr	x3, [x0, #72]
    5758:	d2800002 	mov	x2, #0x0                   	// #0
    575c:	d2800001 	mov	x1, #0x0                   	// #0
    5760:	d63f0060 	blr	x3
    5764:	b9400260 	ldr	w0, [x19]
    5768:	a9027e7f 	stp	xzr, xzr, [x19, #32]
    576c:	f9001e7f 	str	xzr, [x19, #56]
    5770:	361000c0 	tbz	w0, #2, 5788 <__toread+0x5c>
    5774:	321b0000 	orr	w0, w0, #0x20
    5778:	b9000260 	str	w0, [x19]
    577c:	12800000 	mov	w0, #0xffffffff            	// #-1
    5780:	a8c17bf3 	ldp	x19, x30, [sp], #16
    5784:	d65f03c0 	ret
    5788:	a9458a61 	ldp	x1, x2, [x19, #88]
    578c:	93441000 	sbfx	x0, x0, #4, #1
    5790:	8b020021 	add	x1, x1, x2
    5794:	a9008661 	stp	x1, x1, [x19, #8]
    5798:	17fffffa 	b	5780 <__toread+0x54>

000000000000579c <__toread_needs_stdio_exit>:
    579c:	140005ba 	b	6e84 <__stdio_exit>

00000000000057a0 <__towrite>:
    57a0:	b9408802 	ldr	w2, [x0, #136]
    57a4:	51000441 	sub	w1, w2, #0x1
    57a8:	2a020021 	orr	w1, w1, w2
    57ac:	b9008801 	str	w1, [x0, #136]
    57b0:	b9400001 	ldr	w1, [x0]
    57b4:	361800a1 	tbz	w1, #3, 57c8 <__towrite+0x28>
    57b8:	321b0021 	orr	w1, w1, #0x20
    57bc:	b9000001 	str	w1, [x0]
    57c0:	12800000 	mov	w0, #0xffffffff            	// #-1
    57c4:	d65f03c0 	ret
    57c8:	a9458801 	ldp	x1, x2, [x0, #88]
    57cc:	a900fc1f 	stp	xzr, xzr, [x0, #8]
    57d0:	f9001401 	str	x1, [x0, #40]
    57d4:	f9001c01 	str	x1, [x0, #56]
    57d8:	8b020021 	add	x1, x1, x2
    57dc:	f9001001 	str	x1, [x0, #32]
    57e0:	52800000 	mov	w0, #0x0                   	// #0
    57e4:	17fffff8 	b	57c4 <__towrite+0x24>

00000000000057e8 <__towrite_needs_stdio_exit>:
    57e8:	140005a7 	b	6e84 <__stdio_exit>

00000000000057ec <fputs>:
    57ec:	a9be53f3 	stp	x19, x20, [sp, #-32]!
    57f0:	aa0003f4 	mov	x20, x0
    57f4:	a9017bf5 	stp	x21, x30, [sp, #16]
    57f8:	aa0103f5 	mov	x21, x1
    57fc:	97fffce7 	bl	4b98 <strlen>
    5800:	aa0003f3 	mov	x19, x0
    5804:	aa1503e3 	mov	x3, x21
    5808:	aa0003e2 	mov	x2, x0
    580c:	d2800021 	mov	x1, #0x1                   	// #1
    5810:	aa1403e0 	mov	x0, x20
    5814:	94000041 	bl	5918 <fwrite>
    5818:	eb13001f 	cmp	x0, x19
    581c:	5a9f03e0 	csetm	w0, ne  // ne = any
    5820:	a9417bf5 	ldp	x21, x30, [sp, #16]
    5824:	a8c253f3 	ldp	x19, x20, [sp], #32
    5828:	d65f03c0 	ret

000000000000582c <__fwritex>:
    582c:	a9bd53f3 	stp	x19, x20, [sp, #-48]!
    5830:	aa0203f3 	mov	x19, x2
    5834:	a9015bf5 	stp	x21, x22, [sp, #16]
    5838:	aa0003f6 	mov	x22, x0
    583c:	aa0103f5 	mov	x21, x1
    5840:	f9401040 	ldr	x0, [x2, #32]
    5844:	f90013fe 	str	x30, [sp, #32]
    5848:	b40001c0 	cbz	x0, 5880 <__fwritex+0x54>
    584c:	a9420660 	ldp	x0, x1, [x19, #32]
    5850:	cb010000 	sub	x0, x0, x1
    5854:	eb15001f 	cmp	x0, x21
    5858:	540001e2 	b.cs	5894 <__fwritex+0x68>  // b.hs, b.nlast
    585c:	aa1503e2 	mov	x2, x21
    5860:	aa1603e1 	mov	x1, x22
    5864:	aa1303e0 	mov	x0, x19
    5868:	a9415bf5 	ldp	x21, x22, [sp, #16]
    586c:	f94013fe 	ldr	x30, [sp, #32]
    5870:	f9402663 	ldr	x3, [x19, #72]
    5874:	a8c353f3 	ldp	x19, x20, [sp], #48
    5878:	aa0303f0 	mov	x16, x3
    587c:	d61f0200 	br	x16
    5880:	aa0203e0 	mov	x0, x2
    5884:	97ffffc7 	bl	57a0 <__towrite>
    5888:	34fffe20 	cbz	w0, 584c <__fwritex+0x20>
    588c:	d2800000 	mov	x0, #0x0                   	// #0
    5890:	1400001a 	b	58f8 <__fwritex+0xcc>
    5894:	b9409260 	ldr	w0, [x19, #144]
    5898:	aa1503f4 	mov	x20, x21
    589c:	37f801e0 	tbnz	w0, #31, 58d8 <__fwritex+0xac>
    58a0:	b4000394 	cbz	x20, 5910 <__fwritex+0xe4>
    58a4:	d1000680 	sub	x0, x20, #0x1
    58a8:	38606ac1 	ldrb	w1, [x22, x0]
    58ac:	7100283f 	cmp	w1, #0xa
    58b0:	540002c1 	b.ne	5908 <__fwritex+0xdc>  // b.any
    58b4:	f9402663 	ldr	x3, [x19, #72]
    58b8:	aa1403e2 	mov	x2, x20
    58bc:	aa1603e1 	mov	x1, x22
    58c0:	aa1303e0 	mov	x0, x19
    58c4:	d63f0060 	blr	x3
    58c8:	eb00029f 	cmp	x20, x0
    58cc:	54000168 	b.hi	58f8 <__fwritex+0xcc>  // b.pmore
    58d0:	8b1402d6 	add	x22, x22, x20
    58d4:	cb1402b4 	sub	x20, x21, x20
    58d8:	f9401660 	ldr	x0, [x19, #40]
    58dc:	aa1403e2 	mov	x2, x20
    58e0:	aa1603e1 	mov	x1, x22
    58e4:	97fffb61 	bl	4668 <memcpy>
    58e8:	f9401662 	ldr	x2, [x19, #40]
    58ec:	aa1503e0 	mov	x0, x21
    58f0:	8b140054 	add	x20, x2, x20
    58f4:	f9001674 	str	x20, [x19, #40]
    58f8:	a9415bf5 	ldp	x21, x22, [sp, #16]
    58fc:	f94013fe 	ldr	x30, [sp, #32]
    5900:	a8c353f3 	ldp	x19, x20, [sp], #48
    5904:	d65f03c0 	ret
    5908:	aa0003f4 	mov	x20, x0
    590c:	17ffffe5 	b	58a0 <__fwritex+0x74>
    5910:	aa1503f4 	mov	x20, x21
    5914:	17fffff1 	b	58d8 <__fwritex+0xac>

0000000000005918 <fwrite>:
    5918:	a9bc53f3 	stp	x19, x20, [sp, #-64]!
    591c:	f100003f 	cmp	x1, #0x0
    5920:	aa0303f4 	mov	x20, x3
    5924:	a9015bf5 	stp	x21, x22, [sp, #16]
    5928:	aa0003f6 	mov	x22, x0
    592c:	b9408c60 	ldr	w0, [x3, #140]
    5930:	a90263f7 	stp	x23, x24, [sp, #32]
    5934:	aa0103f5 	mov	x21, x1
    5938:	9b027c38 	mul	x24, x1, x2
    593c:	f9001bfe 	str	x30, [sp, #48]
    5940:	9a9f1053 	csel	x19, x2, xzr, ne  // ne = any
    5944:	37f802a0 	tbnz	w0, #31, 5998 <fwrite+0x80>
    5948:	aa0303e0 	mov	x0, x3
    594c:	97fffe7f 	bl	5348 <__lockfile>
    5950:	2a0003f7 	mov	w23, w0
    5954:	aa1603e0 	mov	x0, x22
    5958:	aa1403e2 	mov	x2, x20
    595c:	aa1803e1 	mov	x1, x24
    5960:	97ffffb3 	bl	582c <__fwritex>
    5964:	aa0003f6 	mov	x22, x0
    5968:	34000077 	cbz	w23, 5974 <fwrite+0x5c>
    596c:	aa1403e0 	mov	x0, x20
    5970:	97fffeab 	bl	541c <__unlockfile>
    5974:	eb16031f 	cmp	x24, x22
    5978:	54000040 	b.eq	5980 <fwrite+0x68>  // b.none
    597c:	9ad50ad3 	udiv	x19, x22, x21
    5980:	aa1303e0 	mov	x0, x19
    5984:	a9415bf5 	ldp	x21, x22, [sp, #16]
    5988:	a94263f7 	ldp	x23, x24, [sp, #32]
    598c:	f9401bfe 	ldr	x30, [sp, #48]
    5990:	a8c453f3 	ldp	x19, x20, [sp], #64
    5994:	d65f03c0 	ret
    5998:	52800017 	mov	w23, #0x0                   	// #0
    599c:	17ffffee 	b	5954 <fwrite+0x3c>

00000000000059a0 <__ofl_add>:
    59a0:	a9bf7bf3 	stp	x19, x30, [sp, #-16]!
    59a4:	aa0003f3 	mov	x19, x0
    59a8:	97fff406 	bl	29c0 <__ofl_lock>
    59ac:	f9400001 	ldr	x1, [x0]
    59b0:	f9003a61 	str	x1, [x19, #112]
    59b4:	b4000041 	cbz	x1, 59bc <__ofl_add+0x1c>
    59b8:	f9003433 	str	x19, [x1, #104]
    59bc:	f9000013 	str	x19, [x0]
    59c0:	97fff408 	bl	29e0 <__ofl_unlock>
    59c4:	aa1303e0 	mov	x0, x19
    59c8:	a8c17bf3 	ldp	x19, x30, [sp], #16
    59cc:	d65f03c0 	ret

00000000000059d0 <snprintf>:
    59d0:	d10403ff 	sub	sp, sp, #0x100
    59d4:	a90d93e3 	stp	x3, x4, [sp, #216]
    59d8:	910403e3 	add	x3, sp, #0x100
    59dc:	a9030fe3 	stp	x3, x3, [sp, #48]
    59e0:	910343e3 	add	x3, sp, #0xd0
    59e4:	f90023e3 	str	x3, [sp, #64]
    59e8:	128004e3 	mov	w3, #0xffffffd8            	// #-40
    59ec:	b9004be3 	str	w3, [sp, #72]
    59f0:	12800fe3 	mov	w3, #0xffffff80            	// #-128
    59f4:	b9004fe3 	str	w3, [sp, #76]
    59f8:	910043e3 	add	x3, sp, #0x10
    59fc:	a90e9be5 	stp	x5, x6, [sp, #232]
    5a00:	a94317e4 	ldp	x4, x5, [sp, #48]
    5a04:	a90117e4 	stp	x4, x5, [sp, #16]
    5a08:	a94417e4 	ldp	x4, x5, [sp, #64]
    5a0c:	f90003fe 	str	x30, [sp]
    5a10:	a90217e4 	stp	x4, x5, [sp, #32]
    5a14:	3d8017e0 	str	q0, [sp, #80]
    5a18:	3d801be1 	str	q1, [sp, #96]
    5a1c:	3d801fe2 	str	q2, [sp, #112]
    5a20:	3d8023e3 	str	q3, [sp, #128]
    5a24:	3d8027e4 	str	q4, [sp, #144]
    5a28:	3d802be5 	str	q5, [sp, #160]
    5a2c:	3d802fe6 	str	q6, [sp, #176]
    5a30:	3d8033e7 	str	q7, [sp, #192]
    5a34:	f9007fe7 	str	x7, [sp, #248]
    5a38:	9400002f 	bl	5af4 <vsnprintf>
    5a3c:	f94003fe 	ldr	x30, [sp]
    5a40:	910403ff 	add	sp, sp, #0x100
    5a44:	d65f03c0 	ret

0000000000005a48 <sn_write>:
    5a48:	a9bd53f3 	stp	x19, x20, [sp, #-48]!
    5a4c:	f9404c13 	ldr	x19, [x0, #152]
    5a50:	a9027bf7 	stp	x23, x30, [sp, #32]
    5a54:	aa0103f7 	mov	x23, x1
    5a58:	f9401414 	ldr	x20, [x0, #40]
    5a5c:	a9015bf5 	stp	x21, x22, [sp, #16]
    5a60:	aa0203f6 	mov	x22, x2
    5a64:	f9401c01 	ldr	x1, [x0, #56]
    5a68:	aa0003f5 	mov	x21, x0
    5a6c:	f9400662 	ldr	x2, [x19, #8]
    5a70:	cb010294 	sub	x20, x20, x1
    5a74:	eb02029f 	cmp	x20, x2
    5a78:	9a829294 	csel	x20, x20, x2, ls  // ls = plast
    5a7c:	b4000114 	cbz	x20, 5a9c <sn_write+0x54>
    5a80:	f9400260 	ldr	x0, [x19]
    5a84:	aa1403e2 	mov	x2, x20
    5a88:	97fffaf8 	bl	4668 <memcpy>
    5a8c:	a9400a60 	ldp	x0, x2, [x19]
    5a90:	8b140000 	add	x0, x0, x20
    5a94:	cb140042 	sub	x2, x2, x20
    5a98:	a9000a60 	stp	x0, x2, [x19]
    5a9c:	f9400674 	ldr	x20, [x19, #8]
    5aa0:	eb16029f 	cmp	x20, x22
    5aa4:	9a969294 	csel	x20, x20, x22, ls  // ls = plast
    5aa8:	b4000134 	cbz	x20, 5acc <sn_write+0x84>
    5aac:	f9400260 	ldr	x0, [x19]
    5ab0:	aa1403e2 	mov	x2, x20
    5ab4:	aa1703e1 	mov	x1, x23
    5ab8:	97fffaec 	bl	4668 <memcpy>
    5abc:	a9400a60 	ldp	x0, x2, [x19]
    5ac0:	8b140000 	add	x0, x0, x20
    5ac4:	cb140042 	sub	x2, x2, x20
    5ac8:	a9000a60 	stp	x0, x2, [x19]
    5acc:	f9400260 	ldr	x0, [x19]
    5ad0:	3900001f 	strb	wzr, [x0]
    5ad4:	f9402ea0 	ldr	x0, [x21, #88]
    5ad8:	a9427bf7 	ldp	x23, x30, [sp, #32]
    5adc:	f90016a0 	str	x0, [x21, #40]
    5ae0:	f9001ea0 	str	x0, [x21, #56]
    5ae4:	aa1603e0 	mov	x0, x22
    5ae8:	a9415bf5 	ldp	x21, x22, [sp, #16]
    5aec:	a8c353f3 	ldp	x19, x20, [sp], #48
    5af0:	d65f03c0 	ret

0000000000005af4 <vsnprintf>:
    5af4:	a9a953f3 	stp	x19, x20, [sp, #-368]!
    5af8:	aa0103f4 	mov	x20, x1
    5afc:	a9015bf5 	stp	x21, x22, [sp, #16]
    5b00:	aa0203f6 	mov	x22, x2
    5b04:	a90263f7 	stp	x23, x24, [sp, #32]
    5b08:	aa0303f7 	mov	x23, x3
    5b0c:	f9001bfe 	str	x30, [sp, #48]
    5b10:	b5000421 	cbnz	x1, 5b94 <vsnprintf+0xa0>
    5b14:	9101c3f5 	add	x21, sp, #0x70
    5b18:	f100029f 	cmp	x20, #0x0
    5b1c:	d1000680 	sub	x0, x20, #0x1
    5b20:	9a9f1000 	csel	x0, x0, xzr, ne  // ne = any
    5b24:	910223f8 	add	x24, sp, #0x88
    5b28:	d2801d02 	mov	x2, #0xe8                  	// #232
    5b2c:	52800001 	mov	w1, #0x0                   	// #0
    5b30:	a90783f5 	stp	x21, x0, [sp, #120]
    5b34:	aa1803e0 	mov	x0, x24
