
/home/jianyu/optee/out-br/build/optee_examples_ext-1.0/gpu_hello_world/ta/out/2c4493d0-ef85-11eb-9a03-0242ac130003.elf:     file format elf64-littleaarch64


Disassembly of section .text:

0000000000000020 <__addtf3>:
      20:	a9bd7bfd 	stp	x29, x30, [sp, #-48]!
      24:	910003fd 	mov	x29, sp
      28:	3d8007e0 	str	q0, [sp, #16]
      2c:	3d800be1 	str	q1, [sp, #32]
      30:	a94107e6 	ldp	x6, x1, [sp, #16]
      34:	a9420fe0 	ldp	x0, x3, [sp, #32]
      38:	d53b440f 	mrs	x15, fpcr
      3c:	d37ffc27 	lsr	x7, x1, #63
      40:	aa0003ea 	mov	x10, x0
      44:	d37dbc64 	ubfiz	x4, x3, #3, #48
      48:	d37ffc65 	lsr	x5, x3, #63
      4c:	aa0703ec 	mov	x12, x7
      50:	d37dbc22 	ubfiz	x2, x1, #3, #48
      54:	aa40f484 	orr	x4, x4, x0, lsr #61
      58:	d370f828 	ubfx	x8, x1, #48, #15
      5c:	d370f860 	ubfx	x0, x3, #48, #15
      60:	12001ce7 	and	w7, w7, #0xff
      64:	aa0c03f0 	mov	x16, x12
      68:	eb05019f 	cmp	x12, x5
      6c:	12001cab 	and	w11, w5, #0xff
      70:	aa46f442 	orr	x2, x2, x6, lsr #61
      74:	aa0803e1 	mov	x1, x8
      78:	d37df0c9 	lsl	x9, x6, #3
      7c:	aa0003e3 	mov	x3, x0
      80:	d37df14d 	lsl	x13, x10, #3
      84:	54000d60 	b.eq	230 <__addtf3+0x210>  // b.none
      88:	4b000100 	sub	w0, w8, w0
      8c:	7100001f 	cmp	w0, #0x0
      90:	54000a6d 	b.le	1dc <__addtf3+0x1bc>
      94:	b4000fe3 	cbz	x3, 290 <__addtf3+0x270>
      98:	b24d0084 	orr	x4, x4, #0x8000000000000
      9c:	d28fffe3 	mov	x3, #0x7fff                	// #32767
      a0:	eb03003f 	cmp	x1, x3
      a4:	54001f80 	b.eq	494 <__addtf3+0x474>  // b.none
      a8:	7101d01f 	cmp	w0, #0x74
      ac:	5400236c 	b.gt	518 <__addtf3+0x4f8>
      b0:	7100fc1f 	cmp	w0, #0x3f
      b4:	54002e2c 	b.gt	678 <__addtf3+0x658>
      b8:	52800803 	mov	w3, #0x40                  	// #64
      bc:	4b000063 	sub	w3, w3, w0
      c0:	9ac025a6 	lsr	x6, x13, x0
      c4:	9ac321ad 	lsl	x13, x13, x3
      c8:	f10001bf 	cmp	x13, #0x0
      cc:	9a9f07e5 	cset	x5, ne  // ne = any
      d0:	9ac32083 	lsl	x3, x4, x3
      d4:	aa060063 	orr	x3, x3, x6
      d8:	9ac02480 	lsr	x0, x4, x0
      dc:	aa050063 	orr	x3, x3, x5
      e0:	cb000042 	sub	x2, x2, x0
      e4:	eb030129 	subs	x9, x9, x3
      e8:	da1f0042 	sbc	x2, x2, xzr
      ec:	9240c843 	and	x3, x2, #0x7ffffffffffff
      f0:	b6980f02 	tbz	x2, #51, 2d0 <__addtf3+0x2b0>
      f4:	b4002043 	cbz	x3, 4fc <__addtf3+0x4dc>
      f8:	dac01060 	clz	x0, x3
      fc:	51003000 	sub	w0, w0, #0xc
     100:	4b0003e2 	neg	w2, w0
     104:	9ac02064 	lsl	x4, x3, x0
     108:	9ac02123 	lsl	x3, x9, x0
     10c:	9ac22529 	lsr	x9, x9, x2
     110:	aa040122 	orr	x2, x9, x4
     114:	eb20c03f 	cmp	x1, w0, sxtw
     118:	93407c04 	sxtw	x4, w0
     11c:	54001e0c 	b.gt	4dc <__addtf3+0x4bc>
     120:	4b010001 	sub	w1, w0, w1
     124:	11000420 	add	w0, w1, #0x1
     128:	7100fc1f 	cmp	w0, #0x3f
     12c:	540028ac 	b.gt	640 <__addtf3+0x620>
     130:	52800801 	mov	w1, #0x40                  	// #64
     134:	4b000021 	sub	w1, w1, w0
     138:	9ac02464 	lsr	x4, x3, x0
     13c:	9ac12063 	lsl	x3, x3, x1
     140:	f100007f 	cmp	x3, #0x0
     144:	9ac12049 	lsl	x9, x2, x1
     148:	9a9f07e1 	cset	x1, ne  // ne = any
     14c:	aa040129 	orr	x9, x9, x4
     150:	9ac02442 	lsr	x2, x2, x0
     154:	aa010129 	orr	x9, x9, x1
     158:	aa020128 	orr	x8, x9, x2
     15c:	b4000c48 	cbz	x8, 2e4 <__addtf3+0x2c4>
     160:	92400920 	and	x0, x9, #0x7
     164:	d2800001 	mov	x1, #0x0                   	// #0
     168:	52800025 	mov	w5, #0x1                   	// #1
     16c:	b4001de0 	cbz	x0, 528 <__addtf3+0x508>
     170:	926a05e3 	and	x3, x15, #0xc00000
     174:	f150007f 	cmp	x3, #0x400, lsl #12
     178:	540017a0 	b.eq	46c <__addtf3+0x44c>  // b.none
     17c:	f160007f 	cmp	x3, #0x800, lsl #12
     180:	54001660 	b.eq	44c <__addtf3+0x42c>  // b.none
     184:	b40017a3 	cbz	x3, 478 <__addtf3+0x458>
     188:	924d0043 	and	x3, x2, #0x8000000000000
     18c:	52800200 	mov	w0, #0x10                  	// #16
     190:	34000045 	cbz	w5, 198 <__addtf3+0x178>
     194:	321d0000 	orr	w0, w0, #0x8
     198:	b40018c3 	cbz	x3, 4b0 <__addtf3+0x490>
     19c:	91000421 	add	x1, x1, #0x1
     1a0:	d28fffe3 	mov	x3, #0x7fff                	// #32767
     1a4:	eb03003f 	cmp	x1, x3
     1a8:	54000f60 	b.eq	394 <__addtf3+0x374>  // b.none
     1ac:	12003821 	and	w1, w1, #0x7fff
     1b0:	93c90c48 	extr	x8, x2, x9, #3
     1b4:	d343c842 	ubfx	x2, x2, #3, #48
     1b8:	d2800005 	mov	x5, #0x0                   	// #0
     1bc:	2a073c21 	orr	w1, w1, w7, lsl #15
     1c0:	b340bc45 	bfxil	x5, x2, #0, #48
     1c4:	9e670100 	fmov	d0, x8
     1c8:	b3503c25 	bfi	x5, x1, #48, #16
     1cc:	9eaf00a0 	fmov	v0.d[1], x5
     1d0:	35001100 	cbnz	w0, 3f0 <__addtf3+0x3d0>
     1d4:	a8c37bfd 	ldp	x29, x30, [sp], #48
     1d8:	d65f03c0 	ret
     1dc:	aa0503ee 	mov	x14, x5
     1e0:	540008e0 	b.eq	2fc <__addtf3+0x2dc>  // b.none
     1e4:	b5001ce8 	cbnz	x8, 580 <__addtf3+0x560>
     1e8:	aa090041 	orr	x1, x2, x9
     1ec:	b4000601 	cbz	x1, 2ac <__addtf3+0x28c>
     1f0:	3100041f 	cmn	w0, #0x1
     1f4:	54003d40 	b.eq	99c <__addtf3+0x97c>  // b.none
     1f8:	d28fffe1 	mov	x1, #0x7fff                	// #32767
     1fc:	2a2003e0 	mvn	w0, w0
     200:	eb01007f 	cmp	x3, x1
     204:	54001c81 	b.ne	594 <__addtf3+0x574>  // b.any
     208:	aa0d0080 	orr	x0, x4, x13
     20c:	b5003740 	cbnz	x0, 8f4 <__addtf3+0x8d4>
     210:	aa0e03f0 	mov	x16, x14
     214:	d503201f 	nop
     218:	d2800004 	mov	x4, #0x0                   	// #0
     21c:	9e670080 	fmov	d0, x4
     220:	d3410210 	lsl	x16, x16, #63
     224:	b2503a05 	orr	x5, x16, #0x7fff000000000000
     228:	9eaf00a0 	fmov	v0.d[1], x5
     22c:	17ffffea 	b	1d4 <__addtf3+0x1b4>
     230:	4b000105 	sub	w5, w8, w0
     234:	710000bf 	cmp	w5, #0x0
     238:	54000e6d 	b.le	404 <__addtf3+0x3e4>
     23c:	b4000840 	cbz	x0, 344 <__addtf3+0x324>
     240:	b24d0084 	orr	x4, x4, #0x8000000000000
     244:	d28fffe0 	mov	x0, #0x7fff                	// #32767
     248:	eb00003f 	cmp	x1, x0
     24c:	54001240 	b.eq	494 <__addtf3+0x474>  // b.none
     250:	7101d0bf 	cmp	w5, #0x74
     254:	54001eac 	b.gt	628 <__addtf3+0x608>
     258:	7100fcbf 	cmp	w5, #0x3f
     25c:	5400266c 	b.gt	728 <__addtf3+0x708>
     260:	52800800 	mov	w0, #0x40                  	// #64
     264:	4b050000 	sub	w0, w0, w5
     268:	9ac525a6 	lsr	x6, x13, x5
     26c:	9ac021ad 	lsl	x13, x13, x0
     270:	f10001bf 	cmp	x13, #0x0
     274:	9ac02080 	lsl	x0, x4, x0
     278:	9a9f07e3 	cset	x3, ne  // ne = any
     27c:	aa060000 	orr	x0, x0, x6
     280:	9ac52484 	lsr	x4, x4, x5
     284:	aa030000 	orr	x0, x0, x3
     288:	8b040042 	add	x2, x2, x4
     28c:	140000ea 	b	634 <__addtf3+0x614>
     290:	aa0d0083 	orr	x3, x4, x13
     294:	b4001b83 	cbz	x3, 604 <__addtf3+0x5e4>
     298:	71000400 	subs	w0, w0, #0x1
     29c:	54fff001 	b.ne	9c <__addtf3+0x7c>  // b.any
     2a0:	eb0d0129 	subs	x9, x9, x13
     2a4:	da040042 	sbc	x2, x2, x4
     2a8:	17ffff91 	b	ec <__addtf3+0xcc>
     2ac:	d28fffe0 	mov	x0, #0x7fff                	// #32767
     2b0:	eb00007f 	cmp	x3, x0
     2b4:	540039a0 	b.eq	9e8 <__addtf3+0x9c8>  // b.none
     2b8:	2a0b03e7 	mov	w7, w11
     2bc:	aa0403e2 	mov	x2, x4
     2c0:	aa0d03e9 	mov	x9, x13
     2c4:	aa0303e1 	mov	x1, x3
     2c8:	aa0503ec 	mov	x12, x5
     2cc:	d503201f 	nop
     2d0:	aa020128 	orr	x8, x9, x2
     2d4:	92400920 	and	x0, x9, #0x7
     2d8:	52800005 	mov	w5, #0x0                   	// #0
     2dc:	b5fff481 	cbnz	x1, 16c <__addtf3+0x14c>
     2e0:	b5fff408 	cbnz	x8, 160 <__addtf3+0x140>
     2e4:	d2800002 	mov	x2, #0x0                   	// #0
     2e8:	d2800001 	mov	x1, #0x0                   	// #0
     2ec:	52800000 	mov	w0, #0x0                   	// #0
     2f0:	9240bc42 	and	x2, x2, #0xffffffffffff
     2f4:	12003821 	and	w1, w1, #0x7fff
     2f8:	17ffffb0 	b	1b8 <__addtf3+0x198>
     2fc:	91000505 	add	x5, x8, #0x1
     300:	f27f34bf 	tst	x5, #0x7ffe
     304:	54001681 	b.ne	5d4 <__addtf3+0x5b4>  // b.any
     308:	aa090045 	orr	x5, x2, x9
     30c:	aa0d0088 	orr	x8, x4, x13
     310:	b5002421 	cbnz	x1, 794 <__addtf3+0x774>
     314:	b4002945 	cbz	x5, 83c <__addtf3+0x81c>
     318:	b40029c8 	cbz	x8, 850 <__addtf3+0x830>
     31c:	eb0d0125 	subs	x5, x9, x13
     320:	eb0d013f 	cmp	x9, x13
     324:	da040043 	sbc	x3, x2, x4
     328:	b69837a3 	tbz	x3, #51, a1c <__addtf3+0x9fc>
     32c:	eb0901a9 	subs	x9, x13, x9
     330:	2a0b03e7 	mov	w7, w11
     334:	da020082 	sbc	x2, x4, x2
     338:	aa0e03ec 	mov	x12, x14
     33c:	aa020128 	orr	x8, x9, x2
     340:	17ffff87 	b	15c <__addtf3+0x13c>
     344:	aa0d0080 	orr	x0, x4, x13
     348:	b40026a0 	cbz	x0, 81c <__addtf3+0x7fc>
     34c:	710004a5 	subs	w5, w5, #0x1
     350:	54fff7a1 	b.ne	244 <__addtf3+0x224>  // b.any
     354:	ab0d0129 	adds	x9, x9, x13
     358:	9a020082 	adc	x2, x4, x2
     35c:	d503201f 	nop
     360:	b69ffb82 	tbz	x2, #51, 2d0 <__addtf3+0x2b0>
     364:	91000421 	add	x1, x1, #0x1
     368:	d28fffe0 	mov	x0, #0x7fff                	// #32767
     36c:	eb00003f 	cmp	x1, x0
     370:	54002760 	b.eq	85c <__addtf3+0x83c>  // b.none
     374:	92400120 	and	x0, x9, #0x1
     378:	924cf843 	and	x3, x2, #0xfff7ffffffffffff
     37c:	aa490409 	orr	x9, x0, x9, lsr #1
     380:	52800005 	mov	w5, #0x0                   	// #0
     384:	aa02fd29 	orr	x9, x9, x2, lsl #63
     388:	d341fc62 	lsr	x2, x3, #1
     38c:	92400920 	and	x0, x9, #0x7
     390:	17ffff77 	b	16c <__addtf3+0x14c>
     394:	926a05e3 	and	x3, x15, #0xc00000
     398:	b40001c3 	cbz	x3, 3d0 <__addtf3+0x3b0>
     39c:	f150007f 	cmp	x3, #0x400, lsl #12
     3a0:	54000140 	b.eq	3c8 <__addtf3+0x3a8>  // b.none
     3a4:	f160007f 	cmp	x3, #0x800, lsl #12
     3a8:	1a9f018c 	csel	w12, w12, wzr, eq  // eq = none
     3ac:	3500012c 	cbnz	w12, 3d0 <__addtf3+0x3b0>
     3b0:	52800281 	mov	w1, #0x14                  	// #20
     3b4:	92fc0002 	mov	x2, #0x1fffffffffffffff    	// #2305843009213693951
     3b8:	2a010000 	orr	w0, w0, w1
     3bc:	92800008 	mov	x8, #0xffffffffffffffff    	// #-1
     3c0:	d28fffc1 	mov	x1, #0x7ffe                	// #32766
     3c4:	17ffffcb 	b	2f0 <__addtf3+0x2d0>
     3c8:	b5ffff4c 	cbnz	x12, 3b0 <__addtf3+0x390>
     3cc:	d503201f 	nop
     3d0:	52800281 	mov	w1, #0x14                  	// #20
     3d4:	92401cf0 	and	x16, x7, #0xff
     3d8:	2a010000 	orr	w0, w0, w1
     3dc:	d2800004 	mov	x4, #0x0                   	// #0
     3e0:	9e670080 	fmov	d0, x4
     3e4:	d3410210 	lsl	x16, x16, #63
     3e8:	b2503a05 	orr	x5, x16, #0x7fff000000000000
     3ec:	9eaf00a0 	fmov	v0.d[1], x5
     3f0:	3d8007e0 	str	q0, [sp, #16]
     3f4:	94000c73 	bl	35c0 <__sfp_handle_exceptions>
     3f8:	3dc007e0 	ldr	q0, [sp, #16]
     3fc:	a8c37bfd 	ldp	x29, x30, [sp], #48
     400:	d65f03c0 	ret
     404:	54000a00 	b.eq	544 <__addtf3+0x524>  // b.none
     408:	b5001608 	cbnz	x8, 6c8 <__addtf3+0x6a8>
     40c:	aa090040 	orr	x0, x2, x9
     410:	b4002920 	cbz	x0, 934 <__addtf3+0x914>
     414:	310004bf 	cmn	w5, #0x1
     418:	540033e0 	b.eq	a94 <__addtf3+0xa74>  // b.none
     41c:	d28fffe0 	mov	x0, #0x7fff                	// #32767
     420:	2a2503e5 	mvn	w5, w5
     424:	eb00007f 	cmp	x3, x0
     428:	540015a1 	b.ne	6dc <__addtf3+0x6bc>  // b.any
     42c:	aa0d0080 	orr	x0, x4, x13
     430:	b4ffef40 	cbz	x0, 218 <__addtf3+0x1f8>
     434:	d372fc85 	lsr	x5, x4, #50
     438:	aa0d03e9 	mov	x9, x13
     43c:	d24000a5 	eor	x5, x5, #0x1
     440:	aa0403e2 	mov	x2, x4
     444:	120000a5 	and	w5, w5, #0x1
     448:	14000018 	b	4a8 <__addtf3+0x488>
     44c:	52800200 	mov	w0, #0x10                  	// #16
     450:	b400006c 	cbz	x12, 45c <__addtf3+0x43c>
     454:	b1002129 	adds	x9, x9, #0x8
     458:	9a823442 	cinc	x2, x2, cs  // cs = hs, nlast
     45c:	924d0043 	and	x3, x2, #0x8000000000000
     460:	34ffe9c5 	cbz	w5, 198 <__addtf3+0x178>
     464:	321d0000 	orr	w0, w0, #0x8
     468:	17ffff4c 	b	198 <__addtf3+0x178>
     46c:	52800200 	mov	w0, #0x10                  	// #16
     470:	b5ffff6c 	cbnz	x12, 45c <__addtf3+0x43c>
     474:	17fffff8 	b	454 <__addtf3+0x434>
     478:	92400d23 	and	x3, x9, #0xf
     47c:	52800200 	mov	w0, #0x10                  	// #16
     480:	f100107f 	cmp	x3, #0x4
     484:	54fffec0 	b.eq	45c <__addtf3+0x43c>  // b.none
     488:	b1001129 	adds	x9, x9, #0x4
     48c:	9a823442 	cinc	x2, x2, cs  // cs = hs, nlast
     490:	17fffff3 	b	45c <__addtf3+0x43c>
     494:	aa090040 	orr	x0, x2, x9
     498:	b4ffec00 	cbz	x0, 218 <__addtf3+0x1f8>
     49c:	d372fc45 	lsr	x5, x2, #50
     4a0:	d24000a5 	eor	x5, x5, #0x1
     4a4:	120000a5 	and	w5, w5, #0x1
     4a8:	2a0503e0 	mov	w0, w5
     4ac:	d28fffe1 	mov	x1, #0x7fff                	// #32767
     4b0:	d28fffe3 	mov	x3, #0x7fff                	// #32767
     4b4:	93c90c48 	extr	x8, x2, x9, #3
     4b8:	eb03003f 	cmp	x1, x3
     4bc:	d343fc42 	lsr	x2, x2, #3
     4c0:	54fff181 	b.ne	2f0 <__addtf3+0x2d0>  // b.any
     4c4:	aa020101 	orr	x1, x8, x2
     4c8:	b4003361 	cbz	x1, b34 <__addtf3+0xb14>
     4cc:	b2510042 	orr	x2, x2, #0x800000000000
     4d0:	528fffe1 	mov	w1, #0x7fff                	// #32767
     4d4:	9240bc42 	and	x2, x2, #0xffffffffffff
     4d8:	17ffff38 	b	1b8 <__addtf3+0x198>
     4dc:	aa0303e9 	mov	x9, x3
     4e0:	924cf842 	and	x2, x2, #0xfff7ffffffffffff
     4e4:	cb040021 	sub	x1, x1, x4
     4e8:	aa020128 	orr	x8, x9, x2
     4ec:	92400920 	and	x0, x9, #0x7
     4f0:	52800005 	mov	w5, #0x0                   	// #0
     4f4:	b4ffef61 	cbz	x1, 2e0 <__addtf3+0x2c0>
     4f8:	17ffff1d 	b	16c <__addtf3+0x14c>
     4fc:	dac01122 	clz	x2, x9
     500:	1100d040 	add	w0, w2, #0x34
     504:	7100fc1f 	cmp	w0, #0x3f
     508:	54ffdfcd 	b.le	100 <__addtf3+0xe0>
     50c:	51003042 	sub	w2, w2, #0xc
     510:	9ac22122 	lsl	x2, x9, x2
     514:	17ffff00 	b	114 <__addtf3+0xf4>
     518:	aa0d0084 	orr	x4, x4, x13
     51c:	f100009f 	cmp	x4, #0x0
     520:	9a9f07e3 	cset	x3, ne  // ne = any
     524:	17fffef0 	b	e4 <__addtf3+0xc4>
     528:	924d0043 	and	x3, x2, #0x8000000000000
     52c:	52800000 	mov	w0, #0x0                   	// #0
     530:	34ffe345 	cbz	w5, 198 <__addtf3+0x178>
     534:	52800000 	mov	w0, #0x0                   	// #0
     538:	365fe30f 	tbz	w15, #11, 198 <__addtf3+0x178>
     53c:	321d0000 	orr	w0, w0, #0x8
     540:	17ffff16 	b	198 <__addtf3+0x178>
     544:	91000500 	add	x0, x8, #0x1
     548:	f27f341f 	tst	x0, #0x7ffe
     54c:	54001041 	b.ne	754 <__addtf3+0x734>  // b.any
     550:	aa090040 	orr	x0, x2, x9
     554:	b5001de8 	cbnz	x8, 910 <__addtf3+0x8f0>
     558:	aa0d0088 	orr	x8, x4, x13
     55c:	b4002040 	cbz	x0, 964 <__addtf3+0x944>
     560:	b4001788 	cbz	x8, 850 <__addtf3+0x830>
     564:	ab0d0129 	adds	x9, x9, x13
     568:	9a020082 	adc	x2, x4, x2
     56c:	b69fee82 	tbz	x2, #51, 33c <__addtf3+0x31c>
     570:	924cf842 	and	x2, x2, #0xfff7ffffffffffff
     574:	92400920 	and	x0, x9, #0x7
     578:	d2800021 	mov	x1, #0x1                   	// #1
     57c:	17fffefc 	b	16c <__addtf3+0x14c>
     580:	d28fffe1 	mov	x1, #0x7fff                	// #32767
     584:	4b0003e0 	neg	w0, w0
     588:	b24d0042 	orr	x2, x2, #0x8000000000000
     58c:	eb01007f 	cmp	x3, x1
     590:	54ffe3c0 	b.eq	208 <__addtf3+0x1e8>  // b.none
     594:	7101d01f 	cmp	w0, #0x74
     598:	5400086c 	b.gt	6a4 <__addtf3+0x684>
     59c:	7100fc1f 	cmp	w0, #0x3f
     5a0:	5400190c 	b.gt	8c0 <__addtf3+0x8a0>
     5a4:	52800801 	mov	w1, #0x40                  	// #64
     5a8:	4b000021 	sub	w1, w1, w0
     5ac:	9ac02525 	lsr	x5, x9, x0
     5b0:	9ac12129 	lsl	x9, x9, x1
     5b4:	f100013f 	cmp	x9, #0x0
     5b8:	9ac12049 	lsl	x9, x2, x1
     5bc:	9a9f07e1 	cset	x1, ne  // ne = any
     5c0:	aa050129 	orr	x9, x9, x5
     5c4:	9ac02440 	lsr	x0, x2, x0
     5c8:	aa010129 	orr	x9, x9, x1
     5cc:	cb000084 	sub	x4, x4, x0
     5d0:	14000038 	b	6b0 <__addtf3+0x690>
     5d4:	eb0d0125 	subs	x5, x9, x13
     5d8:	eb0d013f 	cmp	x9, x13
     5dc:	da040043 	sbc	x3, x2, x4
     5e0:	b7980ce3 	tbnz	x3, #51, 77c <__addtf3+0x75c>
     5e4:	aa0300a8 	orr	x8, x5, x3
     5e8:	b5001608 	cbnz	x8, 8a8 <__addtf3+0x888>
     5ec:	926a05ef 	and	x15, x15, #0xc00000
     5f0:	d2800002 	mov	x2, #0x0                   	// #0
     5f4:	f16001ff 	cmp	x15, #0x800, lsl #12
     5f8:	d2800001 	mov	x1, #0x0                   	// #0
     5fc:	1a9f17e7 	cset	w7, eq  // eq = none
     600:	17ffff3c 	b	2f0 <__addtf3+0x2d0>
     604:	d28fffe0 	mov	x0, #0x7fff                	// #32767
     608:	eb00011f 	cmp	x8, x0
     60c:	54ffe621 	b.ne	2d0 <__addtf3+0x2b0>  // b.any
     610:	aa090040 	orr	x0, x2, x9
     614:	b5fff440 	cbnz	x0, 49c <__addtf3+0x47c>
     618:	d2800002 	mov	x2, #0x0                   	// #0
     61c:	d2800008 	mov	x8, #0x0                   	// #0
     620:	52800000 	mov	w0, #0x0                   	// #0
     624:	17ffffa8 	b	4c4 <__addtf3+0x4a4>
     628:	aa0d0084 	orr	x4, x4, x13
     62c:	f100009f 	cmp	x4, #0x0
     630:	9a9f07e0 	cset	x0, ne  // ne = any
     634:	ab090009 	adds	x9, x0, x9
     638:	9a823442 	cinc	x2, x2, cs  // cs = hs, nlast
     63c:	17ffff49 	b	360 <__addtf3+0x340>
     640:	52801004 	mov	w4, #0x80                  	// #128
     644:	4b000084 	sub	w4, w4, w0
     648:	7101001f 	cmp	w0, #0x40
     64c:	5100fc29 	sub	w9, w1, #0x3f
     650:	9ac42040 	lsl	x0, x2, x4
     654:	aa000060 	orr	x0, x3, x0
     658:	9a831003 	csel	x3, x0, x3, ne  // ne = any
     65c:	9ac92449 	lsr	x9, x2, x9
     660:	f100007f 	cmp	x3, #0x0
     664:	d2800002 	mov	x2, #0x0                   	// #0
     668:	9a9f07e0 	cset	x0, ne  // ne = any
     66c:	aa090009 	orr	x9, x0, x9
     670:	aa0903e8 	mov	x8, x9
     674:	17fffeba 	b	15c <__addtf3+0x13c>
     678:	52801005 	mov	w5, #0x80                  	// #128
     67c:	4b0000a5 	sub	w5, w5, w0
     680:	71010000 	subs	w0, w0, #0x40
     684:	9ac52085 	lsl	x5, x4, x5
     688:	aa0501a5 	orr	x5, x13, x5
     68c:	9a8d10ad 	csel	x13, x5, x13, ne  // ne = any
     690:	9ac02484 	lsr	x4, x4, x0
     694:	f10001bf 	cmp	x13, #0x0
     698:	9a9f07e3 	cset	x3, ne  // ne = any
     69c:	aa040063 	orr	x3, x3, x4
     6a0:	17fffe91 	b	e4 <__addtf3+0xc4>
     6a4:	aa090042 	orr	x2, x2, x9
     6a8:	f100005f 	cmp	x2, #0x0
     6ac:	9a9f07e9 	cset	x9, ne  // ne = any
     6b0:	eb0901a9 	subs	x9, x13, x9
     6b4:	2a0b03e7 	mov	w7, w11
     6b8:	da1f0082 	sbc	x2, x4, xzr
     6bc:	aa0303e1 	mov	x1, x3
     6c0:	aa0e03ec 	mov	x12, x14
     6c4:	17fffe8a 	b	ec <__addtf3+0xcc>
     6c8:	d28fffe0 	mov	x0, #0x7fff                	// #32767
     6cc:	4b0503e5 	neg	w5, w5
     6d0:	b24d0042 	orr	x2, x2, #0x8000000000000
     6d4:	eb00007f 	cmp	x3, x0
     6d8:	54ffeaa0 	b.eq	42c <__addtf3+0x40c>  // b.none
     6dc:	7101d0bf 	cmp	w5, #0x74
     6e0:	54000e8c 	b.gt	8b0 <__addtf3+0x890>
     6e4:	7100fcbf 	cmp	w5, #0x3f
     6e8:	5400144c 	b.gt	970 <__addtf3+0x950>
     6ec:	52800801 	mov	w1, #0x40                  	// #64
     6f0:	4b050021 	sub	w1, w1, w5
     6f4:	9ac52526 	lsr	x6, x9, x5
     6f8:	9ac12129 	lsl	x9, x9, x1
     6fc:	f100013f 	cmp	x9, #0x0
     700:	9a9f07e0 	cset	x0, ne  // ne = any
     704:	9ac12049 	lsl	x9, x2, x1
     708:	aa060129 	orr	x9, x9, x6
     70c:	9ac52445 	lsr	x5, x2, x5
     710:	aa000129 	orr	x9, x9, x0
     714:	8b050084 	add	x4, x4, x5
     718:	ab0d0129 	adds	x9, x9, x13
     71c:	aa0303e1 	mov	x1, x3
     720:	9a843482 	cinc	x2, x4, cs  // cs = hs, nlast
     724:	17ffff0f 	b	360 <__addtf3+0x340>
     728:	52801000 	mov	w0, #0x80                  	// #128
     72c:	4b050000 	sub	w0, w0, w5
     730:	710100a5 	subs	w5, w5, #0x40
     734:	9ac02080 	lsl	x0, x4, x0
     738:	aa0001a0 	orr	x0, x13, x0
     73c:	9a8d100d 	csel	x13, x0, x13, ne  // ne = any
     740:	9ac52484 	lsr	x4, x4, x5
     744:	f10001bf 	cmp	x13, #0x0
     748:	9a9f07e0 	cset	x0, ne  // ne = any
     74c:	aa040000 	orr	x0, x0, x4
     750:	17ffffb9 	b	634 <__addtf3+0x614>
     754:	d28fffe1 	mov	x1, #0x7fff                	// #32767
     758:	eb01001f 	cmp	x0, x1
     75c:	540012e0 	b.eq	9b8 <__addtf3+0x998>  // b.none
     760:	ab0d0129 	adds	x9, x9, x13
     764:	aa0003e1 	mov	x1, x0
     768:	9a020082 	adc	x2, x4, x2
     76c:	d3410d20 	ubfx	x0, x9, #1, #3
     770:	93c90449 	extr	x9, x2, x9, #1
     774:	d341fc42 	lsr	x2, x2, #1
     778:	17fffe7d 	b	16c <__addtf3+0x14c>
     77c:	eb0901bf 	cmp	x13, x9
     780:	2a0b03e7 	mov	w7, w11
     784:	da020083 	sbc	x3, x4, x2
     788:	cb0901a9 	sub	x9, x13, x9
     78c:	aa0e03ec 	mov	x12, x14
     790:	17fffe59 	b	f4 <__addtf3+0xd4>
     794:	d28fffec 	mov	x12, #0x7fff                	// #32767
     798:	eb0c003f 	cmp	x1, x12
     79c:	54000160 	b.eq	7c8 <__addtf3+0x7a8>  // b.none
     7a0:	eb0c007f 	cmp	x3, x12
     7a4:	540012a0 	b.eq	9f8 <__addtf3+0x9d8>  // b.none
     7a8:	b50001c5 	cbnz	x5, 7e0 <__addtf3+0x7c0>
     7ac:	2a0003e5 	mov	w5, w0
     7b0:	b5001948 	cbnz	x8, ad8 <__addtf3+0xab8>
     7b4:	52800007 	mov	w7, #0x0                   	// #0
     7b8:	92ffffe2 	mov	x2, #0xffffffffffff        	// #281474976710655
     7bc:	52800020 	mov	w0, #0x1                   	// #1
     7c0:	92800008 	mov	x8, #0xffffffffffffffff    	// #-1
     7c4:	17ffff42 	b	4cc <__addtf3+0x4ac>
     7c8:	b4001965 	cbz	x5, af4 <__addtf3+0xad4>
     7cc:	d372fc40 	lsr	x0, x2, #50
     7d0:	eb01007f 	cmp	x3, x1
     7d4:	d2400000 	eor	x0, x0, #0x1
     7d8:	12000000 	and	w0, w0, #0x1
     7dc:	540010e0 	b.eq	9f8 <__addtf3+0x9d8>  // b.none
     7e0:	b40011a8 	cbz	x8, a14 <__addtf3+0x9f4>
     7e4:	b3430846 	bfi	x6, x2, #61, #3
     7e8:	d343fc43 	lsr	x3, x2, #3
     7ec:	b69000e2 	tbz	x2, #50, 808 <__addtf3+0x7e8>
     7f0:	d343fc81 	lsr	x1, x4, #3
     7f4:	b79000a4 	tbnz	x4, #50, 808 <__addtf3+0x7e8>
     7f8:	aa0a03e6 	mov	x6, x10
     7fc:	2a0b03e7 	mov	w7, w11
     800:	b3430886 	bfi	x6, x4, #61, #3
     804:	aa0103e3 	mov	x3, x1
     808:	93c6f462 	extr	x2, x3, x6, #61
     80c:	b3430846 	bfi	x6, x2, #61, #3
     810:	d343fc42 	lsr	x2, x2, #3
     814:	aa0603e8 	mov	x8, x6
     818:	17ffff2b 	b	4c4 <__addtf3+0x4a4>
     81c:	d28fffe0 	mov	x0, #0x7fff                	// #32767
     820:	eb00011f 	cmp	x8, x0
     824:	54ffd561 	b.ne	2d0 <__addtf3+0x2b0>  // b.any
     828:	aa090040 	orr	x0, x2, x9
     82c:	b4ffef60 	cbz	x0, 618 <__addtf3+0x5f8>
     830:	d372fc45 	lsr	x5, x2, #50
     834:	520000a5 	eor	w5, w5, #0x1
     838:	17ffff1c 	b	4a8 <__addtf3+0x488>
     83c:	b40008a8 	cbz	x8, 950 <__addtf3+0x930>
     840:	2a0b03e7 	mov	w7, w11
     844:	aa0403e2 	mov	x2, x4
     848:	aa0d03e9 	mov	x9, x13
     84c:	aa0e03ec 	mov	x12, x14
     850:	d2800001 	mov	x1, #0x0                   	// #0
     854:	d2800003 	mov	x3, #0x0                   	// #0
     858:	17ffff37 	b	534 <__addtf3+0x514>
     85c:	f26a05e3 	ands	x3, x15, #0xc00000
     860:	54000460 	b.eq	8ec <__addtf3+0x8cc>  // b.none
     864:	f150007f 	cmp	x3, #0x400, lsl #12
     868:	520000e0 	eor	w0, w7, #0x1
     86c:	1a9f17e1 	cset	w1, eq  // eq = none
     870:	6a00003f 	tst	w1, w0
     874:	540014e1 	b.ne	b10 <__addtf3+0xaf0>  // b.any
     878:	f160007f 	cmp	x3, #0x800, lsl #12
     87c:	54001200 	b.eq	abc <__addtf3+0xa9c>  // b.none
     880:	f150007f 	cmp	x3, #0x400, lsl #12
     884:	52800280 	mov	w0, #0x14                  	// #20
     888:	54ffd881 	b.ne	398 <__addtf3+0x378>  // b.any
     88c:	92800002 	mov	x2, #0xffffffffffffffff    	// #-1
     890:	d28fffc1 	mov	x1, #0x7ffe                	// #32766
     894:	aa0203e9 	mov	x9, x2
     898:	52800005 	mov	w5, #0x0                   	// #0
     89c:	52800280 	mov	w0, #0x14                  	// #20
     8a0:	b5ffddec 	cbnz	x12, 45c <__addtf3+0x43c>
     8a4:	17fffeec 	b	454 <__addtf3+0x434>
     8a8:	aa0503e9 	mov	x9, x5
     8ac:	17fffe12 	b	f4 <__addtf3+0xd4>
     8b0:	aa090042 	orr	x2, x2, x9
     8b4:	f100005f 	cmp	x2, #0x0
     8b8:	9a9f07e9 	cset	x9, ne  // ne = any
     8bc:	17ffff97 	b	718 <__addtf3+0x6f8>
     8c0:	52801001 	mov	w1, #0x80                  	// #128
     8c4:	4b000021 	sub	w1, w1, w0
     8c8:	71010000 	subs	w0, w0, #0x40
     8cc:	9ac12041 	lsl	x1, x2, x1
     8d0:	aa010121 	orr	x1, x9, x1
     8d4:	9a891029 	csel	x9, x1, x9, ne  // ne = any
     8d8:	9ac02442 	lsr	x2, x2, x0
     8dc:	f100013f 	cmp	x9, #0x0
     8e0:	9a9f07e9 	cset	x9, ne  // ne = any
     8e4:	aa020129 	orr	x9, x9, x2
     8e8:	17ffff72 	b	6b0 <__addtf3+0x690>
     8ec:	52800280 	mov	w0, #0x14                  	// #20
     8f0:	17fffebb 	b	3dc <__addtf3+0x3bc>
     8f4:	d372fc85 	lsr	x5, x4, #50
     8f8:	2a0b03e7 	mov	w7, w11
     8fc:	d24000a5 	eor	x5, x5, #0x1
     900:	aa0d03e9 	mov	x9, x13
     904:	120000a5 	and	w5, w5, #0x1
     908:	aa0403e2 	mov	x2, x4
     90c:	17fffee7 	b	4a8 <__addtf3+0x488>
     910:	d28fffe8 	mov	x8, #0x7fff                	// #32767
     914:	eb08003f 	cmp	x1, x8
     918:	54000900 	b.eq	a38 <__addtf3+0xa18>  // b.none
     91c:	eb08007f 	cmp	x3, x8
     920:	54000c60 	b.eq	aac <__addtf3+0xa8c>  // b.none
     924:	b5000960 	cbnz	x0, a50 <__addtf3+0xa30>
     928:	aa0403e2 	mov	x2, x4
     92c:	aa0d03e9 	mov	x9, x13
     930:	17fffede 	b	4a8 <__addtf3+0x488>
     934:	d28fffe0 	mov	x0, #0x7fff                	// #32767
     938:	eb00007f 	cmp	x3, x0
     93c:	54000d60 	b.eq	ae8 <__addtf3+0xac8>  // b.none
     940:	aa0403e2 	mov	x2, x4
     944:	aa0d03e9 	mov	x9, x13
     948:	aa0303e1 	mov	x1, x3
     94c:	17fffe61 	b	2d0 <__addtf3+0x2b0>
     950:	926a05ef 	and	x15, x15, #0xc00000
     954:	d2800002 	mov	x2, #0x0                   	// #0
     958:	f16001ff 	cmp	x15, #0x800, lsl #12
     95c:	1a9f17e7 	cset	w7, eq  // eq = none
     960:	17fffe64 	b	2f0 <__addtf3+0x2d0>
     964:	aa0403e2 	mov	x2, x4
     968:	aa0d03e9 	mov	x9, x13
     96c:	17fffdfc 	b	15c <__addtf3+0x13c>
     970:	52801000 	mov	w0, #0x80                  	// #128
     974:	4b050000 	sub	w0, w0, w5
     978:	710100a5 	subs	w5, w5, #0x40
     97c:	9ac02040 	lsl	x0, x2, x0
     980:	aa000120 	orr	x0, x9, x0
     984:	9a891009 	csel	x9, x0, x9, ne  // ne = any
     988:	9ac52442 	lsr	x2, x2, x5
     98c:	f100013f 	cmp	x9, #0x0
     990:	9a9f07e9 	cset	x9, ne  // ne = any
     994:	aa020129 	orr	x9, x9, x2
     998:	17ffff60 	b	718 <__addtf3+0x6f8>
     99c:	eb0901bf 	cmp	x13, x9
     9a0:	2a0b03e7 	mov	w7, w11
     9a4:	da020082 	sbc	x2, x4, x2
     9a8:	cb0901a9 	sub	x9, x13, x9
     9ac:	aa0303e1 	mov	x1, x3
     9b0:	aa0503ec 	mov	x12, x5
     9b4:	17fffdce 	b	ec <__addtf3+0xcc>
     9b8:	f26a05e3 	ands	x3, x15, #0xc00000
     9bc:	54fff980 	b.eq	8ec <__addtf3+0x8cc>  // b.none
     9c0:	f150007f 	cmp	x3, #0x400, lsl #12
     9c4:	520000e0 	eor	w0, w7, #0x1
     9c8:	1a9f0000 	csel	w0, w0, wzr, eq  // eq = none
     9cc:	35000a20 	cbnz	w0, b10 <__addtf3+0xaf0>
     9d0:	f160007f 	cmp	x3, #0x800, lsl #12
     9d4:	54fff561 	b.ne	880 <__addtf3+0x860>  // b.any
     9d8:	b400074c 	cbz	x12, ac0 <__addtf3+0xaa0>
     9dc:	52800280 	mov	w0, #0x14                  	// #20
     9e0:	d2800030 	mov	x16, #0x1                   	// #1
     9e4:	17fffe7e 	b	3dc <__addtf3+0x3bc>
     9e8:	aa0d0080 	orr	x0, x4, x13
     9ec:	b5fff840 	cbnz	x0, 8f4 <__addtf3+0x8d4>
     9f0:	2a0b03e7 	mov	w7, w11
     9f4:	17ffff09 	b	618 <__addtf3+0x5f8>
     9f8:	b4000868 	cbz	x8, b04 <__addtf3+0xae4>
     9fc:	f24e009f 	tst	x4, #0x4000000000000
     a00:	1a9f1400 	csinc	w0, w0, wzr, ne  // ne = any
     a04:	b5ffef05 	cbnz	x5, 7e4 <__addtf3+0x7c4>
     a08:	2a0b03e7 	mov	w7, w11
     a0c:	aa0403e2 	mov	x2, x4
     a10:	aa0d03e9 	mov	x9, x13
     a14:	2a0003e5 	mov	w5, w0
     a18:	17fffea4 	b	4a8 <__addtf3+0x488>
     a1c:	aa0300a8 	orr	x8, x5, x3
     a20:	b4fff988 	cbz	x8, 950 <__addtf3+0x930>
     a24:	924008a0 	and	x0, x5, #0x7
     a28:	aa0503e9 	mov	x9, x5
     a2c:	aa0303e2 	mov	x2, x3
     a30:	52800025 	mov	w5, #0x1                   	// #1
     a34:	17fffdce 	b	16c <__addtf3+0x14c>
     a38:	b4000360 	cbz	x0, aa4 <__addtf3+0xa84>
     a3c:	d372fc45 	lsr	x5, x2, #50
     a40:	eb01007f 	cmp	x3, x1
     a44:	d24000a5 	eor	x5, x5, #0x1
     a48:	120000a5 	and	w5, w5, #0x1
     a4c:	54000680 	b.eq	b1c <__addtf3+0xafc>  // b.none
     a50:	aa0d008d 	orr	x13, x4, x13
     a54:	b4ffd2ad 	cbz	x13, 4a8 <__addtf3+0x488>
     a58:	b3430846 	bfi	x6, x2, #61, #3
     a5c:	d343fc40 	lsr	x0, x2, #3
     a60:	b69000e2 	tbz	x2, #50, a7c <__addtf3+0xa5c>
     a64:	d343fc81 	lsr	x1, x4, #3
     a68:	b79000a4 	tbnz	x4, #50, a7c <__addtf3+0xa5c>
     a6c:	9240f146 	and	x6, x10, #0x1fffffffffffffff
     a70:	2a0b03e7 	mov	w7, w11
     a74:	aa04f4c6 	orr	x6, x6, x4, lsl #61
     a78:	aa0103e0 	mov	x0, x1
     a7c:	93c6f402 	extr	x2, x0, x6, #61
     a80:	2a0503e0 	mov	w0, w5
     a84:	b3430846 	bfi	x6, x2, #61, #3
     a88:	d343fc42 	lsr	x2, x2, #3
     a8c:	aa0603e8 	mov	x8, x6
     a90:	17fffe8d 	b	4c4 <__addtf3+0x4a4>
     a94:	ab0d0129 	adds	x9, x9, x13
     a98:	aa0303e1 	mov	x1, x3
     a9c:	9a020082 	adc	x2, x4, x2
     aa0:	17fffe30 	b	360 <__addtf3+0x340>
     aa4:	eb01007f 	cmp	x3, x1
     aa8:	54fff401 	b.ne	928 <__addtf3+0x908>  // b.any
     aac:	aa0d0081 	orr	x1, x4, x13
     ab0:	b50003a1 	cbnz	x1, b24 <__addtf3+0xb04>
     ab4:	b4ffdb20 	cbz	x0, 618 <__addtf3+0x5f8>
     ab8:	17fffe7c 	b	4a8 <__addtf3+0x488>
     abc:	b5fff910 	cbnz	x16, 9dc <__addtf3+0x9bc>
     ac0:	92800002 	mov	x2, #0xffffffffffffffff    	// #-1
     ac4:	52800007 	mov	w7, #0x0                   	// #0
     ac8:	aa0203e9 	mov	x9, x2
     acc:	d28fffc1 	mov	x1, #0x7ffe                	// #32766
     ad0:	52800280 	mov	w0, #0x14                  	// #20
     ad4:	17fffdb2 	b	19c <__addtf3+0x17c>
     ad8:	2a0b03e7 	mov	w7, w11
     adc:	aa0403e2 	mov	x2, x4
     ae0:	aa0d03e9 	mov	x9, x13
     ae4:	17fffe71 	b	4a8 <__addtf3+0x488>
     ae8:	aa0d0080 	orr	x0, x4, x13
     aec:	b4ffd960 	cbz	x0, 618 <__addtf3+0x5f8>
     af0:	17fffe51 	b	434 <__addtf3+0x414>
     af4:	eb01007f 	cmp	x3, x1
     af8:	54fff800 	b.eq	9f8 <__addtf3+0x9d8>  // b.none
     afc:	52800005 	mov	w5, #0x0                   	// #0
     b00:	17ffff2c 	b	7b0 <__addtf3+0x790>
     b04:	b5fff885 	cbnz	x5, a14 <__addtf3+0x9f4>
     b08:	2a0003e5 	mov	w5, w0
     b0c:	17ffff29 	b	7b0 <__addtf3+0x790>
     b10:	52800280 	mov	w0, #0x14                  	// #20
     b14:	d2800010 	mov	x16, #0x0                   	// #0
     b18:	17fffe31 	b	3dc <__addtf3+0x3bc>
     b1c:	aa0d0081 	orr	x1, x4, x13
     b20:	b4ffcc41 	cbz	x1, 4a8 <__addtf3+0x488>
     b24:	f24e009f 	tst	x4, #0x4000000000000
     b28:	1a9f14a5 	csinc	w5, w5, wzr, ne  // ne = any
     b2c:	b5fff960 	cbnz	x0, a58 <__addtf3+0xa38>
     b30:	17ffff7e 	b	928 <__addtf3+0x908>
     b34:	d2800008 	mov	x8, #0x0                   	// #0
     b38:	528fffe1 	mov	w1, #0x7fff                	// #32767
     b3c:	d2800002 	mov	x2, #0x0                   	// #0
     b40:	17fffd9e 	b	1b8 <__addtf3+0x198>
     b44:	00000000 	.inst	0x00000000 ; undefined

0000000000000b48 <__divtf3>:
     b48:	a9bd7bfd 	stp	x29, x30, [sp, #-48]!
     b4c:	910003fd 	mov	x29, sp
     b50:	3d8007e0 	str	q0, [sp, #16]
     b54:	3d800be1 	str	q1, [sp, #32]
     b58:	a94103e2 	ldp	x2, x0, [sp, #16]
     b5c:	a9420fe5 	ldp	x5, x3, [sp, #32]
     b60:	d53b440a 	mrs	x10, fpcr
     b64:	d37ffc01 	lsr	x1, x0, #63
     b68:	d340bc06 	ubfx	x6, x0, #0, #48
     b6c:	12001c2d 	and	w13, w1, #0xff
     b70:	aa0103ee 	mov	x14, x1
     b74:	d370f807 	ubfx	x7, x0, #48, #15
     b78:	34002107 	cbz	w7, f98 <__divtf3+0x450>
     b7c:	528fffe4 	mov	w4, #0x7fff                	// #32767
     b80:	6b0400ff 	cmp	w7, w4
     b84:	540022e0 	b.eq	fe0 <__divtf3+0x498>  // b.none
     b88:	92403ce7 	and	x7, x7, #0xffff
     b8c:	93c2f4c6 	extr	x6, x6, x2, #61
     b90:	9287ffcf 	mov	x15, #0xffffffffffffc001    	// #-16383
     b94:	b24d00c4 	orr	x4, x6, #0x8000000000000
     b98:	8b0f00e7 	add	x7, x7, x15
     b9c:	d37df042 	lsl	x2, x2, #3
     ba0:	d2800001 	mov	x1, #0x0                   	// #0
     ba4:	d2800010 	mov	x16, #0x0                   	// #0
     ba8:	52800000 	mov	w0, #0x0                   	// #0
     bac:	d37ffc68 	lsr	x8, x3, #63
     bb0:	d340bc66 	ubfx	x6, x3, #0, #48
     bb4:	12001d0f 	and	w15, w8, #0xff
     bb8:	d370f869 	ubfx	x9, x3, #48, #15
     bbc:	34001cc9 	cbz	w9, f54 <__divtf3+0x40c>
     bc0:	528fffeb 	mov	w11, #0x7fff                	// #32767
     bc4:	6b0b013f 	cmp	w9, w11
     bc8:	54000620 	b.eq	c8c <__divtf3+0x144>  // b.none
     bcc:	92403d29 	and	x9, x9, #0xffff
     bd0:	93c5f4c6 	extr	x6, x6, x5, #61
     bd4:	9287ffcc 	mov	x12, #0xffffffffffffc001    	// #-16383
     bd8:	b24d00c6 	orr	x6, x6, #0x8000000000000
     bdc:	8b0c0129 	add	x9, x9, x12
     be0:	d37df0a5 	lsl	x5, x5, #3
     be4:	cb0900e7 	sub	x7, x7, x9
     be8:	d2800009 	mov	x9, #0x0                   	// #0
     bec:	4a0f01ab 	eor	w11, w13, w15
     bf0:	f100243f 	cmp	x1, #0x9
     bf4:	92401d63 	and	x3, x11, #0xff
     bf8:	aa0303ec 	mov	x12, x3
     bfc:	5400198c 	b.gt	f2c <__divtf3+0x3e4>
     c00:	f1001c3f 	cmp	x1, #0x7
     c04:	5400274c 	b.gt	10ec <__divtf3+0x5a4>
     c08:	f1000c3f 	cmp	x1, #0x3
     c0c:	540000e0 	b.eq	c28 <__divtf3+0xe0>  // b.none
     c10:	5400176d 	b.le	efc <__divtf3+0x3b4>
     c14:	f100143f 	cmp	x1, #0x5
     c18:	54001920 	b.eq	f3c <__divtf3+0x3f4>  // b.none
     c1c:	5400082d 	b.le	d20 <__divtf3+0x1d8>
     c20:	f100183f 	cmp	x1, #0x6
     c24:	54000660 	b.eq	cf0 <__divtf3+0x1a8>  // b.none
     c28:	f100053f 	cmp	x9, #0x1
     c2c:	54002220 	b.eq	1070 <__divtf3+0x528>  // b.none
     c30:	b40000a9 	cbz	x9, c44 <__divtf3+0xfc>
     c34:	f100093f 	cmp	x9, #0x2
     c38:	540031e0 	b.eq	1274 <__divtf3+0x72c>  // b.none
     c3c:	f1000d3f 	cmp	x9, #0x3
     c40:	540030e0 	b.eq	125c <__divtf3+0x714>  // b.none
     c44:	d287ffe1 	mov	x1, #0x3fff                	// #16383
     c48:	aa0803ec 	mov	x12, x8
     c4c:	8b0100e3 	add	x3, x7, x1
     c50:	f100007f 	cmp	x3, #0x0
     c54:	540026ed 	b.le	1130 <__divtf3+0x5e8>
     c58:	f24008bf 	tst	x5, #0x7
     c5c:	54002221 	b.ne	10a0 <__divtf3+0x558>  // b.any
     c60:	1200018b 	and	w11, w12, #0x1
     c64:	b6a00066 	tbz	x6, #52, c70 <__divtf3+0x128>
     c68:	924bf8c6 	and	x6, x6, #0xffefffffffffffff
     c6c:	914010e3 	add	x3, x7, #0x4, lsl #12
     c70:	d28fffc1 	mov	x1, #0x7ffe                	// #32766
     c74:	eb01007f 	cmp	x3, x1
     c78:	54002d0c 	b.gt	1218 <__divtf3+0x6d0>
     c7c:	12003861 	and	w1, w3, #0x7fff
     c80:	93c50cc2 	extr	x2, x6, x5, #3
     c84:	d343c8c6 	ubfx	x6, x6, #3, #48
     c88:	1400001d 	b	cfc <__divtf3+0x1b4>
     c8c:	928fffc9 	mov	x9, #0xffffffffffff8001    	// #-32767
     c90:	aa0500c3 	orr	x3, x6, x5
     c94:	8b0900e7 	add	x7, x7, x9
     c98:	b4001be3 	cbz	x3, 1014 <__divtf3+0x4cc>
     c9c:	f25100df 	tst	x6, #0x800000000000
     ca0:	b2400421 	orr	x1, x1, #0x3
     ca4:	1a9f1400 	csinc	w0, w0, wzr, ne  // ne = any
     ca8:	d2800069 	mov	x9, #0x3                   	// #3
     cac:	4a0f01ab 	eor	w11, w13, w15
     cb0:	f100243f 	cmp	x1, #0x9
     cb4:	92401d63 	and	x3, x11, #0xff
     cb8:	aa0303ec 	mov	x12, x3
     cbc:	54fffa2d 	b.le	c00 <__divtf3+0xb8>
     cc0:	f1003c3f 	cmp	x1, #0xf
     cc4:	54001341 	b.ne	f2c <__divtf3+0x3e4>  // b.any
     cc8:	b6782084 	tbz	x4, #47, 10d8 <__divtf3+0x590>
     ccc:	b7782066 	tbnz	x6, #47, 10d8 <__divtf3+0x590>
     cd0:	b25100c6 	orr	x6, x6, #0x800000000000
     cd4:	2a0f03eb 	mov	w11, w15
     cd8:	9240bcc6 	and	x6, x6, #0xffffffffffff
     cdc:	aa0503e2 	mov	x2, x5
     ce0:	528fffe1 	mov	w1, #0x7fff                	// #32767
     ce4:	14000006 	b	cfc <__divtf3+0x1b4>
     ce8:	f100083f 	cmp	x1, #0x2
     cec:	540001e1 	b.ne	d28 <__divtf3+0x1e0>  // b.any
     cf0:	52800001 	mov	w1, #0x0                   	// #0
     cf4:	d2800006 	mov	x6, #0x0                   	// #0
     cf8:	d2800002 	mov	x2, #0x0                   	// #0
     cfc:	d2800005 	mov	x5, #0x0                   	// #0
     d00:	2a0b3c21 	orr	w1, w1, w11, lsl #15
     d04:	b340bcc5 	bfxil	x5, x6, #0, #48
     d08:	9e670040 	fmov	d0, x2
     d0c:	b3503c25 	bfi	x5, x1, #48, #16
     d10:	9eaf00a0 	fmov	v0.d[1], x5
     d14:	35001040 	cbnz	w0, f1c <__divtf3+0x3d4>
     d18:	a8c37bfd 	ldp	x29, x30, [sp], #48
     d1c:	d65f03c0 	ret
     d20:	f100103f 	cmp	x1, #0x4
     d24:	54fffe60 	b.eq	cf0 <__divtf3+0x1a8>  // b.none
     d28:	eb06009f 	cmp	x4, x6
     d2c:	54001ac9 	b.ls	1084 <__divtf3+0x53c>  // b.plast
     d30:	d341fc83 	lsr	x3, x4, #1
     d34:	93c20488 	extr	x8, x4, x2, #1
     d38:	d3410042 	lsl	x2, x2, #63
     d3c:	d354ccce 	ubfx	x14, x6, #20, #32
     d40:	93c5d0c9 	extr	x9, x6, x5, #52
     d44:	d374ccad 	lsl	x13, x5, #12
     d48:	92407d2f 	and	x15, x9, #0xffffffff
     d4c:	9ace0865 	udiv	x5, x3, x14
     d50:	9b0e8ca3 	msub	x3, x5, x14, x3
     d54:	9b057de1 	mul	x1, x15, x5
     d58:	93c88063 	extr	x3, x3, x8, #32
     d5c:	eb03003f 	cmp	x1, x3
     d60:	540000a9 	b.ls	d74 <__divtf3+0x22c>  // b.plast
     d64:	ab030123 	adds	x3, x9, x3
     d68:	fa433020 	ccmp	x1, x3, #0x0, cc  // cc = lo, ul, last
     d6c:	54002f48 	b.hi	1354 <__divtf3+0x80c>  // b.pmore
     d70:	d10004a5 	sub	x5, x5, #0x1
     d74:	cb010063 	sub	x3, x3, x1
     d78:	aa0803e4 	mov	x4, x8
     d7c:	9ace0861 	udiv	x1, x3, x14
     d80:	9b0e8c23 	msub	x3, x1, x14, x3
     d84:	9b017de6 	mul	x6, x15, x1
     d88:	b3607c64 	bfi	x4, x3, #32, #32
     d8c:	eb0400df 	cmp	x6, x4
     d90:	540000a9 	b.ls	da4 <__divtf3+0x25c>  // b.plast
     d94:	ab040124 	adds	x4, x9, x4
     d98:	fa4430c0 	ccmp	x6, x4, #0x0, cc  // cc = lo, ul, last
     d9c:	54002d68 	b.hi	1348 <__divtf3+0x800>  // b.pmore
     da0:	d1000421 	sub	x1, x1, #0x1
     da4:	aa058028 	orr	x8, x1, x5, lsl #32
     da8:	92407db1 	and	x17, x13, #0xffffffff
     dac:	92407d01 	and	x1, x8, #0xffffffff
     db0:	d360fdb0 	lsr	x16, x13, #32
     db4:	d360fd05 	lsr	x5, x8, #32
     db8:	cb060084 	sub	x4, x4, x6
     dbc:	d2c00032 	mov	x18, #0x100000000           	// #4294967296
     dc0:	9b117c23 	mul	x3, x1, x17
     dc4:	9b117cbe 	mul	x30, x5, x17
     dc8:	9b017a06 	madd	x6, x16, x1, x30
     dcc:	92407c61 	and	x1, x3, #0xffffffff
     dd0:	9b107ca5 	mul	x5, x5, x16
     dd4:	8b4380c3 	add	x3, x6, x3, lsr #32
     dd8:	8b1200a6 	add	x6, x5, x18
     ddc:	eb0303df 	cmp	x30, x3
     de0:	9a8580c5 	csel	x5, x6, x5, hi  // hi = pmore
     de4:	8b038021 	add	x1, x1, x3, lsl #32
     de8:	8b4380a5 	add	x5, x5, x3, lsr #32
     dec:	eb05009f 	cmp	x4, x5
     df0:	54001863 	b.cc	10fc <__divtf3+0x5b4>  // b.lo, b.ul, b.last
     df4:	fa410042 	ccmp	x2, x1, #0x2, eq  // eq = none
     df8:	aa0803e6 	mov	x6, x8
     dfc:	54001803 	b.cc	10fc <__divtf3+0x5b4>  // b.lo, b.ul, b.last
     e00:	eb010048 	subs	x8, x2, x1
     e04:	d287ffe3 	mov	x3, #0x3fff                	// #16383
     e08:	eb01005f 	cmp	x2, x1
     e0c:	8b0300e3 	add	x3, x7, x3
     e10:	da050084 	sbc	x4, x4, x5
     e14:	eb04013f 	cmp	x9, x4
     e18:	54002a40 	b.eq	1360 <__divtf3+0x818>  // b.none
     e1c:	9ace0885 	udiv	x5, x4, x14
     e20:	9b0e90a4 	msub	x4, x5, x14, x4
     e24:	9b057de2 	mul	x2, x15, x5
     e28:	93c88081 	extr	x1, x4, x8, #32
     e2c:	eb01005f 	cmp	x2, x1
     e30:	540000a9 	b.ls	e44 <__divtf3+0x2fc>  // b.plast
     e34:	ab010121 	adds	x1, x9, x1
     e38:	fa413040 	ccmp	x2, x1, #0x0, cc  // cc = lo, ul, last
     e3c:	54002ee8 	b.hi	1418 <__divtf3+0x8d0>  // b.pmore
     e40:	d10004a5 	sub	x5, x5, #0x1
     e44:	cb020021 	sub	x1, x1, x2
     e48:	9ace0822 	udiv	x2, x1, x14
     e4c:	9b0e8441 	msub	x1, x2, x14, x1
     e50:	9b027def 	mul	x15, x15, x2
     e54:	b3607c28 	bfi	x8, x1, #32, #32
     e58:	aa0803e1 	mov	x1, x8
     e5c:	eb0801ff 	cmp	x15, x8
     e60:	540000a9 	b.ls	e74 <__divtf3+0x32c>  // b.plast
     e64:	ab080121 	adds	x1, x9, x8
     e68:	fa4131e0 	ccmp	x15, x1, #0x0, cc  // cc = lo, ul, last
     e6c:	54002dc8 	b.hi	1424 <__divtf3+0x8dc>  // b.pmore
     e70:	d1000442 	sub	x2, x2, #0x1
     e74:	aa058045 	orr	x5, x2, x5, lsl #32
     e78:	d2c0002b 	mov	x11, #0x100000000           	// #4294967296
     e7c:	92407ca4 	and	x4, x5, #0xffffffff
     e80:	cb0f0021 	sub	x1, x1, x15
     e84:	d360fcae 	lsr	x14, x5, #32
     e88:	9b047e22 	mul	x2, x17, x4
     e8c:	9b117dd1 	mul	x17, x14, x17
     e90:	9b044604 	madd	x4, x16, x4, x17
     e94:	92407c48 	and	x8, x2, #0xffffffff
     e98:	9b0e7e10 	mul	x16, x16, x14
     e9c:	8b428082 	add	x2, x4, x2, lsr #32
     ea0:	8b0b0204 	add	x4, x16, x11
     ea4:	eb02023f 	cmp	x17, x2
     ea8:	9a908090 	csel	x16, x4, x16, hi  // hi = pmore
     eac:	8b028104 	add	x4, x8, x2, lsl #32
     eb0:	8b428210 	add	x16, x16, x2, lsr #32
     eb4:	eb10003f 	cmp	x1, x16
     eb8:	54001f02 	b.cs	1298 <__divtf3+0x750>  // b.hs, b.nlast
     ebc:	ab010122 	adds	x2, x9, x1
     ec0:	d10004a8 	sub	x8, x5, #0x1
     ec4:	aa0203e1 	mov	x1, x2
     ec8:	540000a2 	b.cs	edc <__divtf3+0x394>  // b.hs, b.nlast
     ecc:	eb10005f 	cmp	x2, x16
     ed0:	54002643 	b.cc	1398 <__divtf3+0x850>  // b.lo, b.ul, b.last
     ed4:	fa4401a2 	ccmp	x13, x4, #0x2, eq  // eq = none
     ed8:	54002603 	b.cc	1398 <__divtf3+0x850>  // b.lo, b.ul, b.last
     edc:	eb0401bf 	cmp	x13, x4
     ee0:	aa0803e5 	mov	x5, x8
     ee4:	1a9f07e2 	cset	w2, ne  // ne = any
     ee8:	7100005f 	cmp	w2, #0x0
     eec:	b24000a2 	orr	x2, x5, #0x1
     ef0:	fa500020 	ccmp	x1, x16, #0x0, eq  // eq = none
     ef4:	9a851045 	csel	x5, x2, x5, ne  // ne = any
     ef8:	17ffff56 	b	c50 <__divtf3+0x108>
     efc:	f100043f 	cmp	x1, #0x1
     f00:	54ffef41 	b.ne	ce8 <__divtf3+0x1a0>  // b.any
     f04:	d2800004 	mov	x4, #0x0                   	// #0
     f08:	9e670080 	fmov	d0, x4
     f0c:	d3410063 	lsl	x3, x3, #63
     f10:	321f0000 	orr	w0, w0, #0x2
     f14:	b2503865 	orr	x5, x3, #0x7fff000000000000
     f18:	9eaf00a0 	fmov	v0.d[1], x5
     f1c:	3d8007e0 	str	q0, [sp, #16]
     f20:	940009a8 	bl	35c0 <__sfp_handle_exceptions>
     f24:	3dc007e0 	ldr	q0, [sp, #16]
     f28:	17ffff7c 	b	d18 <__divtf3+0x1d0>
     f2c:	f1002c3f 	cmp	x1, #0xb
     f30:	5400068c 	b.gt	1000 <__divtf3+0x4b8>
     f34:	f100283f 	cmp	x1, #0xa
     f38:	54ffe781 	b.ne	c28 <__divtf3+0xe0>  // b.any
     f3c:	5280000b 	mov	w11, #0x0                   	// #0
     f40:	92ffffe6 	mov	x6, #0xffffffffffff        	// #281474976710655
     f44:	92800002 	mov	x2, #0xffffffffffffffff    	// #-1
     f48:	52800020 	mov	w0, #0x1                   	// #1
     f4c:	528fffe1 	mov	w1, #0x7fff                	// #32767
     f50:	17ffff6b 	b	cfc <__divtf3+0x1b4>
     f54:	aa0500c3 	orr	x3, x6, x5
     f58:	b4000743 	cbz	x3, 1040 <__divtf3+0x4f8>
     f5c:	b40014c6 	cbz	x6, 11f4 <__divtf3+0x6ac>
     f60:	dac010c3 	clz	x3, x6
     f64:	d1003c69 	sub	x9, x3, #0xf
     f68:	11000d2c 	add	w12, w9, #0x3
     f6c:	528007ab 	mov	w11, #0x3d                  	// #61
     f70:	4b090169 	sub	w9, w11, w9
     f74:	9acc20c6 	lsl	x6, x6, x12
     f78:	9ac924a9 	lsr	x9, x5, x9
     f7c:	aa060126 	orr	x6, x9, x6
     f80:	9acc20a5 	lsl	x5, x5, x12
     f84:	8b070067 	add	x7, x3, x7
     f88:	d287fdeb 	mov	x11, #0x3fef                	// #16367
     f8c:	d2800009 	mov	x9, #0x0                   	// #0
     f90:	8b0b00e7 	add	x7, x7, x11
     f94:	17ffff16 	b	bec <__divtf3+0xa4>
     f98:	aa0200c4 	orr	x4, x6, x2
     f9c:	b4000464 	cbz	x4, 1028 <__divtf3+0x4e0>
     fa0:	b4001186 	cbz	x6, 11d0 <__divtf3+0x688>
     fa4:	dac010c0 	clz	x0, x6
     fa8:	d1003c04 	sub	x4, x0, #0xf
     fac:	11000c87 	add	w7, w4, #0x3
     fb0:	528007a1 	mov	w1, #0x3d                  	// #61
     fb4:	4b040024 	sub	w4, w1, w4
     fb8:	9ac720c6 	lsl	x6, x6, x7
     fbc:	9ac42444 	lsr	x4, x2, x4
     fc0:	aa060084 	orr	x4, x4, x6
     fc4:	9ac72042 	lsl	x2, x2, x7
     fc8:	9287fdc7 	mov	x7, #0xffffffffffffc011    	// #-16367
     fcc:	d2800001 	mov	x1, #0x0                   	// #0
     fd0:	cb0000e7 	sub	x7, x7, x0
     fd4:	d2800010 	mov	x16, #0x0                   	// #0
     fd8:	52800000 	mov	w0, #0x0                   	// #0
     fdc:	17fffef4 	b	bac <__divtf3+0x64>
     fe0:	aa0200c4 	orr	x4, x6, x2
     fe4:	b5000384 	cbnz	x4, 1054 <__divtf3+0x50c>
     fe8:	d2800002 	mov	x2, #0x0                   	// #0
     fec:	d2800101 	mov	x1, #0x8                   	// #8
     ff0:	d28fffe7 	mov	x7, #0x7fff                	// #32767
     ff4:	d2800050 	mov	x16, #0x2                   	// #2
     ff8:	52800000 	mov	w0, #0x0                   	// #0
     ffc:	17fffeec 	b	bac <__divtf3+0x64>
    1000:	aa0403e6 	mov	x6, x4
    1004:	aa0203e5 	mov	x5, x2
    1008:	aa0e03e8 	mov	x8, x14
    100c:	aa1003e9 	mov	x9, x16
    1010:	17ffff06 	b	c28 <__divtf3+0xe0>
    1014:	b27f0021 	orr	x1, x1, #0x2
    1018:	d2800006 	mov	x6, #0x0                   	// #0
    101c:	d2800005 	mov	x5, #0x0                   	// #0
    1020:	d2800049 	mov	x9, #0x2                   	// #2
    1024:	17ffff22 	b	cac <__divtf3+0x164>
    1028:	d2800002 	mov	x2, #0x0                   	// #0
    102c:	d2800081 	mov	x1, #0x4                   	// #4
    1030:	d2800007 	mov	x7, #0x0                   	// #0
    1034:	d2800030 	mov	x16, #0x1                   	// #1
    1038:	52800000 	mov	w0, #0x0                   	// #0
    103c:	17fffedc 	b	bac <__divtf3+0x64>
    1040:	b2400021 	orr	x1, x1, #0x1
    1044:	d2800006 	mov	x6, #0x0                   	// #0
    1048:	d2800005 	mov	x5, #0x0                   	// #0
    104c:	d2800029 	mov	x9, #0x1                   	// #1
    1050:	17fffee7 	b	bec <__divtf3+0xa4>
    1054:	d36ffcc0 	lsr	x0, x6, #47
    1058:	aa0603e4 	mov	x4, x6
    105c:	52000000 	eor	w0, w0, #0x1
    1060:	d2800181 	mov	x1, #0xc                   	// #12
    1064:	d28fffe7 	mov	x7, #0x7fff                	// #32767
    1068:	d2800070 	mov	x16, #0x3                   	// #3
    106c:	17fffed0 	b	bac <__divtf3+0x64>
    1070:	2a0803eb 	mov	w11, w8
    1074:	52800001 	mov	w1, #0x0                   	// #0
    1078:	d2800006 	mov	x6, #0x0                   	// #0
    107c:	d2800002 	mov	x2, #0x0                   	// #0
    1080:	17ffff1f 	b	cfc <__divtf3+0x1b4>
    1084:	fa4200a2 	ccmp	x5, x2, #0x2, eq  // eq = none
    1088:	54ffe549 	b.ls	d30 <__divtf3+0x1e8>  // b.plast
    108c:	aa0203e8 	mov	x8, x2
    1090:	d10004e7 	sub	x7, x7, #0x1
    1094:	aa0403e3 	mov	x3, x4
    1098:	d2800002 	mov	x2, #0x0                   	// #0
    109c:	17ffff28 	b	d3c <__divtf3+0x1f4>
    10a0:	926a0541 	and	x1, x10, #0xc00000
    10a4:	321c0000 	orr	w0, w0, #0x10
    10a8:	f150003f 	cmp	x1, #0x400, lsl #12
    10ac:	54001aa0 	b.eq	1400 <__divtf3+0x8b8>  // b.none
    10b0:	f160003f 	cmp	x1, #0x800, lsl #12
    10b4:	54001300 	b.eq	1314 <__divtf3+0x7cc>  // b.none
    10b8:	b5ffdd41 	cbnz	x1, c60 <__divtf3+0x118>
    10bc:	92400ca1 	and	x1, x5, #0xf
    10c0:	1200018b 	and	w11, w12, #0x1
    10c4:	f100103f 	cmp	x1, #0x4
    10c8:	54ffdce0 	b.eq	c64 <__divtf3+0x11c>  // b.none
    10cc:	b10010a5 	adds	x5, x5, #0x4
    10d0:	9a8634c6 	cinc	x6, x6, cs  // cs = hs, nlast
    10d4:	17fffee4 	b	c64 <__divtf3+0x11c>
    10d8:	b2510086 	orr	x6, x4, #0x800000000000
    10dc:	2a0d03eb 	mov	w11, w13
    10e0:	9240bcc6 	and	x6, x6, #0xffffffffffff
    10e4:	528fffe1 	mov	w1, #0x7fff                	// #32767
    10e8:	17ffff05 	b	cfc <__divtf3+0x1b4>
    10ec:	528fffe1 	mov	w1, #0x7fff                	// #32767
    10f0:	d2800006 	mov	x6, #0x0                   	// #0
    10f4:	d2800002 	mov	x2, #0x0                   	// #0
    10f8:	17ffff01 	b	cfc <__divtf3+0x1b4>
    10fc:	ab0d0043 	adds	x3, x2, x13
    1100:	d1000506 	sub	x6, x8, #0x1
    1104:	9a090084 	adc	x4, x4, x9
    1108:	9a9f37f2 	cset	x18, cs  // cs = hs, nlast
    110c:	aa0303e2 	mov	x2, x3
    1110:	eb04013f 	cmp	x9, x4
    1114:	54000ba2 	b.cs	1288 <__divtf3+0x740>  // b.hs, b.nlast
    1118:	eb0400bf 	cmp	x5, x4
    111c:	54000ca9 	b.ls	12b0 <__divtf3+0x768>  // b.plast
    1120:	ab0301a2 	adds	x2, x13, x3
    1124:	d1000906 	sub	x6, x8, #0x2
    1128:	9a090084 	adc	x4, x4, x9
    112c:	17ffff35 	b	e00 <__divtf3+0x2b8>
    1130:	d2800021 	mov	x1, #0x1                   	// #1
    1134:	cb030021 	sub	x1, x1, x3
    1138:	f101d03f 	cmp	x1, #0x74
    113c:	1200018b 	and	w11, w12, #0x1
    1140:	540000ed 	b.le	115c <__divtf3+0x614>
    1144:	aa0600a2 	orr	x2, x5, x6
    1148:	b50011a2 	cbnz	x2, 137c <__divtf3+0x834>
    114c:	321d0000 	orr	w0, w0, #0x8
    1150:	52800001 	mov	w1, #0x0                   	// #0
    1154:	d2800006 	mov	x6, #0x0                   	// #0
    1158:	1400003a 	b	1240 <__divtf3+0x6f8>
    115c:	f100fc3f 	cmp	x1, #0x3f
    1160:	54000aed 	b.le	12bc <__divtf3+0x774>
    1164:	52801002 	mov	w2, #0x80                  	// #128
    1168:	4b010042 	sub	w2, w2, w1
    116c:	f101003f 	cmp	x1, #0x40
    1170:	51010021 	sub	w1, w1, #0x40
    1174:	9ac220c2 	lsl	x2, x6, x2
    1178:	aa0200a2 	orr	x2, x5, x2
    117c:	9a851045 	csel	x5, x2, x5, ne  // ne = any
    1180:	9ac124c6 	lsr	x6, x6, x1
    1184:	f10000bf 	cmp	x5, #0x0
    1188:	9a9f07e2 	cset	x2, ne  // ne = any
    118c:	aa060042 	orr	x2, x2, x6
    1190:	f2400846 	ands	x6, x2, #0x7
    1194:	54000ae0 	b.eq	12f0 <__divtf3+0x7a8>  // b.none
    1198:	d2800006 	mov	x6, #0x0                   	// #0
    119c:	926a054a 	and	x10, x10, #0xc00000
    11a0:	321c0000 	orr	w0, w0, #0x10
    11a4:	f150015f 	cmp	x10, #0x400, lsl #12
    11a8:	540014a0 	b.eq	143c <__divtf3+0x8f4>  // b.none
    11ac:	f160015f 	cmp	x10, #0x800, lsl #12
    11b0:	54001500 	b.eq	1450 <__divtf3+0x908>  // b.none
    11b4:	b400102a 	cbz	x10, 13b8 <__divtf3+0x870>
    11b8:	b79810c6 	tbnz	x6, #51, 13d0 <__divtf3+0x888>
    11bc:	321d0000 	orr	w0, w0, #0x8
    11c0:	93c20cc2 	extr	x2, x6, x2, #3
    11c4:	52800001 	mov	w1, #0x0                   	// #0
    11c8:	d343c8c6 	ubfx	x6, x6, #3, #48
    11cc:	1400001d 	b	1240 <__divtf3+0x6f8>
    11d0:	dac01047 	clz	x7, x2
    11d4:	9100c4e4 	add	x4, x7, #0x31
    11d8:	910100e0 	add	x0, x7, #0x40
    11dc:	f100f09f 	cmp	x4, #0x3c
    11e0:	54ffee6d 	b.le	fac <__divtf3+0x464>
    11e4:	5100f484 	sub	w4, w4, #0x3d
    11e8:	9ac42044 	lsl	x4, x2, x4
    11ec:	d2800002 	mov	x2, #0x0                   	// #0
    11f0:	17ffff76 	b	fc8 <__divtf3+0x480>
    11f4:	dac010a3 	clz	x3, x5
    11f8:	9100c469 	add	x9, x3, #0x31
    11fc:	91010063 	add	x3, x3, #0x40
    1200:	f100f13f 	cmp	x9, #0x3c
    1204:	54ffeb2d 	b.le	f68 <__divtf3+0x420>
    1208:	5100f526 	sub	w6, w9, #0x3d
    120c:	9ac620a6 	lsl	x6, x5, x6
    1210:	d2800005 	mov	x5, #0x0                   	// #0
    1214:	17ffff5c 	b	f84 <__divtf3+0x43c>
    1218:	926a0542 	and	x2, x10, #0xc00000
    121c:	f150005f 	cmp	x2, #0x400, lsl #12
    1220:	54000e20 	b.eq	13e4 <__divtf3+0x89c>  // b.none
    1224:	f160005f 	cmp	x2, #0x800, lsl #12
    1228:	54000820 	b.eq	132c <__divtf3+0x7e4>  // b.none
    122c:	b40006e2 	cbz	x2, 1308 <__divtf3+0x7c0>
    1230:	92ffffe6 	mov	x6, #0xffffffffffff        	// #281474976710655
    1234:	92800002 	mov	x2, #0xffffffffffffffff    	// #-1
    1238:	52800283 	mov	w3, #0x14                  	// #20
    123c:	2a030000 	orr	w0, w0, w3
    1240:	d2800005 	mov	x5, #0x0                   	// #0
    1244:	2a0b3c21 	orr	w1, w1, w11, lsl #15
    1248:	b340bcc5 	bfxil	x5, x6, #0, #48
    124c:	9e670040 	fmov	d0, x2
    1250:	b3503c25 	bfi	x5, x1, #48, #16
    1254:	9eaf00a0 	fmov	v0.d[1], x5
    1258:	17ffff31 	b	f1c <__divtf3+0x3d4>
    125c:	b25100c6 	orr	x6, x6, #0x800000000000
    1260:	2a0803eb 	mov	w11, w8
    1264:	9240bcc6 	and	x6, x6, #0xffffffffffff
    1268:	aa0503e2 	mov	x2, x5
    126c:	528fffe1 	mov	w1, #0x7fff                	// #32767
    1270:	17fffea3 	b	cfc <__divtf3+0x1b4>
    1274:	2a0803eb 	mov	w11, w8
    1278:	528fffe1 	mov	w1, #0x7fff                	// #32767
    127c:	d2800006 	mov	x6, #0x0                   	// #0
    1280:	d2800002 	mov	x2, #0x0                   	// #0
    1284:	17fffe9e 	b	cfc <__divtf3+0x1b4>
    1288:	f100025f 	cmp	x18, #0x0
    128c:	fa440120 	ccmp	x9, x4, #0x0, eq  // eq = none
    1290:	54ffdb81 	b.ne	e00 <__divtf3+0x2b8>  // b.any
    1294:	17ffffa1 	b	1118 <__divtf3+0x5d0>
    1298:	f100009f 	cmp	x4, #0x0
    129c:	1a9f07e2 	cset	w2, ne  // ne = any
    12a0:	7100005f 	cmp	w2, #0x0
    12a4:	fa501020 	ccmp	x1, x16, #0x0, ne  // ne = any
    12a8:	54ffe201 	b.ne	ee8 <__divtf3+0x3a0>  // b.any
    12ac:	17ffff04 	b	ebc <__divtf3+0x374>
    12b0:	fa430020 	ccmp	x1, x3, #0x0, eq  // eq = none
    12b4:	54ffda69 	b.ls	e00 <__divtf3+0x2b8>  // b.plast
    12b8:	17ffff9a 	b	1120 <__divtf3+0x5d8>
    12bc:	52800802 	mov	w2, #0x40                  	// #64
    12c0:	4b010042 	sub	w2, w2, w1
    12c4:	9ac124a4 	lsr	x4, x5, x1
    12c8:	9ac220a5 	lsl	x5, x5, x2
    12cc:	f10000bf 	cmp	x5, #0x0
    12d0:	9a9f07e3 	cset	x3, ne  // ne = any
    12d4:	9ac220c2 	lsl	x2, x6, x2
    12d8:	aa040042 	orr	x2, x2, x4
    12dc:	9ac124c6 	lsr	x6, x6, x1
    12e0:	aa030042 	orr	x2, x2, x3
    12e4:	f240085f 	tst	x2, #0x7
    12e8:	54fff5a1 	b.ne	119c <__divtf3+0x654>  // b.any
    12ec:	b7980b86 	tbnz	x6, #51, 145c <__divtf3+0x914>
    12f0:	52800001 	mov	w1, #0x0                   	// #0
    12f4:	93c20cc2 	extr	x2, x6, x2, #3
    12f8:	d343c8c6 	ubfx	x6, x6, #3, #48
    12fc:	365fd00a 	tbz	w10, #11, cfc <__divtf3+0x1b4>
    1300:	321d0000 	orr	w0, w0, #0x8
    1304:	17ffffcf 	b	1240 <__divtf3+0x6f8>
    1308:	528fffe1 	mov	w1, #0x7fff                	// #32767
    130c:	d2800006 	mov	x6, #0x0                   	// #0
    1310:	17ffffca 	b	1238 <__divtf3+0x6f0>
    1314:	5280000b 	mov	w11, #0x0                   	// #0
    1318:	b4ffca6c 	cbz	x12, c64 <__divtf3+0x11c>
    131c:	b10020a5 	adds	x5, x5, #0x8
    1320:	5280002b 	mov	w11, #0x1                   	// #1
    1324:	9a8634c6 	cinc	x6, x6, cs  // cs = hs, nlast
    1328:	17fffe4f 	b	c64 <__divtf3+0x11c>
    132c:	f100019f 	cmp	x12, #0x0
    1330:	528fffe2 	mov	w2, #0x7fff                	// #32767
    1334:	92ffffe6 	mov	x6, #0xffffffffffff        	// #281474976710655
    1338:	1a820021 	csel	w1, w1, w2, eq  // eq = none
    133c:	9a9f00c6 	csel	x6, x6, xzr, eq  // eq = none
    1340:	da9f13e2 	csetm	x2, eq  // eq = none
    1344:	17ffffbd 	b	1238 <__divtf3+0x6f0>
    1348:	d1000821 	sub	x1, x1, #0x2
    134c:	8b090084 	add	x4, x4, x9
    1350:	17fffe95 	b	da4 <__divtf3+0x25c>
    1354:	d10008a5 	sub	x5, x5, #0x2
    1358:	8b090063 	add	x3, x3, x9
    135c:	17fffe86 	b	d74 <__divtf3+0x22c>
    1360:	f100007f 	cmp	x3, #0x0
    1364:	92800005 	mov	x5, #0xffffffffffffffff    	// #-1
    1368:	54ffe9cc 	b.gt	10a0 <__divtf3+0x558>
    136c:	d2800021 	mov	x1, #0x1                   	// #1
    1370:	cb030021 	sub	x1, x1, x3
    1374:	f101d03f 	cmp	x1, #0x74
    1378:	54ffef2d 	b.le	115c <__divtf3+0x614>
    137c:	926a054a 	and	x10, x10, #0xc00000
    1380:	321c0000 	orr	w0, w0, #0x10
    1384:	f150015f 	cmp	x10, #0x400, lsl #12
    1388:	54000540 	b.eq	1430 <__divtf3+0x8e8>  // b.none
    138c:	f160015f 	cmp	x10, #0x800, lsl #12
    1390:	9a9f0182 	csel	x2, x12, xzr, eq  // eq = none
    1394:	17ffff6e 	b	114c <__divtf3+0x604>
    1398:	d37ff9a8 	lsl	x8, x13, #1
    139c:	d10008a5 	sub	x5, x5, #0x2
    13a0:	eb0801bf 	cmp	x13, x8
    13a4:	9a899521 	cinc	x1, x9, hi  // hi = pmore
    13a8:	eb08009f 	cmp	x4, x8
    13ac:	8b010041 	add	x1, x2, x1
    13b0:	1a9f07e2 	cset	w2, ne  // ne = any
    13b4:	17fffecd 	b	ee8 <__divtf3+0x3a0>
    13b8:	92400c41 	and	x1, x2, #0xf
    13bc:	f100103f 	cmp	x1, #0x4
    13c0:	54000060 	b.eq	13cc <__divtf3+0x884>  // b.none
    13c4:	b1001042 	adds	x2, x2, #0x4
    13c8:	9a8634c6 	cinc	x6, x6, cs  // cs = hs, nlast
    13cc:	b69fef86 	tbz	x6, #51, 11bc <__divtf3+0x674>
    13d0:	321d0000 	orr	w0, w0, #0x8
    13d4:	52800021 	mov	w1, #0x1                   	// #1
    13d8:	d2800006 	mov	x6, #0x0                   	// #0
    13dc:	d2800002 	mov	x2, #0x0                   	// #0
    13e0:	17ffff98 	b	1240 <__divtf3+0x6f8>
    13e4:	f100019f 	cmp	x12, #0x0
    13e8:	528fffe2 	mov	w2, #0x7fff                	// #32767
    13ec:	92ffffe6 	mov	x6, #0xffffffffffff        	// #281474976710655
    13f0:	1a821021 	csel	w1, w1, w2, ne  // ne = any
    13f4:	9a9f10c6 	csel	x6, x6, xzr, ne  // ne = any
    13f8:	da9f03e2 	csetm	x2, ne  // ne = any
    13fc:	17ffff8f 	b	1238 <__divtf3+0x6f0>
    1400:	5280002b 	mov	w11, #0x1                   	// #1
    1404:	b5ffc30c 	cbnz	x12, c64 <__divtf3+0x11c>
    1408:	b10020a5 	adds	x5, x5, #0x8
    140c:	5280000b 	mov	w11, #0x0                   	// #0
    1410:	9a8634c6 	cinc	x6, x6, cs  // cs = hs, nlast
    1414:	17fffe14 	b	c64 <__divtf3+0x11c>
    1418:	d10008a5 	sub	x5, x5, #0x2
    141c:	8b090021 	add	x1, x1, x9
    1420:	17fffe89 	b	e44 <__divtf3+0x2fc>
    1424:	d1000842 	sub	x2, x2, #0x2
    1428:	8b090021 	add	x1, x1, x9
    142c:	17fffe92 	b	e74 <__divtf3+0x32c>
    1430:	d2800022 	mov	x2, #0x1                   	// #1
    1434:	cb0c0042 	sub	x2, x2, x12
    1438:	17ffff45 	b	114c <__divtf3+0x604>
    143c:	b5fffc8c 	cbnz	x12, 13cc <__divtf3+0x884>
    1440:	b1002042 	adds	x2, x2, #0x8
    1444:	9a8634c6 	cinc	x6, x6, cs  // cs = hs, nlast
    1448:	b79ffc46 	tbnz	x6, #51, 13d0 <__divtf3+0x888>
    144c:	17ffff5c 	b	11bc <__divtf3+0x674>
    1450:	b5ffff8c 	cbnz	x12, 1440 <__divtf3+0x8f8>
    1454:	b79ffbe6 	tbnz	x6, #51, 13d0 <__divtf3+0x888>
    1458:	17ffff59 	b	11bc <__divtf3+0x674>
    145c:	321c0000 	orr	w0, w0, #0x10
    1460:	17ffffdc 	b	13d0 <__divtf3+0x888>
    1464:	00000000 	.inst	0x00000000 ; undefined

0000000000001468 <__eqtf2>:
    1468:	a9bd7bfd 	stp	x29, x30, [sp, #-48]!
    146c:	910003fd 	mov	x29, sp
    1470:	3d8007e0 	str	q0, [sp, #16]
    1474:	3d800be1 	str	q1, [sp, #32]
    1478:	a94107e6 	ldp	x6, x1, [sp, #16]
    147c:	a94203e7 	ldp	x7, x0, [sp, #32]
    1480:	d53b4402 	mrs	x2, fpcr
    1484:	d370f824 	ubfx	x4, x1, #48, #15
    1488:	d37ffc22 	lsr	x2, x1, #63
    148c:	d37ffc03 	lsr	x3, x0, #63
    1490:	d340bc09 	ubfx	x9, x0, #0, #48
    1494:	d28fffe5 	mov	x5, #0x7fff                	// #32767
    1498:	aa0603ea 	mov	x10, x6
    149c:	eb05009f 	cmp	x4, x5
    14a0:	12001c42 	and	w2, w2, #0xff
    14a4:	d340bc21 	ubfx	x1, x1, #0, #48
    14a8:	12001c63 	and	w3, w3, #0xff
    14ac:	d370f800 	ubfx	x0, x0, #48, #15
    14b0:	540001a0 	b.eq	14e4 <__eqtf2+0x7c>  // b.none
    14b4:	eb05001f 	cmp	x0, x5
    14b8:	540000c0 	b.eq	14d0 <__eqtf2+0x68>  // b.none
    14bc:	eb00009f 	cmp	x4, x0
    14c0:	52800020 	mov	w0, #0x1                   	// #1
    14c4:	540001c0 	b.eq	14fc <__eqtf2+0x94>  // b.none
    14c8:	a8c37bfd 	ldp	x29, x30, [sp], #48
    14cc:	d65f03c0 	ret
    14d0:	aa070128 	orr	x8, x9, x7
    14d4:	b5000468 	cbnz	x8, 1560 <__eqtf2+0xf8>
    14d8:	52800020 	mov	w0, #0x1                   	// #1
    14dc:	a8c37bfd 	ldp	x29, x30, [sp], #48
    14e0:	d65f03c0 	ret
    14e4:	aa060025 	orr	x5, x1, x6
    14e8:	b5000245 	cbnz	x5, 1530 <__eqtf2+0xc8>
    14ec:	eb04001f 	cmp	x0, x4
    14f0:	54ffff41 	b.ne	14d8 <__eqtf2+0x70>  // b.any
    14f4:	aa070128 	orr	x8, x9, x7
    14f8:	b5000348 	cbnz	x8, 1560 <__eqtf2+0xf8>
    14fc:	eb09003f 	cmp	x1, x9
    1500:	52800020 	mov	w0, #0x1                   	// #1
    1504:	fa4700c0 	ccmp	x6, x7, #0x0, eq  // eq = none
    1508:	54fffe01 	b.ne	14c8 <__eqtf2+0x60>  // b.any
    150c:	6b03005f 	cmp	w2, w3
    1510:	52800000 	mov	w0, #0x0                   	// #0
    1514:	54fffda0 	b.eq	14c8 <__eqtf2+0x60>  // b.none
    1518:	52800020 	mov	w0, #0x1                   	// #1
    151c:	b5fffd64 	cbnz	x4, 14c8 <__eqtf2+0x60>
    1520:	aa0a0021 	orr	x1, x1, x10
    1524:	f100003f 	cmp	x1, #0x0
    1528:	1a9f07e0 	cset	w0, ne  // ne = any
    152c:	17ffffe7 	b	14c8 <__eqtf2+0x60>
    1530:	f251003f 	tst	x1, #0x800000000000
    1534:	540000c1 	b.ne	154c <__eqtf2+0xe4>  // b.any
    1538:	52800020 	mov	w0, #0x1                   	// #1
    153c:	94000821 	bl	35c0 <__sfp_handle_exceptions>
    1540:	52800020 	mov	w0, #0x1                   	// #1
    1544:	a8c37bfd 	ldp	x29, x30, [sp], #48
    1548:	d65f03c0 	ret
    154c:	eb04001f 	cmp	x0, x4
    1550:	52800020 	mov	w0, #0x1                   	// #1
    1554:	54fffba1 	b.ne	14c8 <__eqtf2+0x60>  // b.any
    1558:	aa070128 	orr	x8, x9, x7
    155c:	b4fffb68 	cbz	x8, 14c8 <__eqtf2+0x60>
    1560:	f251013f 	tst	x9, #0x800000000000
    1564:	54fffea0 	b.eq	1538 <__eqtf2+0xd0>  // b.none
    1568:	17ffffdc 	b	14d8 <__eqtf2+0x70>
    156c:	00000000 	.inst	0x00000000 ; undefined

0000000000001570 <__gttf2>:
    1570:	a9bd7bfd 	stp	x29, x30, [sp, #-48]!
    1574:	910003fd 	mov	x29, sp
    1578:	3d8007e0 	str	q0, [sp, #16]
    157c:	3d800be1 	str	q1, [sp, #32]
    1580:	a94107e8 	ldp	x8, x1, [sp, #16]
    1584:	a94203e9 	ldp	x9, x0, [sp, #32]
    1588:	d53b4402 	mrs	x2, fpcr
    158c:	d370f824 	ubfx	x4, x1, #48, #15
    1590:	d340bc2a 	ubfx	x10, x1, #0, #48
    1594:	d37ffc22 	lsr	x2, x1, #63
    1598:	d28fffe7 	mov	x7, #0x7fff                	// #32767
    159c:	aa0803e5 	mov	x5, x8
    15a0:	eb07009f 	cmp	x4, x7
    15a4:	d340bc0b 	ubfx	x11, x0, #0, #48
    15a8:	d370f806 	ubfx	x6, x0, #48, #15
    15ac:	d37ffc01 	lsr	x1, x0, #63
    15b0:	aa0903e3 	mov	x3, x9
    15b4:	540001e0 	b.eq	15f0 <__gttf2+0x80>  // b.none
    15b8:	eb0700df 	cmp	x6, x7
    15bc:	54000220 	b.eq	1600 <__gttf2+0x90>  // b.none
    15c0:	b5000344 	cbnz	x4, 1628 <__gttf2+0xb8>
    15c4:	aa080145 	orr	x5, x10, x8
    15c8:	f10000bf 	cmp	x5, #0x0
    15cc:	1a9f17e0 	cset	w0, eq  // eq = none
    15d0:	b5000066 	cbnz	x6, 15dc <__gttf2+0x6c>
    15d4:	aa090163 	orr	x3, x11, x9
    15d8:	b4000383 	cbz	x3, 1648 <__gttf2+0xd8>
    15dc:	34000180 	cbz	w0, 160c <__gttf2+0x9c>
    15e0:	f100003f 	cmp	x1, #0x0
    15e4:	5a9f1000 	csinv	w0, w0, wzr, ne  // ne = any
    15e8:	a8c37bfd 	ldp	x29, x30, [sp], #48
    15ec:	d65f03c0 	ret
    15f0:	aa080140 	orr	x0, x10, x8
    15f4:	b5000300 	cbnz	x0, 1654 <__gttf2+0xe4>
    15f8:	eb0400df 	cmp	x6, x4
    15fc:	54000161 	b.ne	1628 <__gttf2+0xb8>  // b.any
    1600:	aa030163 	orr	x3, x11, x3
    1604:	b5000283 	cbnz	x3, 1654 <__gttf2+0xe4>
    1608:	b4000184 	cbz	x4, 1638 <__gttf2+0xc8>
    160c:	eb01005f 	cmp	x2, x1
    1610:	540002c0 	b.eq	1668 <__gttf2+0xf8>  // b.none
    1614:	f100005f 	cmp	x2, #0x0
    1618:	12800000 	mov	w0, #0xffffffff            	// #-1
    161c:	5a801400 	cneg	w0, w0, eq  // eq = none
    1620:	a8c37bfd 	ldp	x29, x30, [sp], #48
    1624:	d65f03c0 	ret
    1628:	b5ffff26 	cbnz	x6, 160c <__gttf2+0x9c>
    162c:	aa030163 	orr	x3, x11, x3
    1630:	b5fffee3 	cbnz	x3, 160c <__gttf2+0x9c>
    1634:	17fffff8 	b	1614 <__gttf2+0xa4>
    1638:	aa050145 	orr	x5, x10, x5
    163c:	f10000bf 	cmp	x5, #0x0
    1640:	1a9f17e0 	cset	w0, eq  // eq = none
    1644:	17ffffe6 	b	15dc <__gttf2+0x6c>
    1648:	52800000 	mov	w0, #0x0                   	// #0
    164c:	b4fffce5 	cbz	x5, 15e8 <__gttf2+0x78>
    1650:	17fffff1 	b	1614 <__gttf2+0xa4>
    1654:	52800020 	mov	w0, #0x1                   	// #1
    1658:	940007da 	bl	35c0 <__sfp_handle_exceptions>
    165c:	12800020 	mov	w0, #0xfffffffe            	// #-2
    1660:	a8c37bfd 	ldp	x29, x30, [sp], #48
    1664:	d65f03c0 	ret
    1668:	eb06009f 	cmp	x4, x6
    166c:	54fffd4c 	b.gt	1614 <__gttf2+0xa4>
    1670:	540001cb 	b.lt	16a8 <__gttf2+0x138>  // b.tstop
    1674:	eb0b015f 	cmp	x10, x11
    1678:	54fffce8 	b.hi	1614 <__gttf2+0xa4>  // b.pmore
    167c:	1a9f17e0 	cset	w0, eq  // eq = none
    1680:	7100001f 	cmp	w0, #0x0
    1684:	fa491100 	ccmp	x8, x9, #0x0, ne  // ne = any
    1688:	54fffc68 	b.hi	1614 <__gttf2+0xa4>  // b.pmore
    168c:	eb0b015f 	cmp	x10, x11
    1690:	540000c3 	b.cc	16a8 <__gttf2+0x138>  // b.lo, b.ul, b.last
    1694:	7100001f 	cmp	w0, #0x0
    1698:	52800000 	mov	w0, #0x0                   	// #0
    169c:	fa491102 	ccmp	x8, x9, #0x2, ne  // ne = any
    16a0:	54fffa42 	b.cs	15e8 <__gttf2+0x78>  // b.hs, b.nlast
    16a4:	d503201f 	nop
    16a8:	f100005f 	cmp	x2, #0x0
    16ac:	52800020 	mov	w0, #0x1                   	// #1
    16b0:	5a801400 	cneg	w0, w0, eq  // eq = none
    16b4:	17ffffcd 	b	15e8 <__gttf2+0x78>

00000000000016b8 <__lttf2>:
    16b8:	a9bd7bfd 	stp	x29, x30, [sp, #-48]!
    16bc:	910003fd 	mov	x29, sp
    16c0:	3d8007e0 	str	q0, [sp, #16]
    16c4:	3d800be1 	str	q1, [sp, #32]
    16c8:	a94107e8 	ldp	x8, x1, [sp, #16]
    16cc:	a94203e9 	ldp	x9, x0, [sp, #32]
    16d0:	d53b4402 	mrs	x2, fpcr
    16d4:	d370f824 	ubfx	x4, x1, #48, #15
    16d8:	d340bc2a 	ubfx	x10, x1, #0, #48
    16dc:	d37ffc22 	lsr	x2, x1, #63
    16e0:	d28fffe5 	mov	x5, #0x7fff                	// #32767
    16e4:	aa0803e6 	mov	x6, x8
    16e8:	eb05009f 	cmp	x4, x5
    16ec:	d340bc0b 	ubfx	x11, x0, #0, #48
    16f0:	d370f807 	ubfx	x7, x0, #48, #15
    16f4:	d37ffc01 	lsr	x1, x0, #63
    16f8:	aa0903e3 	mov	x3, x9
    16fc:	540001c0 	b.eq	1734 <__lttf2+0x7c>  // b.none
    1700:	eb0500ff 	cmp	x7, x5
    1704:	54000200 	b.eq	1744 <__lttf2+0x8c>  // b.none
    1708:	b5000344 	cbnz	x4, 1770 <__lttf2+0xb8>
    170c:	aa080146 	orr	x6, x10, x8
    1710:	f10000df 	cmp	x6, #0x0
    1714:	1a9f17e0 	cset	w0, eq  // eq = none
    1718:	b5000227 	cbnz	x7, 175c <__lttf2+0xa4>
    171c:	aa090163 	orr	x3, x11, x9
    1720:	b50001e3 	cbnz	x3, 175c <__lttf2+0xa4>
    1724:	52800000 	mov	w0, #0x0                   	// #0
    1728:	b50002e6 	cbnz	x6, 1784 <__lttf2+0xcc>
    172c:	a8c37bfd 	ldp	x29, x30, [sp], #48
    1730:	d65f03c0 	ret
    1734:	aa080140 	orr	x0, x10, x8
    1738:	b5000300 	cbnz	x0, 1798 <__lttf2+0xe0>
    173c:	eb0400ff 	cmp	x7, x4
    1740:	54000181 	b.ne	1770 <__lttf2+0xb8>  // b.any
    1744:	aa030163 	orr	x3, x11, x3
    1748:	b5000283 	cbnz	x3, 1798 <__lttf2+0xe0>
    174c:	b5000184 	cbnz	x4, 177c <__lttf2+0xc4>
    1750:	aa060146 	orr	x6, x10, x6
    1754:	f10000df 	cmp	x6, #0x0
    1758:	1a9f17e0 	cset	w0, eq  // eq = none
    175c:	34000100 	cbz	w0, 177c <__lttf2+0xc4>
    1760:	f100003f 	cmp	x1, #0x0
    1764:	5a9f1000 	csinv	w0, w0, wzr, ne  // ne = any
    1768:	a8c37bfd 	ldp	x29, x30, [sp], #48
    176c:	d65f03c0 	ret
    1770:	b5000067 	cbnz	x7, 177c <__lttf2+0xc4>
    1774:	aa030163 	orr	x3, x11, x3
    1778:	b4000063 	cbz	x3, 1784 <__lttf2+0xcc>
    177c:	eb01005f 	cmp	x2, x1
    1780:	54000160 	b.eq	17ac <__lttf2+0xf4>  // b.none
    1784:	f100005f 	cmp	x2, #0x0
    1788:	12800000 	mov	w0, #0xffffffff            	// #-1
    178c:	5a801400 	cneg	w0, w0, eq  // eq = none
    1790:	a8c37bfd 	ldp	x29, x30, [sp], #48
    1794:	d65f03c0 	ret
    1798:	52800020 	mov	w0, #0x1                   	// #1
    179c:	94000789 	bl	35c0 <__sfp_handle_exceptions>
    17a0:	52800040 	mov	w0, #0x2                   	// #2
    17a4:	a8c37bfd 	ldp	x29, x30, [sp], #48
    17a8:	d65f03c0 	ret
    17ac:	eb07009f 	cmp	x4, x7
    17b0:	54fffeac 	b.gt	1784 <__lttf2+0xcc>
    17b4:	540001ab 	b.lt	17e8 <__lttf2+0x130>  // b.tstop
    17b8:	eb0b015f 	cmp	x10, x11
    17bc:	54fffe48 	b.hi	1784 <__lttf2+0xcc>  // b.pmore
    17c0:	1a9f17e0 	cset	w0, eq  // eq = none
    17c4:	7100001f 	cmp	w0, #0x0
    17c8:	fa491100 	ccmp	x8, x9, #0x0, ne  // ne = any
    17cc:	54fffdc8 	b.hi	1784 <__lttf2+0xcc>  // b.pmore
    17d0:	eb0b015f 	cmp	x10, x11
    17d4:	540000a3 	b.cc	17e8 <__lttf2+0x130>  // b.lo, b.ul, b.last
    17d8:	7100001f 	cmp	w0, #0x0
    17dc:	52800000 	mov	w0, #0x0                   	// #0
    17e0:	fa491102 	ccmp	x8, x9, #0x2, ne  // ne = any
    17e4:	54fffa42 	b.cs	172c <__lttf2+0x74>  // b.hs, b.nlast
    17e8:	f100005f 	cmp	x2, #0x0
    17ec:	52800020 	mov	w0, #0x1                   	// #1
    17f0:	5a801400 	cneg	w0, w0, eq  // eq = none
    17f4:	17ffffce 	b	172c <__lttf2+0x74>

00000000000017f8 <__multf3>:
    17f8:	a9bb7bfd 	stp	x29, x30, [sp, #-80]!
    17fc:	910003fd 	mov	x29, sp
    1800:	3d800fe0 	str	q0, [sp, #48]
    1804:	3d8013e1 	str	q1, [sp, #64]
    1808:	a94303e1 	ldp	x1, x0, [sp, #48]
    180c:	a9440be6 	ldp	x6, x2, [sp, #64]
    1810:	d53b440b 	mrs	x11, fpcr
    1814:	d37ffc03 	lsr	x3, x0, #63
    1818:	d340bc07 	ubfx	x7, x0, #0, #48
    181c:	12001c6c 	and	w12, w3, #0xff
    1820:	aa0303ee 	mov	x14, x3
    1824:	d370f803 	ubfx	x3, x0, #48, #15
    1828:	34001d43 	cbz	w3, 1bd0 <__multf3+0x3d8>
    182c:	528fffe4 	mov	w4, #0x7fff                	// #32767
    1830:	6b04007f 	cmp	w3, w4
    1834:	54002200 	b.eq	1c74 <__multf3+0x47c>  // b.none
    1838:	92403c63 	and	x3, x3, #0xffff
    183c:	93c1f4e4 	extr	x4, x7, x1, #61
    1840:	9287ffd2 	mov	x18, #0xffffffffffffc001    	// #-16383
    1844:	b24d0087 	orr	x7, x4, #0x8000000000000
    1848:	8b120063 	add	x3, x3, x18
    184c:	d37df025 	lsl	x5, x1, #3
    1850:	d2800010 	mov	x16, #0x0                   	// #0
    1854:	d2800001 	mov	x1, #0x0                   	// #0
    1858:	52800000 	mov	w0, #0x0                   	// #0
    185c:	d37ffc48 	lsr	x8, x2, #63
    1860:	d340bc44 	ubfx	x4, x2, #0, #48
    1864:	12001d0f 	and	w15, w8, #0xff
    1868:	aa0803ed 	mov	x13, x8
    186c:	d370f849 	ubfx	x9, x2, #48, #15
    1870:	34001e09 	cbz	w9, 1c30 <__multf3+0x438>
    1874:	528fffe8 	mov	w8, #0x7fff                	// #32767
    1878:	6b08013f 	cmp	w9, w8
    187c:	54000420 	b.eq	1900 <__multf3+0x108>  // b.none
    1880:	92403d29 	and	x9, x9, #0xffff
    1884:	9287ffd1 	mov	x17, #0xffffffffffffc001    	// #-16383
    1888:	8b110129 	add	x9, x9, x17
    188c:	93c6f482 	extr	x2, x4, x6, #61
    1890:	8b030129 	add	x9, x9, x3
    1894:	d37df0c6 	lsl	x6, x6, #3
    1898:	b24d0044 	orr	x4, x2, #0x8000000000000
    189c:	d2800002 	mov	x2, #0x0                   	// #0
    18a0:	4a0f0188 	eor	w8, w12, w15
    18a4:	f100283f 	cmp	x1, #0xa
    18a8:	12001d0a 	and	w10, w8, #0xff
    18ac:	91000523 	add	x3, x9, #0x1
    18b0:	92401d08 	and	x8, x8, #0xff
    18b4:	5400042d 	b.le	1938 <__multf3+0x140>
    18b8:	f1002c3f 	cmp	x1, #0xb
    18bc:	540038a0 	b.eq	1fd0 <__multf3+0x7d8>  // b.none
    18c0:	2a0c03ef 	mov	w15, w12
    18c4:	aa0e03ed 	mov	x13, x14
    18c8:	2a0f03ea 	mov	w10, w15
    18cc:	f1000a1f 	cmp	x16, #0x2
    18d0:	54001e20 	b.eq	1c94 <__multf3+0x49c>  // b.none
    18d4:	aa0703e4 	mov	x4, x7
    18d8:	aa0503e6 	mov	x6, x5
    18dc:	aa1003e2 	mov	x2, x16
    18e0:	aa0d03e8 	mov	x8, x13
    18e4:	f1000c5f 	cmp	x2, #0x3
    18e8:	54000361 	b.ne	1954 <__multf3+0x15c>  // b.any
    18ec:	b2510084 	orr	x4, x4, #0x800000000000
    18f0:	aa0603e5 	mov	x5, x6
    18f4:	9240bc84 	and	x4, x4, #0xffffffffffff
    18f8:	528fffe1 	mov	w1, #0x7fff                	// #32767
    18fc:	1400001b 	b	1968 <__multf3+0x170>
    1900:	d28fffe8 	mov	x8, #0x7fff                	// #32767
    1904:	aa060082 	orr	x2, x4, x6
    1908:	8b080069 	add	x9, x3, x8
    190c:	b5000402 	cbnz	x2, 198c <__multf3+0x194>
    1910:	4a0f0188 	eor	w8, w12, w15
    1914:	b27f0021 	orr	x1, x1, #0x2
    1918:	12001d0a 	and	w10, w8, #0xff
    191c:	f100283f 	cmp	x1, #0xa
    1920:	91402063 	add	x3, x3, #0x8, lsl #12
    1924:	92401d08 	and	x8, x8, #0xff
    1928:	d2800006 	mov	x6, #0x0                   	// #0
    192c:	540030cc 	b.gt	1f44 <__multf3+0x74c>
    1930:	d2800004 	mov	x4, #0x0                   	// #0
    1934:	d2800042 	mov	x2, #0x2                   	// #2
    1938:	f100083f 	cmp	x1, #0x2
    193c:	540003cc 	b.gt	19b4 <__multf3+0x1bc>
    1940:	d1000421 	sub	x1, x1, #0x1
    1944:	f100043f 	cmp	x1, #0x1
    1948:	54000548 	b.hi	19f0 <__multf3+0x1f8>  // b.pmore
    194c:	f100085f 	cmp	x2, #0x2
    1950:	54001a20 	b.eq	1c94 <__multf3+0x49c>  // b.none
    1954:	f100045f 	cmp	x2, #0x1
    1958:	54000fc1 	b.ne	1b50 <__multf3+0x358>  // b.any
    195c:	52800001 	mov	w1, #0x0                   	// #0
    1960:	d2800004 	mov	x4, #0x0                   	// #0
    1964:	d2800005 	mov	x5, #0x0                   	// #0
    1968:	d2800003 	mov	x3, #0x0                   	// #0
    196c:	2a0a3c21 	orr	w1, w1, w10, lsl #15
    1970:	b340bc83 	bfxil	x3, x4, #0, #48
    1974:	9e6700a0 	fmov	d0, x5
    1978:	b3503c23 	bfi	x3, x1, #48, #16
    197c:	9eaf0060 	fmov	v0.d[1], x3
    1980:	35002200 	cbnz	w0, 1dc0 <__multf3+0x5c8>
    1984:	a8c57bfd 	ldp	x29, x30, [sp], #80
    1988:	d65f03c0 	ret
    198c:	f251009f 	tst	x4, #0x800000000000
    1990:	4a0f0188 	eor	w8, w12, w15
    1994:	b2400421 	orr	x1, x1, #0x3
    1998:	1a9f1400 	csinc	w0, w0, wzr, ne  // ne = any
    199c:	12001d0a 	and	w10, w8, #0xff
    19a0:	91402063 	add	x3, x3, #0x8, lsl #12
    19a4:	f100283f 	cmp	x1, #0xa
    19a8:	92401d08 	and	x8, x8, #0xff
    19ac:	d2800062 	mov	x2, #0x3                   	// #3
    19b0:	540030ac 	b.gt	1fc4 <__multf3+0x7cc>
    19b4:	d280002c 	mov	x12, #0x1                   	// #1
    19b8:	d280a60e 	mov	x14, #0x530                 	// #1328
    19bc:	9ac12181 	lsl	x1, x12, x1
    19c0:	ea0e003f 	tst	x1, x14
    19c4:	54001001 	b.ne	1bc4 <__multf3+0x3cc>  // b.any
    19c8:	d280480e 	mov	x14, #0x240                 	// #576
    19cc:	ea0e003f 	tst	x1, x14
    19d0:	54000ee1 	b.ne	1bac <__multf3+0x3b4>  // b.any
    19d4:	d280110c 	mov	x12, #0x88                  	// #136
    19d8:	ea0c003f 	tst	x1, x12
    19dc:	540000a0 	b.eq	19f0 <__multf3+0x1f8>  // b.none
    19e0:	aa0403e7 	mov	x7, x4
    19e4:	aa0603e5 	mov	x5, x6
    19e8:	aa0203f0 	mov	x16, x2
    19ec:	17ffffb7 	b	18c8 <__multf3+0xd0>
    19f0:	d360fcad 	lsr	x13, x5, #32
    19f4:	92407ccc 	and	x12, x6, #0xffffffff
    19f8:	92407caf 	and	x15, x5, #0xffffffff
    19fc:	d360fcc6 	lsr	x6, x6, #32
    1a00:	92407c92 	and	x18, x4, #0xffffffff
    1a04:	d360fc82 	lsr	x2, x4, #32
    1a08:	9b0c7da4 	mul	x4, x13, x12
    1a0c:	a9025bf5 	stp	x21, x22, [sp, #32]
    1a10:	d360fcf6 	lsr	x22, x7, #32
    1a14:	92407ce5 	and	x5, x7, #0xffffffff
    1a18:	9b0f7d90 	mul	x16, x12, x15
    1a1c:	9b0f10c7 	madd	x7, x6, x15, x4
    1a20:	a90153f3 	stp	x19, x20, [sp, #16]
    1a24:	9b127da1 	mul	x1, x13, x18
    1a28:	9b127df1 	mul	x17, x15, x18
    1a2c:	92407e1e 	and	x30, x16, #0xffffffff
    1a30:	9b0f044f 	madd	x15, x2, x15, x1
    1a34:	8b5080f0 	add	x16, x7, x16, lsr #32
    1a38:	9b0c7ed5 	mul	x21, x22, x12
    1a3c:	eb10009f 	cmp	x4, x16
    1a40:	9b127ed4 	mul	x20, x22, x18
    1a44:	d2c0002e 	mov	x14, #0x100000000           	// #4294967296
    1a48:	9b067db3 	mul	x19, x13, x6
    1a4c:	8b5181ef 	add	x15, x15, x17, lsr #32
    1a50:	9b057d8c 	mul	x12, x12, x5
    1a54:	92407e31 	and	x17, x17, #0xffffffff
    1a58:	9b127cb2 	mul	x18, x5, x18
    1a5c:	8b0e0264 	add	x4, x19, x14
    1a60:	9b0554c7 	madd	x7, x6, x5, x21
    1a64:	9a938093 	csel	x19, x4, x19, hi  // hi = pmore
    1a68:	9b055045 	madd	x5, x2, x5, x20
    1a6c:	eb0f003f 	cmp	x1, x15
    1a70:	9b027dad 	mul	x13, x13, x2
    1a74:	8b0f8231 	add	x17, x17, x15, lsl #32
    1a78:	9b167cc6 	mul	x6, x6, x22
    1a7c:	8b4c80e7 	add	x7, x7, x12, lsr #32
    1a80:	8b5280a5 	add	x5, x5, x18, lsr #32
    1a84:	8b0e01a4 	add	x4, x13, x14
    1a88:	9b167c42 	mul	x2, x2, x22
    1a8c:	9a8d808d 	csel	x13, x4, x13, hi  // hi = pmore
    1a90:	92407e41 	and	x1, x18, #0xffffffff
    1a94:	eb0702bf 	cmp	x21, x7
    1a98:	8b0e00c4 	add	x4, x6, x14
    1a9c:	8b1083de 	add	x30, x30, x16, lsl #32
    1aa0:	9a868086 	csel	x6, x4, x6, hi  // hi = pmore
    1aa4:	8b4f81ad 	add	x13, x13, x15, lsr #32
    1aa8:	eb05029f 	cmp	x20, x5
    1aac:	8b058021 	add	x1, x1, x5, lsl #32
    1ab0:	8b508230 	add	x16, x17, x16, lsr #32
    1ab4:	8b0e004e 	add	x14, x2, x14
    1ab8:	9a8281c2 	csel	x2, x14, x2, hi  // hi = pmore
    1abc:	8b100270 	add	x16, x19, x16
    1ac0:	ab0d0021 	adds	x1, x1, x13
    1ac4:	92407d8c 	and	x12, x12, #0xffffffff
    1ac8:	9a9f37ed 	cset	x13, cs  // cs = hs, nlast
    1acc:	eb11021f 	cmp	x16, x17
    1ad0:	9a9f27e4 	cset	x4, cc  // cc = lo, ul, last
    1ad4:	8b07818c 	add	x12, x12, x7, lsl #32
    1ad8:	ab040021 	adds	x1, x1, x4
    1adc:	d360fca5 	lsr	x5, x5, #32
    1ae0:	9a9f37e4 	cset	x4, cs  // cs = hs, nlast
    1ae4:	f10001bf 	cmp	x13, #0x0
    1ae8:	fa400880 	ccmp	x4, #0x0, #0x0, eq  // eq = none
    1aec:	8b4780c7 	add	x7, x6, x7, lsr #32
    1af0:	9a8504a5 	cinc	x5, x5, ne  // ne = any
    1af4:	ab0c0206 	adds	x6, x16, x12
    1af8:	9a9f37e4 	cset	x4, cs  // cs = hs, nlast
    1afc:	ab070021 	adds	x1, x1, x7
    1b00:	9a9f37e7 	cset	x7, cs  // cs = hs, nlast
    1b04:	ab040024 	adds	x4, x1, x4
    1b08:	9a9f37e1 	cset	x1, cs  // cs = hs, nlast
    1b0c:	f10000ff 	cmp	x7, #0x0
    1b10:	aa0637de 	orr	x30, x30, x6, lsl #13
    1b14:	fa400820 	ccmp	x1, #0x0, #0x0, eq  // eq = none
    1b18:	9a820441 	cinc	x1, x2, ne  // ne = any
    1b1c:	f10003df 	cmp	x30, #0x0
    1b20:	8b050021 	add	x1, x1, x5
    1b24:	9a9f07e2 	cset	x2, ne  // ne = any
    1b28:	aa46cc46 	orr	x6, x2, x6, lsr #51
    1b2c:	aa0434c6 	orr	x6, x6, x4, lsl #13
    1b30:	93c4cc24 	extr	x4, x1, x4, #51
    1b34:	b63818a1 	tbz	x1, #39, 1e48 <__multf3+0x650>
    1b38:	a94153f3 	ldp	x19, x20, [sp, #16]
    1b3c:	924000c1 	and	x1, x6, #0x1
    1b40:	a9425bf5 	ldp	x21, x22, [sp, #32]
    1b44:	aa460426 	orr	x6, x1, x6, lsr #1
    1b48:	aa04fcc6 	orr	x6, x6, x4, lsl #63
    1b4c:	d341fc84 	lsr	x4, x4, #1
    1b50:	d287ffe1 	mov	x1, #0x3fff                	// #16383
    1b54:	8b010062 	add	x2, x3, x1
    1b58:	f100005f 	cmp	x2, #0x0
    1b5c:	54000ccd 	b.le	1cf4 <__multf3+0x4fc>
    1b60:	f24008df 	tst	x6, #0x7
    1b64:	54000100 	b.eq	1b84 <__multf3+0x38c>  // b.none
    1b68:	926a0561 	and	x1, x11, #0xc00000
    1b6c:	321c0000 	orr	w0, w0, #0x10
    1b70:	f150003f 	cmp	x1, #0x400, lsl #12
    1b74:	54001e40 	b.eq	1f3c <__multf3+0x744>  // b.none
    1b78:	f160003f 	cmp	x1, #0x800, lsl #12
    1b7c:	54001b40 	b.eq	1ee4 <__multf3+0x6ec>  // b.none
    1b80:	b4001a61 	cbz	x1, 1ecc <__multf3+0x6d4>
    1b84:	b6a00064 	tbz	x4, #52, 1b90 <__multf3+0x398>
    1b88:	924bf884 	and	x4, x4, #0xffefffffffffffff
    1b8c:	91401062 	add	x2, x3, #0x4, lsl #12
    1b90:	d28fffc1 	mov	x1, #0x7ffe                	// #32766
    1b94:	eb01005f 	cmp	x2, x1
    1b98:	5400142c 	b.gt	1e1c <__multf3+0x624>
    1b9c:	12003841 	and	w1, w2, #0x7fff
    1ba0:	93c60c85 	extr	x5, x4, x6, #3
    1ba4:	d343c884 	ubfx	x4, x4, #3, #48
    1ba8:	17ffff70 	b	1968 <__multf3+0x170>
    1bac:	2a0c03e0 	mov	w0, w12
    1bb0:	5280000a 	mov	w10, #0x0                   	// #0
    1bb4:	92ffffe4 	mov	x4, #0xffffffffffff        	// #281474976710655
    1bb8:	92800005 	mov	x5, #0xffffffffffffffff    	// #-1
    1bbc:	528fffe1 	mov	w1, #0x7fff                	// #32767
    1bc0:	17ffff6a 	b	1968 <__multf3+0x170>
    1bc4:	2a0a03ef 	mov	w15, w10
    1bc8:	aa0803ed 	mov	x13, x8
    1bcc:	17ffff3f 	b	18c8 <__multf3+0xd0>
    1bd0:	aa0100e5 	orr	x5, x7, x1
    1bd4:	b4000845 	cbz	x5, 1cdc <__multf3+0x4e4>
    1bd8:	b4001107 	cbz	x7, 1df8 <__multf3+0x600>
    1bdc:	dac010e0 	clz	x0, x7
    1be0:	d1003c04 	sub	x4, x0, #0xf
    1be4:	11000c85 	add	w5, w4, #0x3
    1be8:	528007a3 	mov	w3, #0x3d                  	// #61
    1bec:	4b040063 	sub	w3, w3, w4
    1bf0:	9ac520e4 	lsl	x4, x7, x5
    1bf4:	9ac32423 	lsr	x3, x1, x3
    1bf8:	aa040067 	orr	x7, x3, x4
    1bfc:	9ac52025 	lsl	x5, x1, x5
    1c00:	d37ffc48 	lsr	x8, x2, #63
    1c04:	9287fdc3 	mov	x3, #0xffffffffffffc011    	// #-16367
    1c08:	d340bc44 	ubfx	x4, x2, #0, #48
    1c0c:	cb000063 	sub	x3, x3, x0
    1c10:	12001d0f 	and	w15, w8, #0xff
    1c14:	aa0803ed 	mov	x13, x8
    1c18:	d370f849 	ubfx	x9, x2, #48, #15
    1c1c:	d2800001 	mov	x1, #0x0                   	// #0
    1c20:	d2800010 	mov	x16, #0x0                   	// #0
    1c24:	52800000 	mov	w0, #0x0                   	// #0
    1c28:	35ffe269 	cbnz	w9, 1874 <__multf3+0x7c>
    1c2c:	d503201f 	nop
    1c30:	aa060082 	orr	x2, x4, x6
    1c34:	b4000382 	cbz	x2, 1ca4 <__multf3+0x4ac>
    1c38:	b4000ce4 	cbz	x4, 1dd4 <__multf3+0x5dc>
    1c3c:	dac01089 	clz	x9, x4
    1c40:	d1003d22 	sub	x2, x9, #0xf
    1c44:	11000c4a 	add	w10, w2, #0x3
    1c48:	528007a8 	mov	w8, #0x3d                  	// #61
    1c4c:	4b020108 	sub	w8, w8, w2
    1c50:	9aca2082 	lsl	x2, x4, x10
    1c54:	9ac824c8 	lsr	x8, x6, x8
    1c58:	aa020104 	orr	x4, x8, x2
    1c5c:	9aca20c6 	lsl	x6, x6, x10
    1c60:	cb090069 	sub	x9, x3, x9
    1c64:	9287fdca 	mov	x10, #0xffffffffffffc011    	// #-16367
    1c68:	d2800002 	mov	x2, #0x0                   	// #0
    1c6c:	8b0a0129 	add	x9, x9, x10
    1c70:	17ffff0c 	b	18a0 <__multf3+0xa8>
    1c74:	aa0100e5 	orr	x5, x7, x1
    1c78:	b5000225 	cbnz	x5, 1cbc <__multf3+0x4c4>
    1c7c:	d2800007 	mov	x7, #0x0                   	// #0
    1c80:	d2800101 	mov	x1, #0x8                   	// #8
    1c84:	d28fffe3 	mov	x3, #0x7fff                	// #32767
    1c88:	d2800050 	mov	x16, #0x2                   	// #2
    1c8c:	52800000 	mov	w0, #0x0                   	// #0
    1c90:	17fffef3 	b	185c <__multf3+0x64>
    1c94:	528fffe1 	mov	w1, #0x7fff                	// #32767
    1c98:	d2800004 	mov	x4, #0x0                   	// #0
    1c9c:	d2800005 	mov	x5, #0x0                   	// #0
    1ca0:	17ffff32 	b	1968 <__multf3+0x170>
    1ca4:	b2400021 	orr	x1, x1, #0x1
    1ca8:	aa0303e9 	mov	x9, x3
    1cac:	d2800004 	mov	x4, #0x0                   	// #0
    1cb0:	d2800006 	mov	x6, #0x0                   	// #0
    1cb4:	d2800022 	mov	x2, #0x1                   	// #1
    1cb8:	17fffefa 	b	18a0 <__multf3+0xa8>
    1cbc:	d36ffce0 	lsr	x0, x7, #47
    1cc0:	aa0103e5 	mov	x5, x1
    1cc4:	d2400000 	eor	x0, x0, #0x1
    1cc8:	d2800181 	mov	x1, #0xc                   	// #12
    1ccc:	12000000 	and	w0, w0, #0x1
    1cd0:	d28fffe3 	mov	x3, #0x7fff                	// #32767
    1cd4:	d2800070 	mov	x16, #0x3                   	// #3
    1cd8:	17fffee1 	b	185c <__multf3+0x64>
    1cdc:	d2800007 	mov	x7, #0x0                   	// #0
    1ce0:	d2800081 	mov	x1, #0x4                   	// #4
    1ce4:	d2800003 	mov	x3, #0x0                   	// #0
    1ce8:	d2800030 	mov	x16, #0x1                   	// #1
    1cec:	52800000 	mov	w0, #0x0                   	// #0
    1cf0:	17fffedb 	b	185c <__multf3+0x64>
    1cf4:	d2800021 	mov	x1, #0x1                   	// #1
    1cf8:	cb020022 	sub	x2, x1, x2
    1cfc:	f101d05f 	cmp	x2, #0x74
    1d00:	540003cc 	b.gt	1d78 <__multf3+0x580>
    1d04:	f100fc5f 	cmp	x2, #0x3f
    1d08:	54000a8d 	b.le	1e58 <__multf3+0x660>
    1d0c:	52801001 	mov	w1, #0x80                  	// #128
    1d10:	4b020021 	sub	w1, w1, w2
    1d14:	f101005f 	cmp	x2, #0x40
    1d18:	51010042 	sub	w2, w2, #0x40
    1d1c:	9ac12081 	lsl	x1, x4, x1
    1d20:	aa0100c1 	orr	x1, x6, x1
    1d24:	9a861026 	csel	x6, x1, x6, ne  // ne = any
    1d28:	9ac22482 	lsr	x2, x4, x2
    1d2c:	f10000df 	cmp	x6, #0x0
    1d30:	9a9f07e5 	cset	x5, ne  // ne = any
    1d34:	aa0200a5 	orr	x5, x5, x2
    1d38:	f24008a2 	ands	x2, x5, #0x7
    1d3c:	54000a80 	b.eq	1e8c <__multf3+0x694>  // b.none
    1d40:	d2800002 	mov	x2, #0x0                   	// #0
    1d44:	926a056b 	and	x11, x11, #0xc00000
    1d48:	321c0000 	orr	w0, w0, #0x10
    1d4c:	f150017f 	cmp	x11, #0x400, lsl #12
    1d50:	54001260 	b.eq	1f9c <__multf3+0x7a4>  // b.none
    1d54:	f160017f 	cmp	x11, #0x800, lsl #12
    1d58:	540012c0 	b.eq	1fb0 <__multf3+0x7b8>  // b.none
    1d5c:	b4000ccb 	cbz	x11, 1ef4 <__multf3+0x6fc>
    1d60:	b7980d62 	tbnz	x2, #51, 1f0c <__multf3+0x714>
    1d64:	d343c844 	ubfx	x4, x2, #3, #48
    1d68:	93c50c45 	extr	x5, x2, x5, #3
    1d6c:	321d0000 	orr	w0, w0, #0x8
    1d70:	52800001 	mov	w1, #0x0                   	// #0
    1d74:	1400000d 	b	1da8 <__multf3+0x5b0>
    1d78:	aa0400c5 	orr	x5, x6, x4
    1d7c:	b4000105 	cbz	x5, 1d9c <__multf3+0x5a4>
    1d80:	926a056b 	and	x11, x11, #0xc00000
    1d84:	321c0000 	orr	w0, w0, #0x10
    1d88:	f150017f 	cmp	x11, #0x400, lsl #12
    1d8c:	cb080025 	sub	x5, x1, x8
    1d90:	54000060 	b.eq	1d9c <__multf3+0x5a4>  // b.none
    1d94:	f160017f 	cmp	x11, #0x800, lsl #12
    1d98:	9a9f0105 	csel	x5, x8, xzr, eq  // eq = none
    1d9c:	321d0000 	orr	w0, w0, #0x8
    1da0:	52800001 	mov	w1, #0x0                   	// #0
    1da4:	d2800004 	mov	x4, #0x0                   	// #0
    1da8:	d2800003 	mov	x3, #0x0                   	// #0
    1dac:	9e6700a0 	fmov	d0, x5
    1db0:	b340bc83 	bfxil	x3, x4, #0, #48
    1db4:	b3503823 	bfi	x3, x1, #48, #15
    1db8:	b3410143 	bfi	x3, x10, #63, #1
    1dbc:	9eaf0060 	fmov	v0.d[1], x3
    1dc0:	3d800fe0 	str	q0, [sp, #48]
    1dc4:	940005ff 	bl	35c0 <__sfp_handle_exceptions>
    1dc8:	3dc00fe0 	ldr	q0, [sp, #48]
    1dcc:	a8c57bfd 	ldp	x29, x30, [sp], #80
    1dd0:	d65f03c0 	ret
    1dd4:	dac010c9 	clz	x9, x6
    1dd8:	9100c522 	add	x2, x9, #0x31
    1ddc:	91010129 	add	x9, x9, #0x40
    1de0:	f100f05f 	cmp	x2, #0x3c
    1de4:	54fff30d 	b.le	1c44 <__multf3+0x44c>
    1de8:	5100f442 	sub	w2, w2, #0x3d
    1dec:	9ac220c4 	lsl	x4, x6, x2
    1df0:	d2800006 	mov	x6, #0x0                   	// #0
    1df4:	17ffff9b 	b	1c60 <__multf3+0x468>
    1df8:	dac01023 	clz	x3, x1
    1dfc:	9100c464 	add	x4, x3, #0x31
    1e00:	91010060 	add	x0, x3, #0x40
    1e04:	f100f09f 	cmp	x4, #0x3c
    1e08:	54ffeeed 	b.le	1be4 <__multf3+0x3ec>
    1e0c:	5100f484 	sub	w4, w4, #0x3d
    1e10:	d2800005 	mov	x5, #0x0                   	// #0
    1e14:	9ac42027 	lsl	x7, x1, x4
    1e18:	17ffff7a 	b	1c00 <__multf3+0x408>
    1e1c:	926a0565 	and	x5, x11, #0xc00000
    1e20:	f15000bf 	cmp	x5, #0x400, lsl #12
    1e24:	540007e0 	b.eq	1f20 <__multf3+0x728>  // b.none
    1e28:	f16000bf 	cmp	x5, #0x800, lsl #12
    1e2c:	54000420 	b.eq	1eb0 <__multf3+0x6b8>  // b.none
    1e30:	b40003a5 	cbz	x5, 1ea4 <__multf3+0x6ac>
    1e34:	92ffffe4 	mov	x4, #0xffffffffffff        	// #281474976710655
    1e38:	92800005 	mov	x5, #0xffffffffffffffff    	// #-1
    1e3c:	52800282 	mov	w2, #0x14                  	// #20
    1e40:	2a020000 	orr	w0, w0, w2
    1e44:	17ffffd9 	b	1da8 <__multf3+0x5b0>
    1e48:	aa0903e3 	mov	x3, x9
    1e4c:	a94153f3 	ldp	x19, x20, [sp, #16]
    1e50:	a9425bf5 	ldp	x21, x22, [sp, #32]
    1e54:	17ffff3f 	b	1b50 <__multf3+0x358>
    1e58:	52800801 	mov	w1, #0x40                  	// #64
    1e5c:	4b020021 	sub	w1, w1, w2
    1e60:	9ac224c3 	lsr	x3, x6, x2
    1e64:	9ac120c6 	lsl	x6, x6, x1
    1e68:	f10000df 	cmp	x6, #0x0
    1e6c:	9ac12085 	lsl	x5, x4, x1
    1e70:	9a9f07e1 	cset	x1, ne  // ne = any
    1e74:	aa0300a5 	orr	x5, x5, x3
    1e78:	9ac22482 	lsr	x2, x4, x2
    1e7c:	aa0100a5 	orr	x5, x5, x1
    1e80:	f24008bf 	tst	x5, #0x7
    1e84:	54fff601 	b.ne	1d44 <__multf3+0x54c>  // b.any
    1e88:	b79809a2 	tbnz	x2, #51, 1fbc <__multf3+0x7c4>
    1e8c:	d343c844 	ubfx	x4, x2, #3, #48
    1e90:	93c50c45 	extr	x5, x2, x5, #3
    1e94:	52800001 	mov	w1, #0x0                   	// #0
    1e98:	365fd68b 	tbz	w11, #11, 1968 <__multf3+0x170>
    1e9c:	321d0000 	orr	w0, w0, #0x8
    1ea0:	17ffffc2 	b	1da8 <__multf3+0x5b0>
    1ea4:	528fffe1 	mov	w1, #0x7fff                	// #32767
    1ea8:	d2800004 	mov	x4, #0x0                   	// #0
    1eac:	17ffffe4 	b	1e3c <__multf3+0x644>
    1eb0:	f100011f 	cmp	x8, #0x0
    1eb4:	528fffe2 	mov	w2, #0x7fff                	// #32767
    1eb8:	92ffffe4 	mov	x4, #0xffffffffffff        	// #281474976710655
    1ebc:	1a820021 	csel	w1, w1, w2, eq  // eq = none
    1ec0:	9a9f0084 	csel	x4, x4, xzr, eq  // eq = none
    1ec4:	da9f13e5 	csetm	x5, eq  // eq = none
    1ec8:	17ffffdd 	b	1e3c <__multf3+0x644>
    1ecc:	92400cc1 	and	x1, x6, #0xf
    1ed0:	f100103f 	cmp	x1, #0x4
    1ed4:	54ffe580 	b.eq	1b84 <__multf3+0x38c>  // b.none
    1ed8:	b10010c6 	adds	x6, x6, #0x4
    1edc:	9a843484 	cinc	x4, x4, cs  // cs = hs, nlast
    1ee0:	17ffff29 	b	1b84 <__multf3+0x38c>
    1ee4:	b4ffe508 	cbz	x8, 1b84 <__multf3+0x38c>
    1ee8:	b10020c6 	adds	x6, x6, #0x8
    1eec:	9a843484 	cinc	x4, x4, cs  // cs = hs, nlast
    1ef0:	17ffff25 	b	1b84 <__multf3+0x38c>
    1ef4:	92400ca1 	and	x1, x5, #0xf
    1ef8:	f100103f 	cmp	x1, #0x4
    1efc:	54000060 	b.eq	1f08 <__multf3+0x710>  // b.none
    1f00:	b10010a5 	adds	x5, x5, #0x4
    1f04:	9a823442 	cinc	x2, x2, cs  // cs = hs, nlast
    1f08:	b69ff2e2 	tbz	x2, #51, 1d64 <__multf3+0x56c>
    1f0c:	321d0000 	orr	w0, w0, #0x8
    1f10:	52800021 	mov	w1, #0x1                   	// #1
    1f14:	d2800004 	mov	x4, #0x0                   	// #0
    1f18:	d2800005 	mov	x5, #0x0                   	// #0
    1f1c:	17ffffa3 	b	1da8 <__multf3+0x5b0>
    1f20:	f100011f 	cmp	x8, #0x0
    1f24:	528fffe2 	mov	w2, #0x7fff                	// #32767
    1f28:	92ffffe4 	mov	x4, #0xffffffffffff        	// #281474976710655
    1f2c:	1a821021 	csel	w1, w1, w2, ne  // ne = any
    1f30:	9a9f1084 	csel	x4, x4, xzr, ne  // ne = any
    1f34:	da9f03e5 	csetm	x5, ne  // ne = any
    1f38:	17ffffc1 	b	1e3c <__multf3+0x644>
    1f3c:	b5ffe248 	cbnz	x8, 1b84 <__multf3+0x38c>
    1f40:	17ffffea 	b	1ee8 <__multf3+0x6f0>
    1f44:	d2800044 	mov	x4, #0x2                   	// #2
    1f48:	f1003c3f 	cmp	x1, #0xf
    1f4c:	54000121 	b.ne	1f70 <__multf3+0x778>  // b.any
    1f50:	b67801c7 	tbz	x7, #47, 1f88 <__multf3+0x790>
    1f54:	b77801a2 	tbnz	x2, #47, 1f88 <__multf3+0x790>
    1f58:	b2510044 	orr	x4, x2, #0x800000000000
    1f5c:	2a0f03ea 	mov	w10, w15
    1f60:	9240bc84 	and	x4, x4, #0xffffffffffff
    1f64:	aa0603e5 	mov	x5, x6
    1f68:	528fffe1 	mov	w1, #0x7fff                	// #32767
    1f6c:	17fffe7f 	b	1968 <__multf3+0x170>
    1f70:	f1002c3f 	cmp	x1, #0xb
    1f74:	54ffca61 	b.ne	18c0 <__multf3+0xc8>  // b.any
    1f78:	aa0203e7 	mov	x7, x2
    1f7c:	aa0603e5 	mov	x5, x6
    1f80:	aa0403f0 	mov	x16, x4
    1f84:	17fffe51 	b	18c8 <__multf3+0xd0>
    1f88:	b25100e4 	orr	x4, x7, #0x800000000000
    1f8c:	2a0c03ea 	mov	w10, w12
    1f90:	9240bc84 	and	x4, x4, #0xffffffffffff
    1f94:	528fffe1 	mov	w1, #0x7fff                	// #32767
    1f98:	17fffe74 	b	1968 <__multf3+0x170>
    1f9c:	b5fffb68 	cbnz	x8, 1f08 <__multf3+0x710>
    1fa0:	b10020a5 	adds	x5, x5, #0x8
    1fa4:	9a823442 	cinc	x2, x2, cs  // cs = hs, nlast
    1fa8:	b79ffb22 	tbnz	x2, #51, 1f0c <__multf3+0x714>
    1fac:	17ffff6e 	b	1d64 <__multf3+0x56c>
    1fb0:	b5ffff88 	cbnz	x8, 1fa0 <__multf3+0x7a8>
    1fb4:	b79ffac2 	tbnz	x2, #51, 1f0c <__multf3+0x714>
    1fb8:	17ffff6b 	b	1d64 <__multf3+0x56c>
    1fbc:	321c0000 	orr	w0, w0, #0x10
    1fc0:	17ffffd3 	b	1f0c <__multf3+0x714>
    1fc4:	aa0403e2 	mov	x2, x4
    1fc8:	d2800064 	mov	x4, #0x3                   	// #3
    1fcc:	17ffffdf 	b	1f48 <__multf3+0x750>
    1fd0:	2a0f03ea 	mov	w10, w15
    1fd4:	aa0d03e8 	mov	x8, x13
    1fd8:	17fffe43 	b	18e4 <__multf3+0xec>
    1fdc:	00000000 	.inst	0x00000000 ; undefined

0000000000001fe0 <__subtf3>:
    1fe0:	a9bd7bfd 	stp	x29, x30, [sp, #-48]!
    1fe4:	910003fd 	mov	x29, sp
    1fe8:	3d8007e0 	str	q0, [sp, #16]
    1fec:	3d800be1 	str	q1, [sp, #32]
    1ff0:	a94107e5 	ldp	x5, x1, [sp, #16]
    1ff4:	a9420be0 	ldp	x0, x2, [sp, #32]
    1ff8:	d53b440c 	mrs	x12, fpcr
    1ffc:	aa0003e9 	mov	x9, x0
    2000:	d370f840 	ubfx	x0, x2, #48, #15
    2004:	d37ffc26 	lsr	x6, x1, #63
    2008:	d370f827 	ubfx	x7, x1, #48, #15
    200c:	d37dbc23 	ubfiz	x3, x1, #3, #48
    2010:	aa0003ed 	mov	x13, x0
    2014:	d37ffc44 	lsr	x4, x2, #63
    2018:	d37dbc42 	ubfiz	x2, x2, #3, #48
    201c:	aa0603eb 	mov	x11, x6
    2020:	12001cc8 	and	w8, w6, #0xff
    2024:	aa0603ee 	mov	x14, x6
    2028:	4b0000e0 	sub	w0, w7, w0
    202c:	aa0703e1 	mov	x1, x7
    2030:	aa45f463 	orr	x3, x3, x5, lsr #61
    2034:	d28fffe7 	mov	x7, #0x7fff                	// #32767
    2038:	12001c84 	and	w4, w4, #0xff
    203c:	eb0701bf 	cmp	x13, x7
    2040:	aa49f442 	orr	x2, x2, x9, lsr #61
    2044:	d37df0a6 	lsl	x6, x5, #3
    2048:	d37df12a 	lsl	x10, x9, #3
    204c:	54000b80 	b.eq	21bc <__subtf3+0x1dc>  // b.none
    2050:	52000084 	eor	w4, w4, #0x1
    2054:	92401c84 	and	x4, x4, #0xff
    2058:	eb04017f 	cmp	x11, x4
    205c:	54000fc0 	b.eq	2254 <__subtf3+0x274>  // b.none
    2060:	7100001f 	cmp	w0, #0x0
    2064:	54000bad 	b.le	21d8 <__subtf3+0x1f8>
    2068:	b50016ed 	cbnz	x13, 2344 <__subtf3+0x364>
    206c:	aa0a0044 	orr	x4, x2, x10
    2070:	b40025a4 	cbz	x4, 2524 <__subtf3+0x544>
    2074:	71000400 	subs	w0, w0, #0x1
    2078:	54003c00 	b.eq	27f8 <__subtf3+0x818>  // b.none
    207c:	d28fffe4 	mov	x4, #0x7fff                	// #32767
    2080:	eb04003f 	cmp	x1, x4
    2084:	540023a0 	b.eq	24f8 <__subtf3+0x518>  // b.none
    2088:	7101d01f 	cmp	w0, #0x74
    208c:	5400244c 	b.gt	2514 <__subtf3+0x534>
    2090:	7100fc1f 	cmp	w0, #0x3f
    2094:	5400314c 	b.gt	26bc <__subtf3+0x6dc>
    2098:	52800804 	mov	w4, #0x40                  	// #64
    209c:	4b000084 	sub	w4, w4, w0
    20a0:	9ac02547 	lsr	x7, x10, x0
    20a4:	9ac4214a 	lsl	x10, x10, x4
    20a8:	f100015f 	cmp	x10, #0x0
    20ac:	9ac42044 	lsl	x4, x2, x4
    20b0:	9a9f07e5 	cset	x5, ne  // ne = any
    20b4:	aa070084 	orr	x4, x4, x7
    20b8:	9ac02442 	lsr	x2, x2, x0
    20bc:	aa050084 	orr	x4, x4, x5
    20c0:	cb020063 	sub	x3, x3, x2
    20c4:	eb0400c6 	subs	x6, x6, x4
    20c8:	da1f0063 	sbc	x3, x3, xzr
    20cc:	9240c865 	and	x5, x3, #0x7ffffffffffff
    20d0:	b6981003 	tbz	x3, #51, 22d0 <__subtf3+0x2f0>
    20d4:	b4002045 	cbz	x5, 24dc <__subtf3+0x4fc>
    20d8:	dac010a0 	clz	x0, x5
    20dc:	51003000 	sub	w0, w0, #0xc
    20e0:	4b0003e3 	neg	w3, w0
    20e4:	9ac020a2 	lsl	x2, x5, x0
    20e8:	9ac020c5 	lsl	x5, x6, x0
    20ec:	9ac324c6 	lsr	x6, x6, x3
    20f0:	aa0200c3 	orr	x3, x6, x2
    20f4:	eb20c03f 	cmp	x1, w0, sxtw
    20f8:	93407c02 	sxtw	x2, w0
    20fc:	54001e0c 	b.gt	24bc <__subtf3+0x4dc>
    2100:	4b010001 	sub	w1, w0, w1
    2104:	11000420 	add	w0, w1, #0x1
    2108:	7100fc1f 	cmp	w0, #0x3f
    210c:	54002bcc 	b.gt	2684 <__subtf3+0x6a4>
    2110:	52800801 	mov	w1, #0x40                  	// #64
    2114:	4b000021 	sub	w1, w1, w0
    2118:	9ac024a2 	lsr	x2, x5, x0
    211c:	9ac120a5 	lsl	x5, x5, x1
    2120:	f10000bf 	cmp	x5, #0x0
    2124:	9ac12066 	lsl	x6, x3, x1
    2128:	9a9f07e1 	cset	x1, ne  // ne = any
    212c:	aa0200c6 	orr	x6, x6, x2
    2130:	9ac02463 	lsr	x3, x3, x0
    2134:	aa0100c6 	orr	x6, x6, x1
    2138:	aa0300c7 	orr	x7, x6, x3
    213c:	b4000d47 	cbz	x7, 22e4 <__subtf3+0x304>
    2140:	924008c0 	and	x0, x6, #0x7
    2144:	d2800001 	mov	x1, #0x0                   	// #0
    2148:	52800024 	mov	w4, #0x1                   	// #1
    214c:	b4001fe0 	cbz	x0, 2548 <__subtf3+0x568>
    2150:	926a0582 	and	x2, x12, #0xc00000
    2154:	f150005f 	cmp	x2, #0x400, lsl #12
    2158:	540019e0 	b.eq	2494 <__subtf3+0x4b4>  // b.none
    215c:	f160005f 	cmp	x2, #0x800, lsl #12
    2160:	540018a0 	b.eq	2474 <__subtf3+0x494>  // b.none
    2164:	b40019e2 	cbz	x2, 24a0 <__subtf3+0x4c0>
    2168:	924d0062 	and	x2, x3, #0x8000000000000
    216c:	52800200 	mov	w0, #0x10                  	// #16
    2170:	34000044 	cbz	w4, 2178 <__subtf3+0x198>
    2174:	321d0000 	orr	w0, w0, #0x8
    2178:	b4000582 	cbz	x2, 2228 <__subtf3+0x248>
    217c:	91000421 	add	x1, x1, #0x1
    2180:	d28fffe2 	mov	x2, #0x7fff                	// #32767
    2184:	eb02003f 	cmp	x1, x2
    2188:	540010a0 	b.eq	239c <__subtf3+0x3bc>  // b.none
    218c:	d343c867 	ubfx	x7, x3, #3, #48
    2190:	93c60c65 	extr	x5, x3, x6, #3
    2194:	12003821 	and	w1, w1, #0x7fff
    2198:	d2800003 	mov	x3, #0x0                   	// #0
    219c:	2a083c21 	orr	w1, w1, w8, lsl #15
    21a0:	b340bce3 	bfxil	x3, x7, #0, #48
    21a4:	9e6700a0 	fmov	d0, x5
    21a8:	b3503c23 	bfi	x3, x1, #48, #16
    21ac:	9eaf0060 	fmov	v0.d[1], x3
    21b0:	35001240 	cbnz	w0, 23f8 <__subtf3+0x418>
    21b4:	a8c37bfd 	ldp	x29, x30, [sp], #48
    21b8:	d65f03c0 	ret
    21bc:	aa0a0047 	orr	x7, x2, x10
    21c0:	b4fff487 	cbz	x7, 2050 <__subtf3+0x70>
    21c4:	92401c84 	and	x4, x4, #0xff
    21c8:	eb04017f 	cmp	x11, x4
    21cc:	54001200 	b.eq	240c <__subtf3+0x42c>  // b.none
    21d0:	7100001f 	cmp	w0, #0x0
    21d4:	54000b8c 	b.gt	2344 <__subtf3+0x364>
    21d8:	34000920 	cbz	w0, 22fc <__subtf3+0x31c>
    21dc:	2a0403e8 	mov	w8, w4
    21e0:	b50021c1 	cbnz	x1, 2618 <__subtf3+0x638>
    21e4:	aa060061 	orr	x1, x3, x6
    21e8:	b4000641 	cbz	x1, 22b0 <__subtf3+0x2d0>
    21ec:	3100041f 	cmn	w0, #0x1
    21f0:	54003b40 	b.eq	2958 <__subtf3+0x978>  // b.none
    21f4:	d28fffe1 	mov	x1, #0x7fff                	// #32767
    21f8:	2a2003e0 	mvn	w0, w0
    21fc:	eb0101bf 	cmp	x13, x1
    2200:	54002161 	b.ne	262c <__subtf3+0x64c>  // b.any
    2204:	aa0a0040 	orr	x0, x2, x10
    2208:	92401d0b 	and	x11, x8, #0xff
    220c:	b4001c20 	cbz	x0, 2590 <__subtf3+0x5b0>
    2210:	d372fc40 	lsr	x0, x2, #50
    2214:	aa0a03e6 	mov	x6, x10
    2218:	d2400000 	eor	x0, x0, #0x1
    221c:	aa0203e3 	mov	x3, x2
    2220:	12000000 	and	w0, w0, #0x1
    2224:	d28fffe1 	mov	x1, #0x7fff                	// #32767
    2228:	d28fffe2 	mov	x2, #0x7fff                	// #32767
    222c:	93c60c65 	extr	x5, x3, x6, #3
    2230:	d343fc67 	lsr	x7, x3, #3
    2234:	eb02003f 	cmp	x1, x2
    2238:	540005c1 	b.ne	22f0 <__subtf3+0x310>  // b.any
    223c:	aa0500e1 	orr	x1, x7, x5
    2240:	b4004361 	cbz	x1, 2aac <__subtf3+0xacc>
    2244:	b25100e7 	orr	x7, x7, #0x800000000000
    2248:	528fffe1 	mov	w1, #0x7fff                	// #32767
    224c:	9240bce7 	and	x7, x7, #0xffffffffffff
    2250:	17ffffd2 	b	2198 <__subtf3+0x1b8>
    2254:	7100001f 	cmp	w0, #0x0
    2258:	54000dad 	b.le	240c <__subtf3+0x42c>
    225c:	b400078d 	cbz	x13, 234c <__subtf3+0x36c>
    2260:	b24d0042 	orr	x2, x2, #0x8000000000000
    2264:	d28fffe4 	mov	x4, #0x7fff                	// #32767
    2268:	eb04003f 	cmp	x1, x4
    226c:	54001460 	b.eq	24f8 <__subtf3+0x518>  // b.none
    2270:	7101d01f 	cmp	w0, #0x74
    2274:	54001fcc 	b.gt	266c <__subtf3+0x68c>
    2278:	7100fc1f 	cmp	w0, #0x3f
    227c:	5400246c 	b.gt	2708 <__subtf3+0x728>
    2280:	52800804 	mov	w4, #0x40                  	// #64
    2284:	4b000084 	sub	w4, w4, w0
    2288:	9ac02547 	lsr	x7, x10, x0
    228c:	9ac4214a 	lsl	x10, x10, x4
    2290:	f100015f 	cmp	x10, #0x0
    2294:	9ac42044 	lsl	x4, x2, x4
    2298:	9a9f07e5 	cset	x5, ne  // ne = any
    229c:	aa070084 	orr	x4, x4, x7
    22a0:	9ac02442 	lsr	x2, x2, x0
    22a4:	aa050080 	orr	x0, x4, x5
    22a8:	8b020063 	add	x3, x3, x2
    22ac:	140000f3 	b	2678 <__subtf3+0x698>
    22b0:	d28fffe0 	mov	x0, #0x7fff                	// #32767
    22b4:	eb0001bf 	cmp	x13, x0
    22b8:	54003160 	b.eq	28e4 <__subtf3+0x904>  // b.none
    22bc:	aa0203e3 	mov	x3, x2
    22c0:	aa0a03e6 	mov	x6, x10
    22c4:	aa0d03e1 	mov	x1, x13
    22c8:	aa0403ee 	mov	x14, x4
    22cc:	d503201f 	nop
    22d0:	aa0300c7 	orr	x7, x6, x3
    22d4:	924008c0 	and	x0, x6, #0x7
    22d8:	52800004 	mov	w4, #0x0                   	// #0
    22dc:	b5fff381 	cbnz	x1, 214c <__subtf3+0x16c>
    22e0:	b5fff307 	cbnz	x7, 2140 <__subtf3+0x160>
    22e4:	d2800005 	mov	x5, #0x0                   	// #0
    22e8:	d2800001 	mov	x1, #0x0                   	// #0
    22ec:	52800000 	mov	w0, #0x0                   	// #0
    22f0:	9240bce7 	and	x7, x7, #0xffffffffffff
    22f4:	12003821 	and	w1, w1, #0x7fff
    22f8:	17ffffa8 	b	2198 <__subtf3+0x1b8>
    22fc:	91000427 	add	x7, x1, #0x1
    2300:	f27f34ff 	tst	x7, #0x7ffe
    2304:	54001721 	b.ne	25e8 <__subtf3+0x608>  // b.any
    2308:	aa06006b 	orr	x11, x3, x6
    230c:	aa0a0047 	orr	x7, x2, x10
    2310:	b5002341 	cbnz	x1, 2778 <__subtf3+0x798>
    2314:	b400278b 	cbz	x11, 2804 <__subtf3+0x824>
    2318:	b4002807 	cbz	x7, 2818 <__subtf3+0x838>
    231c:	eb0a00c9 	subs	x9, x6, x10
    2320:	eb0a00df 	cmp	x6, x10
    2324:	da020065 	sbc	x5, x3, x2
    2328:	b69834c5 	tbz	x5, #51, 29c0 <__subtf3+0x9e0>
    232c:	eb060146 	subs	x6, x10, x6
    2330:	2a0403e8 	mov	w8, w4
    2334:	da030043 	sbc	x3, x2, x3
    2338:	aa0403ee 	mov	x14, x4
    233c:	aa0300c7 	orr	x7, x6, x3
    2340:	17ffff7f 	b	213c <__subtf3+0x15c>
    2344:	b24d0042 	orr	x2, x2, #0x8000000000000
    2348:	17ffff4d 	b	207c <__subtf3+0x9c>
    234c:	aa0a0044 	orr	x4, x2, x10
    2350:	b4000ea4 	cbz	x4, 2524 <__subtf3+0x544>
    2354:	71000400 	subs	w0, w0, #0x1
    2358:	54fff861 	b.ne	2264 <__subtf3+0x284>  // b.any
    235c:	ab0a00c6 	adds	x6, x6, x10
    2360:	9a030043 	adc	x3, x2, x3
    2364:	d503201f 	nop
    2368:	b69ffb43 	tbz	x3, #51, 22d0 <__subtf3+0x2f0>
    236c:	91000421 	add	x1, x1, #0x1
    2370:	d28fffe0 	mov	x0, #0x7fff                	// #32767
    2374:	eb00003f 	cmp	x1, x0
    2378:	54002560 	b.eq	2824 <__subtf3+0x844>  // b.none
    237c:	924000c0 	and	x0, x6, #0x1
    2380:	924cf862 	and	x2, x3, #0xfff7ffffffffffff
    2384:	aa460406 	orr	x6, x0, x6, lsr #1
    2388:	52800004 	mov	w4, #0x0                   	// #0
    238c:	aa03fcc6 	orr	x6, x6, x3, lsl #63
    2390:	d341fc43 	lsr	x3, x2, #1
    2394:	924008c0 	and	x0, x6, #0x7
    2398:	17ffff6d 	b	214c <__subtf3+0x16c>
    239c:	926a0582 	and	x2, x12, #0xc00000
    23a0:	b40001c2 	cbz	x2, 23d8 <__subtf3+0x3f8>
    23a4:	f150005f 	cmp	x2, #0x400, lsl #12
    23a8:	54000160 	b.eq	23d4 <__subtf3+0x3f4>  // b.none
    23ac:	f160005f 	cmp	x2, #0x800, lsl #12
    23b0:	120001ce 	and	w14, w14, #0x1
    23b4:	1a9f01ce 	csel	w14, w14, wzr, eq  // eq = none
    23b8:	3500010e 	cbnz	w14, 23d8 <__subtf3+0x3f8>
    23bc:	52800281 	mov	w1, #0x14                  	// #20
    23c0:	92800005 	mov	x5, #0xffffffffffffffff    	// #-1
    23c4:	2a010000 	orr	w0, w0, w1
    23c8:	92fc0007 	mov	x7, #0x1fffffffffffffff    	// #2305843009213693951
    23cc:	d28fffc1 	mov	x1, #0x7ffe                	// #32766
    23d0:	17ffffc8 	b	22f0 <__subtf3+0x310>
    23d4:	b5ffff4e 	cbnz	x14, 23bc <__subtf3+0x3dc>
    23d8:	52800281 	mov	w1, #0x14                  	// #20
    23dc:	92401d0b 	and	x11, x8, #0xff
    23e0:	2a010000 	orr	w0, w0, w1
    23e4:	d2800002 	mov	x2, #0x0                   	// #0
    23e8:	9e670040 	fmov	d0, x2
    23ec:	d341016b 	lsl	x11, x11, #63
    23f0:	b2503963 	orr	x3, x11, #0x7fff000000000000
    23f4:	9eaf0060 	fmov	v0.d[1], x3
    23f8:	3d8007e0 	str	q0, [sp, #16]
    23fc:	94000471 	bl	35c0 <__sfp_handle_exceptions>
    2400:	3dc007e0 	ldr	q0, [sp, #16]
    2404:	a8c37bfd 	ldp	x29, x30, [sp], #48
    2408:	d65f03c0 	ret
    240c:	34000ce0 	cbz	w0, 25a8 <__subtf3+0x5c8>
    2410:	b4000aa1 	cbz	x1, 2564 <__subtf3+0x584>
    2414:	d28fffe1 	mov	x1, #0x7fff                	// #32767
    2418:	4b0003e0 	neg	w0, w0
    241c:	b24d0063 	orr	x3, x3, #0x8000000000000
    2420:	eb0101bf 	cmp	x13, x1
    2424:	54000b00 	b.eq	2584 <__subtf3+0x5a4>  // b.none
    2428:	7101d01f 	cmp	w0, #0x74
    242c:	5400226c 	b.gt	2878 <__subtf3+0x898>
    2430:	7100fc1f 	cmp	w0, #0x3f
    2434:	540027cc 	b.gt	292c <__subtf3+0x94c>
    2438:	52800801 	mov	w1, #0x40                  	// #64
    243c:	4b000021 	sub	w1, w1, w0
    2440:	9ac024c4 	lsr	x4, x6, x0
    2444:	9ac120c6 	lsl	x6, x6, x1
    2448:	f10000df 	cmp	x6, #0x0
    244c:	9ac12066 	lsl	x6, x3, x1
    2450:	9a9f07e1 	cset	x1, ne  // ne = any
    2454:	aa0400c6 	orr	x6, x6, x4
    2458:	9ac02460 	lsr	x0, x3, x0
    245c:	aa0100c6 	orr	x6, x6, x1
    2460:	8b000042 	add	x2, x2, x0
    2464:	ab0a00c6 	adds	x6, x6, x10
    2468:	aa0d03e1 	mov	x1, x13
    246c:	9a823443 	cinc	x3, x2, cs  // cs = hs, nlast
    2470:	17ffffbe 	b	2368 <__subtf3+0x388>
    2474:	52800200 	mov	w0, #0x10                  	// #16
    2478:	b400006e 	cbz	x14, 2484 <__subtf3+0x4a4>
    247c:	b10020c6 	adds	x6, x6, #0x8
    2480:	9a833463 	cinc	x3, x3, cs  // cs = hs, nlast
    2484:	924d0062 	and	x2, x3, #0x8000000000000
    2488:	34ffe784 	cbz	w4, 2178 <__subtf3+0x198>
    248c:	321d0000 	orr	w0, w0, #0x8
    2490:	17ffff3a 	b	2178 <__subtf3+0x198>
    2494:	52800200 	mov	w0, #0x10                  	// #16
    2498:	b5ffff6e 	cbnz	x14, 2484 <__subtf3+0x4a4>
    249c:	17fffff8 	b	247c <__subtf3+0x49c>
    24a0:	92400cc2 	and	x2, x6, #0xf
    24a4:	52800200 	mov	w0, #0x10                  	// #16
    24a8:	f100105f 	cmp	x2, #0x4
    24ac:	54fffec0 	b.eq	2484 <__subtf3+0x4a4>  // b.none
    24b0:	b10010c6 	adds	x6, x6, #0x4
    24b4:	9a833463 	cinc	x3, x3, cs  // cs = hs, nlast
    24b8:	17fffff3 	b	2484 <__subtf3+0x4a4>
    24bc:	aa0503e6 	mov	x6, x5
    24c0:	924cf863 	and	x3, x3, #0xfff7ffffffffffff
    24c4:	cb020021 	sub	x1, x1, x2
    24c8:	aa0300c7 	orr	x7, x6, x3
    24cc:	924008c0 	and	x0, x6, #0x7
    24d0:	52800004 	mov	w4, #0x0                   	// #0
    24d4:	b4fff061 	cbz	x1, 22e0 <__subtf3+0x300>
    24d8:	17ffff1d 	b	214c <__subtf3+0x16c>
    24dc:	dac010c3 	clz	x3, x6
    24e0:	1100d060 	add	w0, w3, #0x34
    24e4:	7100fc1f 	cmp	w0, #0x3f
    24e8:	54ffdfcd 	b.le	20e0 <__subtf3+0x100>
    24ec:	51003063 	sub	w3, w3, #0xc
    24f0:	9ac320c3 	lsl	x3, x6, x3
    24f4:	17ffff00 	b	20f4 <__subtf3+0x114>
    24f8:	aa060060 	orr	x0, x3, x6
    24fc:	b40004a0 	cbz	x0, 2590 <__subtf3+0x5b0>
    2500:	d372fc60 	lsr	x0, x3, #50
    2504:	d28fffe1 	mov	x1, #0x7fff                	// #32767
    2508:	d2400000 	eor	x0, x0, #0x1
    250c:	12000000 	and	w0, w0, #0x1
    2510:	17ffff46 	b	2228 <__subtf3+0x248>
    2514:	aa0a0042 	orr	x2, x2, x10
    2518:	f100005f 	cmp	x2, #0x0
    251c:	9a9f07e4 	cset	x4, ne  // ne = any
    2520:	17fffee9 	b	20c4 <__subtf3+0xe4>
    2524:	d28fffe0 	mov	x0, #0x7fff                	// #32767
    2528:	eb00003f 	cmp	x1, x0
    252c:	54ffed21 	b.ne	22d0 <__subtf3+0x2f0>  // b.any
    2530:	aa060060 	orr	x0, x3, x6
    2534:	b5fffe60 	cbnz	x0, 2500 <__subtf3+0x520>
    2538:	d2800005 	mov	x5, #0x0                   	// #0
    253c:	d2800007 	mov	x7, #0x0                   	// #0
    2540:	52800000 	mov	w0, #0x0                   	// #0
    2544:	17ffff3e 	b	223c <__subtf3+0x25c>
    2548:	924d0062 	and	x2, x3, #0x8000000000000
    254c:	52800000 	mov	w0, #0x0                   	// #0
    2550:	34ffe144 	cbz	w4, 2178 <__subtf3+0x198>
    2554:	52800000 	mov	w0, #0x0                   	// #0
    2558:	365fe10c 	tbz	w12, #11, 2178 <__subtf3+0x198>
    255c:	321d0000 	orr	w0, w0, #0x8
    2560:	17ffff06 	b	2178 <__subtf3+0x198>
    2564:	aa060061 	orr	x1, x3, x6
    2568:	b4001c41 	cbz	x1, 28f0 <__subtf3+0x910>
    256c:	3100041f 	cmn	w0, #0x1
    2570:	54002680 	b.eq	2a40 <__subtf3+0xa60>  // b.none
    2574:	d28fffe1 	mov	x1, #0x7fff                	// #32767
    2578:	2a2003e0 	mvn	w0, w0
    257c:	eb0101bf 	cmp	x13, x1
    2580:	54fff541 	b.ne	2428 <__subtf3+0x448>  // b.any
    2584:	aa0a0040 	orr	x0, x2, x10
    2588:	b5ffe440 	cbnz	x0, 2210 <__subtf3+0x230>
    258c:	d503201f 	nop
    2590:	d2800002 	mov	x2, #0x0                   	// #0
    2594:	9e670040 	fmov	d0, x2
    2598:	d3410160 	lsl	x0, x11, #63
    259c:	b2503803 	orr	x3, x0, #0x7fff000000000000
    25a0:	9eaf0060 	fmov	v0.d[1], x3
    25a4:	17ffff04 	b	21b4 <__subtf3+0x1d4>
    25a8:	91000427 	add	x7, x1, #0x1
    25ac:	f27f34ff 	tst	x7, #0x7ffe
    25b0:	54000c21 	b.ne	2734 <__subtf3+0x754>  // b.any
    25b4:	aa06006b 	orr	x11, x3, x6
    25b8:	b5001821 	cbnz	x1, 28bc <__subtf3+0x8dc>
    25bc:	aa0a0047 	orr	x7, x2, x10
    25c0:	b4001b0b 	cbz	x11, 2920 <__subtf3+0x940>
    25c4:	b40012a7 	cbz	x7, 2818 <__subtf3+0x838>
    25c8:	ab0a00c6 	adds	x6, x6, x10
    25cc:	9a030043 	adc	x3, x2, x3
    25d0:	b69fdb43 	tbz	x3, #51, 2138 <__subtf3+0x158>
    25d4:	924cf863 	and	x3, x3, #0xfff7ffffffffffff
    25d8:	924008c0 	and	x0, x6, #0x7
    25dc:	52800004 	mov	w4, #0x0                   	// #0
    25e0:	d2800021 	mov	x1, #0x1                   	// #1
    25e4:	17fffeda 	b	214c <__subtf3+0x16c>
    25e8:	eb0a00c9 	subs	x9, x6, x10
    25ec:	eb0a00df 	cmp	x6, x10
    25f0:	da020065 	sbc	x5, x3, x2
    25f4:	b7980b65 	tbnz	x5, #51, 2760 <__subtf3+0x780>
    25f8:	aa050127 	orr	x7, x9, x5
    25fc:	b50013a7 	cbnz	x7, 2870 <__subtf3+0x890>
    2600:	926a058c 	and	x12, x12, #0xc00000
    2604:	d2800005 	mov	x5, #0x0                   	// #0
    2608:	f160019f 	cmp	x12, #0x800, lsl #12
    260c:	d2800001 	mov	x1, #0x0                   	// #0
    2610:	1a9f17e8 	cset	w8, eq  // eq = none
    2614:	17ffff37 	b	22f0 <__subtf3+0x310>
    2618:	d28fffe1 	mov	x1, #0x7fff                	// #32767
    261c:	4b0003e0 	neg	w0, w0
    2620:	b24d0063 	orr	x3, x3, #0x8000000000000
    2624:	eb0101bf 	cmp	x13, x1
    2628:	54ffdee0 	b.eq	2204 <__subtf3+0x224>  // b.none
    262c:	7101d01f 	cmp	w0, #0x74
    2630:	540005cc 	b.gt	26e8 <__subtf3+0x708>
    2634:	7100fc1f 	cmp	w0, #0x3f
    2638:	5400128c 	b.gt	2888 <__subtf3+0x8a8>
    263c:	52800801 	mov	w1, #0x40                  	// #64
    2640:	4b000021 	sub	w1, w1, w0
    2644:	9ac024c5 	lsr	x5, x6, x0
    2648:	9ac120c6 	lsl	x6, x6, x1
    264c:	f10000df 	cmp	x6, #0x0
    2650:	9ac12066 	lsl	x6, x3, x1
    2654:	9a9f07e1 	cset	x1, ne  // ne = any
    2658:	aa0500c6 	orr	x6, x6, x5
    265c:	9ac02460 	lsr	x0, x3, x0
    2660:	aa0100c6 	orr	x6, x6, x1
    2664:	cb000042 	sub	x2, x2, x0
    2668:	14000023 	b	26f4 <__subtf3+0x714>
    266c:	aa0a0042 	orr	x2, x2, x10
    2670:	f100005f 	cmp	x2, #0x0
    2674:	9a9f07e0 	cset	x0, ne  // ne = any
    2678:	ab060006 	adds	x6, x0, x6
    267c:	9a833463 	cinc	x3, x3, cs  // cs = hs, nlast
    2680:	17ffff3a 	b	2368 <__subtf3+0x388>
    2684:	52801002 	mov	w2, #0x80                  	// #128
    2688:	4b000042 	sub	w2, w2, w0
    268c:	7101001f 	cmp	w0, #0x40
    2690:	5100fc26 	sub	w6, w1, #0x3f
    2694:	9ac22060 	lsl	x0, x3, x2
    2698:	aa0000a0 	orr	x0, x5, x0
    269c:	9a851005 	csel	x5, x0, x5, ne  // ne = any
    26a0:	9ac62466 	lsr	x6, x3, x6
    26a4:	f10000bf 	cmp	x5, #0x0
    26a8:	d2800003 	mov	x3, #0x0                   	// #0
    26ac:	9a9f07e0 	cset	x0, ne  // ne = any
    26b0:	aa060006 	orr	x6, x0, x6
    26b4:	aa0603e7 	mov	x7, x6
    26b8:	17fffea1 	b	213c <__subtf3+0x15c>
    26bc:	52801005 	mov	w5, #0x80                  	// #128
    26c0:	4b0000a5 	sub	w5, w5, w0
    26c4:	71010000 	subs	w0, w0, #0x40
    26c8:	9ac52045 	lsl	x5, x2, x5
    26cc:	aa050145 	orr	x5, x10, x5
    26d0:	9a8a10aa 	csel	x10, x5, x10, ne  // ne = any
    26d4:	9ac02442 	lsr	x2, x2, x0
    26d8:	f100015f 	cmp	x10, #0x0
    26dc:	9a9f07e4 	cset	x4, ne  // ne = any
    26e0:	aa020084 	orr	x4, x4, x2
    26e4:	17fffe78 	b	20c4 <__subtf3+0xe4>
    26e8:	aa060063 	orr	x3, x3, x6
    26ec:	f100007f 	cmp	x3, #0x0
    26f0:	9a9f07e6 	cset	x6, ne  // ne = any
    26f4:	eb060146 	subs	x6, x10, x6
    26f8:	aa0d03e1 	mov	x1, x13
    26fc:	da1f0043 	sbc	x3, x2, xzr
    2700:	aa0403ee 	mov	x14, x4
    2704:	17fffe72 	b	20cc <__subtf3+0xec>
    2708:	52801004 	mov	w4, #0x80                  	// #128
    270c:	4b000084 	sub	w4, w4, w0
    2710:	71010000 	subs	w0, w0, #0x40
    2714:	9ac42044 	lsl	x4, x2, x4
    2718:	aa040144 	orr	x4, x10, x4
    271c:	9a8a108a 	csel	x10, x4, x10, ne  // ne = any
    2720:	9ac02442 	lsr	x2, x2, x0
    2724:	f100015f 	cmp	x10, #0x0
    2728:	9a9f07e0 	cset	x0, ne  // ne = any
    272c:	aa020000 	orr	x0, x0, x2
    2730:	17ffffd2 	b	2678 <__subtf3+0x698>
    2734:	d28fffe0 	mov	x0, #0x7fff                	// #32767
    2738:	eb0000ff 	cmp	x7, x0
    273c:	540011a0 	b.eq	2970 <__subtf3+0x990>  // b.none
    2740:	ab0a00c6 	adds	x6, x6, x10
    2744:	aa0703e1 	mov	x1, x7
    2748:	9a030043 	adc	x3, x2, x3
    274c:	52800004 	mov	w4, #0x0                   	// #0
    2750:	d3410cc0 	ubfx	x0, x6, #1, #3
    2754:	93c60466 	extr	x6, x3, x6, #1
    2758:	d341fc63 	lsr	x3, x3, #1
    275c:	17fffe7c 	b	214c <__subtf3+0x16c>
    2760:	eb06015f 	cmp	x10, x6
    2764:	2a0403e8 	mov	w8, w4
    2768:	da030045 	sbc	x5, x2, x3
    276c:	cb060146 	sub	x6, x10, x6
    2770:	aa0403ee 	mov	x14, x4
    2774:	17fffe58 	b	20d4 <__subtf3+0xf4>
    2778:	d28fffec 	mov	x12, #0x7fff                	// #32767
    277c:	eb0c003f 	cmp	x1, x12
    2780:	54000140 	b.eq	27a8 <__subtf3+0x7c8>  // b.none
    2784:	eb0c01bf 	cmp	x13, x12
    2788:	540010a0 	b.eq	299c <__subtf3+0x9bc>  // b.none
    278c:	b50001ab 	cbnz	x11, 27c0 <__subtf3+0x7e0>
    2790:	b50010e7 	cbnz	x7, 29ac <__subtf3+0x9cc>
    2794:	92800005 	mov	x5, #0xffffffffffffffff    	// #-1
    2798:	92ffffe7 	mov	x7, #0xffffffffffff        	// #281474976710655
    279c:	52800020 	mov	w0, #0x1                   	// #1
    27a0:	52800008 	mov	w8, #0x0                   	// #0
    27a4:	17fffea8 	b	2244 <__subtf3+0x264>
    27a8:	b4000f6b 	cbz	x11, 2994 <__subtf3+0x9b4>
    27ac:	d372fc60 	lsr	x0, x3, #50
    27b0:	eb0101bf 	cmp	x13, x1
    27b4:	d2400000 	eor	x0, x0, #0x1
    27b8:	12000000 	and	w0, w0, #0x1
    27bc:	54000f00 	b.eq	299c <__subtf3+0x9bc>  // b.none
    27c0:	b4ffd327 	cbz	x7, 2224 <__subtf3+0x244>
    27c4:	b3430865 	bfi	x5, x3, #61, #3
    27c8:	d343fc67 	lsr	x7, x3, #3
    27cc:	b69000e3 	tbz	x3, #50, 27e8 <__subtf3+0x808>
    27d0:	d343fc41 	lsr	x1, x2, #3
    27d4:	b79000a2 	tbnz	x2, #50, 27e8 <__subtf3+0x808>
    27d8:	aa0903e5 	mov	x5, x9
    27dc:	2a0403e8 	mov	w8, w4
    27e0:	b3430845 	bfi	x5, x2, #61, #3
    27e4:	aa0103e7 	mov	x7, x1
    27e8:	93c5f4e7 	extr	x7, x7, x5, #61
    27ec:	b34308e5 	bfi	x5, x7, #61, #3
    27f0:	d343fce7 	lsr	x7, x7, #3
    27f4:	17fffe92 	b	223c <__subtf3+0x25c>
    27f8:	eb0a00c6 	subs	x6, x6, x10
    27fc:	da020063 	sbc	x3, x3, x2
    2800:	17fffe33 	b	20cc <__subtf3+0xec>
    2804:	b4000847 	cbz	x7, 290c <__subtf3+0x92c>
    2808:	aa0203e3 	mov	x3, x2
    280c:	aa0a03e6 	mov	x6, x10
    2810:	2a0403e8 	mov	w8, w4
    2814:	aa0403ee 	mov	x14, x4
    2818:	d2800001 	mov	x1, #0x0                   	// #0
    281c:	d2800002 	mov	x2, #0x0                   	// #0
    2820:	17ffff4d 	b	2554 <__subtf3+0x574>
    2824:	f26a0582 	ands	x2, x12, #0xc00000
    2828:	54000460 	b.eq	28b4 <__subtf3+0x8d4>  // b.none
    282c:	f150005f 	cmp	x2, #0x400, lsl #12
    2830:	52000100 	eor	w0, w8, #0x1
    2834:	1a9f17e1 	cset	w1, eq  // eq = none
    2838:	6a00003f 	tst	w1, w0
    283c:	54000a61 	b.ne	2988 <__subtf3+0x9a8>  // b.any
    2840:	f160005f 	cmp	x2, #0x800, lsl #12
    2844:	54000cc0 	b.eq	29dc <__subtf3+0x9fc>  // b.none
    2848:	f150005f 	cmp	x2, #0x400, lsl #12
    284c:	52800280 	mov	w0, #0x14                  	// #20
    2850:	54ffda81 	b.ne	23a0 <__subtf3+0x3c0>  // b.any
    2854:	92800003 	mov	x3, #0xffffffffffffffff    	// #-1
    2858:	d28fffc1 	mov	x1, #0x7ffe                	// #32766
    285c:	aa0303e6 	mov	x6, x3
    2860:	52800004 	mov	w4, #0x0                   	// #0
    2864:	52800280 	mov	w0, #0x14                  	// #20
    2868:	b5ffe0ee 	cbnz	x14, 2484 <__subtf3+0x4a4>
    286c:	17ffff04 	b	247c <__subtf3+0x49c>
    2870:	aa0903e6 	mov	x6, x9
    2874:	17fffe18 	b	20d4 <__subtf3+0xf4>
    2878:	aa060063 	orr	x3, x3, x6
    287c:	f100007f 	cmp	x3, #0x0
    2880:	9a9f07e6 	cset	x6, ne  // ne = any
    2884:	17fffef8 	b	2464 <__subtf3+0x484>
    2888:	52801001 	mov	w1, #0x80                  	// #128
    288c:	4b000021 	sub	w1, w1, w0
    2890:	71010000 	subs	w0, w0, #0x40
    2894:	9ac12061 	lsl	x1, x3, x1
    2898:	aa0100c1 	orr	x1, x6, x1
    289c:	9a861026 	csel	x6, x1, x6, ne  // ne = any
    28a0:	9ac02463 	lsr	x3, x3, x0
    28a4:	f10000df 	cmp	x6, #0x0
    28a8:	9a9f07e6 	cset	x6, ne  // ne = any
    28ac:	aa0300c6 	orr	x6, x6, x3
    28b0:	17ffff91 	b	26f4 <__subtf3+0x714>
    28b4:	52800280 	mov	w0, #0x14                  	// #20
    28b8:	17fffecb 	b	23e4 <__subtf3+0x404>
    28bc:	d28fffe7 	mov	x7, #0x7fff                	// #32767
    28c0:	eb07003f 	cmp	x1, x7
    28c4:	540009a0 	b.eq	29f8 <__subtf3+0xa18>  // b.none
    28c8:	eb0701bf 	cmp	x13, x7
    28cc:	54000c80 	b.eq	2a5c <__subtf3+0xa7c>  // b.none
    28d0:	b5000a0b 	cbnz	x11, 2a10 <__subtf3+0xa30>
    28d4:	aa0203e3 	mov	x3, x2
    28d8:	aa0a03e6 	mov	x6, x10
    28dc:	d28fffe1 	mov	x1, #0x7fff                	// #32767
    28e0:	17fffe52 	b	2228 <__subtf3+0x248>
    28e4:	aa0a0040 	orr	x0, x2, x10
    28e8:	b4ffe280 	cbz	x0, 2538 <__subtf3+0x558>
    28ec:	17fffe49 	b	2210 <__subtf3+0x230>
    28f0:	d28fffe0 	mov	x0, #0x7fff                	// #32767
    28f4:	eb0001bf 	cmp	x13, x0
    28f8:	54ffff60 	b.eq	28e4 <__subtf3+0x904>  // b.none
    28fc:	aa0203e3 	mov	x3, x2
    2900:	aa0a03e6 	mov	x6, x10
    2904:	aa0d03e1 	mov	x1, x13
    2908:	17fffe72 	b	22d0 <__subtf3+0x2f0>
    290c:	926a058c 	and	x12, x12, #0xc00000
    2910:	d2800005 	mov	x5, #0x0                   	// #0
    2914:	f160019f 	cmp	x12, #0x800, lsl #12
    2918:	1a9f17e8 	cset	w8, eq  // eq = none
    291c:	17fffe75 	b	22f0 <__subtf3+0x310>
    2920:	aa0203e3 	mov	x3, x2
    2924:	aa0a03e6 	mov	x6, x10
    2928:	17fffe05 	b	213c <__subtf3+0x15c>
    292c:	52801001 	mov	w1, #0x80                  	// #128
    2930:	4b000021 	sub	w1, w1, w0
    2934:	71010000 	subs	w0, w0, #0x40
    2938:	9ac12061 	lsl	x1, x3, x1
    293c:	aa0100c1 	orr	x1, x6, x1
    2940:	9a861026 	csel	x6, x1, x6, ne  // ne = any
    2944:	9ac02463 	lsr	x3, x3, x0
    2948:	f10000df 	cmp	x6, #0x0
    294c:	9a9f07e6 	cset	x6, ne  // ne = any
    2950:	aa0300c6 	orr	x6, x6, x3
    2954:	17fffec4 	b	2464 <__subtf3+0x484>
    2958:	eb06015f 	cmp	x10, x6
    295c:	aa0d03e1 	mov	x1, x13
    2960:	da030043 	sbc	x3, x2, x3
    2964:	cb060146 	sub	x6, x10, x6
    2968:	aa0403ee 	mov	x14, x4
    296c:	17fffdd8 	b	20cc <__subtf3+0xec>
    2970:	f26a0582 	ands	x2, x12, #0xc00000
    2974:	54fffa00 	b.eq	28b4 <__subtf3+0x8d4>  // b.none
    2978:	f150005f 	cmp	x2, #0x400, lsl #12
    297c:	52000100 	eor	w0, w8, #0x1
    2980:	1a9f0000 	csel	w0, w0, wzr, eq  // eq = none
    2984:	34fff5e0 	cbz	w0, 2840 <__subtf3+0x860>
    2988:	52800280 	mov	w0, #0x14                  	// #20
    298c:	d280000b 	mov	x11, #0x0                   	// #0
    2990:	17fffe95 	b	23e4 <__subtf3+0x404>
    2994:	eb0101bf 	cmp	x13, x1
    2998:	54ffefc1 	b.ne	2790 <__subtf3+0x7b0>  // b.any
    299c:	b40005a7 	cbz	x7, 2a50 <__subtf3+0xa70>
    29a0:	f24e005f 	tst	x2, #0x4000000000000
    29a4:	1a9f1400 	csinc	w0, w0, wzr, ne  // ne = any
    29a8:	b5fff0eb 	cbnz	x11, 27c4 <__subtf3+0x7e4>
    29ac:	2a0403e8 	mov	w8, w4
    29b0:	aa0203e3 	mov	x3, x2
    29b4:	aa0a03e6 	mov	x6, x10
    29b8:	d28fffe1 	mov	x1, #0x7fff                	// #32767
    29bc:	17fffe1b 	b	2228 <__subtf3+0x248>
    29c0:	aa050127 	orr	x7, x9, x5
    29c4:	b4fffa47 	cbz	x7, 290c <__subtf3+0x92c>
    29c8:	aa0503e3 	mov	x3, x5
    29cc:	92400920 	and	x0, x9, #0x7
    29d0:	aa0903e6 	mov	x6, x9
    29d4:	52800024 	mov	w4, #0x1                   	// #1
    29d8:	17fffddd 	b	214c <__subtf3+0x16c>
    29dc:	b50004ab 	cbnz	x11, 2a70 <__subtf3+0xa90>
    29e0:	92800003 	mov	x3, #0xffffffffffffffff    	// #-1
    29e4:	52800008 	mov	w8, #0x0                   	// #0
    29e8:	aa0303e6 	mov	x6, x3
    29ec:	d28fffc1 	mov	x1, #0x7ffe                	// #32766
    29f0:	52800280 	mov	w0, #0x14                  	// #20
    29f4:	17fffde2 	b	217c <__subtf3+0x19c>
    29f8:	b400042b 	cbz	x11, 2a7c <__subtf3+0xa9c>
    29fc:	d372fc60 	lsr	x0, x3, #50
    2a00:	eb0101bf 	cmp	x13, x1
    2a04:	d2400000 	eor	x0, x0, #0x1
    2a08:	12000000 	and	w0, w0, #0x1
    2a0c:	54000480 	b.eq	2a9c <__subtf3+0xabc>  // b.none
    2a10:	aa0a004a 	orr	x10, x2, x10
    2a14:	b4ffc08a 	cbz	x10, 2224 <__subtf3+0x244>
    2a18:	b3430865 	bfi	x5, x3, #61, #3
    2a1c:	d343fc67 	lsr	x7, x3, #3
    2a20:	b697ee43 	tbz	x3, #50, 27e8 <__subtf3+0x808>
    2a24:	d343fc41 	lsr	x1, x2, #3
    2a28:	b797ee02 	tbnz	x2, #50, 27e8 <__subtf3+0x808>
    2a2c:	9240f125 	and	x5, x9, #0x1fffffffffffffff
    2a30:	2a0403e8 	mov	w8, w4
    2a34:	aa02f4a5 	orr	x5, x5, x2, lsl #61
    2a38:	aa0103e7 	mov	x7, x1
    2a3c:	17ffff6b 	b	27e8 <__subtf3+0x808>
    2a40:	ab0a00c6 	adds	x6, x6, x10
    2a44:	aa0d03e1 	mov	x1, x13
    2a48:	9a030043 	adc	x3, x2, x3
    2a4c:	17fffe47 	b	2368 <__subtf3+0x388>
    2a50:	b4ffea2b 	cbz	x11, 2794 <__subtf3+0x7b4>
    2a54:	d28fffe1 	mov	x1, #0x7fff                	// #32767
    2a58:	17fffdf4 	b	2228 <__subtf3+0x248>
    2a5c:	aa0a0041 	orr	x1, x2, x10
    2a60:	b5000161 	cbnz	x1, 2a8c <__subtf3+0xaac>
    2a64:	b4ffd6ab 	cbz	x11, 2538 <__subtf3+0x558>
    2a68:	d28fffe1 	mov	x1, #0x7fff                	// #32767
    2a6c:	17fffdef 	b	2228 <__subtf3+0x248>
    2a70:	52800280 	mov	w0, #0x14                  	// #20
    2a74:	d280002b 	mov	x11, #0x1                   	// #1
    2a78:	17fffe5b 	b	23e4 <__subtf3+0x404>
    2a7c:	eb0101bf 	cmp	x13, x1
    2a80:	54fff2a1 	b.ne	28d4 <__subtf3+0x8f4>  // b.any
    2a84:	aa0a0041 	orr	x1, x2, x10
    2a88:	b4ffd581 	cbz	x1, 2538 <__subtf3+0x558>
    2a8c:	f24e005f 	tst	x2, #0x4000000000000
    2a90:	1a9f1400 	csinc	w0, w0, wzr, ne  // ne = any
    2a94:	b5fffc2b 	cbnz	x11, 2a18 <__subtf3+0xa38>
    2a98:	17ffff8f 	b	28d4 <__subtf3+0x8f4>
    2a9c:	aa0a0041 	orr	x1, x2, x10
    2aa0:	b5ffff61 	cbnz	x1, 2a8c <__subtf3+0xaac>
    2aa4:	d28fffe1 	mov	x1, #0x7fff                	// #32767
    2aa8:	17fffde0 	b	2228 <__subtf3+0x248>
    2aac:	d2800005 	mov	x5, #0x0                   	// #0
    2ab0:	528fffe1 	mov	w1, #0x7fff                	// #32767
    2ab4:	d2800007 	mov	x7, #0x0                   	// #0
    2ab8:	17fffdb8 	b	2198 <__subtf3+0x1b8>
    2abc:	00000000 	.inst	0x00000000 ; undefined

0000000000002ac0 <__fixtfsi>:
    2ac0:	a9bd7bfd 	stp	x29, x30, [sp, #-48]!
    2ac4:	910003fd 	mov	x29, sp
    2ac8:	f9000bf3 	str	x19, [sp, #16]
    2acc:	3d800be0 	str	q0, [sp, #32]
    2ad0:	a94207e0 	ldp	x0, x1, [sp, #32]
    2ad4:	d53b4402 	mrs	x2, fpcr
    2ad8:	aa0003e3 	mov	x3, x0
    2adc:	d370f824 	ubfx	x4, x1, #48, #15
    2ae0:	d287ffc0 	mov	x0, #0x3ffe                	// #16382
    2ae4:	eb00009f 	cmp	x4, x0
    2ae8:	d340bc20 	ubfx	x0, x1, #0, #48
    2aec:	5400016c 	b.gt	2b18 <__fixtfsi+0x58>
    2af0:	b5000524 	cbnz	x4, 2b94 <__fixtfsi+0xd4>
    2af4:	aa030000 	orr	x0, x0, x3
    2af8:	52800013 	mov	w19, #0x0                   	// #0
    2afc:	b4000060 	cbz	x0, 2b08 <__fixtfsi+0x48>
    2b00:	52800200 	mov	w0, #0x10                  	// #16
    2b04:	940002af 	bl	35c0 <__sfp_handle_exceptions>
    2b08:	2a1303e0 	mov	w0, w19
    2b0c:	f9400bf3 	ldr	x19, [sp, #16]
    2b10:	a8c37bfd 	ldp	x29, x30, [sp], #48
    2b14:	d65f03c0 	ret
    2b18:	d37ffc33 	lsr	x19, x1, #63
    2b1c:	d28803a5 	mov	x5, #0x401d                	// #16413
    2b20:	12001e62 	and	w2, w19, #0xff
    2b24:	eb05009f 	cmp	x4, x5
    2b28:	540001ad 	b.le	2b5c <__fixtfsi+0x9c>
    2b2c:	d28803c1 	mov	x1, #0x401e                	// #16414
    2b30:	eb01009f 	cmp	x4, x1
    2b34:	12b00013 	mov	w19, #0x7fffffff            	// #2147483647
    2b38:	1a9f0041 	csel	w1, w2, wzr, eq  // eq = none
    2b3c:	0b130053 	add	w19, w2, w19
    2b40:	34000321 	cbz	w1, 2ba4 <__fixtfsi+0xe4>
    2b44:	eb4047ff 	cmp	xzr, x0, lsr #17
    2b48:	540002e1 	b.ne	2ba4 <__fixtfsi+0xe4>  // b.any
    2b4c:	aa00bc60 	orr	x0, x3, x0, lsl #47
    2b50:	b4fffdc0 	cbz	x0, 2b08 <__fixtfsi+0x48>
    2b54:	52800200 	mov	w0, #0x10                  	// #16
    2b58:	17ffffeb 	b	2b04 <__fixtfsi+0x44>
    2b5c:	aa0403e1 	mov	x1, x4
    2b60:	b2500000 	orr	x0, x0, #0x1000000000000
    2b64:	528805f3 	mov	w19, #0x402f                	// #16431
    2b68:	1287fdc4 	mov	w4, #0xffffc011            	// #-16367
    2b6c:	0b040024 	add	w4, w1, w4
    2b70:	4b010261 	sub	w1, w19, w1
    2b74:	7100005f 	cmp	w2, #0x0
    2b78:	9ac12413 	lsr	x19, x0, x1
    2b7c:	5a930673 	cneg	w19, w19, ne  // ne = any
    2b80:	9ac42000 	lsl	x0, x0, x4
    2b84:	aa030000 	orr	x0, x0, x3
    2b88:	b4fffc00 	cbz	x0, 2b08 <__fixtfsi+0x48>
    2b8c:	52800200 	mov	w0, #0x10                  	// #16
    2b90:	17ffffdd 	b	2b04 <__fixtfsi+0x44>
    2b94:	52800013 	mov	w19, #0x0                   	// #0
    2b98:	52800200 	mov	w0, #0x10                  	// #16
    2b9c:	94000289 	bl	35c0 <__sfp_handle_exceptions>
    2ba0:	17ffffda 	b	2b08 <__fixtfsi+0x48>
    2ba4:	52800020 	mov	w0, #0x1                   	// #1
    2ba8:	94000286 	bl	35c0 <__sfp_handle_exceptions>
    2bac:	17ffffd7 	b	2b08 <__fixtfsi+0x48>

0000000000002bb0 <__fixunstfsi>:
    2bb0:	a9bd7bfd 	stp	x29, x30, [sp, #-48]!
    2bb4:	910003fd 	mov	x29, sp
    2bb8:	f9000bf3 	str	x19, [sp, #16]
    2bbc:	3d800be0 	str	q0, [sp, #32]
    2bc0:	a94207e0 	ldp	x0, x1, [sp, #32]
    2bc4:	d53b4402 	mrs	x2, fpcr
    2bc8:	d370f823 	ubfx	x3, x1, #48, #15
    2bcc:	d287ffc4 	mov	x4, #0x3ffe                	// #16382
    2bd0:	aa0003e2 	mov	x2, x0
    2bd4:	eb04007f 	cmp	x3, x4
    2bd8:	d340bc33 	ubfx	x19, x1, #0, #48
    2bdc:	5400020c 	b.gt	2c1c <__fixunstfsi+0x6c>
    2be0:	b5000103 	cbnz	x3, 2c00 <__fixunstfsi+0x50>
    2be4:	aa130000 	orr	x0, x0, x19
    2be8:	52800013 	mov	w19, #0x0                   	// #0
    2bec:	b50000a0 	cbnz	x0, 2c00 <__fixunstfsi+0x50>
    2bf0:	2a1303e0 	mov	w0, w19
    2bf4:	f9400bf3 	ldr	x19, [sp, #16]
    2bf8:	a8c37bfd 	ldp	x29, x30, [sp], #48
    2bfc:	d65f03c0 	ret
    2c00:	52800200 	mov	w0, #0x10                  	// #16
    2c04:	52800013 	mov	w19, #0x0                   	// #0
    2c08:	9400026e 	bl	35c0 <__sfp_handle_exceptions>
    2c0c:	2a1303e0 	mov	w0, w19
    2c10:	f9400bf3 	ldr	x19, [sp, #16]
    2c14:	a8c37bfd 	ldp	x29, x30, [sp], #48
    2c18:	d65f03c0 	ret
    2c1c:	d37ffc20 	lsr	x0, x1, #63
    2c20:	d28803e4 	mov	x4, #0x401f                	// #16415
    2c24:	12001c00 	and	w0, w0, #0xff
    2c28:	d28803c5 	mov	x5, #0x401e                	// #16414
    2c2c:	f2401c06 	ands	x6, x0, #0xff
    2c30:	9a850084 	csel	x4, x4, x5, eq  // eq = none
    2c34:	eb03009f 	cmp	x4, x3
    2c38:	540000cd 	b.le	2c50 <__fixunstfsi+0xa0>
    2c3c:	b4000126 	cbz	x6, 2c60 <__fixunstfsi+0xb0>
    2c40:	52800020 	mov	w0, #0x1                   	// #1
    2c44:	52800013 	mov	w19, #0x0                   	// #0
    2c48:	9400025e 	bl	35c0 <__sfp_handle_exceptions>
    2c4c:	17fffff0 	b	2c0c <__fixunstfsi+0x5c>
    2c50:	51000413 	sub	w19, w0, #0x1
    2c54:	52800020 	mov	w0, #0x1                   	// #1
    2c58:	9400025a 	bl	35c0 <__sfp_handle_exceptions>
    2c5c:	17ffffec 	b	2c0c <__fixunstfsi+0x5c>
    2c60:	aa0303e1 	mov	x1, x3
    2c64:	b2500260 	orr	x0, x19, #0x1000000000000
    2c68:	1287fdc3 	mov	w3, #0xffffc011            	// #-16367
    2c6c:	528805f3 	mov	w19, #0x402f                	// #16431
    2c70:	0b030023 	add	w3, w1, w3
    2c74:	4b010261 	sub	w1, w19, w1
    2c78:	9ac32003 	lsl	x3, x0, x3
    2c7c:	aa020062 	orr	x2, x3, x2
    2c80:	9ac12413 	lsr	x19, x0, x1
    2c84:	52800200 	mov	w0, #0x10                  	// #16
    2c88:	b5fffc02 	cbnz	x2, 2c08 <__fixunstfsi+0x58>
    2c8c:	17ffffd9 	b	2bf0 <__fixunstfsi+0x40>

0000000000002c90 <__floatsitf>:
    2c90:	7100001f 	cmp	w0, #0x0
    2c94:	34000260 	cbz	w0, 2ce0 <__floatsitf+0x50>
    2c98:	5a80a401 	cneg	w1, w0, lt  // lt = tstop
    2c9c:	528807c4 	mov	w4, #0x403e                	// #16446
    2ca0:	dac01023 	clz	x3, x1
    2ca4:	528805e2 	mov	w2, #0x402f                	// #16431
    2ca8:	4b030084 	sub	w4, w4, w3
    2cac:	531f7c00 	lsr	w0, w0, #31
    2cb0:	4b040042 	sub	w2, w2, w4
    2cb4:	d2800003 	mov	x3, #0x0                   	// #0
    2cb8:	12003884 	and	w4, w4, #0x7fff
    2cbc:	9ac22021 	lsl	x1, x1, x2
    2cc0:	9240bc21 	and	x1, x1, #0xffffffffffff
    2cc4:	2a003c80 	orr	w0, w4, w0, lsl #15
    2cc8:	d2800002 	mov	x2, #0x0                   	// #0
    2ccc:	b340bc23 	bfxil	x3, x1, #0, #48
    2cd0:	9e670040 	fmov	d0, x2
    2cd4:	b3503c03 	bfi	x3, x0, #48, #16
    2cd8:	9eaf0060 	fmov	v0.d[1], x3
    2cdc:	d65f03c0 	ret
    2ce0:	52800004 	mov	w4, #0x0                   	// #0
    2ce4:	d2800001 	mov	x1, #0x0                   	// #0
    2ce8:	52800000 	mov	w0, #0x0                   	// #0
    2cec:	d2800003 	mov	x3, #0x0                   	// #0
    2cf0:	2a003c80 	orr	w0, w4, w0, lsl #15
    2cf4:	b340bc23 	bfxil	x3, x1, #0, #48
    2cf8:	d2800002 	mov	x2, #0x0                   	// #0
    2cfc:	9e670040 	fmov	d0, x2
    2d00:	b3503c03 	bfi	x3, x0, #48, #16
    2d04:	9eaf0060 	fmov	v0.d[1], x3
    2d08:	d65f03c0 	ret
    2d0c:	00000000 	.inst	0x00000000 ; undefined

0000000000002d10 <__floatunsitf>:
    2d10:	34000220 	cbz	w0, 2d54 <__floatunsitf+0x44>
    2d14:	2a0003e0 	mov	w0, w0
    2d18:	528807c1 	mov	w1, #0x403e                	// #16446
    2d1c:	dac01003 	clz	x3, x0
    2d20:	528805e2 	mov	w2, #0x402f                	// #16431
    2d24:	4b030021 	sub	w1, w1, w3
    2d28:	d2800003 	mov	x3, #0x0                   	// #0
    2d2c:	4b010042 	sub	w2, w2, w1
    2d30:	12003821 	and	w1, w1, #0x7fff
    2d34:	9ac22000 	lsl	x0, x0, x2
    2d38:	9240bc00 	and	x0, x0, #0xffffffffffff
    2d3c:	d2800002 	mov	x2, #0x0                   	// #0
    2d40:	9e670040 	fmov	d0, x2
    2d44:	b340bc03 	bfxil	x3, x0, #0, #48
    2d48:	b3503c23 	bfi	x3, x1, #48, #16
    2d4c:	9eaf0060 	fmov	v0.d[1], x3
    2d50:	d65f03c0 	ret
    2d54:	d2800000 	mov	x0, #0x0                   	// #0
    2d58:	d2800003 	mov	x3, #0x0                   	// #0
    2d5c:	b340bc03 	bfxil	x3, x0, #0, #48
    2d60:	d2800002 	mov	x2, #0x0                   	// #0
    2d64:	9e670040 	fmov	d0, x2
    2d68:	52800001 	mov	w1, #0x0                   	// #0
    2d6c:	b3503c23 	bfi	x3, x1, #48, #16
    2d70:	9eaf0060 	fmov	v0.d[1], x3
    2d74:	d65f03c0 	ret

0000000000002d78 <__extendsftf2>:
    2d78:	d53b4400 	mrs	x0, fpcr
    2d7c:	1e260000 	fmov	w0, s0
    2d80:	d3577802 	ubfx	x2, x0, #23, #8
    2d84:	92405801 	and	x1, x0, #0x7fffff
    2d88:	91000443 	add	x3, x2, #0x1
    2d8c:	d3405805 	ubfx	x5, x0, #0, #23
    2d90:	f27f187f 	tst	x3, #0xfe
    2d94:	531f7c00 	lsr	w0, w0, #31
    2d98:	54000180 	b.eq	2dc8 <__extendsftf2+0x50>  // b.none
    2d9c:	d3679821 	lsl	x1, x1, #25
    2da0:	5287f003 	mov	w3, #0x3f80                	// #16256
    2da4:	0b030044 	add	w4, w2, w3
    2da8:	d2800003 	mov	x3, #0x0                   	// #0
    2dac:	b340bc23 	bfxil	x3, x1, #0, #48
    2db0:	d2800002 	mov	x2, #0x0                   	// #0
    2db4:	9e670040 	fmov	d0, x2
    2db8:	b3503883 	bfi	x3, x4, #48, #15
    2dbc:	b3410003 	bfi	x3, x0, #63, #1
    2dc0:	9eaf0060 	fmov	v0.d[1], x3
    2dc4:	d65f03c0 	ret
    2dc8:	35000182 	cbnz	w2, 2df8 <__extendsftf2+0x80>
    2dcc:	b50003c1 	cbnz	x1, 2e44 <__extendsftf2+0xcc>
    2dd0:	d2800001 	mov	x1, #0x0                   	// #0
    2dd4:	d2800003 	mov	x3, #0x0                   	// #0
    2dd8:	b340bc23 	bfxil	x3, x1, #0, #48
    2ddc:	52800004 	mov	w4, #0x0                   	// #0
    2de0:	d2800002 	mov	x2, #0x0                   	// #0
    2de4:	9e670040 	fmov	d0, x2
    2de8:	b3503883 	bfi	x3, x4, #48, #15
    2dec:	b3410003 	bfi	x3, x0, #63, #1
    2df0:	9eaf0060 	fmov	v0.d[1], x3
    2df4:	d65f03c0 	ret
    2df8:	b4000441 	cbz	x1, 2e80 <__extendsftf2+0x108>
    2dfc:	d3679821 	lsl	x1, x1, #25
    2e00:	d2800003 	mov	x3, #0x0                   	// #0
    2e04:	b2510021 	orr	x1, x1, #0x800000000000
    2e08:	d2800002 	mov	x2, #0x0                   	// #0
    2e0c:	9e670040 	fmov	d0, x2
    2e10:	b340bc23 	bfxil	x3, x1, #0, #48
    2e14:	b2503863 	orr	x3, x3, #0x7fff000000000000
    2e18:	b3410003 	bfi	x3, x0, #63, #1
    2e1c:	9eaf0060 	fmov	v0.d[1], x3
    2e20:	37b00445 	tbnz	w5, #22, 2ea8 <__extendsftf2+0x130>
    2e24:	a9be7bfd 	stp	x29, x30, [sp, #-32]!
    2e28:	52800020 	mov	w0, #0x1                   	// #1
    2e2c:	910003fd 	mov	x29, sp
    2e30:	3d8007e0 	str	q0, [sp, #16]
    2e34:	940001e3 	bl	35c0 <__sfp_handle_exceptions>
    2e38:	3dc007e0 	ldr	q0, [sp, #16]
    2e3c:	a8c27bfd 	ldp	x29, x30, [sp], #32
    2e40:	d65f03c0 	ret
    2e44:	dac01024 	clz	x4, x1
    2e48:	5287f522 	mov	w2, #0x3fa9                	// #16297
    2e4c:	51003c83 	sub	w3, w4, #0xf
    2e50:	4b040042 	sub	w2, w2, w4
    2e54:	12003844 	and	w4, w2, #0x7fff
    2e58:	d2800002 	mov	x2, #0x0                   	// #0
    2e5c:	9ac32021 	lsl	x1, x1, x3
    2e60:	9240bc21 	and	x1, x1, #0xffffffffffff
    2e64:	d2800003 	mov	x3, #0x0                   	// #0
    2e68:	9e670040 	fmov	d0, x2
    2e6c:	b340bc23 	bfxil	x3, x1, #0, #48
    2e70:	b3503883 	bfi	x3, x4, #48, #15
    2e74:	b3410003 	bfi	x3, x0, #63, #1
    2e78:	9eaf0060 	fmov	v0.d[1], x3
    2e7c:	d65f03c0 	ret
    2e80:	d2800001 	mov	x1, #0x0                   	// #0
    2e84:	d2800003 	mov	x3, #0x0                   	// #0
    2e88:	b340bc23 	bfxil	x3, x1, #0, #48
    2e8c:	528fffe4 	mov	w4, #0x7fff                	// #32767
    2e90:	d2800002 	mov	x2, #0x0                   	// #0
    2e94:	9e670040 	fmov	d0, x2
    2e98:	b3503883 	bfi	x3, x4, #48, #15
    2e9c:	b3410003 	bfi	x3, x0, #63, #1
    2ea0:	9eaf0060 	fmov	v0.d[1], x3
    2ea4:	d65f03c0 	ret
    2ea8:	d65f03c0 	ret
    2eac:	00000000 	.inst	0x00000000 ; undefined

0000000000002eb0 <__extenddftf2>:
    2eb0:	d53b4400 	mrs	x0, fpcr
    2eb4:	9e660000 	fmov	x0, d0
    2eb8:	d374f801 	ubfx	x1, x0, #52, #11
    2ebc:	d37ffc04 	lsr	x4, x0, #63
    2ec0:	91000422 	add	x2, x1, #0x1
    2ec4:	12001c84 	and	w4, w4, #0xff
    2ec8:	f27f245f 	tst	x2, #0x7fe
    2ecc:	d340cc00 	ubfx	x0, x0, #0, #52
    2ed0:	540001a0 	b.eq	2f04 <__extenddftf2+0x54>  // b.none
    2ed4:	d344fc05 	lsr	x5, x0, #4
    2ed8:	d2800003 	mov	x3, #0x0                   	// #0
    2edc:	9240bca5 	and	x5, x5, #0xffffffffffff
    2ee0:	52878002 	mov	w2, #0x3c00                	// #15360
    2ee4:	0b020021 	add	w1, w1, w2
    2ee8:	d3440c00 	lsl	x0, x0, #60
    2eec:	b340bca3 	bfxil	x3, x5, #0, #48
    2ef0:	9e670000 	fmov	d0, x0
    2ef4:	b3503823 	bfi	x3, x1, #48, #15
    2ef8:	b3410083 	bfi	x3, x4, #63, #1
    2efc:	9eaf0060 	fmov	v0.d[1], x3
    2f00:	d65f03c0 	ret
    2f04:	b50002a1 	cbnz	x1, 2f58 <__extenddftf2+0xa8>
    2f08:	b40004e0 	cbz	x0, 2fa4 <__extenddftf2+0xf4>
    2f0c:	dac01002 	clz	x2, x0
    2f10:	7100385f 	cmp	w2, #0xe
    2f14:	540006ec 	b.gt	2ff0 <__extenddftf2+0x140>
    2f18:	1100c441 	add	w1, w2, #0x31
    2f1c:	528001e5 	mov	w5, #0xf                   	// #15
    2f20:	4b0200a5 	sub	w5, w5, w2
    2f24:	9ac52405 	lsr	x5, x0, x5
    2f28:	9ac12000 	lsl	x0, x0, x1
    2f2c:	9240bca5 	and	x5, x5, #0xffffffffffff
    2f30:	52878181 	mov	w1, #0x3c0c                	// #15372
    2f34:	d2800003 	mov	x3, #0x0                   	// #0
    2f38:	4b020021 	sub	w1, w1, w2
    2f3c:	12003821 	and	w1, w1, #0x7fff
    2f40:	b340bca3 	bfxil	x3, x5, #0, #48
    2f44:	9e670000 	fmov	d0, x0
    2f48:	b3503823 	bfi	x3, x1, #48, #15
    2f4c:	b3410083 	bfi	x3, x4, #63, #1
    2f50:	9eaf0060 	fmov	v0.d[1], x3
    2f54:	d65f03c0 	ret
    2f58:	b4000380 	cbz	x0, 2fc8 <__extenddftf2+0x118>
    2f5c:	d344fc01 	lsr	x1, x0, #4
    2f60:	d2800003 	mov	x3, #0x0                   	// #0
    2f64:	b2510021 	orr	x1, x1, #0x800000000000
    2f68:	d3440c02 	lsl	x2, x0, #60
    2f6c:	9e670040 	fmov	d0, x2
    2f70:	b340bc23 	bfxil	x3, x1, #0, #48
    2f74:	b2503863 	orr	x3, x3, #0x7fff000000000000
    2f78:	b3410083 	bfi	x3, x4, #63, #1
    2f7c:	9eaf0060 	fmov	v0.d[1], x3
    2f80:	b7980360 	tbnz	x0, #51, 2fec <__extenddftf2+0x13c>
    2f84:	a9be7bfd 	stp	x29, x30, [sp, #-32]!
    2f88:	52800020 	mov	w0, #0x1                   	// #1
    2f8c:	910003fd 	mov	x29, sp
    2f90:	3d8007e0 	str	q0, [sp, #16]
    2f94:	9400018b 	bl	35c0 <__sfp_handle_exceptions>
    2f98:	3dc007e0 	ldr	q0, [sp, #16]
    2f9c:	a8c27bfd 	ldp	x29, x30, [sp], #32
    2fa0:	d65f03c0 	ret
    2fa4:	d2800005 	mov	x5, #0x0                   	// #0
    2fa8:	d2800003 	mov	x3, #0x0                   	// #0
    2fac:	b340bca3 	bfxil	x3, x5, #0, #48
    2fb0:	52800001 	mov	w1, #0x0                   	// #0
    2fb4:	9e670000 	fmov	d0, x0
    2fb8:	b3503823 	bfi	x3, x1, #48, #15
    2fbc:	b3410083 	bfi	x3, x4, #63, #1
    2fc0:	9eaf0060 	fmov	v0.d[1], x3
    2fc4:	d65f03c0 	ret
    2fc8:	d2800005 	mov	x5, #0x0                   	// #0
    2fcc:	d2800003 	mov	x3, #0x0                   	// #0
    2fd0:	b340bca3 	bfxil	x3, x5, #0, #48
    2fd4:	528fffe1 	mov	w1, #0x7fff                	// #32767
    2fd8:	9e670000 	fmov	d0, x0
    2fdc:	b3503823 	bfi	x3, x1, #48, #15
    2fe0:	b3410083 	bfi	x3, x4, #63, #1
    2fe4:	9eaf0060 	fmov	v0.d[1], x3
    2fe8:	d65f03c0 	ret
    2fec:	d65f03c0 	ret
    2ff0:	51003c45 	sub	w5, w2, #0xf
    2ff4:	9ac52005 	lsl	x5, x0, x5
    2ff8:	d2800000 	mov	x0, #0x0                   	// #0
    2ffc:	17ffffcc 	b	2f2c <__extenddftf2+0x7c>

0000000000003000 <__trunctfsf2>:
    3000:	a9bd7bfd 	stp	x29, x30, [sp, #-48]!
    3004:	910003fd 	mov	x29, sp
    3008:	f9000bf3 	str	x19, [sp, #16]
    300c:	3d800be0 	str	q0, [sp, #32]
    3010:	a94203e5 	ldp	x5, x0, [sp, #32]
    3014:	d53b4403 	mrs	x3, fpcr
    3018:	d370f804 	ubfx	x4, x0, #48, #15
    301c:	d37ffc06 	lsr	x6, x0, #63
    3020:	91000481 	add	x1, x4, #0x1
    3024:	d37dbc00 	ubfiz	x0, x0, #3, #48
    3028:	aa45f400 	orr	x0, x0, x5, lsr #61
    302c:	f27f343f 	tst	x1, #0x7ffe
    3030:	12001cc6 	and	w6, w6, #0xff
    3034:	d37df0a5 	lsl	x5, x5, #3
    3038:	54000400 	b.eq	30b8 <__trunctfsf2+0xb8>  // b.none
    303c:	9287efe1 	mov	x1, #0xffffffffffffc080    	// #-16256
    3040:	8b010084 	add	x4, x4, x1
    3044:	f103f89f 	cmp	x4, #0xfe
    3048:	5400058d 	b.le	30f8 <__trunctfsf2+0xf8>
    304c:	f26a0460 	ands	x0, x3, #0xc00000
    3050:	54000a00 	b.eq	3190 <__trunctfsf2+0x190>  // b.none
    3054:	f150001f 	cmp	x0, #0x400, lsl #12
    3058:	54001120 	b.eq	327c <__trunctfsf2+0x27c>  // b.none
    305c:	f160001f 	cmp	x0, #0x800, lsl #12
    3060:	1a9f00c7 	csel	w7, w6, wzr, eq  // eq = none
    3064:	35000967 	cbnz	w7, 3190 <__trunctfsf2+0x190>
    3068:	d2801fc4 	mov	x4, #0xfe                  	// #254
    306c:	92800001 	mov	x1, #0xffffffffffffffff    	// #-1
    3070:	52800280 	mov	w0, #0x14                  	// #20
    3074:	54000621 	b.ne	3138 <__trunctfsf2+0x138>  // b.any
    3078:	710000df 	cmp	w6, #0x0
    307c:	91002022 	add	x2, x1, #0x8
    3080:	9a811041 	csel	x1, x2, x1, ne  // ne = any
    3084:	92660022 	and	x2, x1, #0x4000000
    3088:	350005c7 	cbnz	w7, 3140 <__trunctfsf2+0x140>
    308c:	b50005e2 	cbnz	x2, 3148 <__trunctfsf2+0x148>
    3090:	d343fc23 	lsr	x3, x1, #3
    3094:	12001c82 	and	w2, w4, #0xff
    3098:	2a0303e1 	mov	w1, w3
    309c:	33092041 	bfi	w1, w2, #23, #9
    30a0:	2a067c33 	orr	w19, w1, w6, lsl #31
    30a4:	94000147 	bl	35c0 <__sfp_handle_exceptions>
    30a8:	1e270260 	fmov	s0, w19
    30ac:	f9400bf3 	ldr	x19, [sp, #16]
    30b0:	a8c37bfd 	ldp	x29, x30, [sp], #48
    30b4:	d65f03c0 	ret
    30b8:	aa050005 	orr	x5, x0, x5
    30bc:	b5000184 	cbnz	x4, 30ec <__trunctfsf2+0xec>
    30c0:	b5000545 	cbnz	x5, 3168 <__trunctfsf2+0x168>
    30c4:	52800000 	mov	w0, #0x0                   	// #0
    30c8:	12001c84 	and	w4, w4, #0xff
    30cc:	d2800001 	mov	x1, #0x0                   	// #0
    30d0:	33092081 	bfi	w1, w4, #23, #9
    30d4:	2a067c33 	orr	w19, w1, w6, lsl #31
    30d8:	35fffe60 	cbnz	w0, 30a4 <__trunctfsf2+0xa4>
    30dc:	1e270260 	fmov	s0, w19
    30e0:	f9400bf3 	ldr	x19, [sp, #16]
    30e4:	a8c37bfd 	ldp	x29, x30, [sp], #48
    30e8:	d65f03c0 	ret
    30ec:	b5000585 	cbnz	x5, 319c <__trunctfsf2+0x19c>
    30f0:	d2801fe4 	mov	x4, #0xff                  	// #255
    30f4:	17fffff4 	b	30c4 <__trunctfsf2+0xc4>
    30f8:	f100009f 	cmp	x4, #0x0
    30fc:	5400062d 	b.le	31c0 <__trunctfsf2+0x1c0>
    3100:	aa009ca5 	orr	x5, x5, x0, lsl #39
    3104:	52800007 	mov	w7, #0x0                   	// #0
    3108:	f10000bf 	cmp	x5, #0x0
    310c:	9a9f07e1 	cset	x1, ne  // ne = any
    3110:	aa406421 	orr	x1, x1, x0, lsr #25
    3114:	f240083f 	tst	x1, #0x7
    3118:	54000a00 	b.eq	3258 <__trunctfsf2+0x258>  // b.none
    311c:	926a0462 	and	x2, x3, #0xc00000
    3120:	f150005f 	cmp	x2, #0x400, lsl #12
    3124:	540002e0 	b.eq	3180 <__trunctfsf2+0x180>  // b.none
    3128:	f160005f 	cmp	x2, #0x800, lsl #12
    312c:	52800200 	mov	w0, #0x10                  	// #16
    3130:	54fffa40 	b.eq	3078 <__trunctfsf2+0x78>  // b.none
    3134:	b40009a2 	cbz	x2, 3268 <__trunctfsf2+0x268>
    3138:	92660022 	and	x2, x1, #0x4000000
    313c:	34000047 	cbz	w7, 3144 <__trunctfsf2+0x144>
    3140:	321d0000 	orr	w0, w0, #0x8
    3144:	b40008c2 	cbz	x2, 325c <__trunctfsf2+0x25c>
    3148:	f103f89f 	cmp	x4, #0xfe
    314c:	91000484 	add	x4, x4, #0x1
    3150:	54000640 	b.eq	3218 <__trunctfsf2+0x218>  // b.none
    3154:	d3436422 	ubfx	x2, x1, #3, #23
    3158:	2a045c44 	orr	w4, w2, w4, lsl #23
    315c:	2a067c93 	orr	w19, w4, w6, lsl #31
    3160:	94000118 	bl	35c0 <__sfp_handle_exceptions>
    3164:	17ffffd1 	b	30a8 <__trunctfsf2+0xa8>
    3168:	926a0462 	and	x2, x3, #0xc00000
    316c:	52800027 	mov	w7, #0x1                   	// #1
    3170:	f150005f 	cmp	x2, #0x400, lsl #12
    3174:	d2800004 	mov	x4, #0x0                   	// #0
    3178:	d2800021 	mov	x1, #0x1                   	// #1
    317c:	54fffd61 	b.ne	3128 <__trunctfsf2+0x128>  // b.any
    3180:	35000046 	cbnz	w6, 3188 <__trunctfsf2+0x188>
    3184:	91002021 	add	x1, x1, #0x8
    3188:	52800200 	mov	w0, #0x10                  	// #16
    318c:	17ffffbe 	b	3084 <__trunctfsf2+0x84>
    3190:	d2801fe4 	mov	x4, #0xff                  	// #255
    3194:	52800280 	mov	w0, #0x14                  	// #20
    3198:	17ffffcc 	b	30c8 <__trunctfsf2+0xc8>
    319c:	d372fc02 	lsr	x2, x0, #50
    31a0:	d35cfc01 	lsr	x1, x0, #28
    31a4:	52000040 	eor	w0, w2, #0x1
    31a8:	d28fffe2 	mov	x2, #0x7fff                	// #32767
    31ac:	eb02009f 	cmp	x4, x2
    31b0:	b26a0021 	orr	x1, x1, #0x400000
    31b4:	1a9f0000 	csel	w0, w0, wzr, eq  // eq = none
    31b8:	52801fe4 	mov	w4, #0xff                  	// #255
    31bc:	17ffffc5 	b	30d0 <__trunctfsf2+0xd0>
    31c0:	b1005c9f 	cmn	x4, #0x17
    31c4:	54fffd2b 	b.lt	3168 <__trunctfsf2+0x168>  // b.tstop
    31c8:	b24d0000 	orr	x0, x0, #0x8000000000000
    31cc:	11009882 	add	w2, w4, #0x26
    31d0:	52800341 	mov	w1, #0x1a                  	// #26
    31d4:	4b040024 	sub	w4, w1, w4
    31d8:	9ac22002 	lsl	x2, x0, x2
    31dc:	aa050045 	orr	x5, x2, x5
    31e0:	f10000bf 	cmp	x5, #0x0
    31e4:	9ac42400 	lsr	x0, x0, x4
    31e8:	9a9f07e1 	cset	x1, ne  // ne = any
    31ec:	aa010001 	orr	x1, x0, x1
    31f0:	f2400822 	ands	x2, x1, #0x7
    31f4:	54000080 	b.eq	3204 <__trunctfsf2+0x204>  // b.none
    31f8:	52800027 	mov	w7, #0x1                   	// #1
    31fc:	d2800004 	mov	x4, #0x0                   	// #0
    3200:	17ffffc7 	b	311c <__trunctfsf2+0x11c>
    3204:	36580283 	tbz	w3, #11, 3254 <__trunctfsf2+0x254>
    3208:	52800000 	mov	w0, #0x0                   	// #0
    320c:	d2800004 	mov	x4, #0x0                   	// #0
    3210:	321d0000 	orr	w0, w0, #0x8
    3214:	17ffffcc 	b	3144 <__trunctfsf2+0x144>
    3218:	2a0403e2 	mov	w2, w4
    321c:	f26a0463 	ands	x3, x3, #0xc00000
    3220:	54000140 	b.eq	3248 <__trunctfsf2+0x248>  // b.none
    3224:	f150007f 	cmp	x3, #0x400, lsl #12
    3228:	54000360 	b.eq	3294 <__trunctfsf2+0x294>  // b.none
    322c:	f160007f 	cmp	x3, #0x800, lsl #12
    3230:	52801fc3 	mov	w3, #0xfe                  	// #254
    3234:	1a9f00c1 	csel	w1, w6, wzr, eq  // eq = none
    3238:	92fc0004 	mov	x4, #0x1fffffffffffffff    	// #2305843009213693951
    323c:	7100003f 	cmp	w1, #0x0
    3240:	1a831042 	csel	w2, w2, w3, ne  // ne = any
    3244:	9a8413e3 	csel	x3, xzr, x4, ne  // ne = any
    3248:	52800281 	mov	w1, #0x14                  	// #20
    324c:	2a010000 	orr	w0, w0, w1
    3250:	17ffff92 	b	3098 <__trunctfsf2+0x98>
    3254:	d2800004 	mov	x4, #0x0                   	// #0
    3258:	52800000 	mov	w0, #0x0                   	// #0
    325c:	d343fc21 	lsr	x1, x1, #3
    3260:	12001c84 	and	w4, w4, #0xff
    3264:	17ffff9b 	b	30d0 <__trunctfsf2+0xd0>
    3268:	92400c22 	and	x2, x1, #0xf
    326c:	f100105f 	cmp	x2, #0x4
    3270:	91001022 	add	x2, x1, #0x4
    3274:	9a811041 	csel	x1, x2, x1, ne  // ne = any
    3278:	17ffff83 	b	3084 <__trunctfsf2+0x84>
    327c:	34fff8a6 	cbz	w6, 3190 <__trunctfsf2+0x190>
    3280:	52800280 	mov	w0, #0x14                  	// #20
    3284:	d2801fc4 	mov	x4, #0xfe                  	// #254
    3288:	92800001 	mov	x1, #0xffffffffffffffff    	// #-1
    328c:	52800007 	mov	w7, #0x0                   	// #0
    3290:	17ffff7d 	b	3084 <__trunctfsf2+0x84>
    3294:	710000df 	cmp	w6, #0x0
    3298:	52801fc1 	mov	w1, #0xfe                  	// #254
    329c:	1a810082 	csel	w2, w4, w1, eq  // eq = none
    32a0:	92fc0004 	mov	x4, #0x1fffffffffffffff    	// #2305843009213693951
    32a4:	9a8403e3 	csel	x3, xzr, x4, eq  // eq = none
    32a8:	17ffffe8 	b	3248 <__trunctfsf2+0x248>
    32ac:	00000000 	.inst	0x00000000 ; undefined

00000000000032b0 <__trunctfdf2>:
    32b0:	a9bd7bfd 	stp	x29, x30, [sp, #-48]!
    32b4:	910003fd 	mov	x29, sp
    32b8:	f9000bf3 	str	x19, [sp, #16]
    32bc:	3d800be0 	str	q0, [sp, #32]
    32c0:	a94203e3 	ldp	x3, x0, [sp, #32]
    32c4:	d53b4406 	mrs	x6, fpcr
    32c8:	d370f802 	ubfx	x2, x0, #48, #15
    32cc:	d37ffc04 	lsr	x4, x0, #63
    32d0:	91000441 	add	x1, x2, #0x1
    32d4:	d37dbc00 	ubfiz	x0, x0, #3, #48
    32d8:	f27f343f 	tst	x1, #0x7ffe
    32dc:	12001c84 	and	w4, w4, #0xff
    32e0:	aa43f400 	orr	x0, x0, x3, lsr #61
    32e4:	d37df065 	lsl	x5, x3, #3
    32e8:	54000400 	b.eq	3368 <__trunctfdf2+0xb8>  // b.none
    32ec:	92877fe1 	mov	x1, #0xffffffffffffc400    	// #-15360
    32f0:	8b010042 	add	x2, x2, x1
    32f4:	f11ff85f 	cmp	x2, #0x7fe
    32f8:	540005ad 	b.le	33ac <__trunctfdf2+0xfc>
    32fc:	f26a04c0 	ands	x0, x6, #0xc00000
    3300:	54000a20 	b.eq	3444 <__trunctfdf2+0x194>  // b.none
    3304:	f150001f 	cmp	x0, #0x400, lsl #12
    3308:	54001380 	b.eq	3578 <__trunctfdf2+0x2c8>  // b.none
    330c:	f160001f 	cmp	x0, #0x800, lsl #12
    3310:	1a9f0087 	csel	w7, w4, wzr, eq  // eq = none
    3314:	35000987 	cbnz	w7, 3444 <__trunctfdf2+0x194>
    3318:	92800001 	mov	x1, #0xffffffffffffffff    	// #-1
    331c:	d280ffc2 	mov	x2, #0x7fe                 	// #2046
    3320:	52800280 	mov	w0, #0x14                  	// #20
    3324:	54000661 	b.ne	33f0 <__trunctfdf2+0x140>  // b.any
    3328:	7100009f 	cmp	w4, #0x0
    332c:	91002023 	add	x3, x1, #0x8
    3330:	9a811061 	csel	x1, x3, x1, ne  // ne = any
    3334:	92490023 	and	x3, x1, #0x80000000000000
    3338:	35000607 	cbnz	w7, 33f8 <__trunctfdf2+0x148>
    333c:	b5000623 	cbnz	x3, 3400 <__trunctfdf2+0x150>
    3340:	d343fc21 	lsr	x1, x1, #3
    3344:	12002843 	and	w3, w2, #0x7ff
    3348:	92401c84 	and	x4, x4, #0xff
    334c:	b34c2c61 	bfi	x1, x3, #52, #12
    3350:	aa04fc33 	orr	x19, x1, x4, lsl #63
    3354:	9400009b 	bl	35c0 <__sfp_handle_exceptions>
    3358:	9e670260 	fmov	d0, x19
    335c:	f9400bf3 	ldr	x19, [sp, #16]
    3360:	a8c37bfd 	ldp	x29, x30, [sp], #48
    3364:	d65f03c0 	ret
    3368:	aa050001 	orr	x1, x0, x5
    336c:	b50001a2 	cbnz	x2, 33a0 <__trunctfdf2+0xf0>
    3370:	b5000561 	cbnz	x1, 341c <__trunctfdf2+0x16c>
    3374:	52800000 	mov	w0, #0x0                   	// #0
    3378:	12002842 	and	w2, w2, #0x7ff
    337c:	d2800001 	mov	x1, #0x0                   	// #0
    3380:	92401c84 	and	x4, x4, #0xff
    3384:	b34c2c41 	bfi	x1, x2, #52, #12
    3388:	aa04fc33 	orr	x19, x1, x4, lsl #63
    338c:	35fffe40 	cbnz	w0, 3354 <__trunctfdf2+0xa4>
    3390:	9e670260 	fmov	d0, x19
    3394:	f9400bf3 	ldr	x19, [sp, #16]
    3398:	a8c37bfd 	ldp	x29, x30, [sp], #48
    339c:	d65f03c0 	ret
    33a0:	b5000581 	cbnz	x1, 3450 <__trunctfdf2+0x1a0>
    33a4:	d280ffe2 	mov	x2, #0x7ff                 	// #2047
    33a8:	17fffff3 	b	3374 <__trunctfdf2+0xc4>
    33ac:	f100005f 	cmp	x2, #0x0
    33b0:	5400064d 	b.le	3478 <__trunctfdf2+0x1c8>
    33b4:	eb031fff 	cmp	xzr, x3, lsl #7
    33b8:	52800007 	mov	w7, #0x0                   	// #0
    33bc:	9a9f07e1 	cset	x1, ne  // ne = any
    33c0:	aa45f025 	orr	x5, x1, x5, lsr #60
    33c4:	aa0010a1 	orr	x1, x5, x0, lsl #4
    33c8:	52800000 	mov	w0, #0x0                   	// #0
    33cc:	f24008bf 	tst	x5, #0x7
    33d0:	54000b00 	b.eq	3530 <__trunctfdf2+0x280>  // b.none
    33d4:	926a04c3 	and	x3, x6, #0xc00000
    33d8:	f150007f 	cmp	x3, #0x400, lsl #12
    33dc:	540002c0 	b.eq	3434 <__trunctfdf2+0x184>  // b.none
    33e0:	f160007f 	cmp	x3, #0x800, lsl #12
    33e4:	52800200 	mov	w0, #0x10                  	// #16
    33e8:	54fffa00 	b.eq	3328 <__trunctfdf2+0x78>  // b.none
    33ec:	b4000a83 	cbz	x3, 353c <__trunctfdf2+0x28c>
    33f0:	92490023 	and	x3, x1, #0x80000000000000
    33f4:	34000047 	cbz	w7, 33fc <__trunctfdf2+0x14c>
    33f8:	321d0000 	orr	w0, w0, #0x8
    33fc:	b40009a3 	cbz	x3, 3530 <__trunctfdf2+0x280>
    3400:	f11ff85f 	cmp	x2, #0x7fe
    3404:	91000442 	add	x2, x2, #0x1
    3408:	54000680 	b.eq	34d8 <__trunctfdf2+0x228>  // b.none
    340c:	92fc0203 	mov	x3, #0x1fefffffffffffff    	// #2301339409586323455
    3410:	12002842 	and	w2, w2, #0x7ff
    3414:	8a410c61 	and	x1, x3, x1, lsr #3
    3418:	17ffffda 	b	3380 <__trunctfdf2+0xd0>
    341c:	926a04c3 	and	x3, x6, #0xc00000
    3420:	52800027 	mov	w7, #0x1                   	// #1
    3424:	f150007f 	cmp	x3, #0x400, lsl #12
    3428:	d2800002 	mov	x2, #0x0                   	// #0
    342c:	d2800021 	mov	x1, #0x1                   	// #1
    3430:	54fffd81 	b.ne	33e0 <__trunctfdf2+0x130>  // b.any
    3434:	35000044 	cbnz	w4, 343c <__trunctfdf2+0x18c>
    3438:	91002021 	add	x1, x1, #0x8
    343c:	52800200 	mov	w0, #0x10                  	// #16
    3440:	17ffffbd 	b	3334 <__trunctfdf2+0x84>
    3444:	d280ffe2 	mov	x2, #0x7ff                 	// #2047
    3448:	52800280 	mov	w0, #0x14                  	// #20
    344c:	17ffffcb 	b	3378 <__trunctfdf2+0xc8>
    3450:	d28fffe3 	mov	x3, #0x7fff                	// #32767
    3454:	93c5f001 	extr	x1, x0, x5, #60
    3458:	d372fc00 	lsr	x0, x0, #50
    345c:	eb03005f 	cmp	x2, x3
    3460:	d343fc21 	lsr	x1, x1, #3
    3464:	52000000 	eor	w0, w0, #0x1
    3468:	b24d0021 	orr	x1, x1, #0x8000000000000
    346c:	1a9f0000 	csel	w0, w0, wzr, eq  // eq = none
    3470:	5280ffe2 	mov	w2, #0x7ff                 	// #2047
    3474:	17ffffc3 	b	3380 <__trunctfdf2+0xd0>
    3478:	b100d05f 	cmn	x2, #0x34
    347c:	54fffd0b 	b.lt	341c <__trunctfdf2+0x16c>  // b.tstop
    3480:	d28007a3 	mov	x3, #0x3d                  	// #61
    3484:	cb020067 	sub	x7, x3, x2
    3488:	b24d0000 	orr	x0, x0, #0x8000000000000
    348c:	f100fcff 	cmp	x7, #0x3f
    3490:	5400060d 	b.le	3550 <__trunctfdf2+0x2a0>
    3494:	11010c41 	add	w1, w2, #0x43
    3498:	f10100ff 	cmp	x7, #0x40
    349c:	12800043 	mov	w3, #0xfffffffd            	// #-3
    34a0:	4b020062 	sub	w2, w3, w2
    34a4:	9ac12001 	lsl	x1, x0, x1
    34a8:	aa0100a1 	orr	x1, x5, x1
    34ac:	9a851025 	csel	x5, x1, x5, ne  // ne = any
    34b0:	9ac22400 	lsr	x0, x0, x2
    34b4:	f10000bf 	cmp	x5, #0x0
    34b8:	9a9f07e1 	cset	x1, ne  // ne = any
    34bc:	aa000021 	orr	x1, x1, x0
    34c0:	f100003f 	cmp	x1, #0x0
    34c4:	1a9f07e7 	cset	w7, ne  // ne = any
    34c8:	f240083f 	tst	x1, #0x7
    34cc:	54000240 	b.eq	3514 <__trunctfdf2+0x264>  // b.none
    34d0:	d2800002 	mov	x2, #0x0                   	// #0
    34d4:	17ffffc0 	b	33d4 <__trunctfdf2+0x124>
    34d8:	2a0203e3 	mov	w3, w2
    34dc:	f26a04c1 	ands	x1, x6, #0xc00000
    34e0:	54000140 	b.eq	3508 <__trunctfdf2+0x258>  // b.none
    34e4:	f150003f 	cmp	x1, #0x400, lsl #12
    34e8:	54000540 	b.eq	3590 <__trunctfdf2+0x2e0>  // b.none
    34ec:	f160003f 	cmp	x1, #0x800, lsl #12
    34f0:	5280ffc5 	mov	w5, #0x7fe                 	// #2046
    34f4:	1a9f0081 	csel	w1, w4, wzr, eq  // eq = none
    34f8:	92fc0002 	mov	x2, #0x1fffffffffffffff    	// #2305843009213693951
    34fc:	7100003f 	cmp	w1, #0x0
    3500:	1a851063 	csel	w3, w3, w5, ne  // ne = any
    3504:	9a8213e1 	csel	x1, xzr, x2, ne  // ne = any
    3508:	52800282 	mov	w2, #0x14                  	// #20
    350c:	2a020000 	orr	w0, w0, w2
    3510:	17ffff8e 	b	3348 <__trunctfdf2+0x98>
    3514:	92490023 	and	x3, x1, #0x80000000000000
    3518:	b5000481 	cbnz	x1, 35a8 <__trunctfdf2+0x2f8>
    351c:	d503201f 	nop
    3520:	52800000 	mov	w0, #0x0                   	// #0
    3524:	d2800022 	mov	x2, #0x1                   	// #1
    3528:	b5fff723 	cbnz	x3, 340c <__trunctfdf2+0x15c>
    352c:	d2800002 	mov	x2, #0x0                   	// #0
    3530:	d343fc21 	lsr	x1, x1, #3
    3534:	12002842 	and	w2, w2, #0x7ff
    3538:	17ffff92 	b	3380 <__trunctfdf2+0xd0>
    353c:	92400c23 	and	x3, x1, #0xf
    3540:	f100107f 	cmp	x3, #0x4
    3544:	91001023 	add	x3, x1, #0x4
    3548:	9a811061 	csel	x1, x3, x1, ne  // ne = any
    354c:	17ffff7a 	b	3334 <__trunctfdf2+0x84>
    3550:	11000c41 	add	w1, w2, #0x3
    3554:	4b020062 	sub	w2, w3, w2
    3558:	9ac120a3 	lsl	x3, x5, x1
    355c:	f100007f 	cmp	x3, #0x0
    3560:	9a9f07e3 	cset	x3, ne  // ne = any
    3564:	9ac224a2 	lsr	x2, x5, x2
    3568:	aa030042 	orr	x2, x2, x3
    356c:	9ac12000 	lsl	x0, x0, x1
    3570:	aa020001 	orr	x1, x0, x2
    3574:	17ffffd3 	b	34c0 <__trunctfdf2+0x210>
    3578:	34fff664 	cbz	w4, 3444 <__trunctfdf2+0x194>
    357c:	92800001 	mov	x1, #0xffffffffffffffff    	// #-1
    3580:	d280ffc2 	mov	x2, #0x7fe                 	// #2046
    3584:	52800007 	mov	w7, #0x0                   	// #0
    3588:	52800280 	mov	w0, #0x14                  	// #20
    358c:	17ffff6a 	b	3334 <__trunctfdf2+0x84>
    3590:	7100009f 	cmp	w4, #0x0
    3594:	5280ffc1 	mov	w1, #0x7fe                 	// #2046
    3598:	1a810043 	csel	w3, w2, w1, eq  // eq = none
    359c:	92fc0002 	mov	x2, #0x1fffffffffffffff    	// #2305843009213693951
    35a0:	9a8203e1 	csel	x1, xzr, x2, eq  // eq = none
    35a4:	17ffffd9 	b	3508 <__trunctfdf2+0x258>
    35a8:	365ffbc6 	tbz	w6, #11, 3520 <__trunctfdf2+0x270>
    35ac:	52800000 	mov	w0, #0x0                   	// #0
    35b0:	d2800002 	mov	x2, #0x0                   	// #0
    35b4:	321d0000 	orr	w0, w0, #0x8
    35b8:	17ffff91 	b	33fc <__trunctfdf2+0x14c>
    35bc:	00000000 	.inst	0x00000000 ; undefined

00000000000035c0 <__sfp_handle_exceptions>:
    35c0:	36000080 	tbz	w0, #0, 35d0 <__sfp_handle_exceptions+0x10>
    35c4:	0f000401 	movi	v1.2s, #0x0
    35c8:	1e211820 	fdiv	s0, s1, s1
    35cc:	d53b4421 	mrs	x1, fpsr
    35d0:	360800a0 	tbz	w0, #1, 35e4 <__sfp_handle_exceptions+0x24>
    35d4:	1e2e1001 	fmov	s1, #1.000000000000000000e+00
    35d8:	0f000402 	movi	v2.2s, #0x0
    35dc:	1e221820 	fdiv	s0, s1, s2
    35e0:	d53b4421 	mrs	x1, fpsr
    35e4:	36100100 	tbz	w0, #2, 3604 <__sfp_handle_exceptions+0x44>
    35e8:	5298b5c2 	mov	w2, #0xc5ae                	// #50606
    35ec:	12b01001 	mov	w1, #0x7f7fffff            	// #2139095039
    35f0:	72ae93a2 	movk	w2, #0x749d, lsl #16
    35f4:	1e270021 	fmov	s1, w1
    35f8:	1e270042 	fmov	s2, w2
    35fc:	1e222820 	fadd	s0, s1, s2
    3600:	d53b4421 	mrs	x1, fpsr
    3604:	36180080 	tbz	w0, #3, 3614 <__sfp_handle_exceptions+0x54>
    3608:	0f044401 	movi	v1.2s, #0x80, lsl #16
    360c:	1e210820 	fmul	s0, s1, s1
    3610:	d53b4421 	mrs	x1, fpsr
    3614:	362000c0 	tbz	w0, #4, 362c <__sfp_handle_exceptions+0x6c>
    3618:	12b01000 	mov	w0, #0x7f7fffff            	// #2139095039
    361c:	1e2e1002 	fmov	s2, #1.000000000000000000e+00
    3620:	1e270001 	fmov	s1, w0
    3624:	1e223820 	fsub	s0, s1, s2
    3628:	d53b4420 	mrs	x0, fpsr
    362c:	d65f03c0 	ret

0000000000003630 <TA_CreateEntryPoint>:
    3630:	a9bf7bfd 	stp	x29, x30, [sp, #-16]!
    3634:	52800023 	mov	w3, #0x1                   	// #1
    3638:	52800062 	mov	w2, #0x3                   	// #3
    363c:	910003fd 	mov	x29, sp
    3640:	528005a1 	mov	w1, #0x2d                  	// #45
    3644:	d0000124 	adrp	x4, 29000 <gcd_pairs+0x68>
    3648:	d0000120 	adrp	x0, 29000 <gcd_pairs+0x68>
    364c:	910ac884 	add	x4, x4, #0x2b2
    3650:	910c7000 	add	x0, x0, #0x31c
    3654:	94000ebd 	bl	7148 <trace_printf>
    3658:	52800000 	mov	w0, #0x0                   	// #0
    365c:	a8c17bfd 	ldp	x29, x30, [sp], #16
    3660:	d65f03c0 	ret

0000000000003664 <TA_DestroyEntryPoint>:
    3664:	d0000120 	adrp	x0, 29000 <gcd_pairs+0x68>
    3668:	910c7000 	add	x0, x0, #0x31c
    366c:	91005000 	add	x0, x0, #0x14
    3670:	d0000124 	adrp	x4, 29000 <gcd_pairs+0x68>
    3674:	52800023 	mov	w3, #0x1                   	// #1
    3678:	910ac884 	add	x4, x4, #0x2b2
    367c:	52800062 	mov	w2, #0x3                   	// #3
    3680:	52800701 	mov	w1, #0x38                  	// #56
    3684:	14000eb1 	b	7148 <trace_printf>

0000000000003688 <TA_OpenSessionEntryPoint>:
    3688:	a9be7bfd 	stp	x29, x30, [sp, #-32]!
    368c:	d0000124 	adrp	x4, 29000 <gcd_pairs+0x68>
    3690:	52800023 	mov	w3, #0x1                   	// #1
    3694:	910003fd 	mov	x29, sp
    3698:	a90153f3 	stp	x19, x20, [sp, #16]
    369c:	d0000133 	adrp	x19, 29000 <gcd_pairs+0x68>
    36a0:	910c7273 	add	x19, x19, #0x31c
    36a4:	9100a673 	add	x19, x19, #0x29
    36a8:	2a0003f4 	mov	w20, w0
    36ac:	910ac884 	add	x4, x4, #0x2b2
    36b0:	aa1303e0 	mov	x0, x19
    36b4:	52800062 	mov	w2, #0x3                   	// #3
    36b8:	52800941 	mov	w1, #0x4a                  	// #74
    36bc:	94000ea3 	bl	7148 <trace_printf>
    36c0:	35000194 	cbnz	w20, 36f0 <TA_OpenSessionEntryPoint+0x68>
    36c4:	d0000124 	adrp	x4, 29000 <gcd_pairs+0x68>
    36c8:	aa1303e0 	mov	x0, x19
    36cc:	910b0884 	add	x4, x4, #0x2c2
    36d0:	52800023 	mov	w3, #0x1                   	// #1
    36d4:	52800042 	mov	w2, #0x2                   	// #2
    36d8:	52800b01 	mov	w1, #0x58                  	// #88
    36dc:	94000e9b 	bl	7148 <trace_printf>
    36e0:	2a1403e0 	mov	w0, w20
    36e4:	a94153f3 	ldp	x19, x20, [sp, #16]
    36e8:	a8c27bfd 	ldp	x29, x30, [sp], #32
    36ec:	d65f03c0 	ret
    36f0:	129fff34 	mov	w20, #0xffff0006            	// #-65530
    36f4:	17fffffb 	b	36e0 <TA_OpenSessionEntryPoint+0x58>

00000000000036f8 <TA_CloseSessionEntryPoint>:
    36f8:	d0000120 	adrp	x0, 29000 <gcd_pairs+0x68>
    36fc:	910c7000 	add	x0, x0, #0x31c
    3700:	91010800 	add	x0, x0, #0x42
    3704:	d0000124 	adrp	x4, 29000 <gcd_pairs+0x68>
    3708:	52800023 	mov	w3, #0x1                   	// #1
    370c:	910b4084 	add	x4, x4, #0x2d0
    3710:	52800042 	mov	w2, #0x2                   	// #2
    3714:	52800ca1 	mov	w1, #0x65                  	// #101
    3718:	14000e8c 	b	7148 <trace_printf>

000000000000371c <TA_InvokeCommandEntryPoint>:
    371c:	a9bd7bfd 	stp	x29, x30, [sp, #-48]!
    3720:	910003fd 	mov	x29, sp
    3724:	a90153f3 	stp	x19, x20, [sp, #16]
    3728:	2a0103f3 	mov	w19, w1
    372c:	aa0303f4 	mov	x20, x3
    3730:	a9025bf5 	stp	x21, x22, [sp, #32]
    3734:	2a0203f6 	mov	w22, w2
    3738:	34000121 	cbz	w1, 375c <TA_InvokeCommandEntryPoint+0x40>
    373c:	7100043f 	cmp	w1, #0x1
    3740:	54000500 	b.eq	37e0 <TA_InvokeCommandEntryPoint+0xc4>  // b.none
    3744:	129fff33 	mov	w19, #0xffff0006            	// #-65530
    3748:	2a1303e0 	mov	w0, w19
    374c:	a94153f3 	ldp	x19, x20, [sp, #16]
    3750:	a9425bf5 	ldp	x21, x22, [sp, #32]
    3754:	a8c37bfd 	ldp	x29, x30, [sp], #48
    3758:	d65f03c0 	ret
    375c:	d0000135 	adrp	x21, 29000 <gcd_pairs+0x68>
    3760:	910c72b5 	add	x21, x21, #0x31c
    3764:	910172b5 	add	x21, x21, #0x5c
    3768:	d0000124 	adrp	x4, 29000 <gcd_pairs+0x68>
    376c:	aa1503e0 	mov	x0, x21
    3770:	910ac884 	add	x4, x4, #0x2b2
    3774:	52800023 	mov	w3, #0x1                   	// #1
    3778:	52800062 	mov	w2, #0x3                   	// #3
    377c:	52800e41 	mov	w1, #0x72                  	// #114
    3780:	94000e72 	bl	7148 <trace_printf>
    3784:	71000edf 	cmp	w22, #0x3
    3788:	54fffde1 	b.ne	3744 <TA_InvokeCommandEntryPoint+0x28>  // b.any
    378c:	52800140 	mov	w0, #0xa                   	// #10
    3790:	94000125 	bl	3c24 <do_matrix_test>
    3794:	b9400285 	ldr	w5, [x20]
    3798:	aa1503e0 	mov	x0, x21
    379c:	52800023 	mov	w3, #0x1                   	// #1
    37a0:	52800042 	mov	w2, #0x2                   	// #2
    37a4:	52800f21 	mov	w1, #0x79                  	// #121
    37a8:	d0000124 	adrp	x4, 29000 <gcd_pairs+0x68>
    37ac:	910b6884 	add	x4, x4, #0x2da
    37b0:	94000e66 	bl	7148 <trace_printf>
    37b4:	b9400285 	ldr	w5, [x20]
    37b8:	aa1503e0 	mov	x0, x21
    37bc:	d0000124 	adrp	x4, 29000 <gcd_pairs+0x68>
    37c0:	52800023 	mov	w3, #0x1                   	// #1
    37c4:	110004a5 	add	w5, w5, #0x1
    37c8:	b9000285 	str	w5, [x20]
    37cc:	910bc084 	add	x4, x4, #0x2f0
    37d0:	52800042 	mov	w2, #0x2                   	// #2
    37d4:	52800f61 	mov	w1, #0x7b                  	// #123
    37d8:	94000e5c 	bl	7148 <trace_printf>
    37dc:	17ffffdb 	b	3748 <TA_InvokeCommandEntryPoint+0x2c>
    37e0:	d0000135 	adrp	x21, 29000 <gcd_pairs+0x68>
    37e4:	910c72b5 	add	x21, x21, #0x31c
    37e8:	91019ab5 	add	x21, x21, #0x66
    37ec:	2a0103e3 	mov	w3, w1
    37f0:	aa1503e0 	mov	x0, x21
    37f4:	d0000124 	adrp	x4, 29000 <gcd_pairs+0x68>
    37f8:	52800062 	mov	w2, #0x3                   	// #3
    37fc:	910ac884 	add	x4, x4, #0x2b2
    3800:	52801101 	mov	w1, #0x88                  	// #136
    3804:	94000e51 	bl	7148 <trace_printf>
    3808:	71000edf 	cmp	w22, #0x3
    380c:	54fff9c1 	b.ne	3744 <TA_InvokeCommandEntryPoint+0x28>  // b.any
    3810:	b9400285 	ldr	w5, [x20]
    3814:	2a1303e3 	mov	w3, w19
    3818:	aa1503e0 	mov	x0, x21
    381c:	52800042 	mov	w2, #0x2                   	// #2
    3820:	528011a1 	mov	w1, #0x8d                  	// #141
    3824:	d0000124 	adrp	x4, 29000 <gcd_pairs+0x68>
    3828:	910b6884 	add	x4, x4, #0x2da
    382c:	94000e47 	bl	7148 <trace_printf>
    3830:	b9400285 	ldr	w5, [x20]
    3834:	2a1303e3 	mov	w3, w19
    3838:	aa1503e0 	mov	x0, x21
    383c:	d0000124 	adrp	x4, 29000 <gcd_pairs+0x68>
    3840:	510004a5 	sub	w5, w5, #0x1
    3844:	b9000285 	str	w5, [x20]
    3848:	910c1884 	add	x4, x4, #0x306
    384c:	52800042 	mov	w2, #0x2                   	// #2
    3850:	528011e1 	mov	w1, #0x8f                  	// #143
    3854:	52800013 	mov	w19, #0x0                   	// #0
    3858:	94000e3c 	bl	7148 <trace_printf>
    385c:	17ffffbb 	b	3748 <TA_InvokeCommandEntryPoint+0x2c>

0000000000003860 <gdev_test_matrixadd>:
    3860:	d10c43ff 	sub	sp, sp, #0x310
    3864:	a9007bfd 	stp	x29, x30, [sp]
    3868:	910003fd 	mov	x29, sp
    386c:	a9046bf9 	stp	x25, x26, [sp, #64]
    3870:	aa0003f9 	mov	x25, x0
    3874:	aa0103fa 	mov	x26, x1
    3878:	937e7c60 	sbfiz	x0, x3, #2, #32
    387c:	a90153f3 	stp	x19, x20, [sp, #16]
    3880:	2a0303f4 	mov	w20, w3
    3884:	d2800003 	mov	x3, #0x0                   	// #0
    3888:	a9025bf5 	stp	x21, x22, [sp, #32]
    388c:	a90363f7 	stp	x23, x24, [sp, #48]
    3890:	a90573fb 	stp	x27, x28, [sp, #80]
    3894:	a9068be0 	stp	x0, x2, [sp, #104]
    3898:	52800000 	mov	w0, #0x0                   	// #0
    389c:	b9008fff 	str	wzr, [sp, #140]
    38a0:	6b14001f 	cmp	w0, w20
    38a4:	540001cb 	b.lt	38dc <gdev_test_matrixadd+0x7c>  // b.tstop
    38a8:	52800000 	mov	w0, #0x0                   	// #0
    38ac:	9400325c 	bl	1021c <gopen>
    38b0:	aa0003f3 	mov	x19, x0
    38b4:	b50002c0 	cbnz	x0, 390c <gdev_test_matrixadd+0xac>
    38b8:	12800000 	mov	w0, #0xffffffff            	// #-1
    38bc:	a9407bfd 	ldp	x29, x30, [sp]
    38c0:	a94153f3 	ldp	x19, x20, [sp, #16]
    38c4:	a9425bf5 	ldp	x21, x22, [sp, #32]
    38c8:	a94363f7 	ldp	x23, x24, [sp, #48]
    38cc:	a9446bf9 	ldp	x25, x26, [sp, #64]
    38d0:	a94573fb 	ldp	x27, x28, [sp, #80]
    38d4:	910c43ff 	add	sp, sp, #0x310
    38d8:	d65f03c0 	ret
    38dc:	aa0303e2 	mov	x2, x3
    38e0:	52800001 	mov	w1, #0x0                   	// #0
    38e4:	b8226b20 	str	w0, [x25, x2]
    38e8:	b8226b41 	str	w1, [x26, x2]
    38ec:	11000421 	add	w1, w1, #0x1
    38f0:	91001042 	add	x2, x2, #0x4
    38f4:	6b01029f 	cmp	w20, w1
    38f8:	54ffff61 	b.ne	38e4 <gdev_test_matrixadd+0x84>  // b.any
    38fc:	f94037e1 	ldr	x1, [sp, #104]
    3900:	11000400 	add	w0, w0, #0x1
    3904:	8b010063 	add	x3, x3, x1
    3908:	17ffffe6 	b	38a0 <gdev_test_matrixadd+0x40>
    390c:	1b147e95 	mul	w21, w20, w20
    3910:	531e76b5 	lsl	w21, w21, #2
    3914:	aa1503e1 	mov	x1, x21
    3918:	940032c6 	bl	10430 <gmalloc>
    391c:	aa0003f8 	mov	x24, x0
    3920:	b4fffcc0 	cbz	x0, 38b8 <gdev_test_matrixadd+0x58>
    3924:	aa1503e1 	mov	x1, x21
    3928:	aa1303e0 	mov	x0, x19
    392c:	940032c1 	bl	10430 <gmalloc>
    3930:	aa0003f7 	mov	x23, x0
    3934:	b4fffc20 	cbz	x0, 38b8 <gdev_test_matrixadd+0x58>
    3938:	aa1503e1 	mov	x1, x21
    393c:	aa1303e0 	mov	x0, x19
    3940:	940032bc 	bl	10430 <gmalloc>
    3944:	aa0003f6 	mov	x22, x0
    3948:	b4fffb80 	cbz	x0, 38b8 <gdev_test_matrixadd+0x58>
    394c:	52802000 	mov	w0, #0x100                 	// #256
    3950:	d2802001 	mov	x1, #0x100                 	// #256
    3954:	b9009be0 	str	w0, [sp, #152]
    3958:	aa1303e0 	mov	x0, x19
    395c:	940032b5 	bl	10430 <gmalloc>
    3960:	f9004be0 	str	x0, [sp, #144]
    3964:	b4fffaa0 	cbz	x0, 38b8 <gdev_test_matrixadd+0x58>
    3968:	52804000 	mov	w0, #0x200                 	// #512
    396c:	d2804001 	mov	x1, #0x200                 	// #512
    3970:	b9009fff 	str	wzr, [sp, #156]
    3974:	b900abe0 	str	w0, [sp, #168]
    3978:	aa1303e0 	mov	x0, x19
    397c:	940032ad 	bl	10430 <gmalloc>
    3980:	f90053e0 	str	x0, [sp, #160]
    3984:	b4fff9a0 	cbz	x0, 38b8 <gdev_test_matrixadd+0x58>
    3988:	910243e0 	add	x0, sp, #0x90
    398c:	528003e1 	mov	w1, #0x1f                  	// #31
    3990:	aa0003fc 	mov	x28, x0
    3994:	b900afff 	str	wzr, [sp, #172]
    3998:	f900101f 	str	xzr, [x0, #32]
    399c:	71000421 	subs	w1, w1, #0x1
    39a0:	29057c1f 	stp	wzr, wzr, [x0, #40]
    39a4:	91004000 	add	x0, x0, #0x10
    39a8:	54ffff81 	b.ne	3998 <gdev_test_matrixadd+0x138>  // b.any
    39ac:	b0000142 	adrp	x2, 2c000 <_DYNAMIC>
    39b0:	d2800400 	mov	x0, #0x20                  	// #32
    39b4:	f2c02f80 	movk	x0, #0x17c, lsl #32
    39b8:	f90153e0 	str	x0, [sp, #672]
    39bc:	f940ec42 	ldr	x2, [x2, #472]
    39c0:	d360ff00 	lsr	x0, x24, #32
    39c4:	52802001 	mov	w1, #0x100                 	// #256
    39c8:	f90157e2 	str	x2, [sp, #680]
    39cc:	f90163ff 	str	xzr, [sp, #704]
    39d0:	b9016440 	str	w0, [x2, #356]
    39d4:	d360fee0 	lsr	x0, x23, #32
    39d8:	b9016c40 	str	w0, [x2, #364]
    39dc:	d360fec0 	lsr	x0, x22, #32
    39e0:	b9016058 	str	w24, [x2, #352]
    39e4:	b9016857 	str	w23, [x2, #360]
    39e8:	b9017056 	str	w22, [x2, #368]
    39ec:	b9017440 	str	w0, [x2, #372]
    39f0:	52a02000 	mov	w0, #0x1000000             	// #16777216
    39f4:	b9017854 	str	w20, [x2, #376]
    39f8:	910233e2 	add	x2, sp, #0x8c
    39fc:	b902cbe0 	str	w0, [sp, #712]
    3a00:	b21403e0 	mov	x0, #0x100000001000        	// #17592186048512
    3a04:	f9016bff 	str	xzr, [sp, #720]
    3a08:	f9016fe0 	str	x0, [sp, #728]
    3a0c:	aa1303e0 	mov	x0, x19
    3a10:	940033b2 	bl	108d8 <gquery>
    3a14:	b9408fe0 	ldr	w0, [sp, #140]
    3a18:	35000060 	cbnz	w0, 3a24 <gdev_test_matrixadd+0x1c4>
    3a1c:	52800400 	mov	w0, #0x20                  	// #32
    3a20:	b9008fe0 	str	w0, [sp, #140]
    3a24:	b9408fe0 	ldr	w0, [sp, #140]
    3a28:	b942dfe1 	ldr	w1, [sp, #732]
    3a2c:	1b007c21 	mul	w1, w1, w0
    3a30:	52800600 	mov	w0, #0x30                  	// #48
    3a34:	1b007c21 	mul	w1, w1, w0
    3a38:	34000101 	cbz	w1, 3a58 <gdev_test_matrixadd+0x1f8>
    3a3c:	51000421 	sub	w1, w1, #0x1
    3a40:	2a410421 	orr	w1, w1, w1, lsr #1
    3a44:	2a410821 	orr	w1, w1, w1, lsr #2
    3a48:	2a411021 	orr	w1, w1, w1, lsr #4
    3a4c:	2a412021 	orr	w1, w1, w1, lsr #8
    3a50:	2a414021 	orr	w1, w1, w1, lsr #16
    3a54:	11000421 	add	w1, w1, #0x1
    3a58:	aa1303e0 	mov	x0, x19
    3a5c:	f9015fe1 	str	x1, [sp, #696]
    3a60:	94003274 	bl	10430 <gmalloc>
    3a64:	f9015be0 	str	x0, [sp, #688]
    3a68:	b4fff280 	cbz	x0, 38b8 <gdev_test_matrixadd+0x58>
    3a6c:	d2800180 	mov	x0, #0xc                   	// #12
    3a70:	7100429f 	cmp	w20, #0x10
    3a74:	f90173e0 	str	x0, [sp, #736]
    3a78:	52800200 	mov	w0, #0x10                  	// #16
    3a7c:	1a80d280 	csel	w0, w20, w0, le
    3a80:	b902fbe0 	str	w0, [sp, #760]
    3a84:	b902ffe0 	str	w0, [sp, #764]
    3a88:	52800022 	mov	w2, #0x1                   	// #1
    3a8c:	b902ebe2 	str	w2, [sp, #744]
    3a90:	1ac00a81 	udiv	w1, w20, w0
    3a94:	b90303e2 	str	w2, [sp, #768]
    3a98:	1b00d020 	msub	w0, w1, w0, w20
    3a9c:	35000820 	cbnz	w0, 3ba0 <gdev_test_matrixadd+0x340>
    3aa0:	b902f7e2 	str	w2, [sp, #756]
    3aa4:	b0000142 	adrp	x2, 2c000 <_DYNAMIC>
    3aa8:	b9409be3 	ldr	w3, [sp, #152]
    3aac:	aa1303e0 	mov	x0, x19
    3ab0:	f940c042 	ldr	x2, [x2, #384]
    3ab4:	b902efe1 	str	w1, [sp, #748]
    3ab8:	b902f3e1 	str	w1, [sp, #752]
    3abc:	2a1403fb 	mov	w27, w20
    3ac0:	f9404be1 	ldr	x1, [sp, #144]
    3ac4:	940032d5 	bl	10618 <gmemcpy_to_device>
    3ac8:	aa1803e1 	mov	x1, x24
    3acc:	aa1503e3 	mov	x3, x21
    3ad0:	aa1903e2 	mov	x2, x25
    3ad4:	aa1303e0 	mov	x0, x19
    3ad8:	940032d0 	bl	10618 <gmemcpy_to_device>
    3adc:	aa1503e3 	mov	x3, x21
    3ae0:	aa1703e1 	mov	x1, x23
    3ae4:	aa1a03e2 	mov	x2, x26
    3ae8:	aa1303e0 	mov	x0, x19
    3aec:	940032cb 	bl	10618 <gmemcpy_to_device>
    3af0:	aa1c03e1 	mov	x1, x28
    3af4:	910223e2 	add	x2, sp, #0x88
    3af8:	aa1303e0 	mov	x0, x19
    3afc:	94003359 	bl	10860 <glaunch>
    3b00:	b9408be1 	ldr	w1, [sp, #136]
    3b04:	d2800002 	mov	x2, #0x0                   	// #0
    3b08:	aa1303e0 	mov	x0, x19
    3b0c:	5280001c 	mov	w28, #0x0                   	// #0
    3b10:	9400336b 	bl	108bc <gsync>
    3b14:	f9403be1 	ldr	x1, [sp, #112]
    3b18:	aa1603e2 	mov	x2, x22
    3b1c:	aa1503e3 	mov	x3, x21
    3b20:	aa1303e0 	mov	x0, x19
    3b24:	940032cb 	bl	10650 <gmemcpy_from_device>
    3b28:	aa1803e1 	mov	x1, x24
    3b2c:	aa1303e0 	mov	x0, x19
    3b30:	94003260 	bl	104b0 <gfree>
    3b34:	d2800018 	mov	x24, #0x0                   	// #0
    3b38:	aa1703e1 	mov	x1, x23
    3b3c:	aa1303e0 	mov	x0, x19
    3b40:	9400325c 	bl	104b0 <gfree>
    3b44:	d0000137 	adrp	x23, 29000 <gcd_pairs+0x68>
    3b48:	aa1603e1 	mov	x1, x22
    3b4c:	aa1303e0 	mov	x0, x19
    3b50:	94003258 	bl	104b0 <gfree>
    3b54:	d0000136 	adrp	x22, 29000 <gcd_pairs+0x68>
    3b58:	f9404be1 	ldr	x1, [sp, #144]
    3b5c:	aa1303e0 	mov	x0, x19
    3b60:	910e62d6 	add	x22, x22, #0x398
    3b64:	94003253 	bl	104b0 <gfree>
    3b68:	f94053e1 	ldr	x1, [sp, #160]
    3b6c:	aa1303e0 	mov	x0, x19
    3b70:	94003250 	bl	104b0 <gfree>
    3b74:	f9415be1 	ldr	x1, [sp, #688]
    3b78:	aa1303e0 	mov	x0, x19
    3b7c:	9400324d 	bl	104b0 <gfree>
    3b80:	aa1303e0 	mov	x0, x19
    3b84:	94003203 	bl	10390 <gclose>
    3b88:	910e32e0 	add	x0, x23, #0x38c
    3b8c:	f9003fe0 	str	x0, [sp, #120]
    3b90:	6b14039f 	cmp	w28, w20
    3b94:	540000ab 	b.lt	3ba8 <gdev_test_matrixadd+0x348>  // b.tstop
    3b98:	52800000 	mov	w0, #0x0                   	// #0
    3b9c:	17ffff48 	b	38bc <gdev_test_matrixadd+0x5c>
    3ba0:	11000421 	add	w1, w1, #0x1
    3ba4:	17ffffbf 	b	3aa0 <gdev_test_matrixadd+0x240>
    3ba8:	4b140377 	sub	w23, w27, w20
    3bac:	aa1803f5 	mov	x21, x24
    3bb0:	2a1703f3 	mov	w19, w23
    3bb4:	f9403be0 	ldr	x0, [sp, #112]
    3bb8:	b8756b41 	ldr	w1, [x26, x21]
    3bbc:	b8756802 	ldr	w2, [x0, x21]
    3bc0:	b8756b20 	ldr	w0, [x25, x21]
    3bc4:	0b010000 	add	w0, w0, w1
    3bc8:	6b00005f 	cmp	w2, w0
    3bcc:	54000280 	b.eq	3c1c <gdev_test_matrixadd+0x3bc>  // b.none
    3bd0:	f9403fe0 	ldr	x0, [sp, #120]
    3bd4:	2a1303e1 	mov	w1, w19
    3bd8:	94000113 	bl	4024 <printf>
    3bdc:	b8756b23 	ldr	w3, [x25, x21]
    3be0:	b8756b40 	ldr	w0, [x26, x21]
    3be4:	0b000063 	add	w3, w3, w0
    3be8:	2a1303e2 	mov	w2, w19
    3bec:	2a1303e1 	mov	w1, w19
    3bf0:	aa1603e0 	mov	x0, x22
    3bf4:	11000673 	add	w19, w19, #0x1
    3bf8:	9400010b 	bl	4024 <printf>
    3bfc:	910012b5 	add	x21, x21, #0x4
    3c00:	6b13037f 	cmp	w27, w19
    3c04:	54fffd81 	b.ne	3bb4 <gdev_test_matrixadd+0x354>  // b.any
    3c08:	f94037e0 	ldr	x0, [sp, #104]
    3c0c:	1100079c 	add	w28, w28, #0x1
    3c10:	0b1406fb 	add	w27, w23, w20, lsl #1
    3c14:	8b000318 	add	x24, x24, x0
    3c18:	17ffffde 	b	3b90 <gdev_test_matrixadd+0x330>
    3c1c:	2a0203e3 	mov	w3, w2
    3c20:	17fffff2 	b	3be8 <gdev_test_matrixadd+0x388>

0000000000003c24 <do_matrix_test>:
    3c24:	a9bd7bfd 	stp	x29, x30, [sp, #-48]!
    3c28:	910003fd 	mov	x29, sp
    3c2c:	a90153f3 	stp	x19, x20, [sp, #16]
    3c30:	1b007c14 	mul	w20, w0, w0
    3c34:	2a0003f3 	mov	w19, w0
    3c38:	a9025bf5 	stp	x21, x22, [sp, #32]
    3c3c:	937e7e94 	sbfiz	x20, x20, #2, #32
    3c40:	aa1403e0 	mov	x0, x20
    3c44:	940000c5 	bl	3f58 <malloc>
    3c48:	aa0003f6 	mov	x22, x0
    3c4c:	aa1403e0 	mov	x0, x20
    3c50:	940000c2 	bl	3f58 <malloc>
    3c54:	aa0003f5 	mov	x21, x0
    3c58:	aa1403e0 	mov	x0, x20
    3c5c:	940000bf 	bl	3f58 <malloc>
    3c60:	2a1303e3 	mov	w3, w19
    3c64:	aa0003f4 	mov	x20, x0
    3c68:	aa0003e2 	mov	x2, x0
    3c6c:	aa1503e1 	mov	x1, x21
    3c70:	aa1603e0 	mov	x0, x22
    3c74:	97fffefb 	bl	3860 <gdev_test_matrixadd>
    3c78:	340001e0 	cbz	w0, 3cb4 <do_matrix_test+0x90>
    3c7c:	d0000120 	adrp	x0, 29000 <gcd_pairs+0x68>
    3c80:	910ea800 	add	x0, x0, #0x3aa
    3c84:	9400010a 	bl	40ac <puts>
    3c88:	aa1603e0 	mov	x0, x22
    3c8c:	94000014 	bl	3cdc <free>
    3c90:	aa1503e0 	mov	x0, x21
    3c94:	94000012 	bl	3cdc <free>
    3c98:	aa1403e0 	mov	x0, x20
    3c9c:	94000010 	bl	3cdc <free>
    3ca0:	52800000 	mov	w0, #0x0                   	// #0
    3ca4:	a94153f3 	ldp	x19, x20, [sp, #16]
    3ca8:	a9425bf5 	ldp	x21, x22, [sp, #32]
    3cac:	a8c37bfd 	ldp	x29, x30, [sp], #48
    3cb0:	d65f03c0 	ret
    3cb4:	d0000120 	adrp	x0, 29000 <gcd_pairs+0x68>
    3cb8:	910edc00 	add	x0, x0, #0x3b7
    3cbc:	17fffff2 	b	3c84 <do_matrix_test+0x60>

0000000000003cc0 <__ta_entry>:
    3cc0:	a9bf7bfd 	stp	x29, x30, [sp, #-16]!
    3cc4:	910003fd 	mov	x29, sp
    3cc8:	940014e9 	bl	906c <__utee_entry>
    3ccc:	2a0003e0 	mov	w0, w0
    3cd0:	9400130a 	bl	88f8 <_utee_return>

0000000000003cd4 <tahead_get_trace_level>:
    3cd4:	52800080 	mov	w0, #0x4                   	// #4
    3cd8:	d65f03c0 	ret

0000000000003cdc <free>:
    3cdc:	14000bff 	b	6cd8 <__libc_free>

0000000000003ce0 <__simple_malloc>:
    3ce0:	a9b853f3 	stp	x19, x20, [sp, #-128]!
    3ce4:	f100001f 	cmp	x0, #0x0
    3ce8:	a9015bf5 	stp	x21, x22, [sp, #16]
    3cec:	a90263f7 	stp	x23, x24, [sp, #32]
    3cf0:	a9036bf9 	stp	x25, x26, [sp, #48]
    3cf4:	a90473fb 	stp	x27, x28, [sp, #64]
    3cf8:	f9002bfe 	str	x30, [sp, #80]
    3cfc:	540000ca 	b.ge	3d14 <__simple_malloc+0x34>  // b.tcont
    3d00:	94000d31 	bl	71c4 <__errno_location>
    3d04:	52800181 	mov	w1, #0xc                   	// #12
    3d08:	b9000001 	str	w1, [x0]
    3d0c:	d2800013 	mov	x19, #0x0                   	// #0
    3d10:	14000085 	b	3f24 <__simple_malloc+0x244>
    3d14:	d2800034 	mov	x20, #0x1                   	// #1
    3d18:	9a941015 	csel	x21, x0, x20, ne  // ne = any
    3d1c:	eb15029f 	cmp	x20, x21
    3d20:	fa4f3a82 	ccmp	x20, #0xf, #0x2, cc  // cc = lo, ul, last
    3d24:	54000a29 	b.ls	3e68 <__simple_malloc+0x188>  // b.plast
    3d28:	b0000157 	adrp	x23, 2c000 <_DYNAMIC>
    3d2c:	d0000176 	adrp	x22, 31000 <scatter.5629+0x60>
    3d30:	9124f2c0 	add	x0, x22, #0x93c
    3d34:	94000906 	bl	614c <__lock>
    3d38:	f94592f3 	ldr	x19, [x23, #2848]
    3d3c:	d1000694 	sub	x20, x20, #0x1
    3d40:	b0000158 	adrp	x24, 2c000 <_DYNAMIC>
    3d44:	cb1303fa 	neg	x26, x19
    3d48:	8a140354 	and	x20, x26, x20
    3d4c:	8b13029a 	add	x26, x20, x19
    3d50:	f90592fa 	str	x26, [x23, #2848]
    3d54:	f9459714 	ldr	x20, [x24, #2856]
    3d58:	cb1a0280 	sub	x0, x20, x26
    3d5c:	eb15001f 	cmp	x0, x21
    3d60:	54000782 	b.cs	3e50 <__simple_malloc+0x170>  // b.hs, b.nlast
    3d64:	b0000159 	adrp	x25, 2c000 <_DYNAMIC>
    3d68:	912d2333 	add	x19, x25, #0xb48
    3d6c:	b000015b 	adrp	x27, 2c000 <_DYNAMIC>
    3d70:	f9401a7c 	ldr	x28, [x19, #48]
    3d74:	d1000783 	sub	x3, x28, #0x1
    3d78:	b50001da 	cbnz	x26, 3db0 <__simple_malloc+0xd0>
    3d7c:	d2800001 	mov	x1, #0x0                   	// #0
    3d80:	d2801ac0 	mov	x0, #0xd6                  	// #214
    3d84:	f90037e3 	str	x3, [sp, #104]
    3d88:	94001108 	bl	81a8 <__syscall1>
    3d8c:	f9401a61 	ldr	x1, [x19, #48]
    3d90:	cb0003e2 	neg	x2, x0
    3d94:	f94037e3 	ldr	x3, [sp, #104]
    3d98:	d1000421 	sub	x1, x1, #0x1
    3d9c:	8a020021 	and	x1, x1, x2
    3da0:	8b000020 	add	x0, x1, x0
    3da4:	f9058f60 	str	x0, [x27, #2840]
    3da8:	f9059700 	str	x0, [x24, #2856]
    3dac:	f90592e0 	str	x0, [x23, #2848]
    3db0:	f9458f62 	ldr	x2, [x27, #2840]
    3db4:	f9459700 	ldr	x0, [x24, #2856]
    3db8:	eb00005f 	cmp	x2, x0
    3dbc:	540005a1 	b.ne	3e70 <__simple_malloc+0x190>  // b.any
    3dc0:	cb1402b4 	sub	x20, x21, x20
    3dc4:	cb1c03fc 	neg	x28, x28
    3dc8:	8b030293 	add	x19, x20, x3
    3dcc:	aa2203e0 	mvn	x0, x2
    3dd0:	8b1a0273 	add	x19, x19, x26
    3dd4:	8a1c0273 	and	x19, x19, x28
    3dd8:	eb13001f 	cmp	x0, x19
    3ddc:	540004a9 	b.ls	3e70 <__simple_malloc+0x190>  // b.plast
    3de0:	912d2320 	add	x0, x25, #0xb48
    3de4:	8b130041 	add	x1, x2, x19
    3de8:	f9400403 	ldr	x3, [x0, #8]
    3dec:	d2a01000 	mov	x0, #0x800000              	// #8388608
    3df0:	eb00007f 	cmp	x3, x0
    3df4:	9a802064 	csel	x4, x3, x0, cs  // cs = hs, nlast
    3df8:	d1600084 	sub	x4, x4, #0x800, lsl #12
    3dfc:	eb04003f 	cmp	x1, x4
    3e00:	fa438042 	ccmp	x2, x3, #0x2, hi  // hi = pmore
    3e04:	54000363 	b.cc	3e70 <__simple_malloc+0x190>  // b.lo, b.ul, b.last
    3e08:	9101e3e3 	add	x3, sp, #0x78
    3e0c:	eb00007f 	cmp	x3, x0
    3e10:	9a802060 	csel	x0, x3, x0, cs  // cs = hs, nlast
    3e14:	d1600000 	sub	x0, x0, #0x800, lsl #12
    3e18:	eb00003f 	cmp	x1, x0
    3e1c:	54000069 	b.ls	3e28 <__simple_malloc+0x148>  // b.plast
    3e20:	eb03005f 	cmp	x2, x3
    3e24:	54000263 	b.cc	3e70 <__simple_malloc+0x190>  // b.lo, b.ul, b.last
    3e28:	d2801ac0 	mov	x0, #0xd6                  	// #214
    3e2c:	940010df 	bl	81a8 <__syscall1>
    3e30:	f9458f61 	ldr	x1, [x27, #2840]
    3e34:	8b010261 	add	x1, x19, x1
    3e38:	eb01001f 	cmp	x0, x1
    3e3c:	540001a1 	b.ne	3e70 <__simple_malloc+0x190>  // b.any
    3e40:	f9459700 	ldr	x0, [x24, #2856]
    3e44:	8b000273 	add	x19, x19, x0
    3e48:	f9059713 	str	x19, [x24, #2856]
    3e4c:	f9058f73 	str	x19, [x27, #2840]
    3e50:	f94592f3 	ldr	x19, [x23, #2848]
    3e54:	9124f2c0 	add	x0, x22, #0x93c
    3e58:	8b150275 	add	x21, x19, x21
    3e5c:	f90592f5 	str	x21, [x23, #2848]
    3e60:	94000905 	bl	6274 <__unlock>
    3e64:	14000030 	b	3f24 <__simple_malloc+0x244>
    3e68:	d37ffa94 	lsl	x20, x20, #1
    3e6c:	17ffffac 	b	3d1c <__simple_malloc+0x3c>
    3e70:	912d2339 	add	x25, x25, #0xb48
    3e74:	f9401b20 	ldr	x0, [x25, #48]
    3e78:	d1000413 	sub	x19, x0, #0x1
    3e7c:	cb0003f4 	neg	x20, x0
    3e80:	8b150273 	add	x19, x19, x21
    3e84:	8a140274 	and	x20, x19, x20
    3e88:	cb150281 	sub	x1, x20, x21
    3e8c:	eb540c3f 	cmp	x1, x20, lsr #3
    3e90:	54000289 	b.ls	3ee0 <__simple_malloc+0x200>  // b.plast
    3e94:	d0000163 	adrp	x3, 31000 <scatter.5629+0x60>
    3e98:	f94592e5 	ldr	x5, [x23, #2848]
    3e9c:	b9494061 	ldr	w1, [x3, #2368]
    3ea0:	53017c22 	lsr	w2, w1, #1
    3ea4:	9ac22000 	lsl	x0, x0, x2
    3ea8:	cb150004 	sub	x4, x0, x21
    3eac:	f9459702 	ldr	x2, [x24, #2856]
    3eb0:	cb050042 	sub	x2, x2, x5
    3eb4:	eb02009f 	cmp	x4, x2
    3eb8:	54000149 	b.ls	3ee0 <__simple_malloc+0x200>  // b.plast
    3ebc:	eb00029f 	cmp	x20, x0
    3ec0:	540000c2 	b.cs	3ed8 <__simple_malloc+0x1f8>  // b.hs, b.nlast
    3ec4:	71002c3f 	cmp	w1, #0xb
    3ec8:	54000068 	b.hi	3ed4 <__simple_malloc+0x1f4>  // b.pmore
    3ecc:	11000421 	add	w1, w1, #0x1
    3ed0:	b9094061 	str	w1, [x3, #2368]
    3ed4:	aa0003f4 	mov	x20, x0
    3ed8:	52800039 	mov	w25, #0x1                   	// #1
    3edc:	14000002 	b	3ee4 <__simple_malloc+0x204>
    3ee0:	52800019 	mov	w25, #0x0                   	// #0
    3ee4:	aa1403e1 	mov	x1, x20
    3ee8:	52000339 	eor	w25, w25, #0x1
    3eec:	d2800005 	mov	x5, #0x0                   	// #0
    3ef0:	12800004 	mov	w4, #0xffffffff            	// #-1
    3ef4:	52800443 	mov	w3, #0x22                  	// #34
    3ef8:	52800062 	mov	w2, #0x3                   	// #3
    3efc:	d2800000 	mov	x0, #0x0                   	// #0
    3f00:	94000018 	bl	3f60 <mmap>
    3f04:	b100041f 	cmn	x0, #0x1
    3f08:	aa0003f3 	mov	x19, x0
    3f0c:	1a9f1739 	csinc	w25, w25, wzr, ne  // ne = any
    3f10:	340001b9 	cbz	w25, 3f44 <__simple_malloc+0x264>
    3f14:	9124f2c0 	add	x0, x22, #0x93c
    3f18:	940008d7 	bl	6274 <__unlock>
    3f1c:	b100067f 	cmn	x19, #0x1
    3f20:	54ffef60 	b.eq	3d0c <__simple_malloc+0x2c>  // b.none
    3f24:	aa1303e0 	mov	x0, x19
    3f28:	a9415bf5 	ldp	x21, x22, [sp, #16]
    3f2c:	a94263f7 	ldp	x23, x24, [sp, #32]
    3f30:	a9436bf9 	ldp	x25, x26, [sp, #48]
    3f34:	a94473fb 	ldp	x27, x28, [sp, #64]
    3f38:	f9402bfe 	ldr	x30, [sp, #80]
    3f3c:	a8c853f3 	ldp	x19, x20, [sp], #128
    3f40:	d65f03c0 	ret
    3f44:	8b140013 	add	x19, x0, x20
    3f48:	f90592e0 	str	x0, [x23, #2848]
    3f4c:	f9059713 	str	x19, [x24, #2856]
    3f50:	17ffffc0 	b	3e50 <__simple_malloc+0x170>

0000000000003f54 <__libc_malloc>:
    3f54:	14000afa 	b	6b3c <__libc_malloc_impl>

0000000000003f58 <malloc>:
    3f58:	14000af9 	b	6b3c <__libc_malloc_impl>

0000000000003f5c <dummy>:
    3f5c:	d65f03c0 	ret

0000000000003f60 <mmap>:
    3f60:	a9bc53f3 	stp	x19, x20, [sp, #-64]!
    3f64:	f2402cbf 	tst	x5, #0xfff
    3f68:	a9015bf5 	stp	x21, x22, [sp, #16]
    3f6c:	a90263f7 	stp	x23, x24, [sp, #32]
    3f70:	f9001bfe 	str	x30, [sp, #48]
    3f74:	54000140 	b.eq	3f9c <mmap+0x3c>  // b.none
    3f78:	94000c93 	bl	71c4 <__errno_location>
    3f7c:	528002c1 	mov	w1, #0x16                  	// #22
    3f80:	b9000001 	str	w1, [x0]
    3f84:	92800000 	mov	x0, #0xffffffffffffffff    	// #-1
    3f88:	a9415bf5 	ldp	x21, x22, [sp, #16]
    3f8c:	a94263f7 	ldp	x23, x24, [sp, #32]
    3f90:	f9401bfe 	ldr	x30, [sp, #48]
    3f94:	a8c453f3 	ldp	x19, x20, [sp], #64
    3f98:	d65f03c0 	ret
    3f9c:	aa0003f4 	mov	x20, x0
    3fa0:	aa0103f5 	mov	x21, x1
    3fa4:	b27ff7e0 	mov	x0, #0x7ffffffffffffffe    	// #9223372036854775806
    3fa8:	eb00003f 	cmp	x1, x0
    3fac:	54000089 	b.ls	3fbc <mmap+0x5c>  // b.plast
    3fb0:	94000c85 	bl	71c4 <__errno_location>
    3fb4:	52800181 	mov	w1, #0xc                   	// #12
    3fb8:	17fffff2 	b	3f80 <mmap+0x20>
    3fbc:	2a0203f7 	mov	w23, w2
    3fc0:	2a0303f3 	mov	w19, w3
    3fc4:	2a0403f8 	mov	w24, w4
    3fc8:	aa0503f6 	mov	x22, x5
    3fcc:	36200053 	tbz	w19, #4, 3fd4 <mmap+0x74>
    3fd0:	94007145 	bl	204e4 <__vm_wait>
    3fd4:	aa1603e6 	mov	x6, x22
    3fd8:	93407f05 	sxtw	x5, w24
    3fdc:	93407e64 	sxtw	x4, w19
    3fe0:	93407ee3 	sxtw	x3, w23
    3fe4:	aa1503e2 	mov	x2, x21
    3fe8:	aa1403e1 	mov	x1, x20
    3fec:	d2801bc0 	mov	x0, #0xde                  	// #222
    3ff0:	94001082 	bl	81f8 <__syscall6>
    3ff4:	f100029f 	cmp	x20, #0x0
    3ff8:	ba410800 	ccmn	x0, #0x1, #0x0, eq  // eq = none
    3ffc:	540000a1 	b.ne	4010 <mmap+0xb0>  // b.any
    4000:	121c0673 	and	w19, w19, #0x30
    4004:	92800160 	mov	x0, #0xfffffffffffffff4    	// #-12
    4008:	7100827f 	cmp	w19, #0x20
    400c:	da9f0000 	csinv	x0, x0, xzr, eq  // eq = none
    4010:	a9415bf5 	ldp	x21, x22, [sp, #16]
    4014:	a94263f7 	ldp	x23, x24, [sp, #32]
    4018:	f9401bfe 	ldr	x30, [sp, #48]
    401c:	a8c453f3 	ldp	x19, x20, [sp], #64
    4020:	14000c86 	b	7238 <__syscall_ret>

0000000000004024 <printf>:
    4024:	d10443ff 	sub	sp, sp, #0x110
    4028:	a90d8be1 	stp	x1, x2, [sp, #216]
    402c:	910443e1 	add	x1, sp, #0x110
    4030:	a90307e1 	stp	x1, x1, [sp, #48]
    4034:	910343e1 	add	x1, sp, #0xd0
    4038:	f90023e1 	str	x1, [sp, #64]
    403c:	128006e1 	mov	w1, #0xffffffc8            	// #-56
    4040:	b9004be1 	str	w1, [sp, #72]
    4044:	12800fe1 	mov	w1, #0xffffff80            	// #-128
    4048:	b9004fe1 	str	w1, [sp, #76]
    404c:	aa0003e1 	mov	x1, x0
    4050:	a90e93e3 	stp	x3, x4, [sp, #232]
    4054:	90000140 	adrp	x0, 2c000 <_DYNAMIC>
    4058:	91188000 	add	x0, x0, #0x620
    405c:	a9430fe2 	ldp	x2, x3, [sp, #48]
    4060:	a9010fe2 	stp	x2, x3, [sp, #16]
    4064:	a9440fe2 	ldp	x2, x3, [sp, #64]
    4068:	f90003fe 	str	x30, [sp]
    406c:	a9020fe2 	stp	x2, x3, [sp, #32]
    4070:	910043e2 	add	x2, sp, #0x10
    4074:	3d8017e0 	str	q0, [sp, #80]
    4078:	3d801be1 	str	q1, [sp, #96]
    407c:	3d801fe2 	str	q2, [sp, #112]
    4080:	3d8023e3 	str	q3, [sp, #128]
    4084:	3d8027e4 	str	q4, [sp, #144]
    4088:	3d802be5 	str	q5, [sp, #160]
    408c:	3d802fe6 	str	q6, [sp, #176]
    4090:	3d8033e7 	str	q7, [sp, #192]
    4094:	a90f9be5 	stp	x5, x6, [sp, #248]
    4098:	f90087e7 	str	x7, [sp, #264]
    409c:	940006a5 	bl	5b30 <vfprintf>
    40a0:	f94003fe 	ldr	x30, [sp]
    40a4:	910443ff 	add	sp, sp, #0x110
    40a8:	d65f03c0 	ret

00000000000040ac <puts>:
    40ac:	a9bd53f3 	stp	x19, x20, [sp, #-48]!
    40b0:	90000154 	adrp	x20, 2c000 <_DYNAMIC>
    40b4:	a9015bf5 	stp	x21, x22, [sp, #16]
    40b8:	aa0003f6 	mov	x22, x0
    40bc:	91188280 	add	x0, x20, #0x620
    40c0:	b9408c01 	ldr	w1, [x0, #140]
    40c4:	f90013fe 	str	x30, [sp, #32]
    40c8:	37f80381 	tbnz	w1, #31, 4138 <puts+0x8c>
    40cc:	94000cb6 	bl	73a4 <__lockfile>
    40d0:	2a0003f5 	mov	w21, w0
    40d4:	91188293 	add	x19, x20, #0x620
    40d8:	aa1603e0 	mov	x0, x22
    40dc:	aa1303e1 	mov	x1, x19
    40e0:	94000d70 	bl	76a0 <fputs>
    40e4:	37f80380 	tbnz	w0, #31, 4154 <puts+0xa8>
    40e8:	b9409260 	ldr	w0, [x19, #144]
    40ec:	7100281f 	cmp	w0, #0xa
    40f0:	54000280 	b.eq	4140 <puts+0x94>  // b.none
    40f4:	a9420261 	ldp	x1, x0, [x19, #32]
    40f8:	eb01001f 	cmp	x0, x1
    40fc:	54000220 	b.eq	4140 <puts+0x94>  // b.none
    4100:	91000401 	add	x1, x0, #0x1
    4104:	f9001661 	str	x1, [x19, #40]
    4108:	52800141 	mov	w1, #0xa                   	// #10
    410c:	39000001 	strb	w1, [x0]
    4110:	52800001 	mov	w1, #0x0                   	// #0
    4114:	4b0103f3 	neg	w19, w1
    4118:	34000075 	cbz	w21, 4124 <puts+0x78>
    411c:	91188280 	add	x0, x20, #0x620
    4120:	94000cd6 	bl	7478 <__unlockfile>
    4124:	2a1303e0 	mov	w0, w19
    4128:	a9415bf5 	ldp	x21, x22, [sp, #16]
    412c:	f94013fe 	ldr	x30, [sp, #32]
    4130:	a8c353f3 	ldp	x19, x20, [sp], #48
    4134:	d65f03c0 	ret
    4138:	52800015 	mov	w21, #0x0                   	// #0
    413c:	17ffffe6 	b	40d4 <puts+0x28>
    4140:	52800141 	mov	w1, #0xa                   	// #10
    4144:	91188280 	add	x0, x20, #0x620
    4148:	94000ce2 	bl	74d0 <__overflow>
    414c:	531f7c01 	lsr	w1, w0, #31
    4150:	17fffff1 	b	4114 <puts+0x68>
    4154:	52800021 	mov	w1, #0x1                   	// #1
    4158:	17ffffef 	b	4114 <puts+0x68>

000000000000415c <pop_arg>:
    415c:	51002421 	sub	w1, w1, #0x9
    4160:	7100443f 	cmp	w1, #0x11
    4164:	540011a8 	b.hi	4398 <pop_arg+0x23c>  // b.pmore
    4168:	a9bf7bf3 	stp	x19, x30, [sp, #-16]!
    416c:	aa0003f3 	mov	x19, x0
    4170:	90000120 	adrp	x0, 28000 <__text_end+0x4e0c>
    4174:	91306000 	add	x0, x0, #0xc18
    4178:	f9400043 	ldr	x3, [x2]
    417c:	38614800 	ldrb	w0, [x0, w1, uxtw]
    4180:	10000061 	adr	x1, 418c <pop_arg+0x30>
    4184:	8b208820 	add	x0, x1, w0, sxtb #2
    4188:	d61f0000 	br	x0
    418c:	b9401840 	ldr	w0, [x2, #24]
    4190:	37f80100 	tbnz	w0, #31, 41b0 <pop_arg+0x54>
    4194:	91002c60 	add	x0, x3, #0xb
    4198:	927df000 	and	x0, x0, #0xfffffffffffffff8
    419c:	f9000040 	str	x0, [x2]
    41a0:	b9800060 	ldrsw	x0, [x3]
    41a4:	f9000260 	str	x0, [x19]
    41a8:	a8c17bf3 	ldp	x19, x30, [sp], #16
    41ac:	d65f03c0 	ret
    41b0:	11002001 	add	w1, w0, #0x8
    41b4:	b9001841 	str	w1, [x2, #24]
    41b8:	7100003f 	cmp	w1, #0x0
    41bc:	54fffecc 	b.gt	4194 <pop_arg+0x38>
    41c0:	f9400443 	ldr	x3, [x2, #8]
    41c4:	8b20c063 	add	x3, x3, w0, sxtw
    41c8:	17fffff6 	b	41a0 <pop_arg+0x44>
    41cc:	b9401840 	ldr	w0, [x2, #24]
    41d0:	37f800c0 	tbnz	w0, #31, 41e8 <pop_arg+0x8c>
    41d4:	91002c60 	add	x0, x3, #0xb
    41d8:	927df000 	and	x0, x0, #0xfffffffffffffff8
    41dc:	f9000040 	str	x0, [x2]
    41e0:	b9400060 	ldr	w0, [x3]
    41e4:	17fffff0 	b	41a4 <pop_arg+0x48>
    41e8:	11002001 	add	w1, w0, #0x8
    41ec:	b9001841 	str	w1, [x2, #24]
    41f0:	7100003f 	cmp	w1, #0x0
    41f4:	54ffff0c 	b.gt	41d4 <pop_arg+0x78>
    41f8:	f9400443 	ldr	x3, [x2, #8]
    41fc:	8b20c063 	add	x3, x3, w0, sxtw
    4200:	17fffff8 	b	41e0 <pop_arg+0x84>
    4204:	b9401840 	ldr	w0, [x2, #24]
    4208:	37f800c0 	tbnz	w0, #31, 4220 <pop_arg+0xc4>
    420c:	91002c60 	add	x0, x3, #0xb
    4210:	927df000 	and	x0, x0, #0xfffffffffffffff8
    4214:	f9000040 	str	x0, [x2]
    4218:	79800060 	ldrsh	x0, [x3]
    421c:	17ffffe2 	b	41a4 <pop_arg+0x48>
    4220:	11002001 	add	w1, w0, #0x8
    4224:	b9001841 	str	w1, [x2, #24]
    4228:	7100003f 	cmp	w1, #0x0
    422c:	54ffff0c 	b.gt	420c <pop_arg+0xb0>
    4230:	f9400443 	ldr	x3, [x2, #8]
    4234:	8b20c063 	add	x3, x3, w0, sxtw
    4238:	17fffff8 	b	4218 <pop_arg+0xbc>
    423c:	b9401840 	ldr	w0, [x2, #24]
    4240:	37f800c0 	tbnz	w0, #31, 4258 <pop_arg+0xfc>
    4244:	91002c60 	add	x0, x3, #0xb
    4248:	927df000 	and	x0, x0, #0xfffffffffffffff8
    424c:	f9000040 	str	x0, [x2]
    4250:	79400060 	ldrh	w0, [x3]
    4254:	17ffffd4 	b	41a4 <pop_arg+0x48>
    4258:	11002001 	add	w1, w0, #0x8
    425c:	b9001841 	str	w1, [x2, #24]
    4260:	7100003f 	cmp	w1, #0x0
    4264:	54ffff0c 	b.gt	4244 <pop_arg+0xe8>
    4268:	f9400443 	ldr	x3, [x2, #8]
    426c:	8b20c063 	add	x3, x3, w0, sxtw
    4270:	17fffff8 	b	4250 <pop_arg+0xf4>
    4274:	b9401840 	ldr	w0, [x2, #24]
    4278:	37f800c0 	tbnz	w0, #31, 4290 <pop_arg+0x134>
    427c:	91002c60 	add	x0, x3, #0xb
    4280:	927df000 	and	x0, x0, #0xfffffffffffffff8
    4284:	f9000040 	str	x0, [x2]
    4288:	39800060 	ldrsb	x0, [x3]
    428c:	17ffffc6 	b	41a4 <pop_arg+0x48>
    4290:	11002001 	add	w1, w0, #0x8
    4294:	b9001841 	str	w1, [x2, #24]
    4298:	7100003f 	cmp	w1, #0x0
    429c:	54ffff0c 	b.gt	427c <pop_arg+0x120>
    42a0:	f9400443 	ldr	x3, [x2, #8]
    42a4:	8b20c063 	add	x3, x3, w0, sxtw
    42a8:	17fffff8 	b	4288 <pop_arg+0x12c>
    42ac:	b9401840 	ldr	w0, [x2, #24]
    42b0:	37f800c0 	tbnz	w0, #31, 42c8 <pop_arg+0x16c>
    42b4:	91002c60 	add	x0, x3, #0xb
    42b8:	927df000 	and	x0, x0, #0xfffffffffffffff8
    42bc:	f9000040 	str	x0, [x2]
    42c0:	39400060 	ldrb	w0, [x3]
    42c4:	17ffffb8 	b	41a4 <pop_arg+0x48>
    42c8:	11002001 	add	w1, w0, #0x8
    42cc:	b9001841 	str	w1, [x2, #24]
    42d0:	7100003f 	cmp	w1, #0x0
    42d4:	54ffff0c 	b.gt	42b4 <pop_arg+0x158>
    42d8:	f9400443 	ldr	x3, [x2, #8]
    42dc:	8b20c063 	add	x3, x3, w0, sxtw
    42e0:	17fffff8 	b	42c0 <pop_arg+0x164>
    42e4:	b9401840 	ldr	w0, [x2, #24]
    42e8:	37f800c0 	tbnz	w0, #31, 4300 <pop_arg+0x1a4>
    42ec:	91003c60 	add	x0, x3, #0xf
    42f0:	927df000 	and	x0, x0, #0xfffffffffffffff8
    42f4:	f9000040 	str	x0, [x2]
    42f8:	f9400060 	ldr	x0, [x3]
    42fc:	17ffffaa 	b	41a4 <pop_arg+0x48>
    4300:	11002001 	add	w1, w0, #0x8
    4304:	b9001841 	str	w1, [x2, #24]
    4308:	7100003f 	cmp	w1, #0x0
    430c:	54ffff0c 	b.gt	42ec <pop_arg+0x190>
    4310:	f9400443 	ldr	x3, [x2, #8]
    4314:	8b20c063 	add	x3, x3, w0, sxtw
    4318:	17fffff8 	b	42f8 <pop_arg+0x19c>
    431c:	b9401c40 	ldr	w0, [x2, #28]
    4320:	37f80100 	tbnz	w0, #31, 4340 <pop_arg+0x1e4>
    4324:	91003c60 	add	x0, x3, #0xf
    4328:	927df000 	and	x0, x0, #0xfffffffffffffff8
    432c:	f9000040 	str	x0, [x2]
    4330:	fd400060 	ldr	d0, [x3]
    4334:	97fffadf 	bl	2eb0 <__extenddftf2>
    4338:	3d800260 	str	q0, [x19]
    433c:	17ffff9b 	b	41a8 <pop_arg+0x4c>
    4340:	11004001 	add	w1, w0, #0x10
    4344:	b9001c41 	str	w1, [x2, #28]
    4348:	7100003f 	cmp	w1, #0x0
    434c:	54fffecc 	b.gt	4324 <pop_arg+0x1c8>
    4350:	f9400843 	ldr	x3, [x2, #16]
    4354:	8b20c063 	add	x3, x3, w0, sxtw
    4358:	17fffff6 	b	4330 <pop_arg+0x1d4>
    435c:	b9401c40 	ldr	w0, [x2, #28]
    4360:	37f800e0 	tbnz	w0, #31, 437c <pop_arg+0x220>
    4364:	91003c63 	add	x3, x3, #0xf
    4368:	927cec63 	and	x3, x3, #0xfffffffffffffff0
    436c:	91004060 	add	x0, x3, #0x10
    4370:	f9000040 	str	x0, [x2]
    4374:	3dc00060 	ldr	q0, [x3]
    4378:	17fffff0 	b	4338 <pop_arg+0x1dc>
    437c:	11004001 	add	w1, w0, #0x10
    4380:	b9001c41 	str	w1, [x2, #28]
    4384:	7100003f 	cmp	w1, #0x0
    4388:	54fffeec 	b.gt	4364 <pop_arg+0x208>
    438c:	f9400843 	ldr	x3, [x2, #16]
    4390:	8b20c063 	add	x3, x3, w0, sxtw
    4394:	17fffff8 	b	4374 <pop_arg+0x218>
    4398:	d65f03c0 	ret

000000000000439c <fmt_u>:
    439c:	aa0003e2 	mov	x2, x0
    43a0:	aa0103e0 	mov	x0, x1
    43a4:	d2800141 	mov	x1, #0xa                   	// #10
    43a8:	b5000042 	cbnz	x2, 43b0 <fmt_u+0x14>
    43ac:	d65f03c0 	ret
    43b0:	9ac10843 	udiv	x3, x2, x1
    43b4:	9b018862 	msub	x2, x3, x1, x2
    43b8:	1100c042 	add	w2, w2, #0x30
    43bc:	381ffc02 	strb	w2, [x0, #-1]!
    43c0:	aa0303e2 	mov	x2, x3
    43c4:	17fffff9 	b	43a8 <fmt_u+0xc>

00000000000043c8 <getint>:
    43c8:	52999984 	mov	w4, #0xcccc                	// #52428
    43cc:	aa0003e3 	mov	x3, x0
    43d0:	72a19984 	movk	w4, #0xccc, lsl #16
    43d4:	52800000 	mov	w0, #0x0                   	// #0
    43d8:	12800005 	mov	w5, #0xffffffff            	// #-1
    43dc:	12800126 	mov	w6, #0xfffffff6            	// #-10
    43e0:	12b00007 	mov	w7, #0x7fffffff            	// #2147483647
    43e4:	52800148 	mov	w8, #0xa                   	// #10
    43e8:	f9400062 	ldr	x2, [x3]
    43ec:	39400041 	ldrb	w1, [x2]
    43f0:	5100c021 	sub	w1, w1, #0x30
    43f4:	7100243f 	cmp	w1, #0x9
    43f8:	54000049 	b.ls	4400 <getint+0x38>  // b.plast
    43fc:	d65f03c0 	ret
    4400:	6b04001f 	cmp	w0, w4
    4404:	54000108 	b.hi	4424 <getint+0x5c>  // b.pmore
    4408:	1b061c09 	madd	w9, w0, w6, w7
    440c:	1b080400 	madd	w0, w0, w8, w1
    4410:	6b09003f 	cmp	w1, w9
    4414:	1a85d000 	csel	w0, w0, w5, le
    4418:	91000442 	add	x2, x2, #0x1
    441c:	f9000062 	str	x2, [x3]
    4420:	17fffff2 	b	43e8 <getint+0x20>
    4424:	12800000 	mov	w0, #0xffffffff            	// #-1
    4428:	17fffffc 	b	4418 <getint+0x50>

000000000000442c <out>:
    442c:	aa0003e3 	mov	x3, x0
    4430:	aa0103e0 	mov	x0, x1
    4434:	aa0203e1 	mov	x1, x2
    4438:	b9400062 	ldr	w2, [x3]
    443c:	37280062 	tbnz	w2, #5, 4448 <out+0x1c>
    4440:	aa0303e2 	mov	x2, x3
    4444:	14000ca7 	b	76e0 <__fwritex>
    4448:	d65f03c0 	ret

000000000000444c <pad>:
    444c:	12130c84 	and	w4, w4, #0x1e000
    4450:	12107484 	and	w4, w4, #0xffff3fff
    4454:	35000484 	cbnz	w4, 44e4 <pad+0x98>
    4458:	6b02007f 	cmp	w3, w2
    445c:	5400044a 	b.ge	44e4 <pad+0x98>  // b.tcont
    4460:	a9ad53f3 	stp	x19, x20, [sp, #-304]!
    4464:	4b030053 	sub	w19, w2, w3
    4468:	7104027f 	cmp	w19, #0x100
    446c:	52802002 	mov	w2, #0x100                 	// #256
    4470:	1a82d262 	csel	w2, w19, w2, le
    4474:	a9015bf5 	stp	x21, x22, [sp, #16]
    4478:	9100c3f5 	add	x21, sp, #0x30
    447c:	aa0003f4 	mov	x20, x0
    4480:	12001c21 	and	w1, w1, #0xff
    4484:	93407c42 	sxtw	x2, w2
    4488:	aa1503e0 	mov	x0, x21
    448c:	2a1303f6 	mov	w22, w19
    4490:	f90013fe 	str	x30, [sp, #32]
    4494:	940006ec 	bl	6044 <memset>
    4498:	7103fedf 	cmp	w22, #0xff
    449c:	5400018c 	b.gt	44cc <pad+0x80>
    44a0:	53087e62 	lsr	w2, w19, #8
    44a4:	12801fe3 	mov	w3, #0xffffff00            	// #-256
    44a8:	aa1503e1 	mov	x1, x21
    44ac:	aa1403e0 	mov	x0, x20
    44b0:	1b034c42 	madd	w2, w2, w3, w19
    44b4:	93407c42 	sxtw	x2, w2
    44b8:	97ffffdd 	bl	442c <out>
    44bc:	a9415bf5 	ldp	x21, x22, [sp, #16]
    44c0:	f94013fe 	ldr	x30, [sp, #32]
    44c4:	a8d353f3 	ldp	x19, x20, [sp], #304
    44c8:	d65f03c0 	ret
    44cc:	aa1503e1 	mov	x1, x21
    44d0:	aa1403e0 	mov	x0, x20
    44d4:	d2802002 	mov	x2, #0x100                 	// #256
    44d8:	510402d6 	sub	w22, w22, #0x100
    44dc:	97ffffd4 	bl	442c <out>
    44e0:	17ffffee 	b	4498 <pad+0x4c>
    44e4:	d65f03c0 	ret

00000000000044e8 <fmt_fp>:
    44e8:	d283ba0c 	mov	x12, #0x1dd0                	// #7632
    44ec:	cb2c63ff 	sub	sp, sp, x12
    44f0:	a90053f3 	stp	x19, x20, [sp]
    44f4:	aa0003f4 	mov	x20, x0
    44f8:	2a0203f3 	mov	w19, w2
    44fc:	a9015bf5 	stp	x21, x22, [sp, #16]
    4500:	2a0103f6 	mov	w22, w1
    4504:	a90263f7 	stp	x23, x24, [sp, #32]
    4508:	2a0403f7 	mov	w23, w4
    450c:	a9036bf9 	stp	x25, x26, [sp, #48]
    4510:	2a0303f9 	mov	w25, w3
    4514:	a90473fb 	stp	x27, x28, [sp, #64]
    4518:	f9002bfe 	str	x30, [sp, #80]
    451c:	3d801be0 	str	q0, [sp, #96]
    4520:	b900cfff 	str	wzr, [sp, #204]
    4524:	a9466ffc 	ldp	x28, x27, [sp, #96]
    4528:	94000b6a 	bl	72d0 <__signbitl>
    452c:	34000560 	cbz	w0, 45d8 <fmt_fp+0xf0>
    4530:	b0000138 	adrp	x24, 29000 <gcd_pairs+0x68>
    4534:	d241037b 	eor	x27, x27, #0x8000000000000000
    4538:	9113b318 	add	x24, x24, #0x4ec
    453c:	52800035 	mov	w21, #0x1                   	// #1
    4540:	a9066ffc 	stp	x28, x27, [sp, #96]
    4544:	3dc01be0 	ldr	q0, [sp, #96]
    4548:	94000b4d 	bl	727c <__fpclassifyl>
    454c:	7100041f 	cmp	w0, #0x1
    4550:	5400060c 	b.gt	4610 <fmt_fp+0x128>
    4554:	a9066ffc 	stp	x28, x27, [sp, #96]
    4558:	721b02f7 	ands	w23, w23, #0x20
    455c:	b0000120 	adrp	x0, 29000 <gcd_pairs+0x68>
    4560:	91140c00 	add	x0, x0, #0x503
    4564:	3dc01be1 	ldr	q1, [sp, #96]
    4568:	b0000133 	adrp	x19, 29000 <gcd_pairs+0x68>
    456c:	9113fe73 	add	x19, x19, #0x4ff
    4570:	9a801273 	csel	x19, x19, x0, ne  // ne = any
    4574:	4ea11c20 	mov	v0.16b, v1.16b
    4578:	97fff3bc 	bl	1468 <__eqtf2>
    457c:	340000e0 	cbz	w0, 4598 <fmt_fp+0xb0>
    4580:	710002ff 	cmp	w23, #0x0
    4584:	b0000120 	adrp	x0, 29000 <gcd_pairs+0x68>
    4588:	b0000133 	adrp	x19, 29000 <gcd_pairs+0x68>
    458c:	91142c00 	add	x0, x0, #0x50b
    4590:	91141e73 	add	x19, x19, #0x507
    4594:	9a801273 	csel	x19, x19, x0, ne  // ne = any
    4598:	11000eb7 	add	w23, w21, #0x3
    459c:	120f7b24 	and	w4, w25, #0xfffeffff
    45a0:	2a1703e3 	mov	w3, w23
    45a4:	2a1603e2 	mov	w2, w22
    45a8:	aa1403e0 	mov	x0, x20
    45ac:	52800401 	mov	w1, #0x20                  	// #32
    45b0:	97ffffa7 	bl	444c <pad>
    45b4:	93407ea2 	sxtw	x2, w21
    45b8:	aa1803e1 	mov	x1, x24
    45bc:	aa1403e0 	mov	x0, x20
    45c0:	97ffff9b 	bl	442c <out>
    45c4:	aa1303e1 	mov	x1, x19
    45c8:	d2800062 	mov	x2, #0x3                   	// #3
    45cc:	aa1403e0 	mov	x0, x20
    45d0:	97ffff97 	bl	442c <out>
    45d4:	1400027e 	b	4fcc <fmt_fp+0xae4>
    45d8:	375800d9 	tbnz	w25, #11, 45f0 <fmt_fp+0x108>
    45dc:	37000139 	tbnz	w25, #0, 4600 <fmt_fp+0x118>
    45e0:	b0000138 	adrp	x24, 29000 <gcd_pairs+0x68>
    45e4:	2a0003f5 	mov	w21, w0
    45e8:	9113b718 	add	x24, x24, #0x4ed
    45ec:	17ffffd5 	b	4540 <fmt_fp+0x58>
    45f0:	b0000138 	adrp	x24, 29000 <gcd_pairs+0x68>
    45f4:	52800035 	mov	w21, #0x1                   	// #1
    45f8:	9113bf18 	add	x24, x24, #0x4ef
    45fc:	17ffffd1 	b	4540 <fmt_fp+0x58>
    4600:	b0000138 	adrp	x24, 29000 <gcd_pairs+0x68>
    4604:	52800035 	mov	w21, #0x1                   	// #1
    4608:	9113cb18 	add	x24, x24, #0x4f2
    460c:	17ffffcd 	b	4540 <fmt_fp+0x58>
    4610:	a9066ffc 	stp	x28, x27, [sp, #96]
    4614:	910333e0 	add	x0, sp, #0xcc
    4618:	3dc01be0 	ldr	q0, [sp, #96]
    461c:	94000b34 	bl	72ec <frexpl>
    4620:	4ea01c01 	mov	v1.16b, v0.16b
    4624:	97ffee7f 	bl	20 <__addtf3>
    4628:	3d801be0 	str	q0, [sp, #96]
    462c:	a9460fe5 	ldp	x5, x3, [sp, #96]
    4630:	6f00e401 	movi	v1.2d, #0x0
    4634:	aa0503fc 	mov	x28, x5
    4638:	aa0303fb 	mov	x27, x3
    463c:	97fff38b 	bl	1468 <__eqtf2>
    4640:	34000080 	cbz	w0, 4650 <fmt_fp+0x168>
    4644:	b940cfe0 	ldr	w0, [sp, #204]
    4648:	51000400 	sub	w0, w0, #0x1
    464c:	b900cfe0 	str	w0, [sp, #204]
    4650:	321b02e0 	orr	w0, w23, #0x20
    4654:	b90063e0 	str	w0, [sp, #96]
    4658:	7101841f 	cmp	w0, #0x61
    465c:	54001981 	b.ne	498c <fmt_fp+0x4a4>  // b.any
    4660:	121b02e0 	and	w0, w23, #0x20
    4664:	b900a3e0 	str	w0, [sp, #160]
    4668:	36280057 	tbz	w23, #5, 4670 <fmt_fp+0x188>
    466c:	91002718 	add	x24, x24, #0x9
    4670:	11000ab5 	add	w21, w21, #0x2
    4674:	71006a7f 	cmp	w19, #0x1a
    4678:	54000348 	b.hi	46e0 <fmt_fp+0x1f8>  // b.pmore
    467c:	90000120 	adrp	x0, 28000 <__text_end+0x4e0c>
    4680:	912bc000 	add	x0, x0, #0xaf0
    4684:	5280037a 	mov	w26, #0x1b                  	// #27
    4688:	4b13035a 	sub	w26, w26, w19
    468c:	3dc00002 	ldr	q2, [x0]
    4690:	5100075a 	sub	w26, w26, #0x1
    4694:	3100075f 	cmn	w26, #0x1
    4698:	54000e81 	b.ne	4868 <fmt_fp+0x380>  // b.any
    469c:	39400300 	ldrb	w0, [x24]
    46a0:	7100b41f 	cmp	w0, #0x2d
    46a4:	54000f01 	b.ne	4884 <fmt_fp+0x39c>  // b.any
    46a8:	d2410363 	eor	x3, x27, #0x8000000000000000
    46ac:	a9060ffc 	stp	x28, x3, [sp, #96]
    46b0:	4ea21c41 	mov	v1.16b, v2.16b
    46b4:	3dc01be0 	ldr	q0, [sp, #96]
    46b8:	3d801fe2 	str	q2, [sp, #112]
    46bc:	97fff649 	bl	1fe0 <__subtf3>
    46c0:	4ea01c01 	mov	v1.16b, v0.16b
    46c4:	3dc01fe2 	ldr	q2, [sp, #112]
    46c8:	4ea21c40 	mov	v0.16b, v2.16b
    46cc:	97ffee55 	bl	20 <__addtf3>
    46d0:	3d801be0 	str	q0, [sp, #96]
    46d4:	a9460fe5 	ldp	x5, x3, [sp, #96]
    46d8:	aa0503fc 	mov	x28, x5
    46dc:	d241007b 	eor	x27, x3, #0x8000000000000000
    46e0:	910343e0 	add	x0, sp, #0xd0
    46e4:	f90033e0 	str	x0, [sp, #96]
    46e8:	91003004 	add	x4, x0, #0xc
    46ec:	b940cfe0 	ldr	w0, [sp, #204]
    46f0:	aa0403e1 	mov	x1, x4
    46f4:	7100001f 	cmp	w0, #0x0
    46f8:	5a80a400 	cneg	w0, w0, lt  // lt = tstop
    46fc:	93407c00 	sxtw	x0, w0
    4700:	97ffff27 	bl	439c <fmt_u>
    4704:	eb04001f 	cmp	x0, x4
    4708:	540000a1 	b.ne	471c <fmt_fp+0x234>  // b.any
    470c:	52800600 	mov	w0, #0x30                  	// #48
    4710:	39036fe0 	strb	w0, [sp, #219]
    4714:	f94033e0 	ldr	x0, [sp, #96]
    4718:	91002c00 	add	x0, x0, #0xb
    471c:	b940cfe1 	ldr	w1, [sp, #204]
    4720:	52800562 	mov	w2, #0x2b                  	// #43
    4724:	11003ef7 	add	w23, w23, #0xf
    4728:	381fe017 	sturb	w23, [x0, #-2]
    472c:	7100003f 	cmp	w1, #0x0
    4730:	528005a1 	mov	w1, #0x2d                  	// #45
    4734:	1a82b021 	csel	w1, w1, w2, lt  // lt = tstop
    4738:	381ff001 	sturb	w1, [x0, #-1]
    473c:	d1000801 	sub	x1, x0, #0x2
    4740:	b0000120 	adrp	x0, 29000 <gcd_pairs+0x68>
    4744:	911bc000 	add	x0, x0, #0x6f0
    4748:	910383fa 	add	x26, sp, #0xe0
    474c:	f90043fa 	str	x26, [sp, #128]
    4750:	f9004fe1 	str	x1, [sp, #152]
    4754:	f90057e0 	str	x0, [sp, #168]
    4758:	121d0320 	and	w0, w25, #0x8
    475c:	b900b3e0 	str	w0, [sp, #176]
    4760:	a9076ffc 	stp	x28, x27, [sp, #112]
    4764:	aa1a03f7 	mov	x23, x26
    4768:	3dc01fe0 	ldr	q0, [sp, #112]
    476c:	97fff8d5 	bl	2ac0 <__fixtfsi>
    4770:	f94057e1 	ldr	x1, [sp, #168]
    4774:	3860c824 	ldrb	w4, [x1, w0, sxtw]
    4778:	b940a3e1 	ldr	w1, [sp, #160]
    477c:	2a040024 	orr	w4, w1, w4
    4780:	380016e4 	strb	w4, [x23], #1
    4784:	97fff943 	bl	2c90 <__floatsitf>
    4788:	a9076ffc 	stp	x28, x27, [sp, #112]
    478c:	4ea01c01 	mov	v1.16b, v0.16b
    4790:	3dc01fe0 	ldr	q0, [sp, #112]
    4794:	97fff613 	bl	1fe0 <__subtf3>
    4798:	90000120 	adrp	x0, 28000 <__text_end+0x4e0c>
    479c:	912bc000 	add	x0, x0, #0xaf0
    47a0:	3dc00001 	ldr	q1, [x0]
    47a4:	97fff415 	bl	17f8 <__multf3>
    47a8:	3d801fe0 	str	q0, [sp, #112]
    47ac:	a9470fe5 	ldp	x5, x3, [sp, #112]
    47b0:	f94043e0 	ldr	x0, [sp, #128]
    47b4:	cb0002e0 	sub	x0, x23, x0
    47b8:	aa0503fc 	mov	x28, x5
    47bc:	aa0303fb 	mov	x27, x3
    47c0:	f100041f 	cmp	x0, #0x1
    47c4:	540001c1 	b.ne	47fc <fmt_fp+0x314>  // b.any
    47c8:	6f00e401 	movi	v1.2d, #0x0
    47cc:	97fff327 	bl	1468 <__eqtf2>
    47d0:	7100001f 	cmp	w0, #0x0
    47d4:	1a9f07e4 	cset	w4, ne  // ne = any
    47d8:	7100027f 	cmp	w19, #0x0
    47dc:	1a9fd7e0 	cset	w0, gt
    47e0:	2a040000 	orr	w0, w0, w4
    47e4:	37000060 	tbnz	w0, #0, 47f0 <fmt_fp+0x308>
    47e8:	b940b3e0 	ldr	w0, [sp, #176]
    47ec:	34000120 	cbz	w0, 4810 <fmt_fp+0x328>
    47f0:	91000b57 	add	x23, x26, #0x2
    47f4:	528005c0 	mov	w0, #0x2e                  	// #46
    47f8:	39000740 	strb	w0, [x26, #1]
    47fc:	6f00e401 	movi	v1.2d, #0x0
    4800:	a9076ffc 	stp	x28, x27, [sp, #112]
    4804:	3dc01fe0 	ldr	q0, [sp, #112]
    4808:	97fff318 	bl	1468 <__eqtf2>
    480c:	35000560 	cbnz	w0, 48b8 <fmt_fp+0x3d0>
    4810:	f94033e0 	ldr	x0, [sp, #96]
    4814:	93407e61 	sxtw	x1, w19
    4818:	93407ebc 	sxtw	x28, w21
    481c:	9100301a 	add	x26, x0, #0xc
    4820:	f9404fe0 	ldr	x0, [sp, #152]
    4824:	cb00035a 	sub	x26, x26, x0
    4828:	d29fffa0 	mov	x0, #0xfffd                	// #65533
    482c:	f2afffe0 	movk	x0, #0x7fff, lsl #16
    4830:	cb1a0000 	sub	x0, x0, x26
    4834:	cb35c000 	sub	x0, x0, w21, sxtw
    4838:	eb33c01f 	cmp	x0, w19, sxtw
    483c:	5400042a 	b.ge	48c0 <fmt_fp+0x3d8>  // b.tcont
    4840:	12800000 	mov	w0, #0xffffffff            	// #-1
    4844:	d283ba0c 	mov	x12, #0x1dd0                	// #7632
    4848:	a94053f3 	ldp	x19, x20, [sp]
    484c:	a9415bf5 	ldp	x21, x22, [sp, #16]
    4850:	a94263f7 	ldp	x23, x24, [sp, #32]
    4854:	a9436bf9 	ldp	x25, x26, [sp, #48]
    4858:	a94473fb 	ldp	x27, x28, [sp, #64]
    485c:	f9402bfe 	ldr	x30, [sp, #80]
    4860:	8b2c63ff 	add	sp, sp, x12
    4864:	d65f03c0 	ret
    4868:	90000120 	adrp	x0, 28000 <__text_end+0x4e0c>
    486c:	912bc000 	add	x0, x0, #0xaf0
    4870:	4ea21c40 	mov	v0.16b, v2.16b
    4874:	3dc00001 	ldr	q1, [x0]
    4878:	97fff3e0 	bl	17f8 <__multf3>
    487c:	4ea01c02 	mov	v2.16b, v0.16b
    4880:	17ffff84 	b	4690 <fmt_fp+0x1a8>
    4884:	a9066ffc 	stp	x28, x27, [sp, #96]
    4888:	4ea21c40 	mov	v0.16b, v2.16b
    488c:	3dc01be1 	ldr	q1, [sp, #96]
    4890:	3d801be2 	str	q2, [sp, #96]
    4894:	97ffede3 	bl	20 <__addtf3>
    4898:	3dc01be2 	ldr	q2, [sp, #96]
    489c:	4ea21c41 	mov	v1.16b, v2.16b
    48a0:	97fff5d0 	bl	1fe0 <__subtf3>
    48a4:	3d801be0 	str	q0, [sp, #96]
    48a8:	a9460fe5 	ldp	x5, x3, [sp, #96]
    48ac:	aa0503fc 	mov	x28, x5
    48b0:	aa0303fb 	mov	x27, x3
    48b4:	17ffff8b 	b	46e0 <fmt_fp+0x1f8>
    48b8:	aa1703fa 	mov	x26, x23
    48bc:	17ffffa9 	b	4760 <fmt_fp+0x278>
    48c0:	f94043e0 	ldr	x0, [sp, #128]
    48c4:	cb0002f7 	sub	x23, x23, x0
    48c8:	0b17035b 	add	w27, w26, w23
    48cc:	340005d3 	cbz	w19, 4984 <fmt_fp+0x49c>
    48d0:	d10006e0 	sub	x0, x23, #0x1
    48d4:	eb00003f 	cmp	x1, x0
    48d8:	5400056b 	b.lt	4984 <fmt_fp+0x49c>  // b.tstop
    48dc:	11000a73 	add	w19, w19, #0x2
    48e0:	0b1a0273 	add	w19, w19, w26
    48e4:	0b150275 	add	w21, w19, w21
    48e8:	2a1903e4 	mov	w4, w25
    48ec:	2a1503e3 	mov	w3, w21
    48f0:	2a1603e2 	mov	w2, w22
    48f4:	aa1403e0 	mov	x0, x20
    48f8:	52800401 	mov	w1, #0x20                  	// #32
    48fc:	97fffed4 	bl	444c <pad>
    4900:	aa1c03e2 	mov	x2, x28
    4904:	aa1803e1 	mov	x1, x24
    4908:	aa1403e0 	mov	x0, x20
    490c:	97fffec8 	bl	442c <out>
    4910:	52100324 	eor	w4, w25, #0x10000
    4914:	2a1503e3 	mov	w3, w21
    4918:	2a1603e2 	mov	w2, w22
    491c:	aa1403e0 	mov	x0, x20
    4920:	52800601 	mov	w1, #0x30                  	// #48
    4924:	97fffeca 	bl	444c <pad>
    4928:	f94043e1 	ldr	x1, [sp, #128]
    492c:	aa1703e2 	mov	x2, x23
    4930:	aa1403e0 	mov	x0, x20
    4934:	97fffebe 	bl	442c <out>
    4938:	52800004 	mov	w4, #0x0                   	// #0
    493c:	52800003 	mov	w3, #0x0                   	// #0
    4940:	4b1b0262 	sub	w2, w19, w27
    4944:	aa1403e0 	mov	x0, x20
    4948:	52800601 	mov	w1, #0x30                  	// #48
    494c:	97fffec0 	bl	444c <pad>
    4950:	f9404fe1 	ldr	x1, [sp, #152]
    4954:	aa1a03e2 	mov	x2, x26
    4958:	aa1403e0 	mov	x0, x20
    495c:	97fffeb4 	bl	442c <out>
    4960:	aa1403e0 	mov	x0, x20
    4964:	52130324 	eor	w4, w25, #0x2000
    4968:	2a1503e3 	mov	w3, w21
    496c:	2a1603e2 	mov	w2, w22
    4970:	52800401 	mov	w1, #0x20                  	// #32
    4974:	97fffeb6 	bl	444c <pad>
    4978:	6b1602bf 	cmp	w21, w22
    497c:	1a96a2a0 	csel	w0, w21, w22, ge  // ge = tcont
    4980:	17ffffb1 	b	4844 <fmt_fp+0x35c>
    4984:	2a1b03f3 	mov	w19, w27
    4988:	17ffffd7 	b	48e4 <fmt_fp+0x3fc>
    498c:	a9086ffc 	stp	x28, x27, [sp, #128]
    4990:	7100027f 	cmp	w19, #0x0
    4994:	528000c0 	mov	w0, #0x6                   	// #6
    4998:	6f00e401 	movi	v1.2d, #0x0
    499c:	3dc023e0 	ldr	q0, [sp, #128]
    49a0:	1a80a273 	csel	w19, w19, w0, ge  // ge = tcont
    49a4:	97fff2b1 	bl	1468 <__eqtf2>
    49a8:	340001c0 	cbz	w0, 49e0 <fmt_fp+0x4f8>
    49ac:	90000120 	adrp	x0, 28000 <__text_end+0x4e0c>
    49b0:	912c0000 	add	x0, x0, #0xb00
    49b4:	a9086ffc 	stp	x28, x27, [sp, #128]
    49b8:	3dc00001 	ldr	q1, [x0]
    49bc:	3dc023e0 	ldr	q0, [sp, #128]
    49c0:	97fff38e 	bl	17f8 <__multf3>
    49c4:	3d8023e0 	str	q0, [sp, #128]
    49c8:	a9480fe5 	ldp	x5, x3, [sp, #128]
    49cc:	b940cfe0 	ldr	w0, [sp, #204]
    49d0:	51007000 	sub	w0, w0, #0x1c
    49d4:	b900cfe0 	str	w0, [sp, #204]
    49d8:	aa0503fc 	mov	x28, x5
    49dc:	aa0303fb 	mov	x27, x3
    49e0:	b940cfe6 	ldr	w6, [sp, #204]
    49e4:	910423e7 	add	x7, sp, #0x108
    49e8:	d2838103 	mov	x3, #0x1c08                	// #7176
    49ec:	8b2363e0 	add	x0, sp, x3
    49f0:	710000df 	cmp	w6, #0x0
    49f4:	9a87a007 	csel	x7, x0, x7, ge  // ge = tcont
    49f8:	aa0703fa 	mov	x26, x7
    49fc:	a9086ffc 	stp	x28, x27, [sp, #128]
    4a00:	3dc023e0 	ldr	q0, [sp, #128]
    4a04:	b9009be6 	str	w6, [sp, #152]
    4a08:	f90053e7 	str	x7, [sp, #160]
    4a0c:	97fff869 	bl	2bb0 <__fixunstfsi>
    4a10:	b8004740 	str	w0, [x26], #4
    4a14:	97fff8bf 	bl	2d10 <__floatunsitf>
    4a18:	a9086ffc 	stp	x28, x27, [sp, #128]
    4a1c:	4ea01c01 	mov	v1.16b, v0.16b
    4a20:	3dc023e0 	ldr	q0, [sp, #128]
    4a24:	97fff56f 	bl	1fe0 <__subtf3>
    4a28:	90000120 	adrp	x0, 28000 <__text_end+0x4e0c>
    4a2c:	912c4000 	add	x0, x0, #0xb10
    4a30:	3dc00001 	ldr	q1, [x0]
    4a34:	97fff371 	bl	17f8 <__multf3>
    4a38:	3d8023e0 	str	q0, [sp, #128]
    4a3c:	a9480fe5 	ldp	x5, x3, [sp, #128]
    4a40:	6f00e401 	movi	v1.2d, #0x0
    4a44:	aa0503fc 	mov	x28, x5
    4a48:	aa0303fb 	mov	x27, x3
    4a4c:	97fff287 	bl	1468 <__eqtf2>
    4a50:	b9409be6 	ldr	w6, [sp, #152]
    4a54:	f94053e7 	ldr	x7, [sp, #160]
    4a58:	35fffd20 	cbnz	w0, 49fc <fmt_fp+0x514>
    4a5c:	d2994004 	mov	x4, #0xca00                	// #51712
    4a60:	aa0703fb 	mov	x27, x7
    4a64:	528003a9 	mov	w9, #0x1d                  	// #29
    4a68:	f2a77344 	movk	x4, #0x3b9a, lsl #16
    4a6c:	710000df 	cmp	w6, #0x0
    4a70:	5400106c 	b.gt	4c7c <fmt_fp+0x794>
    4a74:	34000040 	cbz	w0, 4a7c <fmt_fp+0x594>
    4a78:	b900cfe6 	str	w6, [sp, #204]
    4a7c:	1100b660 	add	w0, w19, #0x2d
    4a80:	52800121 	mov	w1, #0x9                   	// #9
    4a84:	b940cfe8 	ldr	w8, [sp, #204]
    4a88:	5299400d 	mov	w13, #0xca00                	// #51712
    4a8c:	5280002c 	mov	w12, #0x1                   	// #1
    4a90:	72a7734d 	movk	w13, #0x3b9a, lsl #16
    4a94:	1ac10800 	udiv	w0, w0, w1
    4a98:	11000409 	add	w9, w0, #0x1
    4a9c:	52800000 	mov	w0, #0x0                   	// #0
    4aa0:	d37ef52b 	lsl	x11, x9, #2
    4aa4:	37f81208 	tbnz	w8, #31, 4ce4 <fmt_fp+0x7fc>
    4aa8:	34000040 	cbz	w0, 4ab0 <fmt_fp+0x5c8>
    4aac:	b900cfe8 	str	w8, [sp, #204]
    4ab0:	eb1a037f 	cmp	x27, x26
    4ab4:	54001662 	b.cs	4d80 <fmt_fp+0x898>  // b.hs, b.nlast
    4ab8:	cb1b00e4 	sub	x4, x7, x27
    4abc:	b9400361 	ldr	w1, [x27]
    4ac0:	52800140 	mov	w0, #0xa                   	// #10
    4ac4:	2a0003e2 	mov	w2, w0
    4ac8:	9342fc84 	asr	x4, x4, #2
    4acc:	0b040c84 	add	w4, w4, w4, lsl #3
    4ad0:	6b00003f 	cmp	w1, w0
    4ad4:	54001502 	b.cs	4d74 <fmt_fp+0x88c>  // b.hs, b.nlast
    4ad8:	b94063e0 	ldr	w0, [sp, #96]
    4adc:	b94063e1 	ldr	w1, [sp, #96]
    4ae0:	7101981f 	cmp	w0, #0x66
    4ae4:	1a9f1080 	csel	w0, w4, wzr, ne  // ne = any
    4ae8:	71019c3f 	cmp	w1, #0x67
    4aec:	4b000260 	sub	w0, w19, w0
    4af0:	540014c1 	b.ne	4d88 <fmt_fp+0x8a0>  // b.any
    4af4:	7100027f 	cmp	w19, #0x0
    4af8:	1a9f07e1 	cset	w1, ne  // ne = any
    4afc:	4b010000 	sub	w0, w0, w1
    4b00:	cb070341 	sub	x1, x26, x7
    4b04:	9342fc21 	asr	x1, x1, #2
    4b08:	d1000421 	sub	x1, x1, #0x1
    4b0c:	8b010c21 	add	x1, x1, x1, lsl #3
    4b10:	eb20c03f 	cmp	x1, w0, sxtw
    4b14:	5400088d 	b.le	4c24 <fmt_fp+0x73c>
    4b18:	11409000 	add	w0, w0, #0x24, lsl #12
    4b1c:	52800121 	mov	w1, #0x9                   	// #9
    4b20:	929fff62 	mov	x2, #0xffffffffffff0004    	// #-65532
    4b24:	1ac10c01 	sdiv	w1, w0, w1
    4b28:	8b21c8fc 	add	x28, x7, w1, sxtw #2
    4b2c:	0b010c21 	add	w1, w1, w1, lsl #3
    4b30:	4b010000 	sub	w0, w0, w1
    4b34:	8b02039c 	add	x28, x28, x2
    4b38:	52800141 	mov	w1, #0xa                   	// #10
    4b3c:	11000400 	add	w0, w0, #0x1
    4b40:	2a0103e2 	mov	w2, w1
    4b44:	7100241f 	cmp	w0, #0x9
    4b48:	54001241 	b.ne	4d90 <fmt_fp+0x8a8>  // b.any
    4b4c:	b9400382 	ldr	w2, [x28]
    4b50:	1ac10840 	udiv	w0, w2, w1
    4b54:	1b018809 	msub	w9, w0, w1, w2
    4b58:	35000089 	cbnz	w9, 4b68 <fmt_fp+0x680>
    4b5c:	91001383 	add	x3, x28, #0x4
    4b60:	eb03035f 	cmp	x26, x3
    4b64:	540005a0 	b.eq	4c18 <fmt_fp+0x730>  // b.none
    4b68:	370011a0 	tbnz	w0, #0, 4d9c <fmt_fp+0x8b4>
    4b6c:	52994000 	mov	w0, #0xca00                	// #51712
    4b70:	72a77340 	movk	w0, #0x3b9a, lsl #16
    4b74:	6b00003f 	cmp	w1, w0
    4b78:	fa5c0362 	ccmp	x27, x28, #0x2, eq  // eq = none
    4b7c:	54001142 	b.cs	4da4 <fmt_fp+0x8bc>  // b.hs, b.nlast
    4b80:	b85fc383 	ldur	w3, [x28, #-4]
    4b84:	92400063 	and	x3, x3, #0x1
    4b88:	13017c20 	asr	w0, w1, #1
    4b8c:	d2e80e08 	mov	x8, #0x4070000000000000    	// #4643211215818981376
    4b90:	6b09001f 	cmp	w0, w9
    4b94:	540010c8 	b.hi	4dac <fmt_fp+0x8c4>  // b.pmore
    4b98:	540010e1 	b.ne	4db4 <fmt_fp+0x8cc>  // b.any
    4b9c:	91001380 	add	x0, x28, #0x4
    4ba0:	b2513bea 	mov	x10, #0x3fff800000000000    	// #4611545280939032576
    4ba4:	eb00035f 	cmp	x26, x0
    4ba8:	d2e7ffe0 	mov	x0, #0x3fff000000000000    	// #4611404543450677248
    4bac:	9a8a0000 	csel	x0, x0, x10, eq  // eq = none
    4bb0:	340000d5 	cbz	w21, 4bc8 <fmt_fp+0x6e0>
    4bb4:	3940030a 	ldrb	w10, [x24]
    4bb8:	7100b55f 	cmp	w10, #0x2d
    4bbc:	54000061 	b.ne	4bc8 <fmt_fp+0x6e0>  // b.any
    4bc0:	d2410000 	eor	x0, x0, #0x8000000000000000
    4bc4:	d2f80e08 	mov	x8, #0xc070000000000000    	// #-4580160821035794432
    4bc8:	a90803ff 	stp	xzr, x0, [sp, #128]
    4bcc:	4b090042 	sub	w2, w2, w9
    4bd0:	3dc023e1 	ldr	q1, [sp, #128]
    4bd4:	a90823e3 	stp	x3, x8, [sp, #128]
    4bd8:	3dc023e0 	ldr	q0, [sp, #128]
    4bdc:	a9098fe8 	stp	x8, x3, [sp, #152]
    4be0:	b900abe2 	str	w2, [sp, #168]
    4be4:	291607e4 	stp	w4, w1, [sp, #176]
    4be8:	f9005fe7 	str	x7, [sp, #184]
    4bec:	97ffed0d 	bl	20 <__addtf3>
    4bf0:	a9498fe8 	ldp	x8, x3, [sp, #152]
    4bf4:	a90823e3 	stp	x3, x8, [sp, #128]
    4bf8:	3dc023e1 	ldr	q1, [sp, #128]
    4bfc:	97fff21b 	bl	1468 <__eqtf2>
    4c00:	b940abe2 	ldr	w2, [sp, #168]
    4c04:	b940b7e1 	ldr	w1, [sp, #180]
    4c08:	f9405fe7 	ldr	x7, [sp, #184]
    4c0c:	35000d80 	cbnz	w0, 4dbc <fmt_fp+0x8d4>
    4c10:	b940b3e4 	ldr	w4, [sp, #176]
    4c14:	b9000382 	str	w2, [x28]
    4c18:	9100139c 	add	x28, x28, #0x4
    4c1c:	eb1c035f 	cmp	x26, x28
    4c20:	9a9c935a 	csel	x26, x26, x28, ls  // ls = plast
    4c24:	eb1b035f 	cmp	x26, x27
    4c28:	54000069 	b.ls	4c34 <fmt_fp+0x74c>  // b.plast
    4c2c:	b85fc340 	ldur	w0, [x26, #-4]
    4c30:	34000fc0 	cbz	w0, 4e28 <fmt_fp+0x940>
    4c34:	b94063e0 	ldr	w0, [sp, #96]
    4c38:	71019c1f 	cmp	w0, #0x67
    4c3c:	54001241 	b.ne	4e84 <fmt_fp+0x99c>  // b.any
    4c40:	7100027f 	cmp	w19, #0x0
    4c44:	1a9f1673 	csinc	w19, w19, wzr, ne  // ne = any
    4c48:	6b04027f 	cmp	w19, w4
    4c4c:	3a44c881 	ccmn	w4, #0x4, #0x1, gt
    4c50:	54000f0b 	b.lt	4e30 <fmt_fp+0x948>  // b.tstop
    4c54:	11000480 	add	w0, w4, #0x1
    4c58:	510006f7 	sub	w23, w23, #0x1
    4c5c:	4b000273 	sub	w19, w19, w0
    4c60:	37181139 	tbnz	w25, #3, 4e84 <fmt_fp+0x99c>
    4c64:	eb1b035f 	cmp	x26, x27
    4c68:	54000069 	b.ls	4c74 <fmt_fp+0x78c>  // b.plast
    4c6c:	b85fc343 	ldur	w3, [x26, #-4]
    4c70:	35001c03 	cbnz	w3, 4ff0 <fmt_fp+0xb08>
    4c74:	52800122 	mov	w2, #0x9                   	// #9
    4c78:	14000076 	b	4e50 <fmt_fp+0x968>
    4c7c:	710074df 	cmp	w6, #0x1d
    4c80:	d1001343 	sub	x3, x26, #0x4
    4c84:	1a89d0c8 	csel	w8, w6, w9, le
    4c88:	52800001 	mov	w1, #0x0                   	// #0
    4c8c:	eb03037f 	cmp	x27, x3
    4c90:	54000169 	b.ls	4cbc <fmt_fp+0x7d4>  // b.plast
    4c94:	34000061 	cbz	w1, 4ca0 <fmt_fp+0x7b8>
    4c98:	d100137b 	sub	x27, x27, #0x4
    4c9c:	b9000361 	str	w1, [x27]
    4ca0:	eb1b035f 	cmp	x26, x27
    4ca4:	54000069 	b.ls	4cb0 <fmt_fp+0x7c8>  // b.plast
    4ca8:	b85fc340 	ldur	w0, [x26, #-4]
    4cac:	34000180 	cbz	w0, 4cdc <fmt_fp+0x7f4>
    4cb0:	4b0800c6 	sub	w6, w6, w8
    4cb4:	52800020 	mov	w0, #0x1                   	// #1
    4cb8:	17ffff6d 	b	4a6c <fmt_fp+0x584>
    4cbc:	b9400060 	ldr	w0, [x3]
    4cc0:	9ac82000 	lsl	x0, x0, x8
    4cc4:	8b214000 	add	x0, x0, w1, uxtw
    4cc8:	9ac40802 	udiv	x2, x0, x4
    4ccc:	9b048041 	msub	x1, x2, x4, x0
    4cd0:	b81fc461 	str	w1, [x3], #-4
    4cd4:	2a0203e1 	mov	w1, w2
    4cd8:	17ffffed 	b	4c8c <fmt_fp+0x7a4>
    4cdc:	d100135a 	sub	x26, x26, #0x4
    4ce0:	17fffff0 	b	4ca0 <fmt_fp+0x7b8>
    4ce4:	3100251f 	cmn	w8, #0x9
    4ce8:	5400034b 	b.lt	4d50 <fmt_fp+0x868>  // b.tstop
    4cec:	4b0803ea 	neg	w10, w8
    4cf0:	1aca2183 	lsl	w3, w12, w10
    4cf4:	aa1b03e1 	mov	x1, x27
    4cf8:	51000463 	sub	w3, w3, #0x1
    4cfc:	1aca29ae 	asr	w14, w13, w10
    4d00:	52800000 	mov	w0, #0x0                   	// #0
    4d04:	eb1a003f 	cmp	x1, x26
    4d08:	54000283 	b.cc	4d58 <fmt_fp+0x870>  // b.lo, b.ul, b.last
    4d0c:	b9400361 	ldr	w1, [x27]
    4d10:	35000041 	cbnz	w1, 4d18 <fmt_fp+0x830>
    4d14:	9100137b 	add	x27, x27, #0x4
    4d18:	34000080 	cbz	w0, 4d28 <fmt_fp+0x840>
    4d1c:	aa1a03e6 	mov	x6, x26
    4d20:	b80044c0 	str	w0, [x6], #4
    4d24:	aa0603fa 	mov	x26, x6
    4d28:	b94063e0 	ldr	w0, [sp, #96]
    4d2c:	7101981f 	cmp	w0, #0x66
    4d30:	9a9b00e0 	csel	x0, x7, x27, eq  // eq = none
    4d34:	cb000341 	sub	x1, x26, x0
    4d38:	eb81093f 	cmp	x9, x1, asr #2
    4d3c:	5400004a 	b.ge	4d44 <fmt_fp+0x85c>  // b.tcont
    4d40:	8b0b001a 	add	x26, x0, x11
    4d44:	0b0a0108 	add	w8, w8, w10
    4d48:	52800020 	mov	w0, #0x1                   	// #1
    4d4c:	17ffff56 	b	4aa4 <fmt_fp+0x5bc>
    4d50:	5280012a 	mov	w10, #0x9                   	// #9
    4d54:	17ffffe7 	b	4cf0 <fmt_fp+0x808>
    4d58:	b9400022 	ldr	w2, [x1]
    4d5c:	1aca2444 	lsr	w4, w2, w10
    4d60:	0b000080 	add	w0, w4, w0
    4d64:	b8004420 	str	w0, [x1], #4
    4d68:	0a030040 	and	w0, w2, w3
    4d6c:	1b0e7c00 	mul	w0, w0, w14
    4d70:	17ffffe5 	b	4d04 <fmt_fp+0x81c>
    4d74:	1b027c00 	mul	w0, w0, w2
    4d78:	11000484 	add	w4, w4, #0x1
    4d7c:	17ffff55 	b	4ad0 <fmt_fp+0x5e8>
    4d80:	52800004 	mov	w4, #0x0                   	// #0
    4d84:	17ffff55 	b	4ad8 <fmt_fp+0x5f0>
    4d88:	52800001 	mov	w1, #0x0                   	// #0
    4d8c:	17ffff5c 	b	4afc <fmt_fp+0x614>
    4d90:	1b027c21 	mul	w1, w1, w2
    4d94:	11000400 	add	w0, w0, #0x1
    4d98:	17ffff6b 	b	4b44 <fmt_fp+0x65c>
    4d9c:	d2800023 	mov	x3, #0x1                   	// #1
    4da0:	17ffff7a 	b	4b88 <fmt_fp+0x6a0>
    4da4:	d2800003 	mov	x3, #0x0                   	// #0
    4da8:	17ffff78 	b	4b88 <fmt_fp+0x6a0>
    4dac:	d2e7ffc0 	mov	x0, #0x3ffe000000000000    	// #4611123068473966592
    4db0:	17ffff80 	b	4bb0 <fmt_fp+0x6c8>
    4db4:	b2513be0 	mov	x0, #0x3fff800000000000    	// #4611545280939032576
    4db8:	17ffff7e 	b	4bb0 <fmt_fp+0x6c8>
    4dbc:	0b020021 	add	w1, w1, w2
    4dc0:	b9000381 	str	w1, [x28]
    4dc4:	52993fe1 	mov	w1, #0xc9ff                	// #51711
    4dc8:	72a77341 	movk	w1, #0x3b9a, lsl #16
    4dcc:	b9400380 	ldr	w0, [x28]
    4dd0:	6b01001f 	cmp	w0, w1
    4dd4:	54000188 	b.hi	4e04 <fmt_fp+0x91c>  // b.pmore
    4dd8:	cb1b00e4 	sub	x4, x7, x27
    4ddc:	b9400361 	ldr	w1, [x27]
    4de0:	52800140 	mov	w0, #0xa                   	// #10
    4de4:	2a0003e2 	mov	w2, w0
    4de8:	9342fc84 	asr	x4, x4, #2
    4dec:	0b040c84 	add	w4, w4, w4, lsl #3
    4df0:	6b00003f 	cmp	w1, w0
    4df4:	54fff123 	b.cc	4c18 <fmt_fp+0x730>  // b.lo, b.ul, b.last
    4df8:	1b027c00 	mul	w0, w0, w2
    4dfc:	11000484 	add	w4, w4, #0x1
    4e00:	17fffffc 	b	4df0 <fmt_fp+0x908>
    4e04:	b81fc79f 	str	wzr, [x28], #-4
    4e08:	eb1c037f 	cmp	x27, x28
    4e0c:	54000069 	b.ls	4e18 <fmt_fp+0x930>  // b.plast
    4e10:	d100137b 	sub	x27, x27, #0x4
    4e14:	b900037f 	str	wzr, [x27]
    4e18:	b9400380 	ldr	w0, [x28]
    4e1c:	11000400 	add	w0, w0, #0x1
    4e20:	b9000380 	str	w0, [x28]
    4e24:	17ffffea 	b	4dcc <fmt_fp+0x8e4>
    4e28:	d100135a 	sub	x26, x26, #0x4
    4e2c:	17ffff7e 	b	4c24 <fmt_fp+0x73c>
    4e30:	51000af7 	sub	w23, w23, #0x2
    4e34:	51000673 	sub	w19, w19, #0x1
    4e38:	17ffff8a 	b	4c60 <fmt_fp+0x778>
    4e3c:	1b087c00 	mul	w0, w0, w8
    4e40:	11000442 	add	w2, w2, #0x1
    4e44:	1ac00861 	udiv	w1, w3, w0
    4e48:	1b008c21 	msub	w1, w1, w0, w3
    4e4c:	34ffff81 	cbz	w1, 4e3c <fmt_fp+0x954>
    4e50:	cb070340 	sub	x0, x26, x7
    4e54:	321b02e1 	orr	w1, w23, #0x20
    4e58:	93407c42 	sxtw	x2, w2
    4e5c:	93407e73 	sxtw	x19, w19
    4e60:	9342fc00 	asr	x0, x0, #2
    4e64:	7101983f 	cmp	w1, #0x66
    4e68:	d1000400 	sub	x0, x0, #0x1
    4e6c:	8b000c00 	add	x0, x0, x0, lsl #3
    4e70:	54000c81 	b.ne	5000 <fmt_fp+0xb18>  // b.any
    4e74:	eb020000 	subs	x0, x0, x2
    4e78:	9a9f5000 	csel	x0, x0, xzr, pl  // pl = nfrst
    4e7c:	eb13001f 	cmp	x0, x19
    4e80:	9a93d013 	csel	x19, x0, x19, le
    4e84:	321f77e0 	mov	w0, #0x7ffffffe            	// #2147483646
    4e88:	6b00027f 	cmp	w19, w0
    4e8c:	54ffcdaa 	b.ge	4840 <fmt_fp+0x358>  // b.tcont
    4e90:	121d0320 	and	w0, w25, #0x8
    4e94:	b90083e0 	str	w0, [sp, #128]
    4e98:	2a000260 	orr	w0, w19, w0
    4e9c:	11000668 	add	w8, w19, #0x1
    4ea0:	7100001f 	cmp	w0, #0x0
    4ea4:	b90063e0 	str	w0, [sp, #96]
    4ea8:	1a880508 	cinc	w8, w8, ne  // ne = any
    4eac:	321b02fc 	orr	w28, w23, #0x20
    4eb0:	12b0000b 	mov	w11, #0x7fffffff            	// #2147483647
    4eb4:	71019b9f 	cmp	w28, #0x66
    4eb8:	4b08016b 	sub	w11, w11, w8
    4ebc:	54000a61 	b.ne	5008 <fmt_fp+0xb20>  // b.any
    4ec0:	6b0b009f 	cmp	w4, w11
    4ec4:	54ffcbec 	b.gt	4840 <fmt_fp+0x358>
    4ec8:	7100009f 	cmp	w4, #0x0
    4ecc:	5400004d 	b.le	4ed4 <fmt_fp+0x9ec>
    4ed0:	0b040108 	add	w8, w8, w4
    4ed4:	710002bf 	cmp	w21, #0x0
    4ed8:	f9004fe7 	str	x7, [sp, #152]
    4edc:	12b00000 	mov	w0, #0x7fffffff            	// #2147483647
    4ee0:	321f77e1 	mov	w1, #0x7ffffffe            	// #2147483646
    4ee4:	1a810000 	csel	w0, w0, w1, eq  // eq = none
    4ee8:	6b08001f 	cmp	w0, w8
    4eec:	54ffcaab 	b.lt	4840 <fmt_fp+0x358>  // b.tstop
    4ef0:	0b150117 	add	w23, w8, w21
    4ef4:	2a1903e4 	mov	w4, w25
    4ef8:	2a1703e3 	mov	w3, w23
    4efc:	2a1603e2 	mov	w2, w22
    4f00:	aa1403e0 	mov	x0, x20
    4f04:	52800401 	mov	w1, #0x20                  	// #32
    4f08:	97fffd51 	bl	444c <pad>
    4f0c:	93407ea2 	sxtw	x2, w21
    4f10:	aa1803e1 	mov	x1, x24
    4f14:	aa1403e0 	mov	x0, x20
    4f18:	97fffd45 	bl	442c <out>
    4f1c:	52100324 	eor	w4, w25, #0x10000
    4f20:	2a1703e3 	mov	w3, w23
    4f24:	2a1603e2 	mov	w2, w22
    4f28:	aa1403e0 	mov	x0, x20
    4f2c:	52800601 	mov	w1, #0x30                  	// #48
    4f30:	97fffd47 	bl	444c <pad>
    4f34:	71019b9f 	cmp	w28, #0x66
    4f38:	f9404fe7 	ldr	x7, [sp, #152]
    4f3c:	540010e1 	b.ne	5158 <fmt_fp+0xc70>  // b.any
    4f40:	eb1b00ff 	cmp	x7, x27
    4f44:	910383f8 	add	x24, sp, #0xe0
    4f48:	9a9b90fb 	csel	x27, x7, x27, ls  // ls = plast
    4f4c:	91002715 	add	x21, x24, #0x9
    4f50:	aa1b03fc 	mov	x28, x27
    4f54:	f9003bf5 	str	x21, [sp, #112]
    4f58:	eb07039f 	cmp	x28, x7
    4f5c:	54000949 	b.ls	5084 <fmt_fp+0xb9c>  // b.plast
    4f60:	910010e0 	add	x0, x7, #0x4
    4f64:	d1000f61 	sub	x1, x27, #0x3
    4f68:	cb1b0000 	sub	x0, x0, x27
    4f6c:	910004e7 	add	x7, x7, #0x1
    4f70:	927ef400 	and	x0, x0, #0xfffffffffffffffc
    4f74:	eb0100ff 	cmp	x7, x1
    4f78:	9a9f2000 	csel	x0, x0, xzr, cs  // cs = hs, nlast
    4f7c:	8b000375 	add	x21, x27, x0
    4f80:	b94063e0 	ldr	w0, [sp, #96]
    4f84:	34000e60 	cbz	w0, 5150 <fmt_fp+0xc68>
    4f88:	910383fb 	add	x27, sp, #0xe0
    4f8c:	5280061c 	mov	w28, #0x30                  	// #48
    4f90:	91002778 	add	x24, x27, #0x9
    4f94:	aa1403e0 	mov	x0, x20
    4f98:	d2800022 	mov	x2, #0x1                   	// #1
    4f9c:	d0000121 	adrp	x1, 2a000 <errmsgstr+0x59e>
    4fa0:	91382021 	add	x1, x1, #0xe08
    4fa4:	97fffd22 	bl	442c <out>
    4fa8:	7100027f 	cmp	w19, #0x0
    4fac:	fa5ac2a2 	ccmp	x21, x26, #0x2, gt
    4fb0:	54000a63 	b.cc	50fc <fmt_fp+0xc14>  // b.lo, b.ul, b.last
    4fb4:	52800123 	mov	w3, #0x9                   	// #9
    4fb8:	aa1403e0 	mov	x0, x20
    4fbc:	0b030262 	add	w2, w19, w3
    4fc0:	52800004 	mov	w4, #0x0                   	// #0
    4fc4:	52800601 	mov	w1, #0x30                  	// #48
    4fc8:	97fffd21 	bl	444c <pad>
    4fcc:	aa1403e0 	mov	x0, x20
    4fd0:	52130324 	eor	w4, w25, #0x2000
    4fd4:	2a1703e3 	mov	w3, w23
    4fd8:	2a1603e2 	mov	w2, w22
    4fdc:	52800401 	mov	w1, #0x20                  	// #32
    4fe0:	97fffd1b 	bl	444c <pad>
    4fe4:	6b1602ff 	cmp	w23, w22
    4fe8:	1a96a2e0 	csel	w0, w23, w22, ge  // ge = tcont
    4fec:	17fffe16 	b	4844 <fmt_fp+0x35c>
    4ff0:	52800140 	mov	w0, #0xa                   	// #10
    4ff4:	52800002 	mov	w2, #0x0                   	// #0
    4ff8:	2a0003e8 	mov	w8, w0
    4ffc:	17ffff92 	b	4e44 <fmt_fp+0x95c>
    5000:	8b24c000 	add	x0, x0, w4, sxtw
    5004:	17ffff9c 	b	4e74 <fmt_fp+0x98c>
    5008:	910343ea 	add	x10, sp, #0xd0
    500c:	7100009f 	cmp	w4, #0x0
    5010:	91003149 	add	x9, x10, #0xc
    5014:	5a84a480 	cneg	w0, w4, lt  // lt = tstop
    5018:	aa0903e1 	mov	x1, x9
    501c:	b90073e4 	str	w4, [sp, #112]
    5020:	93407c00 	sxtw	x0, w0
    5024:	f9004fe7 	str	x7, [sp, #152]
    5028:	97fffcdd 	bl	439c <fmt_u>
    502c:	b94073e4 	ldr	w4, [sp, #112]
    5030:	52800602 	mov	w2, #0x30                  	// #48
    5034:	f9404fe7 	ldr	x7, [sp, #152]
    5038:	cb000121 	sub	x1, x9, x0
    503c:	f100043f 	cmp	x1, #0x1
    5040:	540001ed 	b.le	507c <fmt_fp+0xb94>
    5044:	7100009f 	cmp	w4, #0x0
    5048:	528005a1 	mov	w1, #0x2d                  	// #45
    504c:	52800562 	mov	w2, #0x2b                  	// #43
    5050:	1a82b021 	csel	w1, w1, w2, lt  // lt = tstop
    5054:	381fe017 	sturb	w23, [x0, #-2]
    5058:	381ff001 	sturb	w1, [x0, #-1]
    505c:	d1000801 	sub	x1, x0, #0x2
    5060:	91003140 	add	x0, x10, #0xc
    5064:	f9003be1 	str	x1, [sp, #112]
    5068:	cb010000 	sub	x0, x0, x1
    506c:	eb2bc01f 	cmp	x0, w11, sxtw
    5070:	54ffbe8c 	b.gt	4840 <fmt_fp+0x358>
    5074:	0b000108 	add	w8, w8, w0
    5078:	17ffff97 	b	4ed4 <fmt_fp+0x9ec>
    507c:	381ffc02 	strb	w2, [x0, #-1]!
    5080:	17ffffee 	b	5038 <fmt_fp+0xb50>
    5084:	b9400380 	ldr	w0, [x28]
    5088:	aa1503e1 	mov	x1, x21
    508c:	f90043e7 	str	x7, [sp, #128]
    5090:	97fffcc3 	bl	439c <fmt_u>
    5094:	aa0003e1 	mov	x1, x0
    5098:	eb1b039f 	cmp	x28, x27
    509c:	f94043e7 	ldr	x7, [sp, #128]
    50a0:	54000121 	b.ne	50c4 <fmt_fp+0xbdc>  // b.any
    50a4:	eb15001f 	cmp	x0, x21
    50a8:	540001a1 	b.ne	50dc <fmt_fp+0xbf4>  // b.any
    50ac:	52800600 	mov	w0, #0x30                  	// #48
    50b0:	91002301 	add	x1, x24, #0x8
    50b4:	3903a3e0 	strb	w0, [sp, #232]
    50b8:	14000009 	b	50dc <fmt_fp+0xbf4>
    50bc:	52800602 	mov	w2, #0x30                  	// #48
    50c0:	381ffc02 	strb	w2, [x0, #-1]!
    50c4:	eb18001f 	cmp	x0, x24
    50c8:	54ffffa8 	b.hi	50bc <fmt_fp+0xbd4>  // b.pmore
    50cc:	cb010300 	sub	x0, x24, x1
    50d0:	eb18003f 	cmp	x1, x24
    50d4:	9a9f2000 	csel	x0, x0, xzr, cs  // cs = hs, nlast
    50d8:	8b000021 	add	x1, x1, x0
    50dc:	f9403be0 	ldr	x0, [sp, #112]
    50e0:	f90043e7 	str	x7, [sp, #128]
    50e4:	9100139c 	add	x28, x28, #0x4
    50e8:	cb010002 	sub	x2, x0, x1
    50ec:	aa1403e0 	mov	x0, x20
    50f0:	97fffccf 	bl	442c <out>
    50f4:	f94043e7 	ldr	x7, [sp, #128]
    50f8:	17ffff98 	b	4f58 <fmt_fp+0xa70>
    50fc:	b94002a0 	ldr	w0, [x21]
    5100:	aa1803e1 	mov	x1, x24
    5104:	97fffca6 	bl	439c <fmt_u>
    5108:	aa0003e1 	mov	x1, x0
    510c:	eb1b003f 	cmp	x1, x27
    5110:	540001c8 	b.hi	5148 <fmt_fp+0xc60>  // b.pmore
    5114:	eb1b001f 	cmp	x0, x27
    5118:	cb000361 	sub	x1, x27, x0
    511c:	9a9f2021 	csel	x1, x1, xzr, cs  // cs = hs, nlast
    5120:	7100267f 	cmp	w19, #0x9
    5124:	52800122 	mov	w2, #0x9                   	// #9
    5128:	1a82d262 	csel	w2, w19, w2, le
    512c:	8b010001 	add	x1, x0, x1
    5130:	910012b5 	add	x21, x21, #0x4
    5134:	93407c42 	sxtw	x2, w2
    5138:	aa1403e0 	mov	x0, x20
    513c:	51002673 	sub	w19, w19, #0x9
    5140:	97fffcbb 	bl	442c <out>
    5144:	17ffff99 	b	4fa8 <fmt_fp+0xac0>
    5148:	381ffc3c 	strb	w28, [x1, #-1]!
    514c:	17fffff0 	b	510c <fmt_fp+0xc24>
    5150:	52800013 	mov	w19, #0x0                   	// #0
    5154:	17ffff98 	b	4fb4 <fmt_fp+0xacc>
    5158:	eb1b035f 	cmp	x26, x27
    515c:	54000048 	b.hi	5164 <fmt_fp+0xc7c>  // b.pmore
    5160:	9100137a 	add	x26, x27, #0x4
    5164:	910383f5 	add	x21, sp, #0xe0
    5168:	b0000120 	adrp	x0, 2a000 <errmsgstr+0x59e>
    516c:	aa1b03f8 	mov	x24, x27
    5170:	91382000 	add	x0, x0, #0xe08
    5174:	f90033e0 	str	x0, [sp, #96]
    5178:	910026a0 	add	x0, x21, #0x9
    517c:	f9004fe0 	str	x0, [sp, #152]
    5180:	7100027f 	cmp	w19, #0x0
    5184:	fa5aa302 	ccmp	x24, x26, #0x2, ge  // ge = tcont
    5188:	54000183 	b.cc	51b8 <fmt_fp+0xcd0>  // b.lo, b.ul, b.last
    518c:	aa1403e0 	mov	x0, x20
    5190:	52800243 	mov	w3, #0x12                  	// #18
    5194:	52800601 	mov	w1, #0x30                  	// #48
    5198:	0b030262 	add	w2, w19, w3
    519c:	52800004 	mov	w4, #0x0                   	// #0
    51a0:	97fffcab 	bl	444c <pad>
    51a4:	f9403be0 	ldr	x0, [sp, #112]
    51a8:	910373e2 	add	x2, sp, #0xdc
    51ac:	cb000042 	sub	x2, x2, x0
    51b0:	aa0003e1 	mov	x1, x0
    51b4:	17fffd06 	b	45cc <fmt_fp+0xe4>
    51b8:	b9400300 	ldr	w0, [x24]
    51bc:	910026a4 	add	x4, x21, #0x9
    51c0:	aa0403e1 	mov	x1, x4
    51c4:	97fffc76 	bl	439c <fmt_u>
    51c8:	aa0003e1 	mov	x1, x0
    51cc:	eb04001f 	cmp	x0, x4
    51d0:	54000081 	b.ne	51e0 <fmt_fp+0xcf8>  // b.any
    51d4:	910022a1 	add	x1, x21, #0x8
    51d8:	52800600 	mov	w0, #0x30                  	// #48
    51dc:	3903a3e0 	strb	w0, [sp, #232]
    51e0:	eb1b031f 	cmp	x24, x27
    51e4:	54000421 	b.ne	5268 <fmt_fp+0xd80>  // b.any
    51e8:	aa1403e0 	mov	x0, x20
    51ec:	9100043c 	add	x28, x1, #0x1
    51f0:	d2800022 	mov	x2, #0x1                   	// #1
    51f4:	97fffc8e 	bl	442c <out>
    51f8:	b94083e0 	ldr	w0, [sp, #128]
    51fc:	2a130000 	orr	w0, w0, w19
    5200:	340001a0 	cbz	w0, 5234 <fmt_fp+0xd4c>
    5204:	f94033e1 	ldr	x1, [sp, #96]
    5208:	aa1403e0 	mov	x0, x20
    520c:	d2800022 	mov	x2, #0x1                   	// #1
    5210:	97fffc87 	bl	442c <out>
    5214:	14000008 	b	5234 <fmt_fp+0xd4c>
    5218:	381ffc02 	strb	w2, [x0, #-1]!
    521c:	eb15001f 	cmp	x0, x21
    5220:	54ffffc8 	b.hi	5218 <fmt_fp+0xd30>  // b.pmore
    5224:	cb0102a3 	sub	x3, x21, x1
    5228:	eb15003f 	cmp	x1, x21
    522c:	9a9f2063 	csel	x3, x3, xzr, cs  // cs = hs, nlast
    5230:	8b03003c 	add	x28, x1, x3
    5234:	f9404fe0 	ldr	x0, [sp, #152]
    5238:	93407e62 	sxtw	x2, w19
    523c:	aa1c03e1 	mov	x1, x28
    5240:	91001318 	add	x24, x24, #0x4
    5244:	cb1c0004 	sub	x4, x0, x28
    5248:	aa1403e0 	mov	x0, x20
    524c:	eb33c09f 	cmp	x4, w19, sxtw
    5250:	f90053e4 	str	x4, [sp, #160]
    5254:	9a84a042 	csel	x2, x2, x4, ge  // ge = tcont
    5258:	97fffc75 	bl	442c <out>
    525c:	f94053e4 	ldr	x4, [sp, #160]
    5260:	4b040273 	sub	w19, w19, w4
    5264:	17ffffc7 	b	5180 <fmt_fp+0xc98>
    5268:	aa0103e0 	mov	x0, x1
    526c:	52800602 	mov	w2, #0x30                  	// #48
    5270:	17ffffeb 	b	521c <fmt_fp+0xd34>

0000000000005274 <printf_core>:
    5274:	a9af53f3 	stp	x19, x20, [sp, #-272]!
    5278:	52800014 	mov	w20, #0x0                   	// #0
    527c:	a9015bf5 	stp	x21, x22, [sp, #16]
    5280:	aa0003f5 	mov	x21, x0
    5284:	910363e0 	add	x0, sp, #0xd8
    5288:	a90263f7 	stp	x23, x24, [sp, #32]
    528c:	aa0203f7 	mov	x23, x2
    5290:	52800016 	mov	w22, #0x0                   	// #0
    5294:	a9036bf9 	stp	x25, x26, [sp, #48]
    5298:	9100dc19 	add	x25, x0, #0x37
    529c:	a90473fb 	stp	x27, x28, [sp, #64]
    52a0:	f9002bfe 	str	x30, [sp, #80]
    52a4:	b90067ff 	str	wzr, [sp, #100]
    52a8:	a90683e4 	stp	x4, x0, [sp, #104]
    52ac:	9102a3e0 	add	x0, sp, #0xa8
    52b0:	f9003fe3 	str	x3, [sp, #120]
    52b4:	f90047e0 	str	x0, [sp, #136]
    52b8:	f9005be1 	str	x1, [sp, #176]
    52bc:	f9405bfc 	ldr	x28, [sp, #176]
    52c0:	0b1402d6 	add	w22, w22, w20
    52c4:	39400380 	ldrb	w0, [x28]
    52c8:	35000220 	cbnz	w0, 530c <printf_core+0x98>
    52cc:	b5001c75 	cbnz	x21, 5658 <printf_core+0x3e4>
    52d0:	b94067e0 	ldr	w0, [sp, #100]
    52d4:	34001c00 	cbz	w0, 5654 <printf_core+0x3e0>
    52d8:	d2800033 	mov	x19, #0x1                   	// #1
    52dc:	f94037e0 	ldr	x0, [sp, #104]
    52e0:	b8737801 	ldr	w1, [x0, x19, lsl #2]
    52e4:	35004141 	cbnz	w1, 5b0c <printf_core+0x898>
    52e8:	f94037e0 	ldr	x0, [sp, #104]
    52ec:	b8737800 	ldr	w0, [x0, x19, lsl #2]
    52f0:	35001260 	cbnz	w0, 553c <printf_core+0x2c8>
    52f4:	91000673 	add	x19, x19, #0x1
    52f8:	f1002a7f 	cmp	x19, #0xa
    52fc:	54ffff61 	b.ne	52e8 <printf_core+0x74>  // b.any
    5300:	1400020a 	b	5b28 <printf_core+0x8b4>
    5304:	910004c6 	add	x6, x6, #0x1
    5308:	f9005be6 	str	x6, [sp, #176]
    530c:	f9405be6 	ldr	x6, [sp, #176]
    5310:	394000c0 	ldrb	w0, [x6]
    5314:	7100941f 	cmp	w0, #0x25
    5318:	7a401804 	ccmp	w0, #0x0, #0x4, ne  // ne = any
    531c:	54ffff41 	b.ne	5304 <printf_core+0x90>  // b.any
    5320:	f9405be0 	ldr	x0, [sp, #176]
    5324:	39400001 	ldrb	w1, [x0]
    5328:	7100943f 	cmp	w1, #0x25
    532c:	54000081 	b.ne	533c <printf_core+0xc8>  // b.any
    5330:	39400401 	ldrb	w1, [x0, #1]
    5334:	7100943f 	cmp	w1, #0x25
    5338:	54000e60 	b.eq	5504 <printf_core+0x290>  // b.none
    533c:	12b00000 	mov	w0, #0x7fffffff            	// #2147483647
    5340:	4b160000 	sub	w0, w0, w22
    5344:	b90083e0 	str	w0, [sp, #128]
    5348:	cb1c00d8 	sub	x24, x6, x28
    534c:	eb20c31f 	cmp	x24, w0, sxtw
    5350:	5400398c 	b.gt	5a80 <printf_core+0x80c>
    5354:	2a1803f4 	mov	w20, w24
    5358:	b40000b5 	cbz	x21, 536c <printf_core+0xf8>
    535c:	93407f02 	sxtw	x2, w24
    5360:	aa1c03e1 	mov	x1, x28
    5364:	aa1503e0 	mov	x0, x21
    5368:	97fffc31 	bl	442c <out>
    536c:	35003858 	cbnz	w24, 5a74 <printf_core+0x800>
    5370:	f9405be2 	ldr	x2, [sp, #176]
    5374:	39400441 	ldrb	w1, [x2, #1]
    5378:	5100c021 	sub	w1, w1, #0x30
    537c:	7100243f 	cmp	w1, #0x9
    5380:	54000ca8 	b.hi	5514 <printf_core+0x2a0>  // b.pmore
    5384:	39400840 	ldrb	w0, [x2, #2]
    5388:	7100901f 	cmp	w0, #0x24
    538c:	54000c41 	b.ne	5514 <printf_core+0x2a0>  // b.any
    5390:	2a0103ea 	mov	w10, w1
    5394:	91000c42 	add	x2, x2, #0x3
    5398:	52800020 	mov	w0, #0x1                   	// #1
    539c:	b90067e0 	str	w0, [sp, #100]
    53a0:	52851124 	mov	w4, #0x2889                	// #10377
    53a4:	5280001b 	mov	w27, #0x0                   	// #0
    53a8:	72a00024 	movk	w4, #0x1, lsl #16
    53ac:	52800025 	mov	w5, #0x1                   	// #1
    53b0:	f9005be2 	str	x2, [sp, #176]
    53b4:	f9405be1 	ldr	x1, [sp, #176]
    53b8:	39400022 	ldrb	w2, [x1]
    53bc:	51008040 	sub	w0, w2, #0x20
    53c0:	71007c1f 	cmp	w0, #0x1f
    53c4:	54000068 	b.hi	53d0 <printf_core+0x15c>  // b.pmore
    53c8:	1ac02483 	lsr	w3, w4, w0
    53cc:	37000aa3 	tbnz	w3, #0, 5520 <printf_core+0x2ac>
    53d0:	7100a85f 	cmp	w2, #0x2a
    53d4:	54000e61 	b.ne	55a0 <printf_core+0x32c>  // b.any
    53d8:	39400420 	ldrb	w0, [x1, #1]
    53dc:	5100c002 	sub	w2, w0, #0x30
    53e0:	7100245f 	cmp	w2, #0x9
    53e4:	54000a88 	b.hi	5534 <printf_core+0x2c0>  // b.pmore
    53e8:	39400822 	ldrb	w2, [x1, #2]
    53ec:	7100905f 	cmp	w2, #0x24
    53f0:	54000a21 	b.ne	5534 <printf_core+0x2c0>  // b.any
    53f4:	f94037e2 	ldr	x2, [sp, #104]
    53f8:	91000c21 	add	x1, x1, #0x3
    53fc:	8b200840 	add	x0, x2, w0, uxtb #2
    5400:	52800142 	mov	w2, #0xa                   	// #10
    5404:	b8140002 	stur	w2, [x0, #-192]
    5408:	92805fe2 	mov	x2, #0xfffffffffffffd00    	// #-768
    540c:	385fe020 	ldurb	w0, [x1, #-2]
    5410:	f9005be1 	str	x1, [sp, #176]
    5414:	8b205040 	add	x0, x2, w0, uxtw #4
    5418:	f9403fe2 	ldr	x2, [sp, #120]
    541c:	b8606853 	ldr	w19, [x2, x0]
    5420:	52800020 	mov	w0, #0x1                   	// #1
    5424:	b90067e0 	str	w0, [sp, #100]
    5428:	36f80073 	tbz	w19, #31, 5434 <printf_core+0x1c0>
    542c:	3213037b 	orr	w27, w27, #0x2000
    5430:	4b1303f3 	neg	w19, w19
    5434:	f9405be1 	ldr	x1, [sp, #176]
    5438:	39400020 	ldrb	w0, [x1]
    543c:	7100b81f 	cmp	w0, #0x2e
    5440:	54000ee1 	b.ne	561c <printf_core+0x3a8>  // b.any
    5444:	39400420 	ldrb	w0, [x1, #1]
    5448:	7100a81f 	cmp	w0, #0x2a
    544c:	54000da1 	b.ne	5600 <printf_core+0x38c>  // b.any
    5450:	39400820 	ldrb	w0, [x1, #2]
    5454:	5100c002 	sub	w2, w0, #0x30
    5458:	7100245f 	cmp	w2, #0x9
    545c:	54000ac8 	b.hi	55b4 <printf_core+0x340>  // b.pmore
    5460:	39400c22 	ldrb	w2, [x1, #3]
    5464:	7100905f 	cmp	w2, #0x24
    5468:	54000a61 	b.ne	55b4 <printf_core+0x340>  // b.any
    546c:	f94037e2 	ldr	x2, [sp, #104]
    5470:	91001021 	add	x1, x1, #0x4
    5474:	8b200840 	add	x0, x2, w0, uxtb #2
    5478:	52800142 	mov	w2, #0xa                   	// #10
    547c:	b8140002 	stur	w2, [x0, #-192]
    5480:	92805fe2 	mov	x2, #0xfffffffffffffd00    	// #-768
    5484:	385fe020 	ldurb	w0, [x1, #-2]
    5488:	8b205040 	add	x0, x2, w0, uxtw #4
    548c:	f9403fe2 	ldr	x2, [sp, #120]
    5490:	b8606858 	ldr	w24, [x2, x0]
    5494:	2a3803e3 	mvn	w3, w24
    5498:	f9005be1 	str	x1, [sp, #176]
    549c:	531f7c7a 	lsr	w26, w3, #31
    54a0:	90000122 	adrp	x2, 29000 <gcd_pairs+0x68>
    54a4:	91148042 	add	x2, x2, #0x520
    54a8:	52800005 	mov	w5, #0x0                   	// #0
    54ac:	d2800744 	mov	x4, #0x3a                  	// #58
    54b0:	f9405be0 	ldr	x0, [sp, #176]
    54b4:	39400001 	ldrb	w1, [x0]
    54b8:	51010421 	sub	w1, w1, #0x41
    54bc:	7100e43f 	cmp	w1, #0x39
    54c0:	540003e8 	b.hi	553c <printf_core+0x2c8>  // b.pmore
    54c4:	91000401 	add	x1, x0, #0x1
    54c8:	f9005be1 	str	x1, [sp, #176]
    54cc:	39400001 	ldrb	w1, [x0]
    54d0:	2a0503e0 	mov	w0, w5
    54d4:	51010421 	sub	w1, w1, #0x41
    54d8:	9b040800 	madd	x0, x0, x4, x2
    54dc:	3861c801 	ldrb	w1, [x0, w1, sxtw]
    54e0:	51000420 	sub	w0, w1, #0x1
    54e4:	71001c1f 	cmp	w0, #0x7
    54e8:	54000a09 	b.ls	5628 <printf_core+0x3b4>  // b.plast
    54ec:	34000281 	cbz	w1, 553c <printf_core+0x2c8>
    54f0:	71006c3f 	cmp	w1, #0x1b
    54f4:	540009e1 	b.ne	5630 <printf_core+0x3bc>  // b.any
    54f8:	36f8022a 	tbz	w10, #31, 553c <printf_core+0x2c8>
    54fc:	b5000c95 	cbnz	x21, 568c <printf_core+0x418>
    5500:	17ffff6f 	b	52bc <printf_core+0x48>
    5504:	91000800 	add	x0, x0, #0x2
    5508:	910004c6 	add	x6, x6, #0x1
    550c:	f9005be0 	str	x0, [sp, #176]
    5510:	17ffff84 	b	5320 <printf_core+0xac>
    5514:	91000442 	add	x2, x2, #0x1
    5518:	1280000a 	mov	w10, #0xffffffff            	// #-1
    551c:	17ffffa1 	b	53a0 <printf_core+0x12c>
    5520:	91000421 	add	x1, x1, #0x1
    5524:	1ac020a0 	lsl	w0, w5, w0
    5528:	2a00037b 	orr	w27, w27, w0
    552c:	f9005be1 	str	x1, [sp, #176]
    5530:	17ffffa1 	b	53b4 <printf_core+0x140>
    5534:	b94067e0 	ldr	w0, [sp, #100]
    5538:	340000c0 	cbz	w0, 5550 <printf_core+0x2dc>
    553c:	94000722 	bl	71c4 <__errno_location>
    5540:	528002c1 	mov	w1, #0x16                  	// #22
    5544:	b9000001 	str	w1, [x0]
    5548:	12800016 	mov	w22, #0xffffffff            	// #-1
    554c:	14000043 	b	5658 <printf_core+0x3e4>
    5550:	b4000255 	cbz	x21, 5598 <printf_core+0x324>
    5554:	b9401ae0 	ldr	w0, [x23, #24]
    5558:	f94002e2 	ldr	x2, [x23]
    555c:	37f80100 	tbnz	w0, #31, 557c <printf_core+0x308>
    5560:	91002c40 	add	x0, x2, #0xb
    5564:	927df000 	and	x0, x0, #0xfffffffffffffff8
    5568:	f90002e0 	str	x0, [x23]
    556c:	b9400053 	ldr	w19, [x2]
    5570:	91000421 	add	x1, x1, #0x1
    5574:	f9005be1 	str	x1, [sp, #176]
    5578:	17ffffac 	b	5428 <printf_core+0x1b4>
    557c:	11002003 	add	w3, w0, #0x8
    5580:	b9001ae3 	str	w3, [x23, #24]
    5584:	7100007f 	cmp	w3, #0x0
    5588:	54fffecc 	b.gt	5560 <printf_core+0x2ec>
    558c:	f94006e2 	ldr	x2, [x23, #8]
    5590:	8b20c042 	add	x2, x2, w0, sxtw
    5594:	17fffff6 	b	556c <printf_core+0x2f8>
    5598:	2a1803f3 	mov	w19, w24
    559c:	17fffff5 	b	5570 <printf_core+0x2fc>
    55a0:	9102c3e0 	add	x0, sp, #0xb0
    55a4:	97fffb89 	bl	43c8 <getint>
    55a8:	2a0003f3 	mov	w19, w0
    55ac:	36fff440 	tbz	w0, #31, 5434 <printf_core+0x1c0>
    55b0:	14000134 	b	5a80 <printf_core+0x80c>
    55b4:	b94067e0 	ldr	w0, [sp, #100]
    55b8:	35fffc20 	cbnz	w0, 553c <printf_core+0x2c8>
    55bc:	b4000115 	cbz	x21, 55dc <printf_core+0x368>
    55c0:	b9401ae2 	ldr	w2, [x23, #24]
    55c4:	f94002e0 	ldr	x0, [x23]
    55c8:	37f800e2 	tbnz	w2, #31, 55e4 <printf_core+0x370>
    55cc:	91002c02 	add	x2, x0, #0xb
    55d0:	927df042 	and	x2, x2, #0xfffffffffffffff8
    55d4:	f90002e2 	str	x2, [x23]
    55d8:	b9400018 	ldr	w24, [x0]
    55dc:	91000821 	add	x1, x1, #0x2
    55e0:	17ffffad 	b	5494 <printf_core+0x220>
    55e4:	11002043 	add	w3, w2, #0x8
    55e8:	b9001ae3 	str	w3, [x23, #24]
    55ec:	7100007f 	cmp	w3, #0x0
    55f0:	54fffeec 	b.gt	55cc <printf_core+0x358>
    55f4:	f94006e0 	ldr	x0, [x23, #8]
    55f8:	8b22c000 	add	x0, x0, w2, sxtw
    55fc:	17fffff7 	b	55d8 <printf_core+0x364>
    5600:	91000421 	add	x1, x1, #0x1
    5604:	9102c3e0 	add	x0, sp, #0xb0
    5608:	5280003a 	mov	w26, #0x1                   	// #1
    560c:	f9005be1 	str	x1, [sp, #176]
    5610:	97fffb6e 	bl	43c8 <getint>
    5614:	2a0003f8 	mov	w24, w0
    5618:	17ffffa2 	b	54a0 <printf_core+0x22c>
    561c:	2a1803fa 	mov	w26, w24
    5620:	12800018 	mov	w24, #0xffffffff            	// #-1
    5624:	17ffff9f 	b	54a0 <printf_core+0x22c>
    5628:	2a0103e5 	mov	w5, w1
    562c:	17ffffa1 	b	54b0 <printf_core+0x23c>
    5630:	37f8010a 	tbnz	w10, #31, 5650 <printf_core+0x3dc>
    5634:	f94037e0 	ldr	x0, [sp, #104]
    5638:	b82ad801 	str	w1, [x0, w10, sxtw #2]
    563c:	f9403fe0 	ldr	x0, [sp, #120]
    5640:	8b2ad001 	add	x1, x0, w10, sxtw #4
    5644:	a9400420 	ldp	x0, x1, [x1]
    5648:	a90c07e0 	stp	x0, x1, [sp, #192]
    564c:	17ffffac 	b	54fc <printf_core+0x288>
    5650:	b5000155 	cbnz	x21, 5678 <printf_core+0x404>
    5654:	52800016 	mov	w22, #0x0                   	// #0
    5658:	2a1603e0 	mov	w0, w22
    565c:	a9415bf5 	ldp	x21, x22, [sp, #16]
    5660:	a94263f7 	ldp	x23, x24, [sp, #32]
    5664:	a9436bf9 	ldp	x25, x26, [sp, #48]
    5668:	a94473fb 	ldp	x27, x28, [sp, #64]
    566c:	f9402bfe 	ldr	x30, [sp, #80]
    5670:	a8d153f3 	ldp	x19, x20, [sp], #272
    5674:	d65f03c0 	ret
    5678:	aa1703e2 	mov	x2, x23
    567c:	910303e0 	add	x0, sp, #0xc0
    5680:	b90093e5 	str	w5, [sp, #144]
    5684:	97fffab6 	bl	415c <pop_arg>
    5688:	b94093e5 	ldr	w5, [sp, #144]
    568c:	f9405be0 	ldr	x0, [sp, #176]
    5690:	385ff004 	ldurb	w4, [x0, #-1]
    5694:	340000a5 	cbz	w5, 56a8 <printf_core+0x434>
    5698:	12000c80 	and	w0, w4, #0xf
    569c:	71000c1f 	cmp	w0, #0x3
    56a0:	54000041 	b.ne	56a8 <printf_core+0x434>  // b.any
    56a4:	121a7884 	and	w4, w4, #0xffffffdf
    56a8:	3668005b 	tbz	w27, #13, 56b0 <printf_core+0x43c>
    56ac:	120f7b7b 	and	w27, w27, #0xfffeffff
    56b0:	51010481 	sub	w1, w4, #0x41
    56b4:	7100dc3f 	cmp	w1, #0x37
    56b8:	540021e8 	b.hi	5af4 <printf_core+0x880>  // b.pmore
    56bc:	f0000100 	adrp	x0, 28000 <__text_end+0x4e0c>
    56c0:	9130b000 	add	x0, x0, #0xc2c
    56c4:	78615800 	ldrh	w0, [x0, w1, uxtw #1]
    56c8:	10000061 	adr	x1, 56d4 <printf_core+0x460>
    56cc:	8b20a820 	add	x0, x1, w0, sxth #2
    56d0:	d61f0000 	br	x0
    56d4:	71001cbf 	cmp	w5, #0x7
    56d8:	54001ce8 	b.hi	5a74 <printf_core+0x800>  // b.pmore
    56dc:	f0000100 	adrp	x0, 28000 <__text_end+0x4e0c>
    56e0:	91327000 	add	x0, x0, #0xc9c
    56e4:	78655800 	ldrh	w0, [x0, w5, uxtw #1]
    56e8:	10000061 	adr	x1, 56f4 <printf_core+0x480>
    56ec:	8b20a820 	add	x0, x1, w0, sxth #2
    56f0:	d61f0000 	br	x0
    56f4:	f94063e0 	ldr	x0, [sp, #192]
    56f8:	b9000016 	str	w22, [x0]
    56fc:	17fffef0 	b	52bc <printf_core+0x48>
    5700:	f94063e0 	ldr	x0, [sp, #192]
    5704:	79000016 	strh	w22, [x0]
    5708:	17fffeed 	b	52bc <printf_core+0x48>
    570c:	f94063e0 	ldr	x0, [sp, #192]
    5710:	39000016 	strb	w22, [x0]
    5714:	17fffeea 	b	52bc <printf_core+0x48>
    5718:	f94063e1 	ldr	x1, [sp, #192]
    571c:	93407ec0 	sxtw	x0, w22
    5720:	f9000020 	str	x0, [x1]
    5724:	17fffee6 	b	52bc <printf_core+0x48>
    5728:	7100431f 	cmp	w24, #0x10
    572c:	52800200 	mov	w0, #0x10                  	// #16
    5730:	321d037b 	orr	w27, w27, #0x8
    5734:	1a802318 	csel	w24, w24, w0, cs  // cs = hs, nlast
    5738:	52800f04 	mov	w4, #0x78                  	// #120
    573c:	f9403be1 	ldr	x1, [sp, #112]
    5740:	121b0085 	and	w5, w4, #0x20
    5744:	f94063e9 	ldr	x9, [sp, #192]
    5748:	9100dc3c 	add	x28, x1, #0x37
    574c:	90000121 	adrp	x1, 29000 <gcd_pairs+0x68>
    5750:	911bc021 	add	x1, x1, #0x6f0
    5754:	aa0903e0 	mov	x0, x9
    5758:	b50002e0 	cbnz	x0, 57b4 <printf_core+0x540>
    575c:	90000125 	adrp	x5, 29000 <gcd_pairs+0x68>
    5760:	b40004e9 	cbz	x9, 57fc <printf_core+0x588>
    5764:	361804db 	tbz	w27, #3, 57fc <printf_core+0x588>
    5768:	d3441c84 	ubfx	x4, x4, #4, #4
    576c:	91143ca5 	add	x5, x5, #0x50f
    5770:	8b050085 	add	x5, x4, x5
    5774:	52800054 	mov	w20, #0x2                   	// #2
    5778:	6a587f5f 	tst	w26, w24, lsr #31
    577c:	54001821 	b.ne	5a80 <printf_core+0x80c>  // b.any
    5780:	3400005a 	cbz	w26, 5788 <printf_core+0x514>
    5784:	120f7b7b 	and	w27, w27, #0xfffeffff
    5788:	f94063e1 	ldr	x1, [sp, #192]
    578c:	b5000041 	cbnz	x1, 5794 <printf_core+0x520>
    5790:	34001b98 	cbz	w24, 5b00 <printf_core+0x88c>
    5794:	f100003f 	cmp	x1, #0x0
    5798:	cb1c0320 	sub	x0, x25, x28
    579c:	9a801400 	cinc	x0, x0, eq  // eq = none
    57a0:	93407f01 	sxtw	x1, w24
    57a4:	eb38c01f 	cmp	x0, w24, sxtw
    57a8:	9a81a018 	csel	x24, x0, x1, ge  // ge = tcont
    57ac:	aa1903e2 	mov	x2, x25
    57b0:	1400003b 	b	589c <printf_core+0x628>
    57b4:	92400c02 	and	x2, x0, #0xf
    57b8:	d344fc00 	lsr	x0, x0, #4
    57bc:	38626822 	ldrb	w2, [x1, x2]
    57c0:	2a0200a2 	orr	w2, w5, w2
    57c4:	381fff82 	strb	w2, [x28, #-1]!
    57c8:	17ffffe4 	b	5758 <printf_core+0x4e4>
    57cc:	f9403be1 	ldr	x1, [sp, #112]
    57d0:	f94063e0 	ldr	x0, [sp, #192]
    57d4:	9100dc3c 	add	x28, x1, #0x37
    57d8:	b5000160 	cbnz	x0, 5804 <printf_core+0x590>
    57dc:	90000125 	adrp	x5, 29000 <gcd_pairs+0x68>
    57e0:	361800fb 	tbz	w27, #3, 57fc <printf_core+0x588>
    57e4:	f9403be0 	ldr	x0, [sp, #112]
    57e8:	9100dc00 	add	x0, x0, #0x37
    57ec:	cb1c0000 	sub	x0, x0, x28
    57f0:	eb38c01f 	cmp	x0, w24, sxtw
    57f4:	5400004b 	b.lt	57fc <printf_core+0x588>  // b.tstop
    57f8:	11000418 	add	w24, w0, #0x1
    57fc:	91143ca5 	add	x5, x5, #0x50f
    5800:	17ffffde 	b	5778 <printf_core+0x504>
    5804:	12000801 	and	w1, w0, #0x7
    5808:	d343fc00 	lsr	x0, x0, #3
    580c:	1100c021 	add	w1, w1, #0x30
    5810:	381fff81 	strb	w1, [x28, #-1]!
    5814:	17fffff1 	b	57d8 <printf_core+0x564>
    5818:	f94063e0 	ldr	x0, [sp, #192]
    581c:	b6f801a0 	tbz	x0, #63, 5850 <printf_core+0x5dc>
    5820:	cb0003e0 	neg	x0, x0
    5824:	52800034 	mov	w20, #0x1                   	// #1
    5828:	f90063e0 	str	x0, [sp, #192]
    582c:	90000125 	adrp	x5, 29000 <gcd_pairs+0x68>
    5830:	91143ca5 	add	x5, x5, #0x50f
    5834:	f94063e0 	ldr	x0, [sp, #192]
    5838:	aa1903e1 	mov	x1, x25
    583c:	f9004be5 	str	x5, [sp, #144]
    5840:	97fffad7 	bl	439c <fmt_u>
    5844:	aa0003fc 	mov	x28, x0
    5848:	f9404be5 	ldr	x5, [sp, #144]
    584c:	17ffffcb 	b	5778 <printf_core+0x504>
    5850:	375800db 	tbnz	w27, #11, 5868 <printf_core+0x5f4>
    5854:	3607fedb 	tbz	w27, #0, 582c <printf_core+0x5b8>
    5858:	90000125 	adrp	x5, 29000 <gcd_pairs+0x68>
    585c:	52800034 	mov	w20, #0x1                   	// #1
    5860:	911444a5 	add	x5, x5, #0x511
    5864:	17fffff4 	b	5834 <printf_core+0x5c0>
    5868:	90000125 	adrp	x5, 29000 <gcd_pairs+0x68>
    586c:	52800034 	mov	w20, #0x1                   	// #1
    5870:	911440a5 	add	x5, x5, #0x510
    5874:	17fffff0 	b	5834 <printf_core+0x5c0>
    5878:	f94063e0 	ldr	x0, [sp, #192]
    587c:	39043be0 	strb	w0, [sp, #270]
    5880:	f9403be0 	ldr	x0, [sp, #112]
    5884:	90000125 	adrp	x5, 29000 <gcd_pairs+0x68>
    5888:	120f7b7b 	and	w27, w27, #0xfffeffff
    588c:	91143ca5 	add	x5, x5, #0x50f
    5890:	aa1903e2 	mov	x2, x25
    5894:	9100d81c 	add	x28, x0, #0x36
    5898:	52800038 	mov	w24, #0x1                   	// #1
    589c:	cb1c0049 	sub	x9, x2, x28
    58a0:	a90917e9 	stp	x9, x5, [sp, #144]
    58a4:	eb38c13f 	cmp	x9, w24, sxtw
    58a8:	1a89d318 	csel	w24, w24, w9, le
    58ac:	12b00000 	mov	w0, #0x7fffffff            	// #2147483647
    58b0:	4b140000 	sub	w0, w0, w20
    58b4:	6b18001f 	cmp	w0, w24
    58b8:	54000e4b 	b.lt	5a80 <printf_core+0x80c>  // b.tstop
    58bc:	0b14031a 	add	w26, w24, w20
    58c0:	b94083e0 	ldr	w0, [sp, #128]
    58c4:	6b13035f 	cmp	w26, w19
    58c8:	1a93a353 	csel	w19, w26, w19, ge  // ge = tcont
    58cc:	6b13001f 	cmp	w0, w19
    58d0:	54000d8b 	b.lt	5a80 <printf_core+0x80c>  // b.tstop
    58d4:	2a1b03e4 	mov	w4, w27
    58d8:	2a1a03e3 	mov	w3, w26
    58dc:	2a1303e2 	mov	w2, w19
    58e0:	aa1503e0 	mov	x0, x21
    58e4:	52800401 	mov	w1, #0x20                  	// #32
    58e8:	97fffad9 	bl	444c <pad>
    58ec:	f9404fe5 	ldr	x5, [sp, #152]
    58f0:	93407e82 	sxtw	x2, w20
    58f4:	aa1503e0 	mov	x0, x21
    58f8:	2a1303f4 	mov	w20, w19
    58fc:	aa0503e1 	mov	x1, x5
    5900:	97fffacb 	bl	442c <out>
    5904:	52100364 	eor	w4, w27, #0x10000
    5908:	2a1a03e3 	mov	w3, w26
    590c:	2a1303e2 	mov	w2, w19
    5910:	aa1503e0 	mov	x0, x21
    5914:	52800601 	mov	w1, #0x30                  	// #48
    5918:	97fffacd 	bl	444c <pad>
    591c:	f9404be9 	ldr	x9, [sp, #144]
    5920:	2a1803e2 	mov	w2, w24
    5924:	aa1503e0 	mov	x0, x21
    5928:	52800004 	mov	w4, #0x0                   	// #0
    592c:	2a0903e3 	mov	w3, w9
    5930:	52800601 	mov	w1, #0x30                  	// #48
    5934:	f90043e9 	str	x9, [sp, #128]
    5938:	97fffac5 	bl	444c <pad>
    593c:	f94043e9 	ldr	x9, [sp, #128]
    5940:	aa1c03e1 	mov	x1, x28
    5944:	aa1503e0 	mov	x0, x21
    5948:	aa0903e2 	mov	x2, x9
    594c:	97fffab8 	bl	442c <out>
    5950:	52130364 	eor	w4, w27, #0x2000
    5954:	2a1a03e3 	mov	w3, w26
    5958:	2a1303e2 	mov	w2, w19
    595c:	aa1503e0 	mov	x0, x21
    5960:	52800401 	mov	w1, #0x20                  	// #32
    5964:	97fffaba 	bl	444c <pad>
    5968:	17fffe55 	b	52bc <printf_core+0x48>
    596c:	94000616 	bl	71c4 <__errno_location>
    5970:	b9400000 	ldr	w0, [x0]
    5974:	94000622 	bl	71fc <strerror>
    5978:	aa0003fc 	mov	x28, x0
    597c:	7100031f 	cmp	w24, #0x0
    5980:	12b00001 	mov	w1, #0x7fffffff            	// #2147483647
    5984:	1a81a301 	csel	w1, w24, w1, ge  // ge = tcont
    5988:	aa1c03e0 	mov	x0, x28
    598c:	93407c21 	sxtw	x1, w1
    5990:	940001e2 	bl	6118 <strnlen>
    5994:	8b000382 	add	x2, x28, x0
    5998:	36f80078 	tbz	w24, #31, 59a4 <printf_core+0x730>
    599c:	38606b81 	ldrb	w1, [x28, x0]
    59a0:	35000701 	cbnz	w1, 5a80 <printf_core+0x80c>
